
RoCC4x3Tester:     file format elf64-littleriscv


Disassembly of section .text:

00000000000100b0 <main>:
        arraysum += array[i];     
        printf("Array[%d] = %d, Sum is: %d\n", i,array[i], arraysum);
    }
}

int main () {
   100b0:	7139                	addi	sp,sp,-64
   100b2:	fc06                	sd	ra,56(sp)
   100b4:	f822                	sd	s0,48(sp)
   100b6:	f426                	sd	s1,40(sp)

    asm ("nop"); //Marking start of program
   100b8:	0001                	nop

    int ComputeLength = 100;
    int array1[] = {1,2,3,4,5,6};
   100ba:	67f1                	lui	a5,0x1c
   100bc:	53878793          	addi	a5,a5,1336 # 1c538 <__clzdi2+0xdc>
   100c0:	6798                	ld	a4,8(a5)
   100c2:	6394                	ld	a3,0(a5)
   100c4:	6b9c                	ld	a5,16(a5)
    printf("Starting program!\n");
   100c6:	6571                	lui	a0,0x1c
   100c8:	4c050513          	addi	a0,a0,1216 # 1c4c0 <__clzdi2+0x64>
    int array1[] = {1,2,3,4,5,6};
   100cc:	e436                	sd	a3,8(sp)
   100ce:	e83a                	sd	a4,16(sp)
   100d0:	ec3e                	sd	a5,24(sp)
    
    array_gen(ComputeLength,array1);
   100d2:	0020                	addi	s0,sp,8
    printf("Starting program!\n");
   100d4:	6ca000ef          	jal	ra,1079e <puts>
    array_gen(ComputeLength,array1);
   100d8:	85a2                	mv	a1,s0
   100da:	06400513          	li	a0,100
   100de:	466000ef          	jal	ra,10544 <array_gen>

    int sum = 0;

    printf("Addresses: array1: %p, sum has the value: %d with address: %p \n", &array1,sum,&sum);
   100e2:	0044                	addi	s1,sp,4
   100e4:	6571                	lui	a0,0x1c
   100e6:	86a6                	mv	a3,s1
   100e8:	4601                	li	a2,0
   100ea:	85a2                	mv	a1,s0
   100ec:	4d850513          	addi	a0,a0,1240 # 1c4d8 <__clzdi2+0x7c>
    int sum = 0;
   100f0:	c202                	sw	zero,4(sp)
    printf("Addresses: array1: %p, sum has the value: %d with address: %p \n", &array1,sum,&sum);
   100f2:	600000ef          	jal	ra,106f2 <printf>

    asm volatile ("fence");
   100f6:	0ff0000f          	fence

    asm("nop"); //Marking start of configuration
   100fa:	0001                	nop

    // Send the config first
    send_config();
   100fc:	0ec000ef          	jal	ra,101e8 <send_config>

    // Send the first input and output address
    ROCC_INSTRUCTION_SS(0,&array1,&sum,1); 
   10100:	0294300b          	0x294300b

    asm("nop"); //Marking the starting of computation
   10104:	0001                	nop
    
    // Send the array length. This need to be the same for array1 and array2 in this configuration
    // This will also start the calculation
    ROCC_INSTRUCTION_SS(0,ComputeLength,0,3);
   10106:	06400793          	li	a5,100
   1010a:	4701                	li	a4,0
   1010c:	06e7b00b          	0x6e7b00b

    asm("nop"); //Marking end of computatio
   10110:	0001                	nop

    // if not here, the Sum will not be available to CPU (Datarace)
    ROCC_INSTRUCTION_SS(0,&array1, &sum,1);
   10112:	0294300b          	0x294300b

    asm volatile ("fence" ::: "memory");
   10116:	0ff0000f          	fence

    printf("Program Done! Sum is: %d\n", sum);
   1011a:	4592                	lw	a1,4(sp)
   1011c:	6571                	lui	a0,0x1c
   1011e:	51850513          	addi	a0,a0,1304 # 1c518 <__clzdi2+0xbc>
   10122:	5d0000ef          	jal	ra,106f2 <printf>
    return 0;
   10126:	70e2                	ld	ra,56(sp)
   10128:	7442                	ld	s0,48(sp)
   1012a:	74a2                	ld	s1,40(sp)
   1012c:	4501                	li	a0,0
   1012e:	6121                	addi	sp,sp,64
   10130:	8082                	ret

0000000000010132 <register_fini>:
   10132:	ffff0797          	auipc	a5,0xffff0
   10136:	ece78793          	addi	a5,a5,-306 # 0 <main-0x100b0>
   1013a:	c799                	beqz	a5,10148 <register_fini+0x16>
   1013c:	00003517          	auipc	a0,0x3
   10140:	9f050513          	addi	a0,a0,-1552 # 12b2c <__libc_fini_array>
   10144:	21d0906f          	j	19b60 <atexit>
   10148:	8082                	ret

000000000001014a <_start>:
   1014a:	0000f197          	auipc	gp,0xf
   1014e:	b6618193          	addi	gp,gp,-1178 # 1ecb0 <__global_pointer$>
   10152:	77018513          	addi	a0,gp,1904 # 1f420 <_edata>
   10156:	0000f617          	auipc	a2,0xf
   1015a:	35a60613          	addi	a2,a2,858 # 1f4b0 <__BSS_END__>
   1015e:	8e09                	sub	a2,a2,a0
   10160:	4581                	li	a1,0
   10162:	4c4000ef          	jal	ra,10626 <memset>
   10166:	0000a517          	auipc	a0,0xa
   1016a:	9fa50513          	addi	a0,a0,-1542 # 19b60 <atexit>
   1016e:	c519                	beqz	a0,1017c <_start+0x32>
   10170:	00003517          	auipc	a0,0x3
   10174:	9bc50513          	addi	a0,a0,-1604 # 12b2c <__libc_fini_array>
   10178:	1e9090ef          	jal	ra,19b60 <atexit>
   1017c:	440000ef          	jal	ra,105bc <__libc_init_array>
   10180:	4502                	lw	a0,0(sp)
   10182:	002c                	addi	a1,sp,8
   10184:	4601                	li	a2,0
   10186:	f2bff0ef          	jal	ra,100b0 <main>
   1018a:	a911                	j	1059e <exit>

000000000001018c <__do_global_dtors_aux>:
   1018c:	79818793          	addi	a5,gp,1944 # 1f448 <completed.5527>
   10190:	0007c703          	lbu	a4,0(a5)
   10194:	eb0d                	bnez	a4,101c6 <__do_global_dtors_aux+0x3a>
   10196:	1141                	addi	sp,sp,-16
   10198:	e022                	sd	s0,0(sp)
   1019a:	e406                	sd	ra,8(sp)
   1019c:	843e                	mv	s0,a5
   1019e:	ffff0797          	auipc	a5,0xffff0
   101a2:	e6278793          	addi	a5,a5,-414 # 0 <main-0x100b0>
   101a6:	cb89                	beqz	a5,101b8 <__do_global_dtors_aux+0x2c>
   101a8:	0000e517          	auipc	a0,0xe
   101ac:	0a050513          	addi	a0,a0,160 # 1e248 <__FRAME_END__>
   101b0:	00000097          	auipc	ra,0x0
   101b4:	000000e7          	jalr	zero # 0 <main-0x100b0>
   101b8:	4785                	li	a5,1
   101ba:	60a2                	ld	ra,8(sp)
   101bc:	00f40023          	sb	a5,0(s0)
   101c0:	6402                	ld	s0,0(sp)
   101c2:	0141                	addi	sp,sp,16
   101c4:	8082                	ret
   101c6:	8082                	ret

00000000000101c8 <frame_dummy>:
   101c8:	ffff0797          	auipc	a5,0xffff0
   101cc:	e3878793          	addi	a5,a5,-456 # 0 <main-0x100b0>
   101d0:	cb99                	beqz	a5,101e6 <frame_dummy+0x1e>
   101d2:	7a018593          	addi	a1,gp,1952 # 1f450 <object.5532>
   101d6:	0000e517          	auipc	a0,0xe
   101da:	07250513          	addi	a0,a0,114 # 1e248 <__FRAME_END__>
   101de:	00000317          	auipc	t1,0x0
   101e2:	00000067          	jr	zero # 0 <main-0x100b0>
   101e6:	8082                	ret

00000000000101e8 <send_config>:
            config1 = config1 | cgra_configuration[i+(8*k)];
   101e8:	67f9                	lui	a5,0x1e
   101ea:	26878793          	addi	a5,a5,616 # 1e268 <__fini_array_end>
   101ee:	0007c583          	lbu	a1,0(a5)
            config2 = config2 | cgra_configuration[i+(8*k)+8];
   101f2:	0087c603          	lbu	a2,8(a5)
            config1 = config1 | cgra_configuration[i+(8*k)];
   101f6:	0017c683          	lbu	a3,1(a5)
            config2 = config2 | cgra_configuration[i+(8*k)+8];
   101fa:	0097c703          	lbu	a4,9(a5)
            config1 = config1 | cgra_configuration[i+(8*k)];
   101fe:	0027c803          	lbu	a6,2(a5)
            config2 = config2 | cgra_configuration[i+(8*k)+8];
   10202:	00a7c503          	lbu	a0,10(a5)
            config1 = config1 << 8;
   10206:	05a2                	slli	a1,a1,0x8
            config2 = config2 << 8;
   10208:	0622                	slli	a2,a2,0x8
            config1 = config1 | cgra_configuration[i+(8*k)];
   1020a:	8ecd                	or	a3,a3,a1
            config2 = config2 | cgra_configuration[i+(8*k)+8];
   1020c:	8f51                	or	a4,a4,a2
            config1 = config1 | cgra_configuration[i+(8*k)];
   1020e:	0037c583          	lbu	a1,3(a5)
            config2 = config2 | cgra_configuration[i+(8*k)+8];
   10212:	00b7c603          	lbu	a2,11(a5)
            config1 = config1 << 8;
   10216:	06a2                	slli	a3,a3,0x8
            config2 = config2 << 8;
   10218:	0722                	slli	a4,a4,0x8
            config1 = config1 | cgra_configuration[i+(8*k)];
   1021a:	00d86833          	or	a6,a6,a3
            config2 = config2 | cgra_configuration[i+(8*k)+8];
   1021e:	8d59                	or	a0,a0,a4
            config1 = config1 | cgra_configuration[i+(8*k)];
   10220:	0047c683          	lbu	a3,4(a5)
            config2 = config2 | cgra_configuration[i+(8*k)+8];
   10224:	00c7c703          	lbu	a4,12(a5)
            config1 = config1 << 8;
   10228:	0822                	slli	a6,a6,0x8
            config2 = config2 << 8;
   1022a:	0522                	slli	a0,a0,0x8
            config1 = config1 | cgra_configuration[i+(8*k)];
   1022c:	0105e5b3          	or	a1,a1,a6
            config2 = config2 | cgra_configuration[i+(8*k)+8];
   10230:	8e49                	or	a2,a2,a0
            config1 = config1 | cgra_configuration[i+(8*k)];
   10232:	0057c803          	lbu	a6,5(a5)
            config2 = config2 | cgra_configuration[i+(8*k)+8];
   10236:	00d7c503          	lbu	a0,13(a5)
            config1 = config1 << 8;
   1023a:	05a2                	slli	a1,a1,0x8
            config2 = config2 << 8;
   1023c:	0622                	slli	a2,a2,0x8
            config1 = config1 | cgra_configuration[i+(8*k)];
   1023e:	8ecd                	or	a3,a3,a1
            config2 = config2 | cgra_configuration[i+(8*k)+8];
   10240:	8f51                	or	a4,a4,a2
            config1 = config1 | cgra_configuration[i+(8*k)];
   10242:	0067c583          	lbu	a1,6(a5)
            config2 = config2 | cgra_configuration[i+(8*k)+8];
   10246:	00e7c603          	lbu	a2,14(a5)
            config1 = config1 << 8;
   1024a:	06a2                	slli	a3,a3,0x8
            config2 = config2 << 8;
   1024c:	0722                	slli	a4,a4,0x8
            config1 = config1 | cgra_configuration[i+(8*k)];
   1024e:	00d86833          	or	a6,a6,a3
            config2 = config2 | cgra_configuration[i+(8*k)+8];
   10252:	8d59                	or	a0,a0,a4
            config1 = config1 | cgra_configuration[i+(8*k)];
   10254:	0077c683          	lbu	a3,7(a5)
            config2 = config2 | cgra_configuration[i+(8*k)+8];
   10258:	00f7c703          	lbu	a4,15(a5)
            config1 = config1 << 8;
   1025c:	0822                	slli	a6,a6,0x8
            config2 = config2 << 8;
   1025e:	0522                	slli	a0,a0,0x8
            config1 = config1 | cgra_configuration[i+(8*k)];
   10260:	0105e5b3          	or	a1,a1,a6
            config2 = config2 | cgra_configuration[i+(8*k)+8];
   10264:	8e49                	or	a2,a2,a0
            config1 = config1 << 8;
   10266:	05a2                	slli	a1,a1,0x8
            config2 = config2 << 8;
   10268:	0622                	slli	a2,a2,0x8
            config1 = config1 | cgra_configuration[i+(8*k)];
   1026a:	8ecd                	or	a3,a3,a1
            config2 = config2 | cgra_configuration[i+(8*k)+8];
   1026c:	8f51                	or	a4,a4,a2
        ROCC_INSTRUCTION_SS(0,config1, config2, 0);
   1026e:	00e6b00b          	0xe6b00b
            config1 = config1 | cgra_configuration[i+(8*k)];
   10272:	0107c803          	lbu	a6,16(a5)
            config2 = config2 | cgra_configuration[i+(8*k)+8];
   10276:	0187c503          	lbu	a0,24(a5)
            config1 = config1 | cgra_configuration[i+(8*k)];
   1027a:	0117c583          	lbu	a1,17(a5)
            config2 = config2 | cgra_configuration[i+(8*k)+8];
   1027e:	0197c603          	lbu	a2,25(a5)
            config1 = config1 << 8;
   10282:	06a2                	slli	a3,a3,0x8
            config2 = config2 << 8;
   10284:	0722                	slli	a4,a4,0x8
            config1 = config1 | cgra_configuration[i+(8*k)];
   10286:	00d866b3          	or	a3,a6,a3
            config2 = config2 | cgra_configuration[i+(8*k)+8];
   1028a:	8f49                	or	a4,a4,a0
            config1 = config1 | cgra_configuration[i+(8*k)];
   1028c:	0127c803          	lbu	a6,18(a5)
            config2 = config2 | cgra_configuration[i+(8*k)+8];
   10290:	01a7c503          	lbu	a0,26(a5)
            config1 = config1 << 8;
   10294:	06a2                	slli	a3,a3,0x8
            config2 = config2 << 8;
   10296:	0722                	slli	a4,a4,0x8
            config1 = config1 | cgra_configuration[i+(8*k)];
   10298:	8ecd                	or	a3,a3,a1
            config2 = config2 | cgra_configuration[i+(8*k)+8];
   1029a:	8f51                	or	a4,a4,a2
            config1 = config1 | cgra_configuration[i+(8*k)];
   1029c:	0137c583          	lbu	a1,19(a5)
            config2 = config2 | cgra_configuration[i+(8*k)+8];
   102a0:	01b7c603          	lbu	a2,27(a5)
            config1 = config1 << 8;
   102a4:	06a2                	slli	a3,a3,0x8
            config2 = config2 << 8;
   102a6:	0722                	slli	a4,a4,0x8
            config1 = config1 | cgra_configuration[i+(8*k)];
   102a8:	00d86833          	or	a6,a6,a3
            config2 = config2 | cgra_configuration[i+(8*k)+8];
   102ac:	8d59                	or	a0,a0,a4
            config1 = config1 | cgra_configuration[i+(8*k)];
   102ae:	0147c683          	lbu	a3,20(a5)
            config2 = config2 | cgra_configuration[i+(8*k)+8];
   102b2:	01c7c703          	lbu	a4,28(a5)
            config1 = config1 << 8;
   102b6:	0822                	slli	a6,a6,0x8
            config2 = config2 << 8;
   102b8:	0522                	slli	a0,a0,0x8
            config1 = config1 | cgra_configuration[i+(8*k)];
   102ba:	0105e5b3          	or	a1,a1,a6
            config2 = config2 | cgra_configuration[i+(8*k)+8];
   102be:	8e49                	or	a2,a2,a0
            config1 = config1 | cgra_configuration[i+(8*k)];
   102c0:	0157c803          	lbu	a6,21(a5)
            config2 = config2 | cgra_configuration[i+(8*k)+8];
   102c4:	01d7c503          	lbu	a0,29(a5)
            config1 = config1 << 8;
   102c8:	05a2                	slli	a1,a1,0x8
            config2 = config2 << 8;
   102ca:	0622                	slli	a2,a2,0x8
            config1 = config1 | cgra_configuration[i+(8*k)];
   102cc:	8ecd                	or	a3,a3,a1
            config2 = config2 | cgra_configuration[i+(8*k)+8];
   102ce:	8f51                	or	a4,a4,a2
            config1 = config1 | cgra_configuration[i+(8*k)];
   102d0:	0167c583          	lbu	a1,22(a5)
            config2 = config2 | cgra_configuration[i+(8*k)+8];
   102d4:	01e7c603          	lbu	a2,30(a5)
            config1 = config1 << 8;
   102d8:	06a2                	slli	a3,a3,0x8
            config2 = config2 << 8;
   102da:	0722                	slli	a4,a4,0x8
            config1 = config1 | cgra_configuration[i+(8*k)];
   102dc:	00d86833          	or	a6,a6,a3
            config2 = config2 | cgra_configuration[i+(8*k)+8];
   102e0:	8d59                	or	a0,a0,a4
            config1 = config1 | cgra_configuration[i+(8*k)];
   102e2:	0177c683          	lbu	a3,23(a5)
            config2 = config2 | cgra_configuration[i+(8*k)+8];
   102e6:	01f7c703          	lbu	a4,31(a5)
            config1 = config1 << 8;
   102ea:	0822                	slli	a6,a6,0x8
            config2 = config2 << 8;
   102ec:	0522                	slli	a0,a0,0x8
            config1 = config1 | cgra_configuration[i+(8*k)];
   102ee:	0105e5b3          	or	a1,a1,a6
            config2 = config2 | cgra_configuration[i+(8*k)+8];
   102f2:	8e49                	or	a2,a2,a0
            config1 = config1 << 8;
   102f4:	05a2                	slli	a1,a1,0x8
            config2 = config2 << 8;
   102f6:	0622                	slli	a2,a2,0x8
            config1 = config1 | cgra_configuration[i+(8*k)];
   102f8:	8ecd                	or	a3,a3,a1
            config2 = config2 | cgra_configuration[i+(8*k)+8];
   102fa:	8f51                	or	a4,a4,a2
        ROCC_INSTRUCTION_SS(0,config1, config2, 0);
   102fc:	00e6b00b          	0xe6b00b
            config1 = config1 | cgra_configuration[i+(8*k)];
   10300:	0207c803          	lbu	a6,32(a5)
            config2 = config2 | cgra_configuration[i+(8*k)+8];
   10304:	0287c503          	lbu	a0,40(a5)
            config1 = config1 | cgra_configuration[i+(8*k)];
   10308:	0217c583          	lbu	a1,33(a5)
            config2 = config2 | cgra_configuration[i+(8*k)+8];
   1030c:	0297c603          	lbu	a2,41(a5)
            config1 = config1 << 8;
   10310:	06a2                	slli	a3,a3,0x8
            config2 = config2 << 8;
   10312:	0722                	slli	a4,a4,0x8
            config1 = config1 | cgra_configuration[i+(8*k)];
   10314:	00d866b3          	or	a3,a6,a3
            config2 = config2 | cgra_configuration[i+(8*k)+8];
   10318:	8f49                	or	a4,a4,a0
            config1 = config1 | cgra_configuration[i+(8*k)];
   1031a:	0227c803          	lbu	a6,34(a5)
            config2 = config2 | cgra_configuration[i+(8*k)+8];
   1031e:	02a7c503          	lbu	a0,42(a5)
            config1 = config1 << 8;
   10322:	06a2                	slli	a3,a3,0x8
            config2 = config2 << 8;
   10324:	0722                	slli	a4,a4,0x8
            config1 = config1 | cgra_configuration[i+(8*k)];
   10326:	8ecd                	or	a3,a3,a1
            config2 = config2 | cgra_configuration[i+(8*k)+8];
   10328:	8f51                	or	a4,a4,a2
            config1 = config1 | cgra_configuration[i+(8*k)];
   1032a:	0237c583          	lbu	a1,35(a5)
            config2 = config2 | cgra_configuration[i+(8*k)+8];
   1032e:	02b7c603          	lbu	a2,43(a5)
            config1 = config1 << 8;
   10332:	06a2                	slli	a3,a3,0x8
            config2 = config2 << 8;
   10334:	0722                	slli	a4,a4,0x8
            config1 = config1 | cgra_configuration[i+(8*k)];
   10336:	00d86833          	or	a6,a6,a3
            config2 = config2 | cgra_configuration[i+(8*k)+8];
   1033a:	8d59                	or	a0,a0,a4
            config1 = config1 | cgra_configuration[i+(8*k)];
   1033c:	0247c683          	lbu	a3,36(a5)
            config2 = config2 | cgra_configuration[i+(8*k)+8];
   10340:	02c7c703          	lbu	a4,44(a5)
            config1 = config1 << 8;
   10344:	0822                	slli	a6,a6,0x8
            config2 = config2 << 8;
   10346:	0522                	slli	a0,a0,0x8
            config1 = config1 | cgra_configuration[i+(8*k)];
   10348:	0105e5b3          	or	a1,a1,a6
            config2 = config2 | cgra_configuration[i+(8*k)+8];
   1034c:	8e49                	or	a2,a2,a0
            config1 = config1 | cgra_configuration[i+(8*k)];
   1034e:	0257c803          	lbu	a6,37(a5)
            config2 = config2 | cgra_configuration[i+(8*k)+8];
   10352:	02d7c503          	lbu	a0,45(a5)
            config1 = config1 << 8;
   10356:	05a2                	slli	a1,a1,0x8
            config2 = config2 << 8;
   10358:	0622                	slli	a2,a2,0x8
            config1 = config1 | cgra_configuration[i+(8*k)];
   1035a:	8ecd                	or	a3,a3,a1
            config2 = config2 | cgra_configuration[i+(8*k)+8];
   1035c:	8f51                	or	a4,a4,a2
            config1 = config1 | cgra_configuration[i+(8*k)];
   1035e:	0267c583          	lbu	a1,38(a5)
            config2 = config2 | cgra_configuration[i+(8*k)+8];
   10362:	02e7c603          	lbu	a2,46(a5)
            config1 = config1 << 8;
   10366:	06a2                	slli	a3,a3,0x8
            config2 = config2 << 8;
   10368:	0722                	slli	a4,a4,0x8
            config1 = config1 | cgra_configuration[i+(8*k)];
   1036a:	00d86833          	or	a6,a6,a3
            config2 = config2 | cgra_configuration[i+(8*k)+8];
   1036e:	8d59                	or	a0,a0,a4
            config1 = config1 | cgra_configuration[i+(8*k)];
   10370:	0277c683          	lbu	a3,39(a5)
            config2 = config2 | cgra_configuration[i+(8*k)+8];
   10374:	02f7c703          	lbu	a4,47(a5)
            config1 = config1 << 8;
   10378:	0822                	slli	a6,a6,0x8
            config2 = config2 << 8;
   1037a:	0522                	slli	a0,a0,0x8
            config1 = config1 | cgra_configuration[i+(8*k)];
   1037c:	0105e5b3          	or	a1,a1,a6
            config2 = config2 | cgra_configuration[i+(8*k)+8];
   10380:	8e49                	or	a2,a2,a0
            config1 = config1 << 8;
   10382:	05a2                	slli	a1,a1,0x8
            config2 = config2 << 8;
   10384:	0622                	slli	a2,a2,0x8
            config1 = config1 | cgra_configuration[i+(8*k)];
   10386:	8ecd                	or	a3,a3,a1
            config2 = config2 | cgra_configuration[i+(8*k)+8];
   10388:	8f51                	or	a4,a4,a2
        ROCC_INSTRUCTION_SS(0,config1, config2, 0);
   1038a:	00e6b00b          	0xe6b00b
            config1 = config1 | cgra_configuration[i+(8*k)];
   1038e:	0307c803          	lbu	a6,48(a5)
            config2 = config2 | cgra_configuration[i+(8*k)+8];
   10392:	0387c503          	lbu	a0,56(a5)
            config1 = config1 | cgra_configuration[i+(8*k)];
   10396:	0317c583          	lbu	a1,49(a5)
            config2 = config2 | cgra_configuration[i+(8*k)+8];
   1039a:	0397c603          	lbu	a2,57(a5)
            config1 = config1 << 8;
   1039e:	06a2                	slli	a3,a3,0x8
            config2 = config2 << 8;
   103a0:	0722                	slli	a4,a4,0x8
            config1 = config1 | cgra_configuration[i+(8*k)];
   103a2:	00d866b3          	or	a3,a6,a3
            config2 = config2 | cgra_configuration[i+(8*k)+8];
   103a6:	8f49                	or	a4,a4,a0
            config1 = config1 | cgra_configuration[i+(8*k)];
   103a8:	0327c803          	lbu	a6,50(a5)
            config2 = config2 | cgra_configuration[i+(8*k)+8];
   103ac:	03a7c503          	lbu	a0,58(a5)
            config1 = config1 << 8;
   103b0:	06a2                	slli	a3,a3,0x8
            config2 = config2 << 8;
   103b2:	0722                	slli	a4,a4,0x8
            config1 = config1 | cgra_configuration[i+(8*k)];
   103b4:	8ecd                	or	a3,a3,a1
            config2 = config2 | cgra_configuration[i+(8*k)+8];
   103b6:	8f51                	or	a4,a4,a2
            config1 = config1 | cgra_configuration[i+(8*k)];
   103b8:	0337c583          	lbu	a1,51(a5)
            config2 = config2 | cgra_configuration[i+(8*k)+8];
   103bc:	03b7c603          	lbu	a2,59(a5)
            config1 = config1 << 8;
   103c0:	06a2                	slli	a3,a3,0x8
            config2 = config2 << 8;
   103c2:	0722                	slli	a4,a4,0x8
            config1 = config1 | cgra_configuration[i+(8*k)];
   103c4:	00d86833          	or	a6,a6,a3
            config2 = config2 | cgra_configuration[i+(8*k)+8];
   103c8:	8d59                	or	a0,a0,a4
            config1 = config1 | cgra_configuration[i+(8*k)];
   103ca:	0347c683          	lbu	a3,52(a5)
            config2 = config2 | cgra_configuration[i+(8*k)+8];
   103ce:	03c7c703          	lbu	a4,60(a5)
            config1 = config1 << 8;
   103d2:	0822                	slli	a6,a6,0x8
            config2 = config2 << 8;
   103d4:	0522                	slli	a0,a0,0x8
            config1 = config1 | cgra_configuration[i+(8*k)];
   103d6:	0105e5b3          	or	a1,a1,a6
            config2 = config2 | cgra_configuration[i+(8*k)+8];
   103da:	8e49                	or	a2,a2,a0
            config1 = config1 | cgra_configuration[i+(8*k)];
   103dc:	0357c803          	lbu	a6,53(a5)
            config2 = config2 | cgra_configuration[i+(8*k)+8];
   103e0:	03d7c503          	lbu	a0,61(a5)
            config1 = config1 << 8;
   103e4:	05a2                	slli	a1,a1,0x8
            config2 = config2 << 8;
   103e6:	0622                	slli	a2,a2,0x8
            config1 = config1 | cgra_configuration[i+(8*k)];
   103e8:	8ecd                	or	a3,a3,a1
            config2 = config2 | cgra_configuration[i+(8*k)+8];
   103ea:	8f51                	or	a4,a4,a2
            config1 = config1 | cgra_configuration[i+(8*k)];
   103ec:	0367c583          	lbu	a1,54(a5)
            config2 = config2 | cgra_configuration[i+(8*k)+8];
   103f0:	03e7c603          	lbu	a2,62(a5)
            config1 = config1 << 8;
   103f4:	06a2                	slli	a3,a3,0x8
            config2 = config2 << 8;
   103f6:	0722                	slli	a4,a4,0x8
            config1 = config1 | cgra_configuration[i+(8*k)];
   103f8:	00d86833          	or	a6,a6,a3
            config2 = config2 | cgra_configuration[i+(8*k)+8];
   103fc:	8d59                	or	a0,a0,a4
            config1 = config1 | cgra_configuration[i+(8*k)];
   103fe:	0377c683          	lbu	a3,55(a5)
            config2 = config2 | cgra_configuration[i+(8*k)+8];
   10402:	03f7c703          	lbu	a4,63(a5)
            config1 = config1 << 8;
   10406:	0822                	slli	a6,a6,0x8
            config2 = config2 << 8;
   10408:	0522                	slli	a0,a0,0x8
            config1 = config1 | cgra_configuration[i+(8*k)];
   1040a:	0105e5b3          	or	a1,a1,a6
            config2 = config2 | cgra_configuration[i+(8*k)+8];
   1040e:	8e49                	or	a2,a2,a0
            config1 = config1 << 8;
   10410:	05a2                	slli	a1,a1,0x8
            config2 = config2 << 8;
   10412:	0622                	slli	a2,a2,0x8
            config1 = config1 | cgra_configuration[i+(8*k)];
   10414:	8ecd                	or	a3,a3,a1
            config2 = config2 | cgra_configuration[i+(8*k)+8];
   10416:	8f51                	or	a4,a4,a2
        ROCC_INSTRUCTION_SS(0,config1, config2, 0);
   10418:	00e6b00b          	0xe6b00b
            config1 = config1 | cgra_configuration[i+(8*k)];
   1041c:	0407c803          	lbu	a6,64(a5)
            config2 = config2 | cgra_configuration[i+(8*k)+8];
   10420:	0487c503          	lbu	a0,72(a5)
            config1 = config1 | cgra_configuration[i+(8*k)];
   10424:	0417c583          	lbu	a1,65(a5)
            config2 = config2 | cgra_configuration[i+(8*k)+8];
   10428:	0497c603          	lbu	a2,73(a5)
            config1 = config1 << 8;
   1042c:	06a2                	slli	a3,a3,0x8
            config2 = config2 << 8;
   1042e:	0722                	slli	a4,a4,0x8
            config1 = config1 | cgra_configuration[i+(8*k)];
   10430:	00d866b3          	or	a3,a6,a3
            config2 = config2 | cgra_configuration[i+(8*k)+8];
   10434:	8f49                	or	a4,a4,a0
            config1 = config1 | cgra_configuration[i+(8*k)];
   10436:	0427c803          	lbu	a6,66(a5)
            config2 = config2 | cgra_configuration[i+(8*k)+8];
   1043a:	04a7c503          	lbu	a0,74(a5)
            config1 = config1 << 8;
   1043e:	06a2                	slli	a3,a3,0x8
            config2 = config2 << 8;
   10440:	0722                	slli	a4,a4,0x8
            config1 = config1 | cgra_configuration[i+(8*k)];
   10442:	8ecd                	or	a3,a3,a1
            config2 = config2 | cgra_configuration[i+(8*k)+8];
   10444:	8f51                	or	a4,a4,a2
            config1 = config1 | cgra_configuration[i+(8*k)];
   10446:	0437c583          	lbu	a1,67(a5)
            config2 = config2 | cgra_configuration[i+(8*k)+8];
   1044a:	04b7c603          	lbu	a2,75(a5)
            config1 = config1 << 8;
   1044e:	06a2                	slli	a3,a3,0x8
            config2 = config2 << 8;
   10450:	0722                	slli	a4,a4,0x8
            config1 = config1 | cgra_configuration[i+(8*k)];
   10452:	00d86833          	or	a6,a6,a3
            config2 = config2 | cgra_configuration[i+(8*k)+8];
   10456:	8d59                	or	a0,a0,a4
            config1 = config1 | cgra_configuration[i+(8*k)];
   10458:	0447c683          	lbu	a3,68(a5)
            config2 = config2 | cgra_configuration[i+(8*k)+8];
   1045c:	04c7c703          	lbu	a4,76(a5)
            config1 = config1 << 8;
   10460:	0822                	slli	a6,a6,0x8
            config2 = config2 << 8;
   10462:	0522                	slli	a0,a0,0x8
            config1 = config1 | cgra_configuration[i+(8*k)];
   10464:	0105e5b3          	or	a1,a1,a6
            config2 = config2 | cgra_configuration[i+(8*k)+8];
   10468:	8e49                	or	a2,a2,a0
            config1 = config1 | cgra_configuration[i+(8*k)];
   1046a:	0457c803          	lbu	a6,69(a5)
            config2 = config2 | cgra_configuration[i+(8*k)+8];
   1046e:	04d7c503          	lbu	a0,77(a5)
            config1 = config1 << 8;
   10472:	05a2                	slli	a1,a1,0x8
            config2 = config2 << 8;
   10474:	0622                	slli	a2,a2,0x8
            config1 = config1 | cgra_configuration[i+(8*k)];
   10476:	8ecd                	or	a3,a3,a1
            config2 = config2 | cgra_configuration[i+(8*k)+8];
   10478:	8f51                	or	a4,a4,a2
            config1 = config1 | cgra_configuration[i+(8*k)];
   1047a:	0467c583          	lbu	a1,70(a5)
            config2 = config2 | cgra_configuration[i+(8*k)+8];
   1047e:	04e7c603          	lbu	a2,78(a5)
            config1 = config1 << 8;
   10482:	06a2                	slli	a3,a3,0x8
            config2 = config2 << 8;
   10484:	0722                	slli	a4,a4,0x8
            config1 = config1 | cgra_configuration[i+(8*k)];
   10486:	00d86833          	or	a6,a6,a3
            config2 = config2 | cgra_configuration[i+(8*k)+8];
   1048a:	8d59                	or	a0,a0,a4
            config1 = config1 | cgra_configuration[i+(8*k)];
   1048c:	0477c683          	lbu	a3,71(a5)
            config2 = config2 | cgra_configuration[i+(8*k)+8];
   10490:	04f7c703          	lbu	a4,79(a5)
            config1 = config1 << 8;
   10494:	0822                	slli	a6,a6,0x8
            config2 = config2 << 8;
   10496:	0522                	slli	a0,a0,0x8
            config1 = config1 | cgra_configuration[i+(8*k)];
   10498:	0105e5b3          	or	a1,a1,a6
            config2 = config2 | cgra_configuration[i+(8*k)+8];
   1049c:	8e49                	or	a2,a2,a0
            config1 = config1 << 8;
   1049e:	05a2                	slli	a1,a1,0x8
            config2 = config2 << 8;
   104a0:	0622                	slli	a2,a2,0x8
            config1 = config1 | cgra_configuration[i+(8*k)];
   104a2:	8ecd                	or	a3,a3,a1
            config2 = config2 | cgra_configuration[i+(8*k)+8];
   104a4:	8f51                	or	a4,a4,a2
        ROCC_INSTRUCTION_SS(0,config1, config2, 0);
   104a6:	00e6b00b          	0xe6b00b
            config1 = config1 | cgra_configuration[i+(8*k)];
   104aa:	0507c583          	lbu	a1,80(a5)
            config2 = config2 | cgra_configuration[i+(8*k)+8];
   104ae:	0587c603          	lbu	a2,88(a5)
            config1 = config1 | cgra_configuration[i+(8*k)];
   104b2:	0517c803          	lbu	a6,81(a5)
            config2 = config2 | cgra_configuration[i+(8*k)+8];
   104b6:	0597c503          	lbu	a0,89(a5)
            config1 = config1 << 8;
   104ba:	06a2                	slli	a3,a3,0x8
            config2 = config2 << 8;
   104bc:	0722                	slli	a4,a4,0x8
            config1 = config1 | cgra_configuration[i+(8*k)];
   104be:	8ecd                	or	a3,a3,a1
            config2 = config2 | cgra_configuration[i+(8*k)+8];
   104c0:	8f51                	or	a4,a4,a2
            config1 = config1 | cgra_configuration[i+(8*k)];
   104c2:	0527c583          	lbu	a1,82(a5)
            config2 = config2 | cgra_configuration[i+(8*k)+8];
   104c6:	05a7c603          	lbu	a2,90(a5)
            config1 = config1 << 8;
   104ca:	06a2                	slli	a3,a3,0x8
            config2 = config2 << 8;
   104cc:	0722                	slli	a4,a4,0x8
            config1 = config1 | cgra_configuration[i+(8*k)];
   104ce:	00d86833          	or	a6,a6,a3
            config2 = config2 | cgra_configuration[i+(8*k)+8];
   104d2:	8d59                	or	a0,a0,a4
            config1 = config1 | cgra_configuration[i+(8*k)];
   104d4:	0537c683          	lbu	a3,83(a5)
            config2 = config2 | cgra_configuration[i+(8*k)+8];
   104d8:	05b7c703          	lbu	a4,91(a5)
            config1 = config1 << 8;
   104dc:	0822                	slli	a6,a6,0x8
            config2 = config2 << 8;
   104de:	0522                	slli	a0,a0,0x8
            config1 = config1 | cgra_configuration[i+(8*k)];
   104e0:	0105e5b3          	or	a1,a1,a6
            config2 = config2 | cgra_configuration[i+(8*k)+8];
   104e4:	8e49                	or	a2,a2,a0
            config1 = config1 | cgra_configuration[i+(8*k)];
   104e6:	0547c803          	lbu	a6,84(a5)
            config2 = config2 | cgra_configuration[i+(8*k)+8];
   104ea:	05c7c503          	lbu	a0,92(a5)
            config1 = config1 << 8;
   104ee:	05a2                	slli	a1,a1,0x8
            config2 = config2 << 8;
   104f0:	0622                	slli	a2,a2,0x8
            config1 = config1 | cgra_configuration[i+(8*k)];
   104f2:	8ecd                	or	a3,a3,a1
            config2 = config2 | cgra_configuration[i+(8*k)+8];
   104f4:	8f51                	or	a4,a4,a2
            config1 = config1 | cgra_configuration[i+(8*k)];
   104f6:	0557c583          	lbu	a1,85(a5)
            config2 = config2 | cgra_configuration[i+(8*k)+8];
   104fa:	05d7c603          	lbu	a2,93(a5)
            config1 = config1 << 8;
   104fe:	06a2                	slli	a3,a3,0x8
            config2 = config2 << 8;
   10500:	0722                	slli	a4,a4,0x8
            config1 = config1 | cgra_configuration[i+(8*k)];
   10502:	00d86833          	or	a6,a6,a3
            config2 = config2 | cgra_configuration[i+(8*k)+8];
   10506:	8d59                	or	a0,a0,a4
            config1 = config1 | cgra_configuration[i+(8*k)];
   10508:	0567c683          	lbu	a3,86(a5)
            config2 = config2 | cgra_configuration[i+(8*k)+8];
   1050c:	05e7c703          	lbu	a4,94(a5)
            config1 = config1 << 8;
   10510:	0822                	slli	a6,a6,0x8
            config2 = config2 << 8;
   10512:	0522                	slli	a0,a0,0x8
            config2 = config2 | cgra_configuration[i+(8*k)+8];
   10514:	8e49                	or	a2,a2,a0
            config1 = config1 | cgra_configuration[i+(8*k)];
   10516:	0105e5b3          	or	a1,a1,a6
   1051a:	0577c503          	lbu	a0,87(a5)
            config2 = config2 | cgra_configuration[i+(8*k)+8];
   1051e:	05f7c803          	lbu	a6,95(a5)
            config1 = config1 << 8;
   10522:	05a2                	slli	a1,a1,0x8
            config2 = config2 << 8;
   10524:	00861793          	slli	a5,a2,0x8
            config1 = config1 | cgra_configuration[i+(8*k)];
   10528:	8ecd                	or	a3,a3,a1
            config2 = config2 | cgra_configuration[i+(8*k)+8];
   1052a:	8fd9                	or	a5,a5,a4
            config2 = config2 << 8;
   1052c:	07a2                	slli	a5,a5,0x8
            config1 = config1 << 8;
   1052e:	00869713          	slli	a4,a3,0x8
            config1 = config1 | cgra_configuration[i+(8*k)];
   10532:	8f49                	or	a4,a4,a0
            config2 = config2 | cgra_configuration[i+(8*k)+8];
   10534:	00f867b3          	or	a5,a6,a5
        ROCC_INSTRUCTION_SS(0,config1, config2, 0);
   10538:	00f7300b          	0xf7300b
    printf("Config Sent!!\n");
   1053c:	6571                	lui	a0,0x1c
   1053e:	49050513          	addi	a0,a0,1168 # 1c490 <__clzdi2+0x34>
   10542:	acb1                	j	1079e <puts>

0000000000010544 <array_gen>:
    for(int i = 0; i< len; i++){
   10544:	04a05c63          	blez	a0,1059c <array_gen+0x58>
void array_gen(int len , int array[]){
   10548:	7139                	addi	sp,sp,-64
   1054a:	f822                	sd	s0,48(sp)
   1054c:	f426                	sd	s1,40(sp)
   1054e:	f04a                	sd	s2,32(sp)
   10550:	ec4e                	sd	s3,24(sp)
   10552:	e852                	sd	s4,16(sp)
   10554:	e456                	sd	s5,8(sp)
   10556:	fc06                	sd	ra,56(sp)
   10558:	89aa                	mv	s3,a0
   1055a:	84ae                	mv	s1,a1
    for(int i = 0; i< len; i++){
   1055c:	4401                	li	s0,0
    int arraysum = 0;
   1055e:	4901                	li	s2,0
   10560:	6af1                	lui	s5,0x1c
        array[i] = rand() % 100;
   10562:	06400a13          	li	s4,100
   10566:	24c000ef          	jal	ra,107b2 <rand>
   1056a:	0345663b          	remw	a2,a0,s4
        printf("Array[%d] = %d, Sum is: %d\n", i,array[i], arraysum);
   1056e:	85a2                	mv	a1,s0
   10570:	4a0a8513          	addi	a0,s5,1184 # 1c4a0 <__clzdi2+0x44>
    for(int i = 0; i< len; i++){
   10574:	2405                	addiw	s0,s0,1
   10576:	0491                	addi	s1,s1,4
        arraysum += array[i];     
   10578:	0126093b          	addw	s2,a2,s2
        printf("Array[%d] = %d, Sum is: %d\n", i,array[i], arraysum);
   1057c:	86ca                	mv	a3,s2
        array[i] = rand() % 100;
   1057e:	fec4ae23          	sw	a2,-4(s1)
        printf("Array[%d] = %d, Sum is: %d\n", i,array[i], arraysum);
   10582:	170000ef          	jal	ra,106f2 <printf>
    for(int i = 0; i< len; i++){
   10586:	fe8990e3          	bne	s3,s0,10566 <array_gen+0x22>
}
   1058a:	70e2                	ld	ra,56(sp)
   1058c:	7442                	ld	s0,48(sp)
   1058e:	74a2                	ld	s1,40(sp)
   10590:	7902                	ld	s2,32(sp)
   10592:	69e2                	ld	s3,24(sp)
   10594:	6a42                	ld	s4,16(sp)
   10596:	6aa2                	ld	s5,8(sp)
   10598:	6121                	addi	sp,sp,64
   1059a:	8082                	ret
   1059c:	8082                	ret

000000000001059e <exit>:
   1059e:	1141                	addi	sp,sp,-16
   105a0:	4581                	li	a1,0
   105a2:	e022                	sd	s0,0(sp)
   105a4:	e406                	sd	ra,8(sp)
   105a6:	842a                	mv	s0,a0
   105a8:	066020ef          	jal	ra,1260e <__call_exitprocs>
   105ac:	7481b503          	ld	a0,1864(gp) # 1f3f8 <_global_impure_ptr>
   105b0:	6d3c                	ld	a5,88(a0)
   105b2:	c391                	beqz	a5,105b6 <exit+0x18>
   105b4:	9782                	jalr	a5
   105b6:	8522                	mv	a0,s0
   105b8:	0d50a0ef          	jal	ra,1ae8c <_exit>

00000000000105bc <__libc_init_array>:
   105bc:	1101                	addi	sp,sp,-32
   105be:	e822                	sd	s0,16(sp)
   105c0:	e04a                	sd	s2,0(sp)
   105c2:	0000e417          	auipc	s0,0xe
   105c6:	c8a40413          	addi	s0,s0,-886 # 1e24c <__preinit_array_end>
   105ca:	0000e917          	auipc	s2,0xe
   105ce:	c8290913          	addi	s2,s2,-894 # 1e24c <__preinit_array_end>
   105d2:	40890933          	sub	s2,s2,s0
   105d6:	ec06                	sd	ra,24(sp)
   105d8:	e426                	sd	s1,8(sp)
   105da:	40395913          	srai	s2,s2,0x3
   105de:	00090963          	beqz	s2,105f0 <__libc_init_array+0x34>
   105e2:	4481                	li	s1,0
   105e4:	601c                	ld	a5,0(s0)
   105e6:	0485                	addi	s1,s1,1
   105e8:	0421                	addi	s0,s0,8
   105ea:	9782                	jalr	a5
   105ec:	fe991ce3          	bne	s2,s1,105e4 <__libc_init_array+0x28>
   105f0:	0000e417          	auipc	s0,0xe
   105f4:	c6040413          	addi	s0,s0,-928 # 1e250 <__init_array_start>
   105f8:	0000e917          	auipc	s2,0xe
   105fc:	c6890913          	addi	s2,s2,-920 # 1e260 <__init_array_end>
   10600:	40890933          	sub	s2,s2,s0
   10604:	40395913          	srai	s2,s2,0x3
   10608:	00090963          	beqz	s2,1061a <__libc_init_array+0x5e>
   1060c:	4481                	li	s1,0
   1060e:	601c                	ld	a5,0(s0)
   10610:	0485                	addi	s1,s1,1
   10612:	0421                	addi	s0,s0,8
   10614:	9782                	jalr	a5
   10616:	fe991ce3          	bne	s2,s1,1060e <__libc_init_array+0x52>
   1061a:	60e2                	ld	ra,24(sp)
   1061c:	6442                	ld	s0,16(sp)
   1061e:	64a2                	ld	s1,8(sp)
   10620:	6902                	ld	s2,0(sp)
   10622:	6105                	addi	sp,sp,32
   10624:	8082                	ret

0000000000010626 <memset>:
   10626:	433d                	li	t1,15
   10628:	872a                	mv	a4,a0
   1062a:	02c37163          	bgeu	t1,a2,1064c <memset+0x26>
   1062e:	00f77793          	andi	a5,a4,15
   10632:	e3c1                	bnez	a5,106b2 <memset+0x8c>
   10634:	e1bd                	bnez	a1,1069a <memset+0x74>
   10636:	ff067693          	andi	a3,a2,-16
   1063a:	8a3d                	andi	a2,a2,15
   1063c:	96ba                	add	a3,a3,a4
   1063e:	e30c                	sd	a1,0(a4)
   10640:	e70c                	sd	a1,8(a4)
   10642:	0741                	addi	a4,a4,16
   10644:	fed76de3          	bltu	a4,a3,1063e <memset+0x18>
   10648:	e211                	bnez	a2,1064c <memset+0x26>
   1064a:	8082                	ret
   1064c:	40c306b3          	sub	a3,t1,a2
   10650:	068a                	slli	a3,a3,0x2
   10652:	00000297          	auipc	t0,0x0
   10656:	9696                	add	a3,a3,t0
   10658:	00a68067          	jr	10(a3)
   1065c:	00b70723          	sb	a1,14(a4)
   10660:	00b706a3          	sb	a1,13(a4)
   10664:	00b70623          	sb	a1,12(a4)
   10668:	00b705a3          	sb	a1,11(a4)
   1066c:	00b70523          	sb	a1,10(a4)
   10670:	00b704a3          	sb	a1,9(a4)
   10674:	00b70423          	sb	a1,8(a4)
   10678:	00b703a3          	sb	a1,7(a4)
   1067c:	00b70323          	sb	a1,6(a4)
   10680:	00b702a3          	sb	a1,5(a4)
   10684:	00b70223          	sb	a1,4(a4)
   10688:	00b701a3          	sb	a1,3(a4)
   1068c:	00b70123          	sb	a1,2(a4)
   10690:	00b700a3          	sb	a1,1(a4)
   10694:	00b70023          	sb	a1,0(a4)
   10698:	8082                	ret
   1069a:	0ff5f593          	andi	a1,a1,255
   1069e:	00859693          	slli	a3,a1,0x8
   106a2:	8dd5                	or	a1,a1,a3
   106a4:	01059693          	slli	a3,a1,0x10
   106a8:	8dd5                	or	a1,a1,a3
   106aa:	02059693          	slli	a3,a1,0x20
   106ae:	8dd5                	or	a1,a1,a3
   106b0:	b759                	j	10636 <memset+0x10>
   106b2:	00279693          	slli	a3,a5,0x2
   106b6:	00000297          	auipc	t0,0x0
   106ba:	9696                	add	a3,a3,t0
   106bc:	8286                	mv	t0,ra
   106be:	fa2680e7          	jalr	-94(a3)
   106c2:	8096                	mv	ra,t0
   106c4:	17c1                	addi	a5,a5,-16
   106c6:	8f1d                	sub	a4,a4,a5
   106c8:	963e                	add	a2,a2,a5
   106ca:	f8c371e3          	bgeu	t1,a2,1064c <memset+0x26>
   106ce:	b79d                	j	10634 <memset+0xe>

00000000000106d0 <_printf_r>:
   106d0:	715d                	addi	sp,sp,-80
   106d2:	f032                	sd	a2,32(sp)
   106d4:	f436                	sd	a3,40(sp)
   106d6:	f83a                	sd	a4,48(sp)
   106d8:	fc3e                	sd	a5,56(sp)
   106da:	e0c2                	sd	a6,64(sp)
   106dc:	e4c6                	sd	a7,72(sp)
   106de:	862e                	mv	a2,a1
   106e0:	690c                	ld	a1,16(a0)
   106e2:	1014                	addi	a3,sp,32
   106e4:	ec06                	sd	ra,24(sp)
   106e6:	e436                	sd	a3,8(sp)
   106e8:	17c000ef          	jal	ra,10864 <_vfprintf_r>
   106ec:	60e2                	ld	ra,24(sp)
   106ee:	6161                	addi	sp,sp,80
   106f0:	8082                	ret

00000000000106f2 <printf>:
   106f2:	711d                	addi	sp,sp,-96
   106f4:	f832                	sd	a2,48(sp)
   106f6:	fc36                	sd	a3,56(sp)
   106f8:	7581b303          	ld	t1,1880(gp) # 1f408 <_impure_ptr>
   106fc:	f42e                	sd	a1,40(sp)
   106fe:	e0ba                	sd	a4,64(sp)
   10700:	e4be                	sd	a5,72(sp)
   10702:	e8c2                	sd	a6,80(sp)
   10704:	ecc6                	sd	a7,88(sp)
   10706:	01033583          	ld	a1,16(t1) # 101ee <send_config+0x6>
   1070a:	1034                	addi	a3,sp,40
   1070c:	862a                	mv	a2,a0
   1070e:	851a                	mv	a0,t1
   10710:	ec06                	sd	ra,24(sp)
   10712:	e436                	sd	a3,8(sp)
   10714:	150000ef          	jal	ra,10864 <_vfprintf_r>
   10718:	60e2                	ld	ra,24(sp)
   1071a:	6125                	addi	sp,sp,96
   1071c:	8082                	ret

000000000001071e <_puts_r>:
   1071e:	7159                	addi	sp,sp,-112
   10720:	f0a2                	sd	s0,96(sp)
   10722:	842a                	mv	s0,a0
   10724:	852e                	mv	a0,a1
   10726:	eca6                	sd	s1,88(sp)
   10728:	f486                	sd	ra,104(sp)
   1072a:	84ae                	mv	s1,a1
   1072c:	0a4000ef          	jal	ra,107d0 <strlen>
   10730:	00150713          	addi	a4,a0,1
   10734:	0000c697          	auipc	a3,0xc
   10738:	dfc68693          	addi	a3,a3,-516 # 1c530 <__clzdi2+0xd4>
   1073c:	f43a                	sd	a4,40(sp)
   1073e:	483c                	lw	a5,80(s0)
   10740:	1818                	addi	a4,sp,48
   10742:	e0b6                	sd	a3,64(sp)
   10744:	ec3a                	sd	a4,24(sp)
   10746:	4685                	li	a3,1
   10748:	4709                	li	a4,2
   1074a:	f826                	sd	s1,48(sp)
   1074c:	fc2a                	sd	a0,56(sp)
   1074e:	e4b6                	sd	a3,72(sp)
   10750:	d03a                	sw	a4,32(sp)
   10752:	680c                	ld	a1,16(s0)
   10754:	cf8d                	beqz	a5,1078e <_puts_r+0x70>
   10756:	01059783          	lh	a5,16(a1)
   1075a:	03279713          	slli	a4,a5,0x32
   1075e:	00074d63          	bltz	a4,10778 <_puts_r+0x5a>
   10762:	0ac5a703          	lw	a4,172(a1)
   10766:	6689                	lui	a3,0x2
   10768:	8fd5                	or	a5,a5,a3
   1076a:	76f9                	lui	a3,0xffffe
   1076c:	16fd                	addi	a3,a3,-1
   1076e:	8f75                	and	a4,a4,a3
   10770:	00f59823          	sh	a5,16(a1)
   10774:	0ae5a623          	sw	a4,172(a1)
   10778:	0830                	addi	a2,sp,24
   1077a:	8522                	mv	a0,s0
   1077c:	70e020ef          	jal	ra,12e8a <__sfvwrite_r>
   10780:	ed09                	bnez	a0,1079a <_puts_r+0x7c>
   10782:	4529                	li	a0,10
   10784:	70a6                	ld	ra,104(sp)
   10786:	7406                	ld	s0,96(sp)
   10788:	64e6                	ld	s1,88(sp)
   1078a:	6165                	addi	sp,sp,112
   1078c:	8082                	ret
   1078e:	8522                	mv	a0,s0
   10790:	e42e                	sd	a1,8(sp)
   10792:	36e020ef          	jal	ra,12b00 <__sinit>
   10796:	65a2                	ld	a1,8(sp)
   10798:	bf7d                	j	10756 <_puts_r+0x38>
   1079a:	557d                	li	a0,-1
   1079c:	b7e5                	j	10784 <_puts_r+0x66>

000000000001079e <puts>:
   1079e:	85aa                	mv	a1,a0
   107a0:	7581b503          	ld	a0,1880(gp) # 1f408 <_impure_ptr>
   107a4:	bfad                	j	1071e <_puts_r>

00000000000107a6 <srand>:
   107a6:	1502                	slli	a0,a0,0x20
   107a8:	9101                	srli	a0,a0,0x20
   107aa:	7581b783          	ld	a5,1880(gp) # 1f408 <_impure_ptr>
   107ae:	f7e8                	sd	a0,232(a5)
   107b0:	8082                	ret

00000000000107b2 <rand>:
   107b2:	7581b703          	ld	a4,1880(gp) # 1f408 <_impure_ptr>
   107b6:	777c                	ld	a5,232(a4)
   107b8:	0000f697          	auipc	a3,0xf
   107bc:	c086b683          	ld	a3,-1016(a3) # 1f3c0 <__SDATA_BEGIN__>
   107c0:	02d787b3          	mul	a5,a5,a3
   107c4:	0785                	addi	a5,a5,1
   107c6:	00179513          	slli	a0,a5,0x1
   107ca:	f77c                	sd	a5,232(a4)
   107cc:	9105                	srli	a0,a0,0x21
   107ce:	8082                	ret

00000000000107d0 <strlen>:
   107d0:	00757793          	andi	a5,a0,7
   107d4:	872a                	mv	a4,a0
   107d6:	ebb9                	bnez	a5,1082c <strlen+0x5c>
   107d8:	0000f697          	auipc	a3,0xf
   107dc:	bf06b683          	ld	a3,-1040(a3) # 1f3c8 <mask>
   107e0:	55fd                	li	a1,-1
   107e2:	6310                	ld	a2,0(a4)
   107e4:	0721                	addi	a4,a4,8
   107e6:	00d677b3          	and	a5,a2,a3
   107ea:	97b6                	add	a5,a5,a3
   107ec:	8fd1                	or	a5,a5,a2
   107ee:	8fd5                	or	a5,a5,a3
   107f0:	feb789e3          	beq	a5,a1,107e2 <strlen+0x12>
   107f4:	ff874683          	lbu	a3,-8(a4)
   107f8:	40a707b3          	sub	a5,a4,a0
   107fc:	c6a9                	beqz	a3,10846 <strlen+0x76>
   107fe:	ff974683          	lbu	a3,-7(a4)
   10802:	ce9d                	beqz	a3,10840 <strlen+0x70>
   10804:	ffa74683          	lbu	a3,-6(a4)
   10808:	c6a9                	beqz	a3,10852 <strlen+0x82>
   1080a:	ffb74683          	lbu	a3,-5(a4)
   1080e:	ce9d                	beqz	a3,1084c <strlen+0x7c>
   10810:	ffc74683          	lbu	a3,-4(a4)
   10814:	ffd74603          	lbu	a2,-3(a4)
   10818:	ffe74503          	lbu	a0,-2(a4)
   1081c:	ce95                	beqz	a3,10858 <strlen+0x88>
   1081e:	c221                	beqz	a2,1085e <strlen+0x8e>
   10820:	00a03533          	snez	a0,a0
   10824:	953e                	add	a0,a0,a5
   10826:	1579                	addi	a0,a0,-2
   10828:	8082                	ret
   1082a:	d6dd                	beqz	a3,107d8 <strlen+0x8>
   1082c:	00074783          	lbu	a5,0(a4)
   10830:	0705                	addi	a4,a4,1
   10832:	00777693          	andi	a3,a4,7
   10836:	fbf5                	bnez	a5,1082a <strlen+0x5a>
   10838:	8f09                	sub	a4,a4,a0
   1083a:	fff70513          	addi	a0,a4,-1
   1083e:	8082                	ret
   10840:	ff978513          	addi	a0,a5,-7
   10844:	8082                	ret
   10846:	ff878513          	addi	a0,a5,-8
   1084a:	8082                	ret
   1084c:	ffb78513          	addi	a0,a5,-5
   10850:	8082                	ret
   10852:	ffa78513          	addi	a0,a5,-6
   10856:	8082                	ret
   10858:	ffc78513          	addi	a0,a5,-4
   1085c:	8082                	ret
   1085e:	ffd78513          	addi	a0,a5,-3
   10862:	8082                	ret

0000000000010864 <_vfprintf_r>:
   10864:	d8010113          	addi	sp,sp,-640
   10868:	26113c23          	sd	ra,632(sp)
   1086c:	25413823          	sd	s4,592(sp)
   10870:	25513423          	sd	s5,584(sp)
   10874:	23913423          	sd	s9,552(sp)
   10878:	8a2e                	mv	s4,a1
   1087a:	8cb2                	mv	s9,a2
   1087c:	e836                	sd	a3,16(sp)
   1087e:	26813823          	sd	s0,624(sp)
   10882:	26913423          	sd	s1,616(sp)
   10886:	27213023          	sd	s2,608(sp)
   1088a:	25313c23          	sd	s3,600(sp)
   1088e:	25613023          	sd	s6,576(sp)
   10892:	23713c23          	sd	s7,568(sp)
   10896:	23813823          	sd	s8,560(sp)
   1089a:	23a13023          	sd	s10,544(sp)
   1089e:	21b13c23          	sd	s11,536(sp)
   108a2:	8aaa                	mv	s5,a0
   108a4:	2cd040ef          	jal	ra,15370 <_localeconv_r>
   108a8:	611c                	ld	a5,0(a0)
   108aa:	853e                	mv	a0,a5
   108ac:	fcbe                	sd	a5,120(sp)
   108ae:	f23ff0ef          	jal	ra,107d0 <strlen>
   108b2:	f8aa                	sd	a0,112(sp)
   108b4:	e202                	sd	zero,256(sp)
   108b6:	e602                	sd	zero,264(sp)
   108b8:	000a8663          	beqz	s5,108c4 <_vfprintf_r+0x60>
   108bc:	050aa783          	lw	a5,80(s5)
   108c0:	70078063          	beqz	a5,10fc0 <_vfprintf_r+0x75c>
   108c4:	010a1703          	lh	a4,16(s4)
   108c8:	03071793          	slli	a5,a4,0x30
   108cc:	03271693          	slli	a3,a4,0x32
   108d0:	93c1                	srli	a5,a5,0x30
   108d2:	0006cf63          	bltz	a3,108f0 <_vfprintf_r+0x8c>
   108d6:	0aca2683          	lw	a3,172(s4)
   108da:	6789                	lui	a5,0x2
   108dc:	8fd9                	or	a5,a5,a4
   108de:	7779                	lui	a4,0xffffe
   108e0:	177d                	addi	a4,a4,-1
   108e2:	8f75                	and	a4,a4,a3
   108e4:	00fa1823          	sh	a5,16(s4)
   108e8:	17c2                	slli	a5,a5,0x30
   108ea:	0aea2623          	sw	a4,172(s4)
   108ee:	93c1                	srli	a5,a5,0x30
   108f0:	0087f713          	andi	a4,a5,8
   108f4:	26070463          	beqz	a4,10b5c <_vfprintf_r+0x2f8>
   108f8:	018a3703          	ld	a4,24(s4)
   108fc:	26070063          	beqz	a4,10b5c <_vfprintf_r+0x2f8>
   10900:	8be9                	andi	a5,a5,26
   10902:	4729                	li	a4,10
   10904:	26e78963          	beq	a5,a4,10b76 <_vfprintf_r+0x312>
   10908:	000cc783          	lbu	a5,0(s9)
   1090c:	19010b93          	addi	s7,sp,400
   10910:	ea5e                	sd	s7,272(sp)
   10912:	f202                	sd	zero,288(sp)
   10914:	10012c23          	sw	zero,280(sp)
   10918:	f002                	sd	zero,32(sp)
   1091a:	f402                	sd	zero,40(sp)
   1091c:	e102                	sd	zero,128(sp)
   1091e:	f482                	sd	zero,104(sp)
   10920:	e502                	sd	zero,136(sp)
   10922:	e902                	sd	zero,144(sp)
   10924:	e002                	sd	zero,0(sp)
   10926:	835e                	mv	t1,s7
   10928:	4d41                	li	s10,16
   1092a:	0000c917          	auipc	s2,0xc
   1092e:	e0690913          	addi	s2,s2,-506 # 1c730 <zeroes.4521>
   10932:	1c078663          	beqz	a5,10afe <_vfprintf_r+0x29a>
   10936:	8466                	mv	s0,s9
   10938:	02500713          	li	a4,37
   1093c:	30e78463          	beq	a5,a4,10c44 <_vfprintf_r+0x3e0>
   10940:	00144783          	lbu	a5,1(s0)
   10944:	0405                	addi	s0,s0,1
   10946:	fbfd                	bnez	a5,1093c <_vfprintf_r+0xd8>
   10948:	419404bb          	subw	s1,s0,s9
   1094c:	1a048963          	beqz	s1,10afe <_vfprintf_r+0x29a>
   10950:	7712                	ld	a4,288(sp)
   10952:	11812783          	lw	a5,280(sp)
   10956:	01933023          	sd	s9,0(t1)
   1095a:	9726                	add	a4,a4,s1
   1095c:	2785                	addiw	a5,a5,1
   1095e:	00933423          	sd	s1,8(t1)
   10962:	f23a                	sd	a4,288(sp)
   10964:	10f12c23          	sw	a5,280(sp)
   10968:	0007871b          	sext.w	a4,a5
   1096c:	479d                	li	a5,7
   1096e:	0341                	addi	t1,t1,16
   10970:	2ee7c163          	blt	a5,a4,10c52 <_vfprintf_r+0x3ee>
   10974:	6702                	ld	a4,0(sp)
   10976:	00044783          	lbu	a5,0(s0)
   1097a:	9f25                	addw	a4,a4,s1
   1097c:	e03a                	sd	a4,0(sp)
   1097e:	18078063          	beqz	a5,10afe <_vfprintf_r+0x29a>
   10982:	00144f03          	lbu	t5,1(s0)
   10986:	0c010fa3          	sb	zero,223(sp)
   1098a:	0405                	addi	s0,s0,1
   1098c:	5efd                	li	t4,-1
   1098e:	4b01                	li	s6,0
   10990:	4481                	li	s1,0
   10992:	49a5                	li	s3,9
   10994:	02a00c13          	li	s8,42
   10998:	0405                	addi	s0,s0,1
   1099a:	000f0d9b          	sext.w	s11,t5
   1099e:	05a00693          	li	a3,90
   109a2:	fe0d879b          	addiw	a5,s11,-32
   109a6:	0007871b          	sext.w	a4,a5
   109aa:	04e6e663          	bltu	a3,a4,109f6 <_vfprintf_r+0x192>
   109ae:	1782                	slli	a5,a5,0x20
   109b0:	0000c717          	auipc	a4,0xc
   109b4:	c0070713          	addi	a4,a4,-1024 # 1c5b0 <__clzdi2+0x154>
   109b8:	83f9                	srli	a5,a5,0x1e
   109ba:	97ba                	add	a5,a5,a4
   109bc:	439c                	lw	a5,0(a5)
   109be:	97ba                	add	a5,a5,a4
   109c0:	8782                	jr	a5
   109c2:	4b01                	li	s6,0
   109c4:	00044703          	lbu	a4,0(s0)
   109c8:	002b179b          	slliw	a5,s6,0x2
   109cc:	01678b3b          	addw	s6,a5,s6
   109d0:	fd0d8f1b          	addiw	t5,s11,-48
   109d4:	001b1b1b          	slliw	s6,s6,0x1
   109d8:	fd07079b          	addiw	a5,a4,-48
   109dc:	0405                	addi	s0,s0,1
   109de:	016f0b3b          	addw	s6,t5,s6
   109e2:	00070d9b          	sext.w	s11,a4
   109e6:	fcf9ffe3          	bgeu	s3,a5,109c4 <_vfprintf_r+0x160>
   109ea:	fe0d879b          	addiw	a5,s11,-32
   109ee:	0007871b          	sext.w	a4,a5
   109f2:	fae6fee3          	bgeu	a3,a4,109ae <_vfprintf_r+0x14a>
   109f6:	100d8463          	beqz	s11,10afe <_vfprintf_r+0x29a>
   109fa:	13b10423          	sb	s11,296(sp)
   109fe:	0c010fa3          	sb	zero,223(sp)
   10a02:	4985                	li	s3,1
   10a04:	4c05                	li	s8,1
   10a06:	12810c93          	addi	s9,sp,296
   10a0a:	ec02                	sd	zero,24(sp)
   10a0c:	4e81                	li	t4,0
   10a0e:	e882                	sd	zero,80(sp)
   10a10:	f082                	sd	zero,96(sp)
   10a12:	ec82                	sd	zero,88(sp)
   10a14:	0024f793          	andi	a5,s1,2
   10a18:	0007829b          	sext.w	t0,a5
   10a1c:	c391                	beqz	a5,10a20 <_vfprintf_r+0x1bc>
   10a1e:	2989                	addiw	s3,s3,2
   10a20:	0844ff93          	andi	t6,s1,132
   10a24:	7792                	ld	a5,288(sp)
   10a26:	000f9663          	bnez	t6,10a32 <_vfprintf_r+0x1ce>
   10a2a:	413b06bb          	subw	a3,s6,s3
   10a2e:	2cd046e3          	bgtz	a3,114fa <_vfprintf_r+0xc96>
   10a32:	0df14703          	lbu	a4,223(sp)
   10a36:	c70d                	beqz	a4,10a60 <_vfprintf_r+0x1fc>
   10a38:	11812703          	lw	a4,280(sp)
   10a3c:	0df10693          	addi	a3,sp,223
   10a40:	00d33023          	sd	a3,0(t1)
   10a44:	2705                	addiw	a4,a4,1
   10a46:	4685                	li	a3,1
   10a48:	0785                	addi	a5,a5,1
   10a4a:	00d33423          	sd	a3,8(t1)
   10a4e:	10e12c23          	sw	a4,280(sp)
   10a52:	0007069b          	sext.w	a3,a4
   10a56:	f23e                	sd	a5,288(sp)
   10a58:	471d                	li	a4,7
   10a5a:	0341                	addi	t1,t1,16
   10a5c:	42d74863          	blt	a4,a3,10e8c <_vfprintf_r+0x628>
   10a60:	02028563          	beqz	t0,10a8a <_vfprintf_r+0x226>
   10a64:	11812703          	lw	a4,280(sp)
   10a68:	1194                	addi	a3,sp,224
   10a6a:	00d33023          	sd	a3,0(t1)
   10a6e:	2705                	addiw	a4,a4,1
   10a70:	4689                	li	a3,2
   10a72:	0789                	addi	a5,a5,2
   10a74:	00d33423          	sd	a3,8(t1)
   10a78:	10e12c23          	sw	a4,280(sp)
   10a7c:	0007069b          	sext.w	a3,a4
   10a80:	f23e                	sd	a5,288(sp)
   10a82:	471d                	li	a4,7
   10a84:	0341                	addi	t1,t1,16
   10a86:	30d74ce3          	blt	a4,a3,1159e <_vfprintf_r+0xd3a>
   10a8a:	08000713          	li	a4,128
   10a8e:	06ef81e3          	beq	t6,a4,112f0 <_vfprintf_r+0xa8c>
   10a92:	418e8ebb          	subw	t4,t4,s8
   10a96:	0fd043e3          	bgtz	t4,1137c <_vfprintf_r+0xb18>
   10a9a:	1004f713          	andi	a4,s1,256
   10a9e:	78071663          	bnez	a4,1122a <_vfprintf_r+0x9c6>
   10aa2:	11812703          	lw	a4,280(sp)
   10aa6:	97e2                	add	a5,a5,s8
   10aa8:	01933023          	sd	s9,0(t1)
   10aac:	0017069b          	addiw	a3,a4,1
   10ab0:	8736                	mv	a4,a3
   10ab2:	01833423          	sd	s8,8(t1)
   10ab6:	10e12c23          	sw	a4,280(sp)
   10aba:	f23e                	sd	a5,288(sp)
   10abc:	471d                	li	a4,7
   10abe:	44d74963          	blt	a4,a3,10f10 <_vfprintf_r+0x6ac>
   10ac2:	0341                	addi	t1,t1,16
   10ac4:	8891                	andi	s1,s1,4
   10ac6:	c489                	beqz	s1,10ad0 <_vfprintf_r+0x26c>
   10ac8:	413b04bb          	subw	s1,s6,s3
   10acc:	2e9048e3          	bgtz	s1,115bc <_vfprintf_r+0xd58>
   10ad0:	875a                	mv	a4,s6
   10ad2:	013b5363          	bge	s6,s3,10ad8 <_vfprintf_r+0x274>
   10ad6:	874e                	mv	a4,s3
   10ad8:	6682                	ld	a3,0(sp)
   10ada:	9f35                	addw	a4,a4,a3
   10adc:	e03a                	sd	a4,0(sp)
   10ade:	10079ce3          	bnez	a5,113f6 <_vfprintf_r+0xb92>
   10ae2:	67e2                	ld	a5,24(sp)
   10ae4:	10012c23          	sw	zero,280(sp)
   10ae8:	c789                	beqz	a5,10af2 <_vfprintf_r+0x28e>
   10aea:	65e2                	ld	a1,24(sp)
   10aec:	8556                	mv	a0,s5
   10aee:	14c020ef          	jal	ra,12c3a <_free_r>
   10af2:	835e                	mv	t1,s7
   10af4:	8ca2                	mv	s9,s0
   10af6:	000cc783          	lbu	a5,0(s9)
   10afa:	e2079ee3          	bnez	a5,10936 <_vfprintf_r+0xd2>
   10afe:	7792                	ld	a5,288(sp)
   10b00:	c399                	beqz	a5,10b06 <_vfprintf_r+0x2a2>
   10b02:	2de0106f          	j	11de0 <_vfprintf_r+0x157c>
   10b06:	010a5783          	lhu	a5,16(s4)
   10b0a:	0407f793          	andi	a5,a5,64
   10b0e:	c399                	beqz	a5,10b14 <_vfprintf_r+0x2b0>
   10b10:	67c0106f          	j	1218c <_vfprintf_r+0x1928>
   10b14:	27813083          	ld	ra,632(sp)
   10b18:	27013403          	ld	s0,624(sp)
   10b1c:	6502                	ld	a0,0(sp)
   10b1e:	26813483          	ld	s1,616(sp)
   10b22:	26013903          	ld	s2,608(sp)
   10b26:	25813983          	ld	s3,600(sp)
   10b2a:	25013a03          	ld	s4,592(sp)
   10b2e:	24813a83          	ld	s5,584(sp)
   10b32:	24013b03          	ld	s6,576(sp)
   10b36:	23813b83          	ld	s7,568(sp)
   10b3a:	23013c03          	ld	s8,560(sp)
   10b3e:	22813c83          	ld	s9,552(sp)
   10b42:	22013d03          	ld	s10,544(sp)
   10b46:	21813d83          	ld	s11,536(sp)
   10b4a:	28010113          	addi	sp,sp,640
   10b4e:	8082                	ret
   10b50:	0104e493          	ori	s1,s1,16
   10b54:	00044f03          	lbu	t5,0(s0)
   10b58:	2481                	sext.w	s1,s1
   10b5a:	bd3d                	j	10998 <_vfprintf_r+0x134>
   10b5c:	85d2                	mv	a1,s4
   10b5e:	8556                	mv	a0,s5
   10b60:	1c1010ef          	jal	ra,12520 <__swsetup_r>
   10b64:	c119                	beqz	a0,10b6a <_vfprintf_r+0x306>
   10b66:	6260106f          	j	1218c <_vfprintf_r+0x1928>
   10b6a:	010a5783          	lhu	a5,16(s4)
   10b6e:	4729                	li	a4,10
   10b70:	8be9                	andi	a5,a5,26
   10b72:	d8e79be3          	bne	a5,a4,10908 <_vfprintf_r+0xa4>
   10b76:	012a1783          	lh	a5,18(s4)
   10b7a:	d807c7e3          	bltz	a5,10908 <_vfprintf_r+0xa4>
   10b7e:	66c2                	ld	a3,16(sp)
   10b80:	8666                	mv	a2,s9
   10b82:	85d2                	mv	a1,s4
   10b84:	8556                	mv	a0,s5
   10b86:	107010ef          	jal	ra,1248c <__sbprintf>
   10b8a:	e02a                	sd	a0,0(sp)
   10b8c:	b761                	j	10b14 <_vfprintf_r+0x2b0>
   10b8e:	0104e493          	ori	s1,s1,16
   10b92:	2481                	sext.w	s1,s1
   10b94:	66c2                	ld	a3,16(sp)
   10b96:	0204f793          	andi	a5,s1,32
   10b9a:	00868713          	addi	a4,a3,8
   10b9e:	3a078263          	beqz	a5,10f42 <_vfprintf_r+0x6de>
   10ba2:	629c                	ld	a5,0(a3)
   10ba4:	89be                	mv	s3,a5
   10ba6:	3a07cc63          	bltz	a5,10f5e <_vfprintf_r+0x6fa>
   10baa:	57fd                	li	a5,-1
   10bac:	48fe87e3          	beq	t4,a5,1183a <_vfprintf_r+0xfd6>
   10bb0:	f7f4f493          	andi	s1,s1,-129
   10bb4:	e83a                	sd	a4,16(sp)
   10bb6:	0004881b          	sext.w	a6,s1
   10bba:	120993e3          	bnez	s3,114e0 <_vfprintf_r+0xc7c>
   10bbe:	120e94e3          	bnez	t4,114e6 <_vfprintf_r+0xc82>
   10bc2:	84c2                	mv	s1,a6
   10bc4:	4e81                	li	t4,0
   10bc6:	4c01                	li	s8,0
   10bc8:	18c10c93          	addi	s9,sp,396
   10bcc:	000c099b          	sext.w	s3,s8
   10bd0:	01dc5463          	bge	s8,t4,10bd8 <_vfprintf_r+0x374>
   10bd4:	000e899b          	sext.w	s3,t4
   10bd8:	0df14783          	lbu	a5,223(sp)
   10bdc:	ec02                	sd	zero,24(sp)
   10bde:	e882                	sd	zero,80(sp)
   10be0:	f082                	sd	zero,96(sp)
   10be2:	ec82                	sd	zero,88(sp)
   10be4:	e20788e3          	beqz	a5,10a14 <_vfprintf_r+0x1b0>
   10be8:	2985                	addiw	s3,s3,1
   10bea:	b52d                	j	10a14 <_vfprintf_r+0x1b0>
   10bec:	0104e493          	ori	s1,s1,16
   10bf0:	2481                	sext.w	s1,s1
   10bf2:	66c2                	ld	a3,16(sp)
   10bf4:	0204f793          	andi	a5,s1,32
   10bf8:	00868713          	addi	a4,a3,8
   10bfc:	32078463          	beqz	a5,10f24 <_vfprintf_r+0x6c0>
   10c00:	0006b983          	ld	s3,0(a3)
   10c04:	bff4f493          	andi	s1,s1,-1025
   10c08:	0004881b          	sext.w	a6,s1
   10c0c:	e83a                	sd	a4,16(sp)
   10c0e:	4781                	li	a5,0
   10c10:	0c010fa3          	sb	zero,223(sp)
   10c14:	577d                	li	a4,-1
   10c16:	36ee8063          	beq	t4,a4,10f76 <_vfprintf_r+0x712>
   10c1a:	f7f87493          	andi	s1,a6,-129
   10c1e:	2481                	sext.w	s1,s1
   10c20:	0a099ce3          	bnez	s3,114d8 <_vfprintf_r+0xc74>
   10c24:	5c0e9663          	bnez	t4,111f0 <_vfprintf_r+0x98c>
   10c28:	ffd1                	bnez	a5,10bc4 <_vfprintf_r+0x360>
   10c2a:	00187c13          	andi	s8,a6,1
   10c2e:	18c10c93          	addi	s9,sp,396
   10c32:	f80c0de3          	beqz	s8,10bcc <_vfprintf_r+0x368>
   10c36:	03000793          	li	a5,48
   10c3a:	18f105a3          	sb	a5,395(sp)
   10c3e:	18b10c93          	addi	s9,sp,395
   10c42:	b769                	j	10bcc <_vfprintf_r+0x368>
   10c44:	419404bb          	subw	s1,s0,s9
   10c48:	d00494e3          	bnez	s1,10950 <_vfprintf_r+0xec>
   10c4c:	00044783          	lbu	a5,0(s0)
   10c50:	b33d                	j	1097e <_vfprintf_r+0x11a>
   10c52:	0a10                	addi	a2,sp,272
   10c54:	85d2                	mv	a1,s4
   10c56:	8556                	mv	a0,s5
   10c58:	1c2080ef          	jal	ra,18e1a <__sprint_r>
   10c5c:	ea0515e3          	bnez	a0,10b06 <_vfprintf_r+0x2a2>
   10c60:	835e                	mv	t1,s7
   10c62:	bb09                	j	10974 <_vfprintf_r+0x110>
   10c64:	0084f793          	andi	a5,s1,8
   10c68:	3a079ee3          	bnez	a5,11824 <_vfprintf_r+0xfc0>
   10c6c:	67c2                	ld	a5,16(sp)
   10c6e:	ec1a                	sd	t1,24(sp)
   10c70:	e476                	sd	t4,8(sp)
   10c72:	2388                	fld	fa0,0(a5)
   10c74:	00878693          	addi	a3,a5,8 # 2008 <main-0xe0a8>
   10c78:	e836                	sd	a3,16(sp)
   10c7a:	4f00b0ef          	jal	ra,1c16a <__extenddftf2>
   10c7e:	6362                	ld	t1,24(sp)
   10c80:	6ea2                	ld	t4,8(sp)
   10c82:	e22a                	sd	a0,256(sp)
   10c84:	e62e                	sd	a1,264(sp)
   10c86:	0208                	addi	a0,sp,256
   10c88:	ec1a                	sd	t1,24(sp)
   10c8a:	e476                	sd	t4,8(sp)
   10c8c:	6a8040ef          	jal	ra,15334 <_ldcheck>
   10c90:	d5aa                	sw	a0,232(sp)
   10c92:	4789                	li	a5,2
   10c94:	6ea2                	ld	t4,8(sp)
   10c96:	6362                	ld	t1,24(sp)
   10c98:	64f502e3          	beq	a0,a5,11adc <_vfprintf_r+0x1278>
   10c9c:	4785                	li	a5,1
   10c9e:	6ef50ee3          	beq	a0,a5,11b9a <_vfprintf_r+0x1336>
   10ca2:	06100793          	li	a5,97
   10ca6:	00fd9463          	bne	s11,a5,10cae <_vfprintf_r+0x44a>
   10caa:	5740106f          	j	1221e <_vfprintf_r+0x19ba>
   10cae:	04100793          	li	a5,65
   10cb2:	00fd9463          	bne	s11,a5,10cba <_vfprintf_r+0x456>
   10cb6:	1380106f          	j	11dee <_vfprintf_r+0x158a>
   10cba:	fdfdf713          	andi	a4,s11,-33
   10cbe:	57fd                	li	a5,-1
   10cc0:	f0ba                	sd	a4,96(sp)
   10cc2:	00fe9463          	bne	t4,a5,10cca <_vfprintf_r+0x466>
   10cc6:	6140106f          	j	122da <_vfprintf_r+0x1a76>
   10cca:	04700793          	li	a5,71
   10cce:	00f71463          	bne	a4,a5,10cd6 <_vfprintf_r+0x472>
   10cd2:	5c40106f          	j	12296 <_vfprintf_r+0x1a32>
   10cd6:	69b2                	ld	s3,264(sp)
   10cd8:	1004e793          	ori	a5,s1,256
   10cdc:	ed26                	sd	s1,152(sp)
   10cde:	6c12                	ld	s8,256(sp)
   10ce0:	2781                	sext.w	a5,a5
   10ce2:	0009d463          	bgez	s3,10cea <_vfprintf_r+0x486>
   10ce6:	67a0106f          	j	12360 <_vfprintf_r+0x1afc>
   10cea:	e582                	sd	zero,200(sp)
   10cec:	84be                	mv	s1,a5
   10cee:	ec02                	sd	zero,24(sp)
   10cf0:	2701                	sext.w	a4,a4
   10cf2:	04600793          	li	a5,70
   10cf6:	00f71463          	bne	a4,a5,10cfe <_vfprintf_r+0x49a>
   10cfa:	38a0106f          	j	12084 <_vfprintf_r+0x1820>
   10cfe:	7706                	ld	a4,96(sp)
   10d00:	04500793          	li	a5,69
   10d04:	00f70463          	beq	a4,a5,10d0c <_vfprintf_r+0x4a8>
   10d08:	33c0106f          	j	12044 <_vfprintf_r+0x17e0>
   10d0c:	001e871b          	addiw	a4,t4,1
   10d10:	0f810893          	addi	a7,sp,248
   10d14:	0ec10813          	addi	a6,sp,236
   10d18:	11bc                	addi	a5,sp,232
   10d1a:	4689                	li	a3,2
   10d1c:	85e2                	mv	a1,s8
   10d1e:	864e                	mv	a2,s3
   10d20:	8556                	mv	a0,s5
   10d22:	f81a                	sd	t1,48(sp)
   10d24:	f076                	sd	t4,32(sp)
   10d26:	e43a                	sd	a4,8(sp)
   10d28:	794030ef          	jal	ra,144bc <_ldtoa_r>
   10d2c:	6722                	ld	a4,8(sp)
   10d2e:	7e82                	ld	t4,32(sp)
   10d30:	7342                	ld	t1,48(sp)
   10d32:	8caa                	mv	s9,a0
   10d34:	00e508b3          	add	a7,a0,a4
   10d38:	4601                	li	a2,0
   10d3a:	4681                	li	a3,0
   10d3c:	8562                	mv	a0,s8
   10d3e:	85ce                	mv	a1,s3
   10d40:	f846                	sd	a7,48(sp)
   10d42:	f01a                	sd	t1,32(sp)
   10d44:	e476                	sd	t4,8(sp)
   10d46:	3400a0ef          	jal	ra,1b086 <__eqtf2>
   10d4a:	78c2                	ld	a7,48(sp)
   10d4c:	6ea2                	ld	t4,8(sp)
   10d4e:	7302                	ld	t1,32(sp)
   10d50:	87c6                	mv	a5,a7
   10d52:	cd11                	beqz	a0,10d6e <_vfprintf_r+0x50a>
   10d54:	77ee                	ld	a5,248(sp)
   10d56:	0117fc63          	bgeu	a5,a7,10d6e <_vfprintf_r+0x50a>
   10d5a:	03000693          	li	a3,48
   10d5e:	00178713          	addi	a4,a5,1
   10d62:	fdba                	sd	a4,248(sp)
   10d64:	00d78023          	sb	a3,0(a5)
   10d68:	77ee                	ld	a5,248(sp)
   10d6a:	ff17eae3          	bltu	a5,a7,10d5e <_vfprintf_r+0x4fa>
   10d6e:	419787bb          	subw	a5,a5,s9
   10d72:	f03e                	sd	a5,32(sp)
   10d74:	572e                	lw	a4,232(sp)
   10d76:	04700793          	li	a5,71
   10d7a:	ecba                	sd	a4,88(sp)
   10d7c:	7706                	ld	a4,96(sp)
   10d7e:	00f71463          	bne	a4,a5,10d86 <_vfprintf_r+0x522>
   10d82:	2200106f          	j	11fa2 <_vfprintf_r+0x173e>
   10d86:	7706                	ld	a4,96(sp)
   10d88:	04600793          	li	a5,70
   10d8c:	00f71463          	bne	a4,a5,10d94 <_vfprintf_r+0x530>
   10d90:	3c40106f          	j	12154 <_vfprintf_r+0x18f0>
   10d94:	67e6                	ld	a5,88(sp)
   10d96:	7586                	ld	a1,96(sp)
   10d98:	04100613          	li	a2,65
   10d9c:	37fd                	addiw	a5,a5,-1
   10d9e:	d5be                	sw	a5,232(sp)
   10da0:	0ffdf713          	andi	a4,s11,255
   10da4:	4681                	li	a3,0
   10da6:	00c59663          	bne	a1,a2,10db2 <_vfprintf_r+0x54e>
   10daa:	273d                	addiw	a4,a4,15
   10dac:	0ff77713          	andi	a4,a4,255
   10db0:	4685                	li	a3,1
   10db2:	0ee10823          	sb	a4,240(sp)
   10db6:	02b00713          	li	a4,43
   10dba:	0007d763          	bgez	a5,10dc8 <_vfprintf_r+0x564>
   10dbe:	6766                	ld	a4,88(sp)
   10dc0:	4785                	li	a5,1
   10dc2:	9f99                	subw	a5,a5,a4
   10dc4:	02d00713          	li	a4,45
   10dc8:	0ee108a3          	sb	a4,241(sp)
   10dcc:	4725                	li	a4,9
   10dce:	00f74463          	blt	a4,a5,10dd6 <_vfprintf_r+0x572>
   10dd2:	5e00106f          	j	123b2 <_vfprintf_r+0x1b4e>
   10dd6:	0ff10513          	addi	a0,sp,255
   10dda:	85aa                	mv	a1,a0
   10ddc:	46a9                	li	a3,10
   10dde:	06300e93          	li	t4,99
   10de2:	02d7e73b          	remw	a4,a5,a3
   10de6:	862e                	mv	a2,a1
   10de8:	88be                	mv	a7,a5
   10dea:	15fd                	addi	a1,a1,-1
   10dec:	0307071b          	addiw	a4,a4,48
   10df0:	fee60fa3          	sb	a4,-1(a2)
   10df4:	02d7c7bb          	divw	a5,a5,a3
   10df8:	ff1ec5e3          	blt	t4,a7,10de2 <_vfprintf_r+0x57e>
   10dfc:	0307879b          	addiw	a5,a5,48
   10e00:	0ff7f693          	andi	a3,a5,255
   10e04:	fed58fa3          	sb	a3,-1(a1)
   10e08:	ffe60793          	addi	a5,a2,-2
   10e0c:	00a7e463          	bltu	a5,a0,10e14 <_vfprintf_r+0x5b0>
   10e10:	6560106f          	j	12466 <_vfprintf_r+0x1c02>
   10e14:	0f210713          	addi	a4,sp,242
   10e18:	a019                	j	10e1e <_vfprintf_r+0x5ba>
   10e1a:	0007c683          	lbu	a3,0(a5)
   10e1e:	00d70023          	sb	a3,0(a4)
   10e22:	0785                	addi	a5,a5,1
   10e24:	0705                	addi	a4,a4,1
   10e26:	fea79ae3          	bne	a5,a0,10e1a <_vfprintf_r+0x5b6>
   10e2a:	10110793          	addi	a5,sp,257
   10e2e:	0f210713          	addi	a4,sp,242
   10e32:	8f91                	sub	a5,a5,a2
   10e34:	97ba                	add	a5,a5,a4
   10e36:	1998                	addi	a4,sp,240
   10e38:	9f99                	subw	a5,a5,a4
   10e3a:	e13e                	sd	a5,128(sp)
   10e3c:	678a                	ld	a5,128(sp)
   10e3e:	7682                	ld	a3,32(sp)
   10e40:	4705                	li	a4,1
   10e42:	00f68c3b          	addw	s8,a3,a5
   10e46:	87e2                	mv	a5,s8
   10e48:	00d74463          	blt	a4,a3,10e50 <_vfprintf_r+0x5ec>
   10e4c:	5a00106f          	j	123ec <_vfprintf_r+0x1b88>
   10e50:	7746                	ld	a4,112(sp)
   10e52:	00e78c3b          	addw	s8,a5,a4
   10e56:	67ea                	ld	a5,152(sp)
   10e58:	fffc4993          	not	s3,s8
   10e5c:	43f9d993          	srai	s3,s3,0x3f
   10e60:	bff7f493          	andi	s1,a5,-1025
   10e64:	2481                	sext.w	s1,s1
   10e66:	013c79b3          	and	s3,s8,s3
   10e6a:	1004e493          	ori	s1,s1,256
   10e6e:	2981                	sext.w	s3,s3
   10e70:	e882                	sd	zero,80(sp)
   10e72:	f082                	sd	zero,96(sp)
   10e74:	ec82                	sd	zero,88(sp)
   10e76:	67ae                	ld	a5,200(sp)
   10e78:	e399                	bnez	a5,10e7e <_vfprintf_r+0x61a>
   10e7a:	17e0106f          	j	11ff8 <_vfprintf_r+0x1794>
   10e7e:	02d00793          	li	a5,45
   10e82:	0cf10fa3          	sb	a5,223(sp)
   10e86:	4e81                	li	t4,0
   10e88:	2985                	addiw	s3,s3,1
   10e8a:	b669                	j	10a14 <_vfprintf_r+0x1b0>
   10e8c:	0a10                	addi	a2,sp,272
   10e8e:	85d2                	mv	a1,s4
   10e90:	8556                	mv	a0,s5
   10e92:	fc76                	sd	t4,56(sp)
   10e94:	f87e                	sd	t6,48(sp)
   10e96:	e416                	sd	t0,8(sp)
   10e98:	783070ef          	jal	ra,18e1a <__sprint_r>
   10e9c:	56051463          	bnez	a0,11404 <_vfprintf_r+0xba0>
   10ea0:	7792                	ld	a5,288(sp)
   10ea2:	7ee2                	ld	t4,56(sp)
   10ea4:	7fc2                	ld	t6,48(sp)
   10ea6:	62a2                	ld	t0,8(sp)
   10ea8:	835e                	mv	t1,s7
   10eaa:	be5d                	j	10a60 <_vfprintf_r+0x1fc>
   10eac:	76e6                	ld	a3,120(sp)
   10eae:	7746                	ld	a4,112(sp)
   10eb0:	0341                	addi	t1,t1,16
   10eb2:	fed33823          	sd	a3,-16(t1)
   10eb6:	11812683          	lw	a3,280(sp)
   10eba:	97ba                	add	a5,a5,a4
   10ebc:	fee33c23          	sd	a4,-8(t1)
   10ec0:	2685                	addiw	a3,a3,1
   10ec2:	0006871b          	sext.w	a4,a3
   10ec6:	10d12c23          	sw	a3,280(sp)
   10eca:	f23e                	sd	a5,288(sp)
   10ecc:	469d                	li	a3,7
   10ece:	00e6de63          	bge	a3,a4,10eea <_vfprintf_r+0x686>
   10ed2:	0a10                	addi	a2,sp,272
   10ed4:	85d2                	mv	a1,s4
   10ed6:	8556                	mv	a0,s5
   10ed8:	743070ef          	jal	ra,18e1a <__sprint_r>
   10edc:	52051463          	bnez	a0,11404 <_vfprintf_r+0xba0>
   10ee0:	562e                	lw	a2,232(sp)
   10ee2:	7792                	ld	a5,288(sp)
   10ee4:	11812703          	lw	a4,280(sp)
   10ee8:	835e                	mv	t1,s7
   10eea:	00065463          	bgez	a2,10ef2 <_vfprintf_r+0x68e>
   10eee:	2a60106f          	j	12194 <_vfprintf_r+0x1930>
   10ef2:	7682                	ld	a3,32(sp)
   10ef4:	2705                	addiw	a4,a4,1
   10ef6:	10e12c23          	sw	a4,280(sp)
   10efa:	97b6                	add	a5,a5,a3
   10efc:	00d33423          	sd	a3,8(t1)
   10f00:	01933023          	sd	s9,0(t1)
   10f04:	0007069b          	sext.w	a3,a4
   10f08:	f23e                	sd	a5,288(sp)
   10f0a:	471d                	li	a4,7
   10f0c:	bad75be3          	bge	a4,a3,10ac2 <_vfprintf_r+0x25e>
   10f10:	0a10                	addi	a2,sp,272
   10f12:	85d2                	mv	a1,s4
   10f14:	8556                	mv	a0,s5
   10f16:	705070ef          	jal	ra,18e1a <__sprint_r>
   10f1a:	4e051563          	bnez	a0,11404 <_vfprintf_r+0xba0>
   10f1e:	7792                	ld	a5,288(sp)
   10f20:	835e                	mv	t1,s7
   10f22:	b64d                	j	10ac4 <_vfprintf_r+0x260>
   10f24:	0104f793          	andi	a5,s1,16
   10f28:	0e0799e3          	bnez	a5,1181a <_vfprintf_r+0xfb6>
   10f2c:	66c2                	ld	a3,16(sp)
   10f2e:	0404f793          	andi	a5,s1,64
   10f32:	0006a983          	lw	s3,0(a3)
   10f36:	44078ae3          	beqz	a5,11b8a <_vfprintf_r+0x1326>
   10f3a:	19c2                	slli	s3,s3,0x30
   10f3c:	0309d993          	srli	s3,s3,0x30
   10f40:	b1d1                	j	10c04 <_vfprintf_r+0x3a0>
   10f42:	0104f793          	andi	a5,s1,16
   10f46:	0c0795e3          	bnez	a5,11810 <_vfprintf_r+0xfac>
   10f4a:	0404f793          	andi	a5,s1,64
   10f4e:	40078de3          	beqz	a5,11b68 <_vfprintf_r+0x1304>
   10f52:	67c2                	ld	a5,16(sp)
   10f54:	00079983          	lh	s3,0(a5)
   10f58:	87ce                	mv	a5,s3
   10f5a:	c407d8e3          	bgez	a5,10baa <_vfprintf_r+0x346>
   10f5e:	02d00793          	li	a5,45
   10f62:	0cf10fa3          	sb	a5,223(sp)
   10f66:	e83a                	sd	a4,16(sp)
   10f68:	577d                	li	a4,-1
   10f6a:	413009b3          	neg	s3,s3
   10f6e:	8826                	mv	a6,s1
   10f70:	4785                	li	a5,1
   10f72:	caee94e3          	bne	t4,a4,10c1a <_vfprintf_r+0x3b6>
   10f76:	4705                	li	a4,1
   10f78:	56e78463          	beq	a5,a4,114e0 <_vfprintf_r+0xc7c>
   10f7c:	4709                	li	a4,2
   10f7e:	28e78263          	beq	a5,a4,11202 <_vfprintf_r+0x99e>
   10f82:	18c10c13          	addi	s8,sp,396
   10f86:	8ce2                	mv	s9,s8
   10f88:	0079f793          	andi	a5,s3,7
   10f8c:	03078793          	addi	a5,a5,48
   10f90:	fefc8fa3          	sb	a5,-1(s9)
   10f94:	0039d993          	srli	s3,s3,0x3
   10f98:	8766                	mv	a4,s9
   10f9a:	1cfd                	addi	s9,s9,-1
   10f9c:	fe0996e3          	bnez	s3,10f88 <_vfprintf_r+0x724>
   10fa0:	00187693          	andi	a3,a6,1
   10fa4:	26068f63          	beqz	a3,11222 <_vfprintf_r+0x9be>
   10fa8:	03000693          	li	a3,48
   10fac:	26d78b63          	beq	a5,a3,11222 <_vfprintf_r+0x9be>
   10fb0:	1779                	addi	a4,a4,-2
   10fb2:	fedc8fa3          	sb	a3,-1(s9)
   10fb6:	40ec0c3b          	subw	s8,s8,a4
   10fba:	84c2                	mv	s1,a6
   10fbc:	8cba                	mv	s9,a4
   10fbe:	b139                	j	10bcc <_vfprintf_r+0x368>
   10fc0:	8556                	mv	a0,s5
   10fc2:	33f010ef          	jal	ra,12b00 <__sinit>
   10fc6:	b8fd                	j	108c4 <_vfprintf_r+0x60>
   10fc8:	67c2                	ld	a5,16(sp)
   10fca:	0c010fa3          	sb	zero,223(sp)
   10fce:	0007bc83          	ld	s9,0(a5)
   10fd2:	00878693          	addi	a3,a5,8
   10fd6:	1c0c85e3          	beqz	s9,119a0 <_vfprintf_r+0x113c>
   10fda:	57fd                	li	a5,-1
   10fdc:	34fe82e3          	beq	t4,a5,11b20 <_vfprintf_r+0x12bc>
   10fe0:	8676                	mv	a2,t4
   10fe2:	4581                	li	a1,0
   10fe4:	8566                	mv	a0,s9
   10fe6:	f836                	sd	a3,48(sp)
   10fe8:	e81a                	sd	t1,16(sp)
   10fea:	e476                	sd	t4,8(sp)
   10fec:	3a3040ef          	jal	ra,15b8e <memchr>
   10ff0:	ec2a                	sd	a0,24(sp)
   10ff2:	6ea2                	ld	t4,8(sp)
   10ff4:	6342                	ld	t1,16(sp)
   10ff6:	76c2                	ld	a3,48(sp)
   10ff8:	e119                	bnez	a0,10ffe <_vfprintf_r+0x79a>
   10ffa:	1120106f          	j	1210c <_vfprintf_r+0x18a8>
   10ffe:	67e2                	ld	a5,24(sp)
   11000:	e836                	sd	a3,16(sp)
   11002:	ec02                	sd	zero,24(sp)
   11004:	41978c3b          	subw	s8,a5,s9
   11008:	fffc4993          	not	s3,s8
   1100c:	0df14783          	lbu	a5,223(sp)
   11010:	43f9d993          	srai	s3,s3,0x3f
   11014:	013c79b3          	and	s3,s8,s3
   11018:	e882                	sd	zero,80(sp)
   1101a:	f082                	sd	zero,96(sp)
   1101c:	ec82                	sd	zero,88(sp)
   1101e:	2981                	sext.w	s3,s3
   11020:	4e81                	li	t4,0
   11022:	bc0793e3          	bnez	a5,10be8 <_vfprintf_r+0x384>
   11026:	b2fd                	j	10a14 <_vfprintf_r+0x1b0>
   11028:	6742                	ld	a4,16(sp)
   1102a:	0c010fa3          	sb	zero,223(sp)
   1102e:	4985                	li	s3,1
   11030:	431c                	lw	a5,0(a4)
   11032:	0721                	addi	a4,a4,8
   11034:	e83a                	sd	a4,16(sp)
   11036:	12f10423          	sb	a5,296(sp)
   1103a:	4c05                	li	s8,1
   1103c:	12810c93          	addi	s9,sp,296
   11040:	b2e9                	j	10a0a <_vfprintf_r+0x1a6>
   11042:	00044f03          	lbu	t5,0(s0)
   11046:	0044e493          	ori	s1,s1,4
   1104a:	2481                	sext.w	s1,s1
   1104c:	b2b1                	j	10998 <_vfprintf_r+0x134>
   1104e:	02b00793          	li	a5,43
   11052:	00044f03          	lbu	t5,0(s0)
   11056:	0cf10fa3          	sb	a5,223(sp)
   1105a:	ba3d                	j	10998 <_vfprintf_r+0x134>
   1105c:	0804e493          	ori	s1,s1,128
   11060:	00044f03          	lbu	t5,0(s0)
   11064:	2481                	sext.w	s1,s1
   11066:	ba0d                	j	10998 <_vfprintf_r+0x134>
   11068:	00044703          	lbu	a4,0(s0)
   1106c:	00140793          	addi	a5,s0,1
   11070:	00070d9b          	sext.w	s11,a4
   11074:	00ec1463          	bne	s8,a4,1107c <_vfprintf_r+0x818>
   11078:	3d20106f          	j	1244a <_vfprintf_r+0x1be6>
   1107c:	fd07071b          	addiw	a4,a4,-48
   11080:	843e                	mv	s0,a5
   11082:	4e81                	li	t4,0
   11084:	90e9efe3          	bltu	s3,a4,109a2 <_vfprintf_r+0x13e>
   11088:	00044d83          	lbu	s11,0(s0)
   1108c:	002e979b          	slliw	a5,t4,0x2
   11090:	01d78ebb          	addw	t4,a5,t4
   11094:	001e9e9b          	slliw	t4,t4,0x1
   11098:	00ee8ebb          	addw	t4,t4,a4
   1109c:	fd0d871b          	addiw	a4,s11,-48
   110a0:	0405                	addi	s0,s0,1
   110a2:	fee9f3e3          	bgeu	s3,a4,11088 <_vfprintf_r+0x824>
   110a6:	b8f5                	j	109a2 <_vfprintf_r+0x13e>
   110a8:	67c2                	ld	a5,16(sp)
   110aa:	00044f03          	lbu	t5,0(s0)
   110ae:	0007ab03          	lw	s6,0(a5)
   110b2:	07a1                	addi	a5,a5,8
   110b4:	e83e                	sd	a5,16(sp)
   110b6:	8e0b51e3          	bgez	s6,10998 <_vfprintf_r+0x134>
   110ba:	41600b3b          	negw	s6,s6
   110be:	b761                	j	11046 <_vfprintf_r+0x7e2>
   110c0:	8556                	mv	a0,s5
   110c2:	ec1a                	sd	t1,24(sp)
   110c4:	e476                	sd	t4,8(sp)
   110c6:	2aa040ef          	jal	ra,15370 <_localeconv_r>
   110ca:	651c                	ld	a5,8(a0)
   110cc:	853e                	mv	a0,a5
   110ce:	e93e                	sd	a5,144(sp)
   110d0:	f00ff0ef          	jal	ra,107d0 <strlen>
   110d4:	87aa                	mv	a5,a0
   110d6:	8556                	mv	a0,s5
   110d8:	8dbe                	mv	s11,a5
   110da:	e53e                	sd	a5,136(sp)
   110dc:	294040ef          	jal	ra,15370 <_localeconv_r>
   110e0:	6918                	ld	a4,16(a0)
   110e2:	6ea2                	ld	t4,8(sp)
   110e4:	6362                	ld	t1,24(sp)
   110e6:	f4ba                	sd	a4,104(sp)
   110e8:	00044f03          	lbu	t5,0(s0)
   110ec:	8a0d86e3          	beqz	s11,10998 <_vfprintf_r+0x134>
   110f0:	8a0704e3          	beqz	a4,10998 <_vfprintf_r+0x134>
   110f4:	00074783          	lbu	a5,0(a4)
   110f8:	8a0780e3          	beqz	a5,10998 <_vfprintf_r+0x134>
   110fc:	4004e493          	ori	s1,s1,1024
   11100:	2481                	sext.w	s1,s1
   11102:	b859                	j	10998 <_vfprintf_r+0x134>
   11104:	0014e493          	ori	s1,s1,1
   11108:	00044f03          	lbu	t5,0(s0)
   1110c:	2481                	sext.w	s1,s1
   1110e:	b069                	j	10998 <_vfprintf_r+0x134>
   11110:	0df14783          	lbu	a5,223(sp)
   11114:	00044f03          	lbu	t5,0(s0)
   11118:	880790e3          	bnez	a5,10998 <_vfprintf_r+0x134>
   1111c:	02000793          	li	a5,32
   11120:	0cf10fa3          	sb	a5,223(sp)
   11124:	b895                	j	10998 <_vfprintf_r+0x134>
   11126:	0084e493          	ori	s1,s1,8
   1112a:	00044f03          	lbu	t5,0(s0)
   1112e:	2481                	sext.w	s1,s1
   11130:	b0a5                	j	10998 <_vfprintf_r+0x134>
   11132:	0104e493          	ori	s1,s1,16
   11136:	0004881b          	sext.w	a6,s1
   1113a:	66c2                	ld	a3,16(sp)
   1113c:	02087793          	andi	a5,a6,32
   11140:	00868713          	addi	a4,a3,8
   11144:	68078463          	beqz	a5,117cc <_vfprintf_r+0xf68>
   11148:	0006b983          	ld	s3,0(a3)
   1114c:	4785                	li	a5,1
   1114e:	e83a                	sd	a4,16(sp)
   11150:	b4c1                	j	10c10 <_vfprintf_r+0x3ac>
   11152:	0204e493          	ori	s1,s1,32
   11156:	00044f03          	lbu	t5,0(s0)
   1115a:	2481                	sext.w	s1,s1
   1115c:	83dff06f          	j	10998 <_vfprintf_r+0x134>
   11160:	6742                	ld	a4,16(sp)
   11162:	77e1                	lui	a5,0xffff8
   11164:	8307c793          	xori	a5,a5,-2000
   11168:	0ef11023          	sh	a5,224(sp)
   1116c:	00870793          	addi	a5,a4,8
   11170:	0024e493          	ori	s1,s1,2
   11174:	e83e                	sd	a5,16(sp)
   11176:	0000b797          	auipc	a5,0xb
   1117a:	41278793          	addi	a5,a5,1042 # 1c588 <__clzdi2+0x12c>
   1117e:	f43e                	sd	a5,40(sp)
   11180:	00073983          	ld	s3,0(a4)
   11184:	0004881b          	sext.w	a6,s1
   11188:	4789                	li	a5,2
   1118a:	07800d93          	li	s11,120
   1118e:	b449                	j	10c10 <_vfprintf_r+0x3ac>
   11190:	66c2                	ld	a3,16(sp)
   11192:	0204f793          	andi	a5,s1,32
   11196:	6298                	ld	a4,0(a3)
   11198:	06a1                	addi	a3,a3,8
   1119a:	e836                	sd	a3,16(sp)
   1119c:	64079e63          	bnez	a5,117f8 <_vfprintf_r+0xf94>
   111a0:	0104f793          	andi	a5,s1,16
   111a4:	64079a63          	bnez	a5,117f8 <_vfprintf_r+0xf94>
   111a8:	0404f793          	andi	a5,s1,64
   111ac:	3e0799e3          	bnez	a5,11d9e <_vfprintf_r+0x153a>
   111b0:	2004f493          	andi	s1,s1,512
   111b4:	6782                	ld	a5,0(sp)
   111b6:	e099                	bnez	s1,111bc <_vfprintf_r+0x958>
   111b8:	1280106f          	j	122e0 <_vfprintf_r+0x1a7c>
   111bc:	00f70023          	sb	a5,0(a4)
   111c0:	8ca2                	mv	s9,s0
   111c2:	ba15                	j	10af6 <_vfprintf_r+0x292>
   111c4:	00044f03          	lbu	t5,0(s0)
   111c8:	06c00793          	li	a5,108
   111cc:	7aff0263          	beq	t5,a5,11970 <_vfprintf_r+0x110c>
   111d0:	0104e493          	ori	s1,s1,16
   111d4:	2481                	sext.w	s1,s1
   111d6:	fc2ff06f          	j	10998 <_vfprintf_r+0x134>
   111da:	00044f03          	lbu	t5,0(s0)
   111de:	06800793          	li	a5,104
   111e2:	76ff0f63          	beq	t5,a5,11960 <_vfprintf_r+0x10fc>
   111e6:	0404e493          	ori	s1,s1,64
   111ea:	2481                	sext.w	s1,s1
   111ec:	facff06f          	j	10998 <_vfprintf_r+0x134>
   111f0:	4705                	li	a4,1
   111f2:	00e79463          	bne	a5,a4,111fa <_vfprintf_r+0x996>
   111f6:	0220106f          	j	12218 <_vfprintf_r+0x19b4>
   111fa:	4709                	li	a4,2
   111fc:	8826                	mv	a6,s1
   111fe:	d8e792e3          	bne	a5,a4,10f82 <_vfprintf_r+0x71e>
   11202:	18c10c13          	addi	s8,sp,396
   11206:	8ce2                	mv	s9,s8
   11208:	7722                	ld	a4,40(sp)
   1120a:	00f9f793          	andi	a5,s3,15
   1120e:	1cfd                	addi	s9,s9,-1
   11210:	97ba                	add	a5,a5,a4
   11212:	0007c783          	lbu	a5,0(a5)
   11216:	0049d993          	srli	s3,s3,0x4
   1121a:	00fc8023          	sb	a5,0(s9)
   1121e:	fe0995e3          	bnez	s3,11208 <_vfprintf_r+0x9a4>
   11222:	419c0c3b          	subw	s8,s8,s9
   11226:	84c2                	mv	s1,a6
   11228:	b255                	j	10bcc <_vfprintf_r+0x368>
   1122a:	06500713          	li	a4,101
   1122e:	1fb75463          	bge	a4,s11,11416 <_vfprintf_r+0xbb2>
   11232:	6512                	ld	a0,256(sp)
   11234:	65b2                	ld	a1,264(sp)
   11236:	4601                	li	a2,0
   11238:	4681                	li	a3,0
   1123a:	f83e                	sd	a5,48(sp)
   1123c:	e41a                	sd	t1,8(sp)
   1123e:	649090ef          	jal	ra,1b086 <__eqtf2>
   11242:	6322                	ld	t1,8(sp)
   11244:	77c2                	ld	a5,48(sp)
   11246:	3e051b63          	bnez	a0,1163c <_vfprintf_r+0xdd8>
   1124a:	11812703          	lw	a4,280(sp)
   1124e:	0000b697          	auipc	a3,0xb
   11252:	35a68693          	addi	a3,a3,858 # 1c5a8 <__clzdi2+0x14c>
   11256:	00d33023          	sd	a3,0(t1)
   1125a:	2705                	addiw	a4,a4,1
   1125c:	4685                	li	a3,1
   1125e:	0785                	addi	a5,a5,1
   11260:	00d33423          	sd	a3,8(t1)
   11264:	10e12c23          	sw	a4,280(sp)
   11268:	0007069b          	sext.w	a3,a4
   1126c:	f23e                	sd	a5,288(sp)
   1126e:	471d                	li	a4,7
   11270:	0341                	addi	t1,t1,16
   11272:	04d742e3          	blt	a4,a3,11ab6 <_vfprintf_r+0x1252>
   11276:	572e                	lw	a4,232(sp)
   11278:	7682                	ld	a3,32(sp)
   1127a:	56d75a63          	bge	a4,a3,117ee <_vfprintf_r+0xf8a>
   1127e:	7766                	ld	a4,120(sp)
   11280:	76c6                	ld	a3,112(sp)
   11282:	0341                	addi	t1,t1,16
   11284:	fee33823          	sd	a4,-16(t1)
   11288:	11812703          	lw	a4,280(sp)
   1128c:	97b6                	add	a5,a5,a3
   1128e:	fed33c23          	sd	a3,-8(t1)
   11292:	2705                	addiw	a4,a4,1
   11294:	0007069b          	sext.w	a3,a4
   11298:	10e12c23          	sw	a4,280(sp)
   1129c:	f23e                	sd	a5,288(sp)
   1129e:	471d                	li	a4,7
   112a0:	6ed74063          	blt	a4,a3,11980 <_vfprintf_r+0x111c>
   112a4:	7702                	ld	a4,32(sp)
   112a6:	fff70c1b          	addiw	s8,a4,-1
   112aa:	81805de3          	blez	s8,10ac4 <_vfprintf_r+0x260>
   112ae:	11812703          	lw	a4,280(sp)
   112b2:	018d5de3          	bge	s10,s8,11acc <_vfprintf_r+0x1268>
   112b6:	4c9d                	li	s9,7
   112b8:	a021                	j	112c0 <_vfprintf_r+0xa5c>
   112ba:	3c41                	addiw	s8,s8,-16
   112bc:	018d58e3          	bge	s10,s8,11acc <_vfprintf_r+0x1268>
   112c0:	2705                	addiw	a4,a4,1
   112c2:	07c1                	addi	a5,a5,16
   112c4:	01233023          	sd	s2,0(t1)
   112c8:	01a33423          	sd	s10,8(t1)
   112cc:	f23e                	sd	a5,288(sp)
   112ce:	10e12c23          	sw	a4,280(sp)
   112d2:	0341                	addi	t1,t1,16
   112d4:	feecd3e3          	bge	s9,a4,112ba <_vfprintf_r+0xa56>
   112d8:	0a10                	addi	a2,sp,272
   112da:	85d2                	mv	a1,s4
   112dc:	8556                	mv	a0,s5
   112de:	33d070ef          	jal	ra,18e1a <__sprint_r>
   112e2:	12051163          	bnez	a0,11404 <_vfprintf_r+0xba0>
   112e6:	7792                	ld	a5,288(sp)
   112e8:	11812703          	lw	a4,280(sp)
   112ec:	835e                	mv	t1,s7
   112ee:	b7f1                	j	112ba <_vfprintf_r+0xa56>
   112f0:	413b06bb          	subw	a3,s6,s3
   112f4:	f8d05f63          	blez	a3,10a92 <_vfprintf_r+0x22e>
   112f8:	11812703          	lw	a4,280(sp)
   112fc:	04dd5563          	bge	s10,a3,11346 <_vfprintf_r+0xae2>
   11300:	489d                	li	a7,7
   11302:	a021                	j	1130a <_vfprintf_r+0xaa6>
   11304:	36c1                	addiw	a3,a3,-16
   11306:	04dd5063          	bge	s10,a3,11346 <_vfprintf_r+0xae2>
   1130a:	2705                	addiw	a4,a4,1
   1130c:	07c1                	addi	a5,a5,16
   1130e:	01233023          	sd	s2,0(t1)
   11312:	01a33423          	sd	s10,8(t1)
   11316:	f23e                	sd	a5,288(sp)
   11318:	10e12c23          	sw	a4,280(sp)
   1131c:	0341                	addi	t1,t1,16
   1131e:	fee8d3e3          	bge	a7,a4,11304 <_vfprintf_r+0xaa0>
   11322:	0a10                	addi	a2,sp,272
   11324:	85d2                	mv	a1,s4
   11326:	8556                	mv	a0,s5
   11328:	f836                	sd	a3,48(sp)
   1132a:	e476                	sd	t4,8(sp)
   1132c:	2ef070ef          	jal	ra,18e1a <__sprint_r>
   11330:	e971                	bnez	a0,11404 <_vfprintf_r+0xba0>
   11332:	76c2                	ld	a3,48(sp)
   11334:	7792                	ld	a5,288(sp)
   11336:	11812703          	lw	a4,280(sp)
   1133a:	36c1                	addiw	a3,a3,-16
   1133c:	6ea2                	ld	t4,8(sp)
   1133e:	835e                	mv	t1,s7
   11340:	489d                	li	a7,7
   11342:	fcdd44e3          	blt	s10,a3,1130a <_vfprintf_r+0xaa6>
   11346:	2705                	addiw	a4,a4,1
   11348:	97b6                	add	a5,a5,a3
   1134a:	00d33423          	sd	a3,8(t1)
   1134e:	01233023          	sd	s2,0(t1)
   11352:	0007069b          	sext.w	a3,a4
   11356:	10e12c23          	sw	a4,280(sp)
   1135a:	f23e                	sd	a5,288(sp)
   1135c:	471d                	li	a4,7
   1135e:	0341                	addi	t1,t1,16
   11360:	f2d75963          	bge	a4,a3,10a92 <_vfprintf_r+0x22e>
   11364:	0a10                	addi	a2,sp,272
   11366:	85d2                	mv	a1,s4
   11368:	8556                	mv	a0,s5
   1136a:	e476                	sd	t4,8(sp)
   1136c:	2af070ef          	jal	ra,18e1a <__sprint_r>
   11370:	e951                	bnez	a0,11404 <_vfprintf_r+0xba0>
   11372:	7792                	ld	a5,288(sp)
   11374:	6ea2                	ld	t4,8(sp)
   11376:	835e                	mv	t1,s7
   11378:	f1aff06f          	j	10a92 <_vfprintf_r+0x22e>
   1137c:	11812703          	lw	a4,280(sp)
   11380:	05dd5363          	bge	s10,t4,113c6 <_vfprintf_r+0xb62>
   11384:	489d                	li	a7,7
   11386:	a021                	j	1138e <_vfprintf_r+0xb2a>
   11388:	3ec1                	addiw	t4,t4,-16
   1138a:	03dd5e63          	bge	s10,t4,113c6 <_vfprintf_r+0xb62>
   1138e:	2705                	addiw	a4,a4,1
   11390:	07c1                	addi	a5,a5,16
   11392:	01233023          	sd	s2,0(t1)
   11396:	01a33423          	sd	s10,8(t1)
   1139a:	f23e                	sd	a5,288(sp)
   1139c:	10e12c23          	sw	a4,280(sp)
   113a0:	0341                	addi	t1,t1,16
   113a2:	fee8d3e3          	bge	a7,a4,11388 <_vfprintf_r+0xb24>
   113a6:	0a10                	addi	a2,sp,272
   113a8:	85d2                	mv	a1,s4
   113aa:	8556                	mv	a0,s5
   113ac:	e476                	sd	t4,8(sp)
   113ae:	26d070ef          	jal	ra,18e1a <__sprint_r>
   113b2:	e929                	bnez	a0,11404 <_vfprintf_r+0xba0>
   113b4:	6ea2                	ld	t4,8(sp)
   113b6:	7792                	ld	a5,288(sp)
   113b8:	11812703          	lw	a4,280(sp)
   113bc:	3ec1                	addiw	t4,t4,-16
   113be:	835e                	mv	t1,s7
   113c0:	489d                	li	a7,7
   113c2:	fddd46e3          	blt	s10,t4,1138e <_vfprintf_r+0xb2a>
   113c6:	0017069b          	addiw	a3,a4,1
   113ca:	97f6                	add	a5,a5,t4
   113cc:	01233023          	sd	s2,0(t1)
   113d0:	01d33423          	sd	t4,8(t1)
   113d4:	f23e                	sd	a5,288(sp)
   113d6:	10d12c23          	sw	a3,280(sp)
   113da:	471d                	li	a4,7
   113dc:	0341                	addi	t1,t1,16
   113de:	ead75e63          	bge	a4,a3,10a9a <_vfprintf_r+0x236>
   113e2:	0a10                	addi	a2,sp,272
   113e4:	85d2                	mv	a1,s4
   113e6:	8556                	mv	a0,s5
   113e8:	233070ef          	jal	ra,18e1a <__sprint_r>
   113ec:	ed01                	bnez	a0,11404 <_vfprintf_r+0xba0>
   113ee:	7792                	ld	a5,288(sp)
   113f0:	835e                	mv	t1,s7
   113f2:	ea8ff06f          	j	10a9a <_vfprintf_r+0x236>
   113f6:	0a10                	addi	a2,sp,272
   113f8:	85d2                	mv	a1,s4
   113fa:	8556                	mv	a0,s5
   113fc:	21f070ef          	jal	ra,18e1a <__sprint_r>
   11400:	ee050163          	beqz	a0,10ae2 <_vfprintf_r+0x27e>
   11404:	67e2                	ld	a5,24(sp)
   11406:	f0078063          	beqz	a5,10b06 <_vfprintf_r+0x2a2>
   1140a:	85be                	mv	a1,a5
   1140c:	8556                	mv	a0,s5
   1140e:	02d010ef          	jal	ra,12c3a <_free_r>
   11412:	ef4ff06f          	j	10b06 <_vfprintf_r+0x2a2>
   11416:	11812603          	lw	a2,280(sp)
   1141a:	00178d93          	addi	s11,a5,1
   1141e:	7782                	ld	a5,32(sp)
   11420:	0016071b          	addiw	a4,a2,1
   11424:	4585                	li	a1,1
   11426:	01933023          	sd	s9,0(t1)
   1142a:	86ba                	mv	a3,a4
   1142c:	01030c13          	addi	s8,t1,16
   11430:	32f5d863          	bge	a1,a5,11760 <_vfprintf_r+0xefc>
   11434:	4605                	li	a2,1
   11436:	10d12c23          	sw	a3,280(sp)
   1143a:	00c33423          	sd	a2,8(t1)
   1143e:	f26e                	sd	s11,288(sp)
   11440:	469d                	li	a3,7
   11442:	5ce6c463          	blt	a3,a4,11a0a <_vfprintf_r+0x11a6>
   11446:	77c6                	ld	a5,112(sp)
   11448:	0017069b          	addiw	a3,a4,1
   1144c:	7766                	ld	a4,120(sp)
   1144e:	9dbe                	add	s11,s11,a5
   11450:	00fc3423          	sd	a5,8(s8)
   11454:	00ec3023          	sd	a4,0(s8)
   11458:	10d12c23          	sw	a3,280(sp)
   1145c:	0006871b          	sext.w	a4,a3
   11460:	f26e                	sd	s11,288(sp)
   11462:	469d                	li	a3,7
   11464:	0c41                	addi	s8,s8,16
   11466:	5ae6ce63          	blt	a3,a4,11a22 <_vfprintf_r+0x11be>
   1146a:	6512                	ld	a0,256(sp)
   1146c:	65b2                	ld	a1,264(sp)
   1146e:	0017089b          	addiw	a7,a4,1
   11472:	4601                	li	a2,0
   11474:	4681                	li	a3,0
   11476:	e446                	sd	a7,8(sp)
   11478:	f83a                	sd	a4,48(sp)
   1147a:	40d090ef          	jal	ra,1b086 <__eqtf2>
   1147e:	68a2                	ld	a7,8(sp)
   11480:	7782                	ld	a5,32(sp)
   11482:	010c0313          	addi	t1,s8,16
   11486:	0008861b          	sext.w	a2,a7
   1148a:	fff7869b          	addiw	a3,a5,-1
   1148e:	2e050963          	beqz	a0,11780 <_vfprintf_r+0xf1c>
   11492:	9db6                	add	s11,s11,a3
   11494:	001c8813          	addi	a6,s9,1
   11498:	00dc3423          	sd	a3,8(s8)
   1149c:	010c3023          	sd	a6,0(s8)
   114a0:	f26e                	sd	s11,288(sp)
   114a2:	11112c23          	sw	a7,280(sp)
   114a6:	469d                	li	a3,7
   114a8:	44c6c763          	blt	a3,a2,118f6 <_vfprintf_r+0x1092>
   114ac:	7742                	ld	a4,48(sp)
   114ae:	020c0693          	addi	a3,s8,32
   114b2:	8c1a                	mv	s8,t1
   114b4:	0027061b          	addiw	a2,a4,2
   114b8:	8336                	mv	t1,a3
   114ba:	668a                	ld	a3,128(sp)
   114bc:	1998                	addi	a4,sp,240
   114be:	00ec3023          	sd	a4,0(s8)
   114c2:	00dd87b3          	add	a5,s11,a3
   114c6:	00dc3423          	sd	a3,8(s8)
   114ca:	f23e                	sd	a5,288(sp)
   114cc:	10c12c23          	sw	a2,280(sp)
   114d0:	471d                	li	a4,7
   114d2:	dec75963          	bge	a4,a2,10ac4 <_vfprintf_r+0x260>
   114d6:	bc2d                	j	10f10 <_vfprintf_r+0x6ac>
   114d8:	4705                	li	a4,1
   114da:	8826                	mv	a6,s1
   114dc:	aae790e3          	bne	a5,a4,10f7c <_vfprintf_r+0x718>
   114e0:	47a5                	li	a5,9
   114e2:	3737e163          	bltu	a5,s3,11844 <_vfprintf_r+0xfe0>
   114e6:	0309899b          	addiw	s3,s3,48
   114ea:	193105a3          	sb	s3,395(sp)
   114ee:	84c2                	mv	s1,a6
   114f0:	4c05                	li	s8,1
   114f2:	18b10c93          	addi	s9,sp,395
   114f6:	ed6ff06f          	j	10bcc <_vfprintf_r+0x368>
   114fa:	11812703          	lw	a4,280(sp)
   114fe:	0000b897          	auipc	a7,0xb
   11502:	22288893          	addi	a7,a7,546 # 1c720 <blanks.4520>
   11506:	439d                	li	t2,7
   11508:	00dd4663          	blt	s10,a3,11514 <_vfprintf_r+0xcb0>
   1150c:	a889                	j	1155e <_vfprintf_r+0xcfa>
   1150e:	36c1                	addiw	a3,a3,-16
   11510:	04dd5763          	bge	s10,a3,1155e <_vfprintf_r+0xcfa>
   11514:	2705                	addiw	a4,a4,1
   11516:	07c1                	addi	a5,a5,16
   11518:	01133023          	sd	a7,0(t1)
   1151c:	01a33423          	sd	s10,8(t1)
   11520:	f23e                	sd	a5,288(sp)
   11522:	10e12c23          	sw	a4,280(sp)
   11526:	0341                	addi	t1,t1,16
   11528:	fee3d3e3          	bge	t2,a4,1150e <_vfprintf_r+0xcaa>
   1152c:	0a10                	addi	a2,sp,272
   1152e:	85d2                	mv	a1,s4
   11530:	8556                	mv	a0,s5
   11532:	e4c6                	sd	a7,72(sp)
   11534:	e0f6                	sd	t4,64(sp)
   11536:	fc7e                	sd	t6,56(sp)
   11538:	f816                	sd	t0,48(sp)
   1153a:	e436                	sd	a3,8(sp)
   1153c:	0df070ef          	jal	ra,18e1a <__sprint_r>
   11540:	ec0512e3          	bnez	a0,11404 <_vfprintf_r+0xba0>
   11544:	66a2                	ld	a3,8(sp)
   11546:	7792                	ld	a5,288(sp)
   11548:	11812703          	lw	a4,280(sp)
   1154c:	36c1                	addiw	a3,a3,-16
   1154e:	68a6                	ld	a7,72(sp)
   11550:	6e86                	ld	t4,64(sp)
   11552:	7fe2                	ld	t6,56(sp)
   11554:	72c2                	ld	t0,48(sp)
   11556:	835e                	mv	t1,s7
   11558:	439d                	li	t2,7
   1155a:	fadd4de3          	blt	s10,a3,11514 <_vfprintf_r+0xcb0>
   1155e:	2705                	addiw	a4,a4,1
   11560:	97b6                	add	a5,a5,a3
   11562:	00d33423          	sd	a3,8(t1)
   11566:	01133023          	sd	a7,0(t1)
   1156a:	0007069b          	sext.w	a3,a4
   1156e:	10e12c23          	sw	a4,280(sp)
   11572:	f23e                	sd	a5,288(sp)
   11574:	471d                	li	a4,7
   11576:	0341                	addi	t1,t1,16
   11578:	cad75d63          	bge	a4,a3,10a32 <_vfprintf_r+0x1ce>
   1157c:	0a10                	addi	a2,sp,272
   1157e:	85d2                	mv	a1,s4
   11580:	8556                	mv	a0,s5
   11582:	fc76                	sd	t4,56(sp)
   11584:	f87e                	sd	t6,48(sp)
   11586:	e416                	sd	t0,8(sp)
   11588:	093070ef          	jal	ra,18e1a <__sprint_r>
   1158c:	e6051ce3          	bnez	a0,11404 <_vfprintf_r+0xba0>
   11590:	7792                	ld	a5,288(sp)
   11592:	7ee2                	ld	t4,56(sp)
   11594:	7fc2                	ld	t6,48(sp)
   11596:	62a2                	ld	t0,8(sp)
   11598:	835e                	mv	t1,s7
   1159a:	c98ff06f          	j	10a32 <_vfprintf_r+0x1ce>
   1159e:	0a10                	addi	a2,sp,272
   115a0:	85d2                	mv	a1,s4
   115a2:	8556                	mv	a0,s5
   115a4:	f876                	sd	t4,48(sp)
   115a6:	e47e                	sd	t6,8(sp)
   115a8:	073070ef          	jal	ra,18e1a <__sprint_r>
   115ac:	e4051ce3          	bnez	a0,11404 <_vfprintf_r+0xba0>
   115b0:	7792                	ld	a5,288(sp)
   115b2:	7ec2                	ld	t4,48(sp)
   115b4:	6fa2                	ld	t6,8(sp)
   115b6:	835e                	mv	t1,s7
   115b8:	cd2ff06f          	j	10a8a <_vfprintf_r+0x226>
   115bc:	11812703          	lw	a4,280(sp)
   115c0:	0000b897          	auipc	a7,0xb
   115c4:	16088893          	addi	a7,a7,352 # 1c720 <blanks.4520>
   115c8:	4c1d                	li	s8,7
   115ca:	009d4663          	blt	s10,s1,115d6 <_vfprintf_r+0xd72>
   115ce:	a081                	j	1160e <_vfprintf_r+0xdaa>
   115d0:	34c1                	addiw	s1,s1,-16
   115d2:	029d5e63          	bge	s10,s1,1160e <_vfprintf_r+0xdaa>
   115d6:	2705                	addiw	a4,a4,1
   115d8:	07c1                	addi	a5,a5,16
   115da:	01133023          	sd	a7,0(t1)
   115de:	01a33423          	sd	s10,8(t1)
   115e2:	f23e                	sd	a5,288(sp)
   115e4:	10e12c23          	sw	a4,280(sp)
   115e8:	0341                	addi	t1,t1,16
   115ea:	feec53e3          	bge	s8,a4,115d0 <_vfprintf_r+0xd6c>
   115ee:	0a10                	addi	a2,sp,272
   115f0:	85d2                	mv	a1,s4
   115f2:	8556                	mv	a0,s5
   115f4:	e446                	sd	a7,8(sp)
   115f6:	025070ef          	jal	ra,18e1a <__sprint_r>
   115fa:	e00515e3          	bnez	a0,11404 <_vfprintf_r+0xba0>
   115fe:	34c1                	addiw	s1,s1,-16
   11600:	7792                	ld	a5,288(sp)
   11602:	11812703          	lw	a4,280(sp)
   11606:	68a2                	ld	a7,8(sp)
   11608:	835e                	mv	t1,s7
   1160a:	fc9d46e3          	blt	s10,s1,115d6 <_vfprintf_r+0xd72>
   1160e:	0017069b          	addiw	a3,a4,1
   11612:	97a6                	add	a5,a5,s1
   11614:	01133023          	sd	a7,0(t1)
   11618:	00933423          	sd	s1,8(t1)
   1161c:	f23e                	sd	a5,288(sp)
   1161e:	10d12c23          	sw	a3,280(sp)
   11622:	471d                	li	a4,7
   11624:	cad75663          	bge	a4,a3,10ad0 <_vfprintf_r+0x26c>
   11628:	0a10                	addi	a2,sp,272
   1162a:	85d2                	mv	a1,s4
   1162c:	8556                	mv	a0,s5
   1162e:	7ec070ef          	jal	ra,18e1a <__sprint_r>
   11632:	dc0519e3          	bnez	a0,11404 <_vfprintf_r+0xba0>
   11636:	7792                	ld	a5,288(sp)
   11638:	c98ff06f          	j	10ad0 <_vfprintf_r+0x26c>
   1163c:	562e                	lw	a2,232(sp)
   1163e:	3ec05e63          	blez	a2,11a3a <_vfprintf_r+0x11d6>
   11642:	6766                	ld	a4,88(sp)
   11644:	7682                	ld	a3,32(sp)
   11646:	00070c1b          	sext.w	s8,a4
   1164a:	28e6c263          	blt	a3,a4,118ce <_vfprintf_r+0x106a>
   1164e:	03805263          	blez	s8,11672 <_vfprintf_r+0xe0e>
   11652:	11812703          	lw	a4,280(sp)
   11656:	97e2                	add	a5,a5,s8
   11658:	01933023          	sd	s9,0(t1)
   1165c:	0017069b          	addiw	a3,a4,1
   11660:	01833423          	sd	s8,8(t1)
   11664:	f23e                	sd	a5,288(sp)
   11666:	10d12c23          	sw	a3,280(sp)
   1166a:	471d                	li	a4,7
   1166c:	0341                	addi	t1,t1,16
   1166e:	6ed74d63          	blt	a4,a3,11d68 <_vfprintf_r+0x1504>
   11672:	fffc4713          	not	a4,s8
   11676:	977d                	srai	a4,a4,0x3f
   11678:	00ec7c33          	and	s8,s8,a4
   1167c:	6766                	ld	a4,88(sp)
   1167e:	41870c3b          	subw	s8,a4,s8
   11682:	33804c63          	bgtz	s8,119ba <_vfprintf_r+0x1156>
   11686:	66e6                	ld	a3,88(sp)
   11688:	4004f713          	andi	a4,s1,1024
   1168c:	00dc8db3          	add	s11,s9,a3
   11690:	54071f63          	bnez	a4,11bee <_vfprintf_r+0x138a>
   11694:	572e                	lw	a4,232(sp)
   11696:	7682                	ld	a3,32(sp)
   11698:	00d74663          	blt	a4,a3,116a4 <_vfprintf_r+0xe40>
   1169c:	0014f693          	andi	a3,s1,1
   116a0:	6e068063          	beqz	a3,11d80 <_vfprintf_r+0x151c>
   116a4:	76e6                	ld	a3,120(sp)
   116a6:	7646                	ld	a2,112(sp)
   116a8:	0341                	addi	t1,t1,16
   116aa:	fed33823          	sd	a3,-16(t1)
   116ae:	11812683          	lw	a3,280(sp)
   116b2:	97b2                	add	a5,a5,a2
   116b4:	fec33c23          	sd	a2,-8(t1)
   116b8:	2685                	addiw	a3,a3,1
   116ba:	0006861b          	sext.w	a2,a3
   116be:	10d12c23          	sw	a3,280(sp)
   116c2:	f23e                	sd	a5,288(sp)
   116c4:	469d                	li	a3,7
   116c6:	22c6c7e3          	blt	a3,a2,120f4 <_vfprintf_r+0x1890>
   116ca:	7682                	ld	a3,32(sp)
   116cc:	00dc8633          	add	a2,s9,a3
   116d0:	40e6873b          	subw	a4,a3,a4
   116d4:	41b6063b          	subw	a2,a2,s11
   116d8:	0007069b          	sext.w	a3,a4
   116dc:	00d65363          	bge	a2,a3,116e2 <_vfprintf_r+0xe7e>
   116e0:	8732                	mv	a4,a2
   116e2:	00070c9b          	sext.w	s9,a4
   116e6:	03905263          	blez	s9,1170a <_vfprintf_r+0xea6>
   116ea:	11812603          	lw	a2,280(sp)
   116ee:	97e6                	add	a5,a5,s9
   116f0:	01b33023          	sd	s11,0(t1)
   116f4:	0016059b          	addiw	a1,a2,1
   116f8:	01933423          	sd	s9,8(t1)
   116fc:	f23e                	sd	a5,288(sp)
   116fe:	10b12c23          	sw	a1,280(sp)
   11702:	461d                	li	a2,7
   11704:	0341                	addi	t1,t1,16
   11706:	26b644e3          	blt	a2,a1,1216e <_vfprintf_r+0x190a>
   1170a:	fffccc13          	not	s8,s9
   1170e:	43fc5c13          	srai	s8,s8,0x3f
   11712:	018cfc33          	and	s8,s9,s8
   11716:	41868c3b          	subw	s8,a3,s8
   1171a:	bb805563          	blez	s8,10ac4 <_vfprintf_r+0x260>
   1171e:	11812703          	lw	a4,280(sp)
   11722:	3b8d5563          	bge	s10,s8,11acc <_vfprintf_r+0x1268>
   11726:	4c9d                	li	s9,7
   11728:	a021                	j	11730 <_vfprintf_r+0xecc>
   1172a:	3c41                	addiw	s8,s8,-16
   1172c:	3b8d5063          	bge	s10,s8,11acc <_vfprintf_r+0x1268>
   11730:	2705                	addiw	a4,a4,1
   11732:	07c1                	addi	a5,a5,16
   11734:	01233023          	sd	s2,0(t1)
   11738:	01a33423          	sd	s10,8(t1)
   1173c:	f23e                	sd	a5,288(sp)
   1173e:	10e12c23          	sw	a4,280(sp)
   11742:	0341                	addi	t1,t1,16
   11744:	feecd3e3          	bge	s9,a4,1172a <_vfprintf_r+0xec6>
   11748:	0a10                	addi	a2,sp,272
   1174a:	85d2                	mv	a1,s4
   1174c:	8556                	mv	a0,s5
   1174e:	6cc070ef          	jal	ra,18e1a <__sprint_r>
   11752:	ca0519e3          	bnez	a0,11404 <_vfprintf_r+0xba0>
   11756:	7792                	ld	a5,288(sp)
   11758:	11812703          	lw	a4,280(sp)
   1175c:	835e                	mv	t1,s7
   1175e:	b7f1                	j	1172a <_vfprintf_r+0xec6>
   11760:	0014f513          	andi	a0,s1,1
   11764:	cc0518e3          	bnez	a0,11434 <_vfprintf_r+0xbd0>
   11768:	00b33423          	sd	a1,8(t1)
   1176c:	f26e                	sd	s11,288(sp)
   1176e:	10e12c23          	sw	a4,280(sp)
   11772:	469d                	li	a3,7
   11774:	18e6c163          	blt	a3,a4,118f6 <_vfprintf_r+0x1092>
   11778:	2609                	addiw	a2,a2,2
   1177a:	02030313          	addi	t1,t1,32
   1177e:	bb35                	j	114ba <_vfprintf_r+0xc56>
   11780:	d2d05de3          	blez	a3,114ba <_vfprintf_r+0xc56>
   11784:	4cdd50e3          	bge	s10,a3,12444 <_vfprintf_r+0x1be0>
   11788:	4c9d                	li	s9,7
   1178a:	a031                	j	11796 <_vfprintf_r+0xf32>
   1178c:	36c1                	addiw	a3,a3,-16
   1178e:	14dd5563          	bge	s10,a3,118d8 <_vfprintf_r+0x1074>
   11792:	0017089b          	addiw	a7,a4,1
   11796:	0dc1                	addi	s11,s11,16
   11798:	012c3023          	sd	s2,0(s8)
   1179c:	01ac3423          	sd	s10,8(s8)
   117a0:	f26e                	sd	s11,288(sp)
   117a2:	0008871b          	sext.w	a4,a7
   117a6:	11112c23          	sw	a7,280(sp)
   117aa:	0c41                	addi	s8,s8,16
   117ac:	feecd0e3          	bge	s9,a4,1178c <_vfprintf_r+0xf28>
   117b0:	0a10                	addi	a2,sp,272
   117b2:	85d2                	mv	a1,s4
   117b4:	8556                	mv	a0,s5
   117b6:	e436                	sd	a3,8(sp)
   117b8:	662070ef          	jal	ra,18e1a <__sprint_r>
   117bc:	c40514e3          	bnez	a0,11404 <_vfprintf_r+0xba0>
   117c0:	7d92                	ld	s11,288(sp)
   117c2:	11812703          	lw	a4,280(sp)
   117c6:	66a2                	ld	a3,8(sp)
   117c8:	8c5e                	mv	s8,s7
   117ca:	b7c9                	j	1178c <_vfprintf_r+0xf28>
   117cc:	01087793          	andi	a5,a6,16
   117d0:	eb8d                	bnez	a5,11802 <_vfprintf_r+0xf9e>
   117d2:	66c2                	ld	a3,16(sp)
   117d4:	04087793          	andi	a5,a6,64
   117d8:	0006a983          	lw	s3,0(a3)
   117dc:	36078c63          	beqz	a5,11b54 <_vfprintf_r+0x12f0>
   117e0:	19c2                	slli	s3,s3,0x30
   117e2:	0309d993          	srli	s3,s3,0x30
   117e6:	e83a                	sd	a4,16(sp)
   117e8:	4785                	li	a5,1
   117ea:	c26ff06f          	j	10c10 <_vfprintf_r+0x3ac>
   117ee:	0014f713          	andi	a4,s1,1
   117f2:	ac070963          	beqz	a4,10ac4 <_vfprintf_r+0x260>
   117f6:	b461                	j	1127e <_vfprintf_r+0xa1a>
   117f8:	6782                	ld	a5,0(sp)
   117fa:	8ca2                	mv	s9,s0
   117fc:	e31c                	sd	a5,0(a4)
   117fe:	af8ff06f          	j	10af6 <_vfprintf_r+0x292>
   11802:	67c2                	ld	a5,16(sp)
   11804:	e83a                	sd	a4,16(sp)
   11806:	0007b983          	ld	s3,0(a5)
   1180a:	4785                	li	a5,1
   1180c:	c04ff06f          	j	10c10 <_vfprintf_r+0x3ac>
   11810:	67c2                	ld	a5,16(sp)
   11812:	639c                	ld	a5,0(a5)
   11814:	89be                	mv	s3,a5
   11816:	b90ff06f          	j	10ba6 <_vfprintf_r+0x342>
   1181a:	67c2                	ld	a5,16(sp)
   1181c:	0007b983          	ld	s3,0(a5)
   11820:	be4ff06f          	j	10c04 <_vfprintf_r+0x3a0>
   11824:	67c2                	ld	a5,16(sp)
   11826:	07bd                	addi	a5,a5,15
   11828:	9bc1                	andi	a5,a5,-16
   1182a:	6394                	ld	a3,0(a5)
   1182c:	6798                	ld	a4,8(a5)
   1182e:	07c1                	addi	a5,a5,16
   11830:	e83e                	sd	a5,16(sp)
   11832:	e236                	sd	a3,256(sp)
   11834:	e63a                	sd	a4,264(sp)
   11836:	c50ff06f          	j	10c86 <_vfprintf_r+0x422>
   1183a:	e83a                	sd	a4,16(sp)
   1183c:	47a5                	li	a5,9
   1183e:	8826                	mv	a6,s1
   11840:	cb37f3e3          	bgeu	a5,s3,114e6 <_vfprintf_r+0xc82>
   11844:	40087793          	andi	a5,a6,1024
   11848:	18c10c13          	addi	s8,sp,396
   1184c:	2781                	sext.w	a5,a5
   1184e:	f002                	sd	zero,32(sp)
   11850:	85e2                	mv	a1,s8
   11852:	44a9                	li	s1,10
   11854:	4725                	li	a4,9
   11856:	0ff00693          	li	a3,255
   1185a:	a039                	j	11868 <_vfprintf_r+0x1004>
   1185c:	0299d633          	divu	a2,s3,s1
   11860:	9d3771e3          	bgeu	a4,s3,11222 <_vfprintf_r+0x9be>
   11864:	89b2                	mv	s3,a2
   11866:	85e6                	mv	a1,s9
   11868:	7502                	ld	a0,32(sp)
   1186a:	fff58c93          	addi	s9,a1,-1
   1186e:	2505                	addiw	a0,a0,1
   11870:	f02a                	sd	a0,32(sp)
   11872:	0299f633          	remu	a2,s3,s1
   11876:	0306061b          	addiw	a2,a2,48
   1187a:	fec58fa3          	sb	a2,-1(a1)
   1187e:	dff9                	beqz	a5,1185c <_vfprintf_r+0xff8>
   11880:	7626                	ld	a2,104(sp)
   11882:	00064603          	lbu	a2,0(a2)
   11886:	fcc51be3          	bne	a0,a2,1185c <_vfprintf_r+0xff8>
   1188a:	fcd609e3          	beq	a2,a3,1185c <_vfprintf_r+0xff8>
   1188e:	99377ae3          	bgeu	a4,s3,11222 <_vfprintf_r+0x9be>
   11892:	fc3e                	sd	a5,56(sp)
   11894:	67aa                	ld	a5,136(sp)
   11896:	65ca                	ld	a1,144(sp)
   11898:	f81a                	sd	t1,48(sp)
   1189a:	40fc8cb3          	sub	s9,s9,a5
   1189e:	863e                	mv	a2,a5
   118a0:	8566                	mv	a0,s9
   118a2:	ec76                	sd	t4,24(sp)
   118a4:	e442                	sd	a6,8(sp)
   118a6:	073050ef          	jal	ra,17118 <strncpy>
   118aa:	77a6                	ld	a5,104(sp)
   118ac:	0299d633          	divu	a2,s3,s1
   118b0:	6822                	ld	a6,8(sp)
   118b2:	0017c583          	lbu	a1,1(a5)
   118b6:	6ee2                	ld	t4,24(sp)
   118b8:	7342                	ld	t1,48(sp)
   118ba:	00b035b3          	snez	a1,a1
   118be:	97ae                	add	a5,a5,a1
   118c0:	f4be                	sd	a5,104(sp)
   118c2:	f002                	sd	zero,32(sp)
   118c4:	77e2                	ld	a5,56(sp)
   118c6:	4725                	li	a4,9
   118c8:	0ff00693          	li	a3,255
   118cc:	bf61                	j	11864 <_vfprintf_r+0x1000>
   118ce:	00068c1b          	sext.w	s8,a3
   118d2:	d98040e3          	bgtz	s8,11652 <_vfprintf_r+0xdee>
   118d6:	bb71                	j	11672 <_vfprintf_r+0xe0e>
   118d8:	0017061b          	addiw	a2,a4,1
   118dc:	010c0713          	addi	a4,s8,16
   118e0:	9db6                	add	s11,s11,a3
   118e2:	00dc3423          	sd	a3,8(s8)
   118e6:	012c3023          	sd	s2,0(s8)
   118ea:	f26e                	sd	s11,288(sp)
   118ec:	10c12c23          	sw	a2,280(sp)
   118f0:	469d                	li	a3,7
   118f2:	44c6d563          	bge	a3,a2,11d3c <_vfprintf_r+0x14d8>
   118f6:	0a10                	addi	a2,sp,272
   118f8:	85d2                	mv	a1,s4
   118fa:	8556                	mv	a0,s5
   118fc:	51e070ef          	jal	ra,18e1a <__sprint_r>
   11900:	b00512e3          	bnez	a0,11404 <_vfprintf_r+0xba0>
   11904:	11812603          	lw	a2,280(sp)
   11908:	7d92                	ld	s11,288(sp)
   1190a:	1a010313          	addi	t1,sp,416
   1190e:	2605                	addiw	a2,a2,1
   11910:	8c5e                	mv	s8,s7
   11912:	b665                	j	114ba <_vfprintf_r+0xc56>
   11914:	8826                	mv	a6,s1
   11916:	825ff06f          	j	1113a <_vfprintf_r+0x8d6>
   1191a:	0000b797          	auipc	a5,0xb
   1191e:	c6e78793          	addi	a5,a5,-914 # 1c588 <__clzdi2+0x12c>
   11922:	f43e                	sd	a5,40(sp)
   11924:	66c2                	ld	a3,16(sp)
   11926:	0204f793          	andi	a5,s1,32
   1192a:	00868713          	addi	a4,a3,8
   1192e:	c7f9                	beqz	a5,119fc <_vfprintf_r+0x1198>
   11930:	0006b983          	ld	s3,0(a3)
   11934:	0014f793          	andi	a5,s1,1
   11938:	cf81                	beqz	a5,11950 <_vfprintf_r+0x10ec>
   1193a:	00098b63          	beqz	s3,11950 <_vfprintf_r+0x10ec>
   1193e:	0024e493          	ori	s1,s1,2
   11942:	03000793          	li	a5,48
   11946:	0ef10023          	sb	a5,224(sp)
   1194a:	0fb100a3          	sb	s11,225(sp)
   1194e:	2481                	sext.w	s1,s1
   11950:	bff4f493          	andi	s1,s1,-1025
   11954:	0004881b          	sext.w	a6,s1
   11958:	e83a                	sd	a4,16(sp)
   1195a:	4789                	li	a5,2
   1195c:	ab4ff06f          	j	10c10 <_vfprintf_r+0x3ac>
   11960:	2004e493          	ori	s1,s1,512
   11964:	00144f03          	lbu	t5,1(s0)
   11968:	2481                	sext.w	s1,s1
   1196a:	0405                	addi	s0,s0,1
   1196c:	82cff06f          	j	10998 <_vfprintf_r+0x134>
   11970:	0204e493          	ori	s1,s1,32
   11974:	00144f03          	lbu	t5,1(s0)
   11978:	2481                	sext.w	s1,s1
   1197a:	0405                	addi	s0,s0,1
   1197c:	81cff06f          	j	10998 <_vfprintf_r+0x134>
   11980:	0a10                	addi	a2,sp,272
   11982:	85d2                	mv	a1,s4
   11984:	8556                	mv	a0,s5
   11986:	494070ef          	jal	ra,18e1a <__sprint_r>
   1198a:	a6051de3          	bnez	a0,11404 <_vfprintf_r+0xba0>
   1198e:	7792                	ld	a5,288(sp)
   11990:	835e                	mv	t1,s7
   11992:	ba09                	j	112a4 <_vfprintf_r+0xa40>
   11994:	0000b797          	auipc	a5,0xb
   11998:	bdc78793          	addi	a5,a5,-1060 # 1c570 <__clzdi2+0x114>
   1199c:	f43e                	sd	a5,40(sp)
   1199e:	b759                	j	11924 <_vfprintf_r+0x10c0>
   119a0:	4799                	li	a5,6
   119a2:	000e8c1b          	sext.w	s8,t4
   119a6:	3dd7eb63          	bltu	a5,t4,11d7c <_vfprintf_r+0x1518>
   119aa:	89e2                	mv	s3,s8
   119ac:	e836                	sd	a3,16(sp)
   119ae:	0000bc97          	auipc	s9,0xb
   119b2:	bf2c8c93          	addi	s9,s9,-1038 # 1c5a0 <__clzdi2+0x144>
   119b6:	854ff06f          	j	10a0a <_vfprintf_r+0x1a6>
   119ba:	11812703          	lw	a4,280(sp)
   119be:	218d5063          	bge	s10,s8,11bbe <_vfprintf_r+0x135a>
   119c2:	4d9d                	li	s11,7
   119c4:	a021                	j	119cc <_vfprintf_r+0x1168>
   119c6:	3c41                	addiw	s8,s8,-16
   119c8:	1f8d5b63          	bge	s10,s8,11bbe <_vfprintf_r+0x135a>
   119cc:	2705                	addiw	a4,a4,1
   119ce:	07c1                	addi	a5,a5,16
   119d0:	01233023          	sd	s2,0(t1)
   119d4:	01a33423          	sd	s10,8(t1)
   119d8:	f23e                	sd	a5,288(sp)
   119da:	10e12c23          	sw	a4,280(sp)
   119de:	0341                	addi	t1,t1,16
   119e0:	feedd3e3          	bge	s11,a4,119c6 <_vfprintf_r+0x1162>
   119e4:	0a10                	addi	a2,sp,272
   119e6:	85d2                	mv	a1,s4
   119e8:	8556                	mv	a0,s5
   119ea:	430070ef          	jal	ra,18e1a <__sprint_r>
   119ee:	a0051be3          	bnez	a0,11404 <_vfprintf_r+0xba0>
   119f2:	7792                	ld	a5,288(sp)
   119f4:	11812703          	lw	a4,280(sp)
   119f8:	835e                	mv	t1,s7
   119fa:	b7f1                	j	119c6 <_vfprintf_r+0x1162>
   119fc:	0104f793          	andi	a5,s1,16
   11a00:	c3cd                	beqz	a5,11aa2 <_vfprintf_r+0x123e>
   11a02:	67c2                	ld	a5,16(sp)
   11a04:	0007b983          	ld	s3,0(a5)
   11a08:	b735                	j	11934 <_vfprintf_r+0x10d0>
   11a0a:	0a10                	addi	a2,sp,272
   11a0c:	85d2                	mv	a1,s4
   11a0e:	8556                	mv	a0,s5
   11a10:	40a070ef          	jal	ra,18e1a <__sprint_r>
   11a14:	9e0518e3          	bnez	a0,11404 <_vfprintf_r+0xba0>
   11a18:	7d92                	ld	s11,288(sp)
   11a1a:	11812703          	lw	a4,280(sp)
   11a1e:	8c5e                	mv	s8,s7
   11a20:	b41d                	j	11446 <_vfprintf_r+0xbe2>
   11a22:	0a10                	addi	a2,sp,272
   11a24:	85d2                	mv	a1,s4
   11a26:	8556                	mv	a0,s5
   11a28:	3f2070ef          	jal	ra,18e1a <__sprint_r>
   11a2c:	9c051ce3          	bnez	a0,11404 <_vfprintf_r+0xba0>
   11a30:	7d92                	ld	s11,288(sp)
   11a32:	11812703          	lw	a4,280(sp)
   11a36:	8c5e                	mv	s8,s7
   11a38:	bc0d                	j	1146a <_vfprintf_r+0xc06>
   11a3a:	11812703          	lw	a4,280(sp)
   11a3e:	0000b697          	auipc	a3,0xb
   11a42:	b6a68693          	addi	a3,a3,-1174 # 1c5a8 <__clzdi2+0x14c>
   11a46:	00d33023          	sd	a3,0(t1)
   11a4a:	2705                	addiw	a4,a4,1
   11a4c:	4685                	li	a3,1
   11a4e:	0785                	addi	a5,a5,1
   11a50:	00d33423          	sd	a3,8(t1)
   11a54:	10e12c23          	sw	a4,280(sp)
   11a58:	0007069b          	sext.w	a3,a4
   11a5c:	f23e                	sd	a5,288(sp)
   11a5e:	471d                	li	a4,7
   11a60:	0341                	addi	t1,t1,16
   11a62:	2ed74363          	blt	a4,a3,11d48 <_vfprintf_r+0x14e4>
   11a66:	c4061363          	bnez	a2,10eac <_vfprintf_r+0x648>
   11a6a:	7682                	ld	a3,32(sp)
   11a6c:	0014f713          	andi	a4,s1,1
   11a70:	8f55                	or	a4,a4,a3
   11a72:	e319                	bnez	a4,11a78 <_vfprintf_r+0x1214>
   11a74:	850ff06f          	j	10ac4 <_vfprintf_r+0x260>
   11a78:	76e6                	ld	a3,120(sp)
   11a7a:	7746                	ld	a4,112(sp)
   11a7c:	00d33023          	sd	a3,0(t1)
   11a80:	11812683          	lw	a3,280(sp)
   11a84:	97ba                	add	a5,a5,a4
   11a86:	00e33423          	sd	a4,8(t1)
   11a8a:	2685                	addiw	a3,a3,1
   11a8c:	0006871b          	sext.w	a4,a3
   11a90:	10d12c23          	sw	a3,280(sp)
   11a94:	f23e                	sd	a5,288(sp)
   11a96:	469d                	li	a3,7
   11a98:	c2e6cd63          	blt	a3,a4,10ed2 <_vfprintf_r+0x66e>
   11a9c:	0341                	addi	t1,t1,16
   11a9e:	c54ff06f          	j	10ef2 <_vfprintf_r+0x68e>
   11aa2:	66c2                	ld	a3,16(sp)
   11aa4:	0404f793          	andi	a5,s1,64
   11aa8:	0006a983          	lw	s3,0(a3)
   11aac:	cbe1                	beqz	a5,11b7c <_vfprintf_r+0x1318>
   11aae:	19c2                	slli	s3,s3,0x30
   11ab0:	0309d993          	srli	s3,s3,0x30
   11ab4:	b541                	j	11934 <_vfprintf_r+0x10d0>
   11ab6:	0a10                	addi	a2,sp,272
   11ab8:	85d2                	mv	a1,s4
   11aba:	8556                	mv	a0,s5
   11abc:	35e070ef          	jal	ra,18e1a <__sprint_r>
   11ac0:	940512e3          	bnez	a0,11404 <_vfprintf_r+0xba0>
   11ac4:	7792                	ld	a5,288(sp)
   11ac6:	835e                	mv	t1,s7
   11ac8:	faeff06f          	j	11276 <_vfprintf_r+0xa12>
   11acc:	0017069b          	addiw	a3,a4,1
   11ad0:	8736                	mv	a4,a3
   11ad2:	97e2                	add	a5,a5,s8
   11ad4:	01233023          	sd	s2,0(t1)
   11ad8:	fdbfe06f          	j	10ab2 <_vfprintf_r+0x24e>
   11adc:	6512                	ld	a0,256(sp)
   11ade:	65b2                	ld	a1,264(sp)
   11ae0:	4601                	li	a2,0
   11ae2:	4681                	li	a3,0
   11ae4:	e41a                	sd	t1,8(sp)
   11ae6:	6dc090ef          	jal	ra,1b1c2 <__letf2>
   11aea:	6322                	ld	t1,8(sp)
   11aec:	54054763          	bltz	a0,1203a <_vfprintf_r+0x17d6>
   11af0:	0df14783          	lbu	a5,223(sp)
   11af4:	04700713          	li	a4,71
   11af8:	0000bc97          	auipc	s9,0xb
   11afc:	a58c8c93          	addi	s9,s9,-1448 # 1c550 <__clzdi2+0xf4>
   11b00:	25b74f63          	blt	a4,s11,11d5e <_vfprintf_r+0x14fa>
   11b04:	f7f4f493          	andi	s1,s1,-129
   11b08:	ec02                	sd	zero,24(sp)
   11b0a:	e882                	sd	zero,80(sp)
   11b0c:	f082                	sd	zero,96(sp)
   11b0e:	ec82                	sd	zero,88(sp)
   11b10:	2481                	sext.w	s1,s1
   11b12:	498d                	li	s3,3
   11b14:	4c0d                	li	s8,3
   11b16:	4e81                	li	t4,0
   11b18:	8c079863          	bnez	a5,10be8 <_vfprintf_r+0x384>
   11b1c:	ef9fe06f          	j	10a14 <_vfprintf_r+0x1b0>
   11b20:	8566                	mv	a0,s9
   11b22:	e41a                	sd	t1,8(sp)
   11b24:	e836                	sd	a3,16(sp)
   11b26:	cabfe0ef          	jal	ra,107d0 <strlen>
   11b2a:	00050c1b          	sext.w	s8,a0
   11b2e:	fffc4993          	not	s3,s8
   11b32:	0df14783          	lbu	a5,223(sp)
   11b36:	43f9d993          	srai	s3,s3,0x3f
   11b3a:	013c79b3          	and	s3,s8,s3
   11b3e:	ec02                	sd	zero,24(sp)
   11b40:	e882                	sd	zero,80(sp)
   11b42:	f082                	sd	zero,96(sp)
   11b44:	ec82                	sd	zero,88(sp)
   11b46:	6322                	ld	t1,8(sp)
   11b48:	2981                	sext.w	s3,s3
   11b4a:	4e81                	li	t4,0
   11b4c:	88079e63          	bnez	a5,10be8 <_vfprintf_r+0x384>
   11b50:	ec5fe06f          	j	10a14 <_vfprintf_r+0x1b0>
   11b54:	20087793          	andi	a5,a6,512
   11b58:	26078463          	beqz	a5,11dc0 <_vfprintf_r+0x155c>
   11b5c:	0ff9f993          	andi	s3,s3,255
   11b60:	e83a                	sd	a4,16(sp)
   11b62:	4785                	li	a5,1
   11b64:	8acff06f          	j	10c10 <_vfprintf_r+0x3ac>
   11b68:	2004f793          	andi	a5,s1,512
   11b6c:	24078463          	beqz	a5,11db4 <_vfprintf_r+0x1550>
   11b70:	67c2                	ld	a5,16(sp)
   11b72:	00078983          	lb	s3,0(a5)
   11b76:	87ce                	mv	a5,s3
   11b78:	82eff06f          	j	10ba6 <_vfprintf_r+0x342>
   11b7c:	2004f793          	andi	a5,s1,512
   11b80:	24078763          	beqz	a5,11dce <_vfprintf_r+0x156a>
   11b84:	0ff9f993          	andi	s3,s3,255
   11b88:	b375                	j	11934 <_vfprintf_r+0x10d0>
   11b8a:	2004f793          	andi	a5,s1,512
   11b8e:	20078e63          	beqz	a5,11daa <_vfprintf_r+0x1546>
   11b92:	0ff9f993          	andi	s3,s3,255
   11b96:	86eff06f          	j	10c04 <_vfprintf_r+0x3a0>
   11b9a:	67b2                	ld	a5,264(sp)
   11b9c:	2207cd63          	bltz	a5,11dd6 <_vfprintf_r+0x1572>
   11ba0:	0df14783          	lbu	a5,223(sp)
   11ba4:	04700713          	li	a4,71
   11ba8:	0000bc97          	auipc	s9,0xb
   11bac:	9b8c8c93          	addi	s9,s9,-1608 # 1c560 <__clzdi2+0x104>
   11bb0:	f5b75ae3          	bge	a4,s11,11b04 <_vfprintf_r+0x12a0>
   11bb4:	0000bc97          	auipc	s9,0xb
   11bb8:	9b4c8c93          	addi	s9,s9,-1612 # 1c568 <__clzdi2+0x10c>
   11bbc:	b7a1                	j	11b04 <_vfprintf_r+0x12a0>
   11bbe:	0017069b          	addiw	a3,a4,1
   11bc2:	97e2                	add	a5,a5,s8
   11bc4:	01233023          	sd	s2,0(t1)
   11bc8:	01833423          	sd	s8,8(t1)
   11bcc:	f23e                	sd	a5,288(sp)
   11bce:	10d12c23          	sw	a3,280(sp)
   11bd2:	471d                	li	a4,7
   11bd4:	0341                	addi	t1,t1,16
   11bd6:	aad758e3          	bge	a4,a3,11686 <_vfprintf_r+0xe22>
   11bda:	0a10                	addi	a2,sp,272
   11bdc:	85d2                	mv	a1,s4
   11bde:	8556                	mv	a0,s5
   11be0:	23a070ef          	jal	ra,18e1a <__sprint_r>
   11be4:	820510e3          	bnez	a0,11404 <_vfprintf_r+0xba0>
   11be8:	7792                	ld	a5,288(sp)
   11bea:	835e                	mv	t1,s7
   11bec:	bc69                	j	11686 <_vfprintf_r+0xe22>
   11bee:	7702                	ld	a4,32(sp)
   11bf0:	4c1d                	li	s8,7
   11bf2:	9766                	add	a4,a4,s9
   11bf4:	f83a                	sd	a4,48(sp)
   11bf6:	7706                	ld	a4,96(sp)
   11bf8:	cb49                	beqz	a4,11c8a <_vfprintf_r+0x1426>
   11bfa:	6746                	ld	a4,80(sp)
   11bfc:	eb51                	bnez	a4,11c90 <_vfprintf_r+0x142c>
   11bfe:	7726                	ld	a4,104(sp)
   11c00:	177d                	addi	a4,a4,-1
   11c02:	f4ba                	sd	a4,104(sp)
   11c04:	7706                	ld	a4,96(sp)
   11c06:	377d                	addiw	a4,a4,-1
   11c08:	f0ba                	sd	a4,96(sp)
   11c0a:	674a                	ld	a4,144(sp)
   11c0c:	66aa                	ld	a3,136(sp)
   11c0e:	0341                	addi	t1,t1,16
   11c10:	fee33823          	sd	a4,-16(t1)
   11c14:	11812703          	lw	a4,280(sp)
   11c18:	97b6                	add	a5,a5,a3
   11c1a:	fed33c23          	sd	a3,-8(t1)
   11c1e:	2705                	addiw	a4,a4,1
   11c20:	f23e                	sd	a5,288(sp)
   11c22:	0007069b          	sext.w	a3,a4
   11c26:	10e12c23          	sw	a4,280(sp)
   11c2a:	0cdc4e63          	blt	s8,a3,11d06 <_vfprintf_r+0x14a2>
   11c2e:	7726                	ld	a4,104(sp)
   11c30:	00074603          	lbu	a2,0(a4)
   11c34:	7742                	ld	a4,48(sp)
   11c36:	41b705bb          	subw	a1,a4,s11
   11c3a:	0006071b          	sext.w	a4,a2
   11c3e:	0007069b          	sext.w	a3,a4
   11c42:	00e5d463          	bge	a1,a4,11c4a <_vfprintf_r+0x13e6>
   11c46:	0005869b          	sext.w	a3,a1
   11c4a:	02d05663          	blez	a3,11c76 <_vfprintf_r+0x1412>
   11c4e:	11812703          	lw	a4,280(sp)
   11c52:	97b6                	add	a5,a5,a3
   11c54:	01b33023          	sd	s11,0(t1)
   11c58:	0017061b          	addiw	a2,a4,1
   11c5c:	00d33423          	sd	a3,8(t1)
   11c60:	f23e                	sd	a5,288(sp)
   11c62:	10c12c23          	sw	a2,280(sp)
   11c66:	0acc4a63          	blt	s8,a2,11d1a <_vfprintf_r+0x14b6>
   11c6a:	7726                	ld	a4,104(sp)
   11c6c:	0341                	addi	t1,t1,16
   11c6e:	00074603          	lbu	a2,0(a4)
   11c72:	0006071b          	sext.w	a4,a2
   11c76:	fff6c593          	not	a1,a3
   11c7a:	95fd                	srai	a1,a1,0x3f
   11c7c:	8eed                	and	a3,a3,a1
   11c7e:	9f15                	subw	a4,a4,a3
   11c80:	00e04c63          	bgtz	a4,11c98 <_vfprintf_r+0x1434>
   11c84:	9db2                	add	s11,s11,a2
   11c86:	7706                	ld	a4,96(sp)
   11c88:	fb2d                	bnez	a4,11bfa <_vfprintf_r+0x1396>
   11c8a:	6746                	ld	a4,80(sp)
   11c8c:	30070463          	beqz	a4,11f94 <_vfprintf_r+0x1730>
   11c90:	6746                	ld	a4,80(sp)
   11c92:	377d                	addiw	a4,a4,-1
   11c94:	e8ba                	sd	a4,80(sp)
   11c96:	bf95                	j	11c0a <_vfprintf_r+0x13a6>
   11c98:	11812683          	lw	a3,280(sp)
   11c9c:	00ed4663          	blt	s10,a4,11ca8 <_vfprintf_r+0x1444>
   11ca0:	a081                	j	11ce0 <_vfprintf_r+0x147c>
   11ca2:	3741                	addiw	a4,a4,-16
   11ca4:	02ed5e63          	bge	s10,a4,11ce0 <_vfprintf_r+0x147c>
   11ca8:	2685                	addiw	a3,a3,1
   11caa:	07c1                	addi	a5,a5,16
   11cac:	01233023          	sd	s2,0(t1)
   11cb0:	01a33423          	sd	s10,8(t1)
   11cb4:	f23e                	sd	a5,288(sp)
   11cb6:	10d12c23          	sw	a3,280(sp)
   11cba:	0341                	addi	t1,t1,16
   11cbc:	fedc53e3          	bge	s8,a3,11ca2 <_vfprintf_r+0x143e>
   11cc0:	0a10                	addi	a2,sp,272
   11cc2:	85d2                	mv	a1,s4
   11cc4:	8556                	mv	a0,s5
   11cc6:	e43a                	sd	a4,8(sp)
   11cc8:	152070ef          	jal	ra,18e1a <__sprint_r>
   11ccc:	f2051c63          	bnez	a0,11404 <_vfprintf_r+0xba0>
   11cd0:	6722                	ld	a4,8(sp)
   11cd2:	7792                	ld	a5,288(sp)
   11cd4:	11812683          	lw	a3,280(sp)
   11cd8:	3741                	addiw	a4,a4,-16
   11cda:	835e                	mv	t1,s7
   11cdc:	fced46e3          	blt	s10,a4,11ca8 <_vfprintf_r+0x1444>
   11ce0:	2685                	addiw	a3,a3,1
   11ce2:	97ba                	add	a5,a5,a4
   11ce4:	00e33423          	sd	a4,8(t1)
   11ce8:	01233023          	sd	s2,0(t1)
   11cec:	f23e                	sd	a5,288(sp)
   11cee:	0006871b          	sext.w	a4,a3
   11cf2:	10d12c23          	sw	a3,280(sp)
   11cf6:	32ec4463          	blt	s8,a4,1201e <_vfprintf_r+0x17ba>
   11cfa:	7726                	ld	a4,104(sp)
   11cfc:	0341                	addi	t1,t1,16
   11cfe:	00074603          	lbu	a2,0(a4)
   11d02:	9db2                	add	s11,s11,a2
   11d04:	b749                	j	11c86 <_vfprintf_r+0x1422>
   11d06:	0a10                	addi	a2,sp,272
   11d08:	85d2                	mv	a1,s4
   11d0a:	8556                	mv	a0,s5
   11d0c:	10e070ef          	jal	ra,18e1a <__sprint_r>
   11d10:	ee051a63          	bnez	a0,11404 <_vfprintf_r+0xba0>
   11d14:	7792                	ld	a5,288(sp)
   11d16:	835e                	mv	t1,s7
   11d18:	bf19                	j	11c2e <_vfprintf_r+0x13ca>
   11d1a:	0a10                	addi	a2,sp,272
   11d1c:	85d2                	mv	a1,s4
   11d1e:	8556                	mv	a0,s5
   11d20:	e436                	sd	a3,8(sp)
   11d22:	0f8070ef          	jal	ra,18e1a <__sprint_r>
   11d26:	ec051f63          	bnez	a0,11404 <_vfprintf_r+0xba0>
   11d2a:	77a6                	ld	a5,104(sp)
   11d2c:	66a2                	ld	a3,8(sp)
   11d2e:	835e                	mv	t1,s7
   11d30:	0007c603          	lbu	a2,0(a5)
   11d34:	7792                	ld	a5,288(sp)
   11d36:	0006071b          	sext.w	a4,a2
   11d3a:	bf35                	j	11c76 <_vfprintf_r+0x1412>
   11d3c:	2605                	addiw	a2,a2,1
   11d3e:	01070313          	addi	t1,a4,16
   11d42:	8c3a                	mv	s8,a4
   11d44:	f76ff06f          	j	114ba <_vfprintf_r+0xc56>
   11d48:	0a10                	addi	a2,sp,272
   11d4a:	85d2                	mv	a1,s4
   11d4c:	8556                	mv	a0,s5
   11d4e:	0cc070ef          	jal	ra,18e1a <__sprint_r>
   11d52:	ea051963          	bnez	a0,11404 <_vfprintf_r+0xba0>
   11d56:	562e                	lw	a2,232(sp)
   11d58:	7792                	ld	a5,288(sp)
   11d5a:	835e                	mv	t1,s7
   11d5c:	b329                	j	11a66 <_vfprintf_r+0x1202>
   11d5e:	0000ac97          	auipc	s9,0xa
   11d62:	7fac8c93          	addi	s9,s9,2042 # 1c558 <__clzdi2+0xfc>
   11d66:	bb79                	j	11b04 <_vfprintf_r+0x12a0>
   11d68:	0a10                	addi	a2,sp,272
   11d6a:	85d2                	mv	a1,s4
   11d6c:	8556                	mv	a0,s5
   11d6e:	0ac070ef          	jal	ra,18e1a <__sprint_r>
   11d72:	e8051963          	bnez	a0,11404 <_vfprintf_r+0xba0>
   11d76:	7792                	ld	a5,288(sp)
   11d78:	835e                	mv	t1,s7
   11d7a:	b8e5                	j	11672 <_vfprintf_r+0xe0e>
   11d7c:	4c19                	li	s8,6
   11d7e:	b135                	j	119aa <_vfprintf_r+0x1146>
   11d80:	7682                	ld	a3,32(sp)
   11d82:	00dc8833          	add	a6,s9,a3
   11d86:	40e6873b          	subw	a4,a3,a4
   11d8a:	41b80ebb          	subw	t4,a6,s11
   11d8e:	0007069b          	sext.w	a3,a4
   11d92:	00ded363          	bge	t4,a3,11d98 <_vfprintf_r+0x1534>
   11d96:	8776                	mv	a4,t4
   11d98:	00070c9b          	sext.w	s9,a4
   11d9c:	b2bd                	j	1170a <_vfprintf_r+0xea6>
   11d9e:	6782                	ld	a5,0(sp)
   11da0:	8ca2                	mv	s9,s0
   11da2:	00f71023          	sh	a5,0(a4)
   11da6:	d51fe06f          	j	10af6 <_vfprintf_r+0x292>
   11daa:	1982                	slli	s3,s3,0x20
   11dac:	0209d993          	srli	s3,s3,0x20
   11db0:	e55fe06f          	j	10c04 <_vfprintf_r+0x3a0>
   11db4:	67c2                	ld	a5,16(sp)
   11db6:	0007a983          	lw	s3,0(a5)
   11dba:	87ce                	mv	a5,s3
   11dbc:	debfe06f          	j	10ba6 <_vfprintf_r+0x342>
   11dc0:	1982                	slli	s3,s3,0x20
   11dc2:	0209d993          	srli	s3,s3,0x20
   11dc6:	e83a                	sd	a4,16(sp)
   11dc8:	4785                	li	a5,1
   11dca:	e47fe06f          	j	10c10 <_vfprintf_r+0x3ac>
   11dce:	1982                	slli	s3,s3,0x20
   11dd0:	0209d993          	srli	s3,s3,0x20
   11dd4:	b685                	j	11934 <_vfprintf_r+0x10d0>
   11dd6:	02d00793          	li	a5,45
   11dda:	0cf10fa3          	sb	a5,223(sp)
   11dde:	b3d9                	j	11ba4 <_vfprintf_r+0x1340>
   11de0:	0a10                	addi	a2,sp,272
   11de2:	85d2                	mv	a1,s4
   11de4:	8556                	mv	a0,s5
   11de6:	034070ef          	jal	ra,18e1a <__sprint_r>
   11dea:	d1dfe06f          	j	10b06 <_vfprintf_r+0x2a2>
   11dee:	03000793          	li	a5,48
   11df2:	0ef10023          	sb	a5,224(sp)
   11df6:	05800713          	li	a4,88
   11dfa:	0024e793          	ori	a5,s1,2
   11dfe:	2781                	sext.w	a5,a5
   11e00:	0ee100a3          	sb	a4,225(sp)
   11e04:	ed3e                	sd	a5,152(sp)
   11e06:	06300713          	li	a4,99
   11e0a:	ec02                	sd	zero,24(sp)
   11e0c:	12810c93          	addi	s9,sp,296
   11e10:	47d74563          	blt	a4,t4,1227a <_vfprintf_r+0x1a16>
   11e14:	69b2                	ld	s3,264(sp)
   11e16:	fdfdf713          	andi	a4,s11,-33
   11e1a:	1024e493          	ori	s1,s1,258
   11e1e:	f0ba                	sd	a4,96(sp)
   11e20:	e582                	sd	zero,200(sp)
   11e22:	6c12                	ld	s8,256(sp)
   11e24:	2481                	sext.w	s1,s1
   11e26:	1e09c463          	bltz	s3,1200e <_vfprintf_r+0x17aa>
   11e2a:	06100793          	li	a5,97
   11e2e:	52fd8c63          	beq	s11,a5,12366 <_vfprintf_r+0x1b02>
   11e32:	04100793          	li	a5,65
   11e36:	00fd8463          	beq	s11,a5,11e3e <_vfprintf_r+0x15da>
   11e3a:	eb7fe06f          	j	10cf0 <_vfprintf_r+0x48c>
   11e3e:	85ce                	mv	a1,s3
   11e40:	8562                	mv	a0,s8
   11e42:	fc1a                	sd	t1,56(sp)
   11e44:	f876                	sd	t4,48(sp)
   11e46:	3e40a0ef          	jal	ra,1c22a <__trunctfdf2>
   11e4a:	11a8                	addi	a0,sp,232
   11e4c:	75d040ef          	jal	ra,16da8 <frexp>
   11e50:	31a0a0ef          	jal	ra,1c16a <__extenddftf2>
   11e54:	0000b797          	auipc	a5,0xb
   11e58:	90c78793          	addi	a5,a5,-1780 # 1c760 <zeroes.4521+0x30>
   11e5c:	6390                	ld	a2,0(a5)
   11e5e:	6794                	ld	a3,8(a5)
   11e60:	40a090ef          	jal	ra,1b26a <__multf3>
   11e64:	4601                	li	a2,0
   11e66:	4681                	li	a3,0
   11e68:	f02a                	sd	a0,32(sp)
   11e6a:	e42e                	sd	a1,8(sp)
   11e6c:	21a090ef          	jal	ra,1b086 <__eqtf2>
   11e70:	62a2                	ld	t0,8(sp)
   11e72:	7702                	ld	a4,32(sp)
   11e74:	7ec2                	ld	t4,48(sp)
   11e76:	7362                	ld	t1,56(sp)
   11e78:	e119                	bnez	a0,11e7e <_vfprintf_r+0x161a>
   11e7a:	4785                	li	a5,1
   11e7c:	d5be                	sw	a5,232(sp)
   11e7e:	0000a797          	auipc	a5,0xa
   11e82:	6f278793          	addi	a5,a5,1778 # 1c570 <__clzdi2+0x114>
   11e86:	e8be                	sd	a5,80(sp)
   11e88:	020e9793          	slli	a5,t4,0x20
   11e8c:	0000b697          	auipc	a3,0xb
   11e90:	8b468693          	addi	a3,a3,-1868 # 1c740 <zeroes.4521+0x10>
   11e94:	9381                	srli	a5,a5,0x20
   11e96:	6290                	ld	a2,0(a3)
   11e98:	0785                	addi	a5,a5,1
   11e9a:	6694                	ld	a3,8(a3)
   11e9c:	97e6                	add	a5,a5,s9
   11e9e:	f13e                	sd	a5,160(sp)
   11ea0:	01dc87bb          	addw	a5,s9,t4
   11ea4:	fd32                	sd	a2,184(sp)
   11ea6:	e1b6                	sd	a3,192(sp)
   11ea8:	8c66                	mv	s8,s9
   11eaa:	db3e                	sw	a5,180(sp)
   11eac:	a831                	j	11ec8 <_vfprintf_r+0x1664>
   11eae:	4601                	li	a2,0
   11eb0:	4681                	li	a3,0
   11eb2:	e4ae                	sd	a1,72(sp)
   11eb4:	e0aa                	sd	a0,64(sp)
   11eb6:	1d0090ef          	jal	ra,1b086 <__eqtf2>
   11eba:	7ec2                	ld	t4,48(sp)
   11ebc:	7362                	ld	t1,56(sp)
   11ebe:	6f86                	ld	t6,64(sp)
   11ec0:	68a6                	ld	a7,72(sp)
   11ec2:	62a2                	ld	t0,8(sp)
   11ec4:	7702                	ld	a4,32(sp)
   11ec6:	c135                	beqz	a0,11f2a <_vfprintf_r+0x16c6>
   11ec8:	766a                	ld	a2,184(sp)
   11eca:	668e                	ld	a3,192(sp)
   11ecc:	853a                	mv	a0,a4
   11ece:	8596                	mv	a1,t0
   11ed0:	fc1a                	sd	t1,56(sp)
   11ed2:	f876                	sd	t4,48(sp)
   11ed4:	396090ef          	jal	ra,1b26a <__multf3>
   11ed8:	e42e                	sd	a1,8(sp)
   11eda:	f02a                	sd	a0,32(sp)
   11edc:	19c0a0ef          	jal	ra,1c078 <__fixtfsi>
   11ee0:	0005099b          	sext.w	s3,a0
   11ee4:	854e                	mv	a0,s3
   11ee6:	2280a0ef          	jal	ra,1c10e <__floatsitf>
   11eea:	7882                	ld	a7,32(sp)
   11eec:	6722                	ld	a4,8(sp)
   11eee:	862a                	mv	a2,a0
   11ef0:	86ae                	mv	a3,a1
   11ef2:	8546                	mv	a0,a7
   11ef4:	85ba                	mv	a1,a4
   11ef6:	187090ef          	jal	ra,1b87c <__subtf3>
   11efa:	67c6                	ld	a5,80(sp)
   11efc:	f562                	sd	s8,168(sp)
   11efe:	0c05                	addi	s8,s8,1
   11f00:	01378733          	add	a4,a5,s3
   11f04:	57da                	lw	a5,180(sp)
   11f06:	00074703          	lbu	a4,0(a4)
   11f0a:	f02a                	sd	a0,32(sp)
   11f0c:	418787bb          	subw	a5,a5,s8
   11f10:	ecbe                	sd	a5,88(sp)
   11f12:	778a                	ld	a5,160(sp)
   11f14:	feec0fa3          	sb	a4,-1(s8)
   11f18:	e42e                	sd	a1,8(sp)
   11f1a:	7ec2                	ld	t4,48(sp)
   11f1c:	7362                	ld	t1,56(sp)
   11f1e:	8faa                	mv	t6,a0
   11f20:	88ae                	mv	a7,a1
   11f22:	f98796e3          	bne	a5,s8,11eae <_vfprintf_r+0x164a>
   11f26:	57fd                	li	a5,-1
   11f28:	ecbe                	sd	a5,88(sp)
   11f2a:	0000b717          	auipc	a4,0xb
   11f2e:	82670713          	addi	a4,a4,-2010 # 1c750 <zeroes.4521+0x20>
   11f32:	6310                	ld	a2,0(a4)
   11f34:	6714                	ld	a3,8(a4)
   11f36:	857e                	mv	a0,t6
   11f38:	85c6                	mv	a1,a7
   11f3a:	f01a                	sd	t1,32(sp)
   11f3c:	e476                	sd	t4,8(sp)
   11f3e:	e4fe                	sd	t6,72(sp)
   11f40:	e0b2                	sd	a2,64(sp)
   11f42:	fc36                	sd	a3,56(sp)
   11f44:	f846                	sd	a7,48(sp)
   11f46:	1d4090ef          	jal	ra,1b11a <__getf2>
   11f4a:	6ea2                	ld	t4,8(sp)
   11f4c:	7302                	ld	t1,32(sp)
   11f4e:	2ca04f63          	bgtz	a0,1222c <_vfprintf_r+0x19c8>
   11f52:	6fa6                	ld	t6,72(sp)
   11f54:	78c2                	ld	a7,48(sp)
   11f56:	6606                	ld	a2,64(sp)
   11f58:	76e2                	ld	a3,56(sp)
   11f5a:	857e                	mv	a0,t6
   11f5c:	85c6                	mv	a1,a7
   11f5e:	128090ef          	jal	ra,1b086 <__eqtf2>
   11f62:	6ea2                	ld	t4,8(sp)
   11f64:	7302                	ld	t1,32(sp)
   11f66:	e509                	bnez	a0,11f70 <_vfprintf_r+0x170c>
   11f68:	0019f993          	andi	s3,s3,1
   11f6c:	2c099063          	bnez	s3,1222c <_vfprintf_r+0x19c8>
   11f70:	67e6                	ld	a5,88(sp)
   11f72:	03000693          	li	a3,48
   11f76:	00178713          	addi	a4,a5,1
   11f7a:	9762                	add	a4,a4,s8
   11f7c:	0007c763          	bltz	a5,11f8a <_vfprintf_r+0x1726>
   11f80:	0c05                	addi	s8,s8,1
   11f82:	fedc0fa3          	sb	a3,-1(s8)
   11f86:	ff871de3          	bne	a4,s8,11f80 <_vfprintf_r+0x171c>
   11f8a:	419c07bb          	subw	a5,s8,s9
   11f8e:	f03e                	sd	a5,32(sp)
   11f90:	de5fe06f          	j	10d74 <_vfprintf_r+0x510>
   11f94:	7702                	ld	a4,32(sp)
   11f96:	9766                	add	a4,a4,s9
   11f98:	efb77e63          	bgeu	a4,s11,11694 <_vfprintf_r+0xe30>
   11f9c:	8dba                	mv	s11,a4
   11f9e:	ef6ff06f          	j	11694 <_vfprintf_r+0xe30>
   11fa2:	6766                	ld	a4,88(sp)
   11fa4:	57f5                	li	a5,-3
   11fa6:	00f74463          	blt	a4,a5,11fae <_vfprintf_r+0x174a>
   11faa:	00eed863          	bge	t4,a4,11fba <_vfprintf_r+0x1756>
   11fae:	3df9                	addiw	s11,s11,-2
   11fb0:	fdfdf793          	andi	a5,s11,-33
   11fb4:	f0be                	sd	a5,96(sp)
   11fb6:	ddffe06f          	j	10d94 <_vfprintf_r+0x530>
   11fba:	7782                	ld	a5,32(sp)
   11fbc:	6766                	ld	a4,88(sp)
   11fbe:	16f74563          	blt	a4,a5,12128 <_vfprintf_r+0x18c4>
   11fc2:	67ea                	ld	a5,152(sp)
   11fc4:	8c3a                	mv	s8,a4
   11fc6:	8b85                	andi	a5,a5,1
   11fc8:	c781                	beqz	a5,11fd0 <_vfprintf_r+0x176c>
   11fca:	77c6                	ld	a5,112(sp)
   11fcc:	00e78c3b          	addw	s8,a5,a4
   11fd0:	67ea                	ld	a5,152(sp)
   11fd2:	4007f793          	andi	a5,a5,1024
   11fd6:	c781                	beqz	a5,11fde <_vfprintf_r+0x177a>
   11fd8:	67e6                	ld	a5,88(sp)
   11fda:	30f04763          	bgtz	a5,122e8 <_vfprintf_r+0x1a84>
   11fde:	fffc4993          	not	s3,s8
   11fe2:	43f9d993          	srai	s3,s3,0x3f
   11fe6:	013c79b3          	and	s3,s8,s3
   11fea:	2981                	sext.w	s3,s3
   11fec:	06700d93          	li	s11,103
   11ff0:	e882                	sd	zero,80(sp)
   11ff2:	f082                	sd	zero,96(sp)
   11ff4:	e83fe06f          	j	10e76 <_vfprintf_r+0x612>
   11ff8:	0df14783          	lbu	a5,223(sp)
   11ffc:	4e81                	li	t4,0
   11ffe:	c399                	beqz	a5,12004 <_vfprintf_r+0x17a0>
   12000:	be9fe06f          	j	10be8 <_vfprintf_r+0x384>
   12004:	a11fe06f          	j	10a14 <_vfprintf_r+0x1b0>
   12008:	ed26                	sd	s1,152(sp)
   1200a:	ec02                	sd	zero,24(sp)
   1200c:	84fe                	mv	s1,t6
   1200e:	57fd                	li	a5,-1
   12010:	17fe                	slli	a5,a5,0x3f
   12012:	00f9c9b3          	xor	s3,s3,a5
   12016:	02d00793          	li	a5,45
   1201a:	e5be                	sd	a5,200(sp)
   1201c:	b539                	j	11e2a <_vfprintf_r+0x15c6>
   1201e:	0a10                	addi	a2,sp,272
   12020:	85d2                	mv	a1,s4
   12022:	8556                	mv	a0,s5
   12024:	5f7060ef          	jal	ra,18e1a <__sprint_r>
   12028:	bc051e63          	bnez	a0,11404 <_vfprintf_r+0xba0>
   1202c:	77a6                	ld	a5,104(sp)
   1202e:	835e                	mv	t1,s7
   12030:	0007c603          	lbu	a2,0(a5)
   12034:	7792                	ld	a5,288(sp)
   12036:	9db2                	add	s11,s11,a2
   12038:	b1b9                	j	11c86 <_vfprintf_r+0x1422>
   1203a:	02d00793          	li	a5,45
   1203e:	0cf10fa3          	sb	a5,223(sp)
   12042:	bc4d                	j	11af4 <_vfprintf_r+0x1290>
   12044:	8776                	mv	a4,t4
   12046:	11bc                	addi	a5,sp,232
   12048:	0f810893          	addi	a7,sp,248
   1204c:	0ec10813          	addi	a6,sp,236
   12050:	4689                	li	a3,2
   12052:	85e2                	mv	a1,s8
   12054:	864e                	mv	a2,s3
   12056:	8556                	mv	a0,s5
   12058:	f01a                	sd	t1,32(sp)
   1205a:	e476                	sd	t4,8(sp)
   1205c:	460020ef          	jal	ra,144bc <_ldtoa_r>
   12060:	7706                	ld	a4,96(sp)
   12062:	04700793          	li	a5,71
   12066:	6ea2                	ld	t4,8(sp)
   12068:	7302                	ld	t1,32(sp)
   1206a:	8caa                	mv	s9,a0
   1206c:	02f71d63          	bne	a4,a5,120a6 <_vfprintf_r+0x1842>
   12070:	67ea                	ld	a5,152(sp)
   12072:	8b85                	andi	a5,a5,1
   12074:	18079b63          	bnez	a5,1220a <_vfprintf_r+0x19a6>
   12078:	04700713          	li	a4,71
   1207c:	77ee                	ld	a5,248(sp)
   1207e:	f0ba                	sd	a4,96(sp)
   12080:	ceffe06f          	j	10d6e <_vfprintf_r+0x50a>
   12084:	8776                	mv	a4,t4
   12086:	0f810893          	addi	a7,sp,248
   1208a:	0ec10813          	addi	a6,sp,236
   1208e:	11bc                	addi	a5,sp,232
   12090:	468d                	li	a3,3
   12092:	85e2                	mv	a1,s8
   12094:	864e                	mv	a2,s3
   12096:	8556                	mv	a0,s5
   12098:	f01a                	sd	t1,32(sp)
   1209a:	e476                	sd	t4,8(sp)
   1209c:	420020ef          	jal	ra,144bc <_ldtoa_r>
   120a0:	6ea2                	ld	t4,8(sp)
   120a2:	7302                	ld	t1,32(sp)
   120a4:	8caa                	mv	s9,a0
   120a6:	7706                	ld	a4,96(sp)
   120a8:	04600793          	li	a5,70
   120ac:	01dc88b3          	add	a7,s9,t4
   120b0:	00f70463          	beq	a4,a5,120b8 <_vfprintf_r+0x1854>
   120b4:	c85fe06f          	j	10d38 <_vfprintf_r+0x4d4>
   120b8:	000cc703          	lbu	a4,0(s9)
   120bc:	03000793          	li	a5,48
   120c0:	00f70663          	beq	a4,a5,120cc <_vfprintf_r+0x1868>
   120c4:	572e                	lw	a4,232(sp)
   120c6:	98ba                	add	a7,a7,a4
   120c8:	c71fe06f          	j	10d38 <_vfprintf_r+0x4d4>
   120cc:	4601                	li	a2,0
   120ce:	4681                	li	a3,0
   120d0:	8562                	mv	a0,s8
   120d2:	85ce                	mv	a1,s3
   120d4:	f846                	sd	a7,48(sp)
   120d6:	f01a                	sd	t1,32(sp)
   120d8:	e476                	sd	t4,8(sp)
   120da:	7ad080ef          	jal	ra,1b086 <__eqtf2>
   120de:	6ea2                	ld	t4,8(sp)
   120e0:	7302                	ld	t1,32(sp)
   120e2:	78c2                	ld	a7,48(sp)
   120e4:	d165                	beqz	a0,120c4 <_vfprintf_r+0x1860>
   120e6:	4785                	li	a5,1
   120e8:	41d7873b          	subw	a4,a5,t4
   120ec:	d5ba                	sw	a4,232(sp)
   120ee:	98ba                	add	a7,a7,a4
   120f0:	c49fe06f          	j	10d38 <_vfprintf_r+0x4d4>
   120f4:	0a10                	addi	a2,sp,272
   120f6:	85d2                	mv	a1,s4
   120f8:	8556                	mv	a0,s5
   120fa:	521060ef          	jal	ra,18e1a <__sprint_r>
   120fe:	b0051363          	bnez	a0,11404 <_vfprintf_r+0xba0>
   12102:	572e                	lw	a4,232(sp)
   12104:	7792                	ld	a5,288(sp)
   12106:	835e                	mv	t1,s7
   12108:	dc2ff06f          	j	116ca <_vfprintf_r+0xe66>
   1210c:	0df14783          	lbu	a5,223(sp)
   12110:	e836                	sd	a3,16(sp)
   12112:	e882                	sd	zero,80(sp)
   12114:	f082                	sd	zero,96(sp)
   12116:	ec82                	sd	zero,88(sp)
   12118:	89f6                	mv	s3,t4
   1211a:	8c76                	mv	s8,t4
   1211c:	4e81                	li	t4,0
   1211e:	c399                	beqz	a5,12124 <_vfprintf_r+0x18c0>
   12120:	ac9fe06f          	j	10be8 <_vfprintf_r+0x384>
   12124:	8f1fe06f          	j	10a14 <_vfprintf_r+0x1b0>
   12128:	7702                	ld	a4,32(sp)
   1212a:	77c6                	ld	a5,112(sp)
   1212c:	06700d93          	li	s11,103
   12130:	00e78c3b          	addw	s8,a5,a4
   12134:	6766                	ld	a4,88(sp)
   12136:	2ce05263          	blez	a4,123fa <_vfprintf_r+0x1b96>
   1213a:	67ea                	ld	a5,152(sp)
   1213c:	4007f793          	andi	a5,a5,1024
   12140:	1a079663          	bnez	a5,122ec <_vfprintf_r+0x1a88>
   12144:	fffc4993          	not	s3,s8
   12148:	43f9d993          	srai	s3,s3,0x3f
   1214c:	013c79b3          	and	s3,s8,s3
   12150:	2981                	sext.w	s3,s3
   12152:	bd79                	j	11ff0 <_vfprintf_r+0x178c>
   12154:	67ea                	ld	a5,152(sp)
   12156:	6766                	ld	a4,88(sp)
   12158:	8b85                	andi	a5,a5,1
   1215a:	00fee7b3          	or	a5,t4,a5
   1215e:	2ae05c63          	blez	a4,12416 <_vfprintf_r+0x1bb2>
   12162:	26079d63          	bnez	a5,123dc <_vfprintf_r+0x1b78>
   12166:	6c66                	ld	s8,88(sp)
   12168:	06600d93          	li	s11,102
   1216c:	b7f9                	j	1213a <_vfprintf_r+0x18d6>
   1216e:	0a10                	addi	a2,sp,272
   12170:	85d2                	mv	a1,s4
   12172:	8556                	mv	a0,s5
   12174:	4a7060ef          	jal	ra,18e1a <__sprint_r>
   12178:	a8051663          	bnez	a0,11404 <_vfprintf_r+0xba0>
   1217c:	56ae                	lw	a3,232(sp)
   1217e:	7702                	ld	a4,32(sp)
   12180:	7792                	ld	a5,288(sp)
   12182:	835e                	mv	t1,s7
   12184:	40d706bb          	subw	a3,a4,a3
   12188:	d82ff06f          	j	1170a <_vfprintf_r+0xea6>
   1218c:	57fd                	li	a5,-1
   1218e:	e03e                	sd	a5,0(sp)
   12190:	985fe06f          	j	10b14 <_vfprintf_r+0x2b0>
   12194:	56c1                	li	a3,-16
   12196:	40c00c3b          	negw	s8,a2
   1219a:	02d65f63          	bge	a2,a3,121d8 <_vfprintf_r+0x1974>
   1219e:	4d9d                	li	s11,7
   121a0:	a021                	j	121a8 <_vfprintf_r+0x1944>
   121a2:	3c41                	addiw	s8,s8,-16
   121a4:	038d5a63          	bge	s10,s8,121d8 <_vfprintf_r+0x1974>
   121a8:	2705                	addiw	a4,a4,1
   121aa:	07c1                	addi	a5,a5,16
   121ac:	01233023          	sd	s2,0(t1)
   121b0:	01a33423          	sd	s10,8(t1)
   121b4:	f23e                	sd	a5,288(sp)
   121b6:	10e12c23          	sw	a4,280(sp)
   121ba:	0341                	addi	t1,t1,16
   121bc:	feedd3e3          	bge	s11,a4,121a2 <_vfprintf_r+0x193e>
   121c0:	0a10                	addi	a2,sp,272
   121c2:	85d2                	mv	a1,s4
   121c4:	8556                	mv	a0,s5
   121c6:	455060ef          	jal	ra,18e1a <__sprint_r>
   121ca:	a2051d63          	bnez	a0,11404 <_vfprintf_r+0xba0>
   121ce:	7792                	ld	a5,288(sp)
   121d0:	11812703          	lw	a4,280(sp)
   121d4:	835e                	mv	t1,s7
   121d6:	b7f1                	j	121a2 <_vfprintf_r+0x193e>
   121d8:	2705                	addiw	a4,a4,1
   121da:	97e2                	add	a5,a5,s8
   121dc:	01233023          	sd	s2,0(t1)
   121e0:	01833423          	sd	s8,8(t1)
   121e4:	f23e                	sd	a5,288(sp)
   121e6:	10e12c23          	sw	a4,280(sp)
   121ea:	469d                	li	a3,7
   121ec:	8ae6d8e3          	bge	a3,a4,11a9c <_vfprintf_r+0x1238>
   121f0:	0a10                	addi	a2,sp,272
   121f2:	85d2                	mv	a1,s4
   121f4:	8556                	mv	a0,s5
   121f6:	425060ef          	jal	ra,18e1a <__sprint_r>
   121fa:	a0051563          	bnez	a0,11404 <_vfprintf_r+0xba0>
   121fe:	7792                	ld	a5,288(sp)
   12200:	11812703          	lw	a4,280(sp)
   12204:	835e                	mv	t1,s7
   12206:	cedfe06f          	j	10ef2 <_vfprintf_r+0x68e>
   1220a:	04700793          	li	a5,71
   1220e:	01dc88b3          	add	a7,s9,t4
   12212:	f0be                	sd	a5,96(sp)
   12214:	b25fe06f          	j	10d38 <_vfprintf_r+0x4d4>
   12218:	8826                	mv	a6,s1
   1221a:	accff06f          	j	114e6 <_vfprintf_r+0xc82>
   1221e:	03000793          	li	a5,48
   12222:	0ef10023          	sb	a5,224(sp)
   12226:	07800713          	li	a4,120
   1222a:	bec1                	j	11dfa <_vfprintf_r+0x1596>
   1222c:	77aa                	ld	a5,168(sp)
   1222e:	8762                	mv	a4,s8
   12230:	fdbe                	sd	a5,248(sp)
   12232:	67c6                	ld	a5,80(sp)
   12234:	fffc4683          	lbu	a3,-1(s8)
   12238:	00f7c603          	lbu	a2,15(a5)
   1223c:	00d61e63          	bne	a2,a3,12258 <_vfprintf_r+0x19f4>
   12240:	03000593          	li	a1,48
   12244:	feb70fa3          	sb	a1,-1(a4)
   12248:	776e                	ld	a4,248(sp)
   1224a:	fff70693          	addi	a3,a4,-1
   1224e:	fdb6                	sd	a3,248(sp)
   12250:	fff74683          	lbu	a3,-1(a4)
   12254:	fed608e3          	beq	a2,a3,12244 <_vfprintf_r+0x19e0>
   12258:	0016861b          	addiw	a2,a3,1
   1225c:	03900593          	li	a1,57
   12260:	0ff67613          	andi	a2,a2,255
   12264:	00b68563          	beq	a3,a1,1226e <_vfprintf_r+0x1a0a>
   12268:	fec70fa3          	sb	a2,-1(a4)
   1226c:	bb39                	j	11f8a <_vfprintf_r+0x1726>
   1226e:	67c6                	ld	a5,80(sp)
   12270:	00a7c603          	lbu	a2,10(a5)
   12274:	fec70fa3          	sb	a2,-1(a4)
   12278:	bb09                	j	11f8a <_vfprintf_r+0x1726>
   1227a:	001e859b          	addiw	a1,t4,1
   1227e:	8556                	mv	a0,s5
   12280:	ec1a                	sd	t1,24(sp)
   12282:	e476                	sd	t4,8(sp)
   12284:	29e030ef          	jal	ra,15522 <_malloc_r>
   12288:	6ea2                	ld	t4,8(sp)
   1228a:	6362                	ld	t1,24(sp)
   1228c:	8caa                	mv	s9,a0
   1228e:	1e050063          	beqz	a0,1246e <_vfprintf_r+0x1c0a>
   12292:	ec2a                	sd	a0,24(sp)
   12294:	b641                	j	11e14 <_vfprintf_r+0x15b0>
   12296:	000e9363          	bnez	t4,1229c <_vfprintf_r+0x1a38>
   1229a:	4e85                	li	t4,1
   1229c:	69b2                	ld	s3,264(sp)
   1229e:	1004ef93          	ori	t6,s1,256
   122a2:	6c12                	ld	s8,256(sp)
   122a4:	2f81                	sext.w	t6,t6
   122a6:	d609c1e3          	bltz	s3,12008 <_vfprintf_r+0x17a4>
   122aa:	8776                	mv	a4,t4
   122ac:	0f810893          	addi	a7,sp,248
   122b0:	0ec10813          	addi	a6,sp,236
   122b4:	11bc                	addi	a5,sp,232
   122b6:	4689                	li	a3,2
   122b8:	85e2                	mv	a1,s8
   122ba:	864e                	mv	a2,s3
   122bc:	8556                	mv	a0,s5
   122be:	ec7e                	sd	t6,24(sp)
   122c0:	f01a                	sd	t1,32(sp)
   122c2:	e476                	sd	t4,8(sp)
   122c4:	1f8020ef          	jal	ra,144bc <_ldtoa_r>
   122c8:	6fe2                	ld	t6,24(sp)
   122ca:	ed26                	sd	s1,152(sp)
   122cc:	6ea2                	ld	t4,8(sp)
   122ce:	7302                	ld	t1,32(sp)
   122d0:	8caa                	mv	s9,a0
   122d2:	84fe                	mv	s1,t6
   122d4:	ec02                	sd	zero,24(sp)
   122d6:	e582                	sd	zero,200(sp)
   122d8:	bb61                	j	12070 <_vfprintf_r+0x180c>
   122da:	4e99                	li	t4,6
   122dc:	9fbfe06f          	j	10cd6 <_vfprintf_r+0x472>
   122e0:	c31c                	sw	a5,0(a4)
   122e2:	8ca2                	mv	s9,s0
   122e4:	813fe06f          	j	10af6 <_vfprintf_r+0x292>
   122e8:	06700d93          	li	s11,103
   122ec:	77a6                	ld	a5,104(sp)
   122ee:	0ff00713          	li	a4,255
   122f2:	e882                	sd	zero,80(sp)
   122f4:	0007c783          	lbu	a5,0(a5)
   122f8:	f082                	sd	zero,96(sp)
   122fa:	02e78863          	beq	a5,a4,1232a <_vfprintf_r+0x1ac6>
   122fe:	0ff00693          	li	a3,255
   12302:	6666                	ld	a2,88(sp)
   12304:	0007871b          	sext.w	a4,a5
   12308:	02c7d163          	bge	a5,a2,1232a <_vfprintf_r+0x1ac6>
   1230c:	75a6                	ld	a1,104(sp)
   1230e:	40e6073b          	subw	a4,a2,a4
   12312:	ecba                	sd	a4,88(sp)
   12314:	0015c783          	lbu	a5,1(a1)
   12318:	cf8d                	beqz	a5,12352 <_vfprintf_r+0x1aee>
   1231a:	7706                	ld	a4,96(sp)
   1231c:	2705                	addiw	a4,a4,1
   1231e:	f0ba                	sd	a4,96(sp)
   12320:	00158713          	addi	a4,a1,1
   12324:	f4ba                	sd	a4,104(sp)
   12326:	fcd79ee3          	bne	a5,a3,12302 <_vfprintf_r+0x1a9e>
   1232a:	7706                	ld	a4,96(sp)
   1232c:	67c6                	ld	a5,80(sp)
   1232e:	9fb9                	addw	a5,a5,a4
   12330:	672a                	ld	a4,136(sp)
   12332:	02e787bb          	mulw	a5,a5,a4
   12336:	018787bb          	addw	a5,a5,s8
   1233a:	00078c1b          	sext.w	s8,a5
   1233e:	fffc4993          	not	s3,s8
   12342:	43f9d993          	srai	s3,s3,0x3f
   12346:	0137f7b3          	and	a5,a5,s3
   1234a:	0007899b          	sext.w	s3,a5
   1234e:	b29fe06f          	j	10e76 <_vfprintf_r+0x612>
   12352:	6746                	ld	a4,80(sp)
   12354:	77a6                	ld	a5,104(sp)
   12356:	2705                	addiw	a4,a4,1
   12358:	0007c783          	lbu	a5,0(a5)
   1235c:	e8ba                	sd	a4,80(sp)
   1235e:	b7e1                	j	12326 <_vfprintf_r+0x1ac2>
   12360:	ec02                	sd	zero,24(sp)
   12362:	84be                	mv	s1,a5
   12364:	b16d                	j	1200e <_vfprintf_r+0x17aa>
   12366:	85ce                	mv	a1,s3
   12368:	8562                	mv	a0,s8
   1236a:	fc1a                	sd	t1,56(sp)
   1236c:	f876                	sd	t4,48(sp)
   1236e:	6bd090ef          	jal	ra,1c22a <__trunctfdf2>
   12372:	11a8                	addi	a0,sp,232
   12374:	235040ef          	jal	ra,16da8 <frexp>
   12378:	5f3090ef          	jal	ra,1c16a <__extenddftf2>
   1237c:	0000a797          	auipc	a5,0xa
   12380:	3e478793          	addi	a5,a5,996 # 1c760 <zeroes.4521+0x30>
   12384:	6390                	ld	a2,0(a5)
   12386:	6794                	ld	a3,8(a5)
   12388:	6e3080ef          	jal	ra,1b26a <__multf3>
   1238c:	4601                	li	a2,0
   1238e:	4681                	li	a3,0
   12390:	f02a                	sd	a0,32(sp)
   12392:	e42e                	sd	a1,8(sp)
   12394:	4f3080ef          	jal	ra,1b086 <__eqtf2>
   12398:	62a2                	ld	t0,8(sp)
   1239a:	7702                	ld	a4,32(sp)
   1239c:	7ec2                	ld	t4,48(sp)
   1239e:	7362                	ld	t1,56(sp)
   123a0:	e119                	bnez	a0,123a6 <_vfprintf_r+0x1b42>
   123a2:	4785                	li	a5,1
   123a4:	d5be                	sw	a5,232(sp)
   123a6:	0000a797          	auipc	a5,0xa
   123aa:	1e278793          	addi	a5,a5,482 # 1c588 <__clzdi2+0x12c>
   123ae:	e8be                	sd	a5,80(sp)
   123b0:	bce1                	j	11e88 <_vfprintf_r+0x1624>
   123b2:	0f210713          	addi	a4,sp,242
   123b6:	e699                	bnez	a3,123c4 <_vfprintf_r+0x1b60>
   123b8:	03000713          	li	a4,48
   123bc:	0ee10923          	sb	a4,242(sp)
   123c0:	0f310713          	addi	a4,sp,243
   123c4:	0c14                	addi	a3,sp,528
   123c6:	0307879b          	addiw	a5,a5,48
   123ca:	40d706b3          	sub	a3,a4,a3
   123ce:	00f70023          	sb	a5,0(a4)
   123d2:	1216879b          	addiw	a5,a3,289
   123d6:	e13e                	sd	a5,128(sp)
   123d8:	a65fe06f          	j	10e3c <_vfprintf_r+0x5d8>
   123dc:	77c6                	ld	a5,112(sp)
   123de:	06600d93          	li	s11,102
   123e2:	00e78c3b          	addw	s8,a5,a4
   123e6:	01dc0c3b          	addw	s8,s8,t4
   123ea:	bb81                	j	1213a <_vfprintf_r+0x18d6>
   123ec:	676a                	ld	a4,152(sp)
   123ee:	8b05                	andi	a4,a4,1
   123f0:	e319                	bnez	a4,123f6 <_vfprintf_r+0x1b92>
   123f2:	a65fe06f          	j	10e56 <_vfprintf_r+0x5f2>
   123f6:	a5bfe06f          	j	10e50 <_vfprintf_r+0x5ec>
   123fa:	40ec07bb          	subw	a5,s8,a4
   123fe:	2785                	addiw	a5,a5,1
   12400:	00078c1b          	sext.w	s8,a5
   12404:	fffc4993          	not	s3,s8
   12408:	43f9d993          	srai	s3,s3,0x3f
   1240c:	0137f7b3          	and	a5,a5,s3
   12410:	0007899b          	sext.w	s3,a5
   12414:	bef1                	j	11ff0 <_vfprintf_r+0x178c>
   12416:	e791                	bnez	a5,12422 <_vfprintf_r+0x1bbe>
   12418:	4985                	li	s3,1
   1241a:	06600d93          	li	s11,102
   1241e:	4c05                	li	s8,1
   12420:	bec1                	j	11ff0 <_vfprintf_r+0x178c>
   12422:	77c6                	ld	a5,112(sp)
   12424:	06600d93          	li	s11,102
   12428:	2785                	addiw	a5,a5,1
   1242a:	01d78ebb          	addw	t4,a5,t4
   1242e:	000e8c1b          	sext.w	s8,t4
   12432:	fffc4993          	not	s3,s8
   12436:	43f9d993          	srai	s3,s3,0x3f
   1243a:	013efeb3          	and	t4,t4,s3
   1243e:	000e899b          	sext.w	s3,t4
   12442:	b67d                	j	11ff0 <_vfprintf_r+0x178c>
   12444:	871a                	mv	a4,t1
   12446:	c9aff06f          	j	118e0 <_vfprintf_r+0x107c>
   1244a:	66c2                	ld	a3,16(sp)
   1244c:	4298                	lw	a4,0(a3)
   1244e:	06a1                	addi	a3,a3,8
   12450:	00070e9b          	sext.w	t4,a4
   12454:	00075363          	bgez	a4,1245a <_vfprintf_r+0x1bf6>
   12458:	5efd                	li	t4,-1
   1245a:	00144f03          	lbu	t5,1(s0)
   1245e:	e836                	sd	a3,16(sp)
   12460:	843e                	mv	s0,a5
   12462:	d36fe06f          	j	10998 <_vfprintf_r+0x134>
   12466:	4789                	li	a5,2
   12468:	e13e                	sd	a5,128(sp)
   1246a:	9d3fe06f          	j	10e3c <_vfprintf_r+0x5d8>
   1246e:	010a5783          	lhu	a5,16(s4)
   12472:	0407e793          	ori	a5,a5,64
   12476:	00fa1823          	sh	a5,16(s4)
   1247a:	e8cfe06f          	j	10b06 <_vfprintf_r+0x2a2>

000000000001247e <vfprintf>:
   1247e:	86b2                	mv	a3,a2
   12480:	862e                	mv	a2,a1
   12482:	85aa                	mv	a1,a0
   12484:	7581b503          	ld	a0,1880(gp) # 1f408 <_impure_ptr>
   12488:	bdcfe06f          	j	10864 <_vfprintf_r>

000000000001248c <__sbprintf>:
   1248c:	0105d783          	lhu	a5,16(a1)
   12490:	0ac5ae03          	lw	t3,172(a1)
   12494:	0125d303          	lhu	t1,18(a1)
   12498:	0305b883          	ld	a7,48(a1)
   1249c:	0405b803          	ld	a6,64(a1)
   124a0:	b3010113          	addi	sp,sp,-1232
   124a4:	9bf5                	andi	a5,a5,-3
   124a6:	40000713          	li	a4,1024
   124aa:	4c813023          	sd	s0,1216(sp)
   124ae:	00f11823          	sh	a5,16(sp)
   124b2:	842e                	mv	s0,a1
   124b4:	191c                	addi	a5,sp,176
   124b6:	858a                	mv	a1,sp
   124b8:	4a913c23          	sd	s1,1208(sp)
   124bc:	4b213823          	sd	s2,1200(sp)
   124c0:	4c113423          	sd	ra,1224(sp)
   124c4:	892a                	mv	s2,a0
   124c6:	d772                	sw	t3,172(sp)
   124c8:	00611923          	sh	t1,18(sp)
   124cc:	f846                	sd	a7,48(sp)
   124ce:	e0c2                	sd	a6,64(sp)
   124d0:	e03e                	sd	a5,0(sp)
   124d2:	ec3e                	sd	a5,24(sp)
   124d4:	c63a                	sw	a4,12(sp)
   124d6:	d03a                	sw	a4,32(sp)
   124d8:	d402                	sw	zero,40(sp)
   124da:	b8afe0ef          	jal	ra,10864 <_vfprintf_r>
   124de:	84aa                	mv	s1,a0
   124e0:	02055963          	bgez	a0,12512 <__sbprintf+0x86>
   124e4:	01015783          	lhu	a5,16(sp)
   124e8:	0407f793          	andi	a5,a5,64
   124ec:	c799                	beqz	a5,124fa <__sbprintf+0x6e>
   124ee:	01045783          	lhu	a5,16(s0)
   124f2:	0407e793          	ori	a5,a5,64
   124f6:	00f41823          	sh	a5,16(s0)
   124fa:	4c813083          	ld	ra,1224(sp)
   124fe:	4c013403          	ld	s0,1216(sp)
   12502:	4b013903          	ld	s2,1200(sp)
   12506:	8526                	mv	a0,s1
   12508:	4b813483          	ld	s1,1208(sp)
   1250c:	4d010113          	addi	sp,sp,1232
   12510:	8082                	ret
   12512:	858a                	mv	a1,sp
   12514:	854a                	mv	a0,s2
   12516:	354000ef          	jal	ra,1286a <_fflush_r>
   1251a:	d569                	beqz	a0,124e4 <__sbprintf+0x58>
   1251c:	54fd                	li	s1,-1
   1251e:	b7d9                	j	124e4 <__sbprintf+0x58>

0000000000012520 <__swsetup_r>:
   12520:	1101                	addi	sp,sp,-32
   12522:	e822                	sd	s0,16(sp)
   12524:	e426                	sd	s1,8(sp)
   12526:	ec06                	sd	ra,24(sp)
   12528:	7581b783          	ld	a5,1880(gp) # 1f408 <_impure_ptr>
   1252c:	84aa                	mv	s1,a0
   1252e:	842e                	mv	s0,a1
   12530:	c399                	beqz	a5,12536 <__swsetup_r+0x16>
   12532:	4bb8                	lw	a4,80(a5)
   12534:	cf49                	beqz	a4,125ce <__swsetup_r+0xae>
   12536:	01041703          	lh	a4,16(s0)
   1253a:	03071793          	slli	a5,a4,0x30
   1253e:	00877693          	andi	a3,a4,8
   12542:	93c1                	srli	a5,a5,0x30
   12544:	c29d                	beqz	a3,1256a <__swsetup_r+0x4a>
   12546:	6c14                	ld	a3,24(s0)
   12548:	ce9d                	beqz	a3,12586 <__swsetup_r+0x66>
   1254a:	0017f613          	andi	a2,a5,1
   1254e:	ce39                	beqz	a2,125ac <__swsetup_r+0x8c>
   12550:	5010                	lw	a2,32(s0)
   12552:	00042623          	sw	zero,12(s0)
   12556:	4501                	li	a0,0
   12558:	40c0063b          	negw	a2,a2
   1255c:	d410                	sw	a2,40(s0)
   1255e:	ceb9                	beqz	a3,125bc <__swsetup_r+0x9c>
   12560:	60e2                	ld	ra,24(sp)
   12562:	6442                	ld	s0,16(sp)
   12564:	64a2                	ld	s1,8(sp)
   12566:	6105                	addi	sp,sp,32
   12568:	8082                	ret
   1256a:	0107f693          	andi	a3,a5,16
   1256e:	cac1                	beqz	a3,125fe <__swsetup_r+0xde>
   12570:	8b91                	andi	a5,a5,4
   12572:	e3b5                	bnez	a5,125d6 <__swsetup_r+0xb6>
   12574:	6c14                	ld	a3,24(s0)
   12576:	00876713          	ori	a4,a4,8
   1257a:	03071793          	slli	a5,a4,0x30
   1257e:	00e41823          	sh	a4,16(s0)
   12582:	93c1                	srli	a5,a5,0x30
   12584:	f2f9                	bnez	a3,1254a <__swsetup_r+0x2a>
   12586:	2807f613          	andi	a2,a5,640
   1258a:	20000593          	li	a1,512
   1258e:	fab60ee3          	beq	a2,a1,1254a <__swsetup_r+0x2a>
   12592:	85a2                	mv	a1,s0
   12594:	8526                	mv	a0,s1
   12596:	6d1020ef          	jal	ra,15466 <__smakebuf_r>
   1259a:	01041703          	lh	a4,16(s0)
   1259e:	6c14                	ld	a3,24(s0)
   125a0:	03071793          	slli	a5,a4,0x30
   125a4:	93c1                	srli	a5,a5,0x30
   125a6:	0017f613          	andi	a2,a5,1
   125aa:	f25d                	bnez	a2,12550 <__swsetup_r+0x30>
   125ac:	0027f613          	andi	a2,a5,2
   125b0:	4581                	li	a1,0
   125b2:	e211                	bnez	a2,125b6 <__swsetup_r+0x96>
   125b4:	500c                	lw	a1,32(s0)
   125b6:	c44c                	sw	a1,12(s0)
   125b8:	4501                	li	a0,0
   125ba:	f2dd                	bnez	a3,12560 <__swsetup_r+0x40>
   125bc:	0807f793          	andi	a5,a5,128
   125c0:	d3c5                	beqz	a5,12560 <__swsetup_r+0x40>
   125c2:	04076713          	ori	a4,a4,64
   125c6:	00e41823          	sh	a4,16(s0)
   125ca:	557d                	li	a0,-1
   125cc:	bf51                	j	12560 <__swsetup_r+0x40>
   125ce:	853e                	mv	a0,a5
   125d0:	530000ef          	jal	ra,12b00 <__sinit>
   125d4:	b78d                	j	12536 <__swsetup_r+0x16>
   125d6:	6c2c                	ld	a1,88(s0)
   125d8:	cd81                	beqz	a1,125f0 <__swsetup_r+0xd0>
   125da:	07440793          	addi	a5,s0,116
   125de:	00f58763          	beq	a1,a5,125ec <__swsetup_r+0xcc>
   125e2:	8526                	mv	a0,s1
   125e4:	656000ef          	jal	ra,12c3a <_free_r>
   125e8:	01041703          	lh	a4,16(s0)
   125ec:	04043c23          	sd	zero,88(s0)
   125f0:	6c14                	ld	a3,24(s0)
   125f2:	fdb77713          	andi	a4,a4,-37
   125f6:	00042423          	sw	zero,8(s0)
   125fa:	e014                	sd	a3,0(s0)
   125fc:	bfad                	j	12576 <__swsetup_r+0x56>
   125fe:	47a5                	li	a5,9
   12600:	c09c                	sw	a5,0(s1)
   12602:	04076713          	ori	a4,a4,64
   12606:	00e41823          	sh	a4,16(s0)
   1260a:	557d                	li	a0,-1
   1260c:	bf91                	j	12560 <__swsetup_r+0x40>

000000000001260e <__call_exitprocs>:
   1260e:	715d                	addi	sp,sp,-80
   12610:	f052                	sd	s4,32(sp)
   12612:	7481ba03          	ld	s4,1864(gp) # 1f3f8 <_global_impure_ptr>
   12616:	f84a                	sd	s2,48(sp)
   12618:	1f8a3903          	ld	s2,504(s4)
   1261c:	e486                	sd	ra,72(sp)
   1261e:	e0a2                	sd	s0,64(sp)
   12620:	fc26                	sd	s1,56(sp)
   12622:	f44e                	sd	s3,40(sp)
   12624:	ec56                	sd	s5,24(sp)
   12626:	e85a                	sd	s6,16(sp)
   12628:	e45e                	sd	s7,8(sp)
   1262a:	e062                	sd	s8,0(sp)
   1262c:	02090863          	beqz	s2,1265c <__call_exitprocs+0x4e>
   12630:	8b2a                	mv	s6,a0
   12632:	8bae                	mv	s7,a1
   12634:	4a85                	li	s5,1
   12636:	59fd                	li	s3,-1
   12638:	00892483          	lw	s1,8(s2)
   1263c:	fff4841b          	addiw	s0,s1,-1
   12640:	00044e63          	bltz	s0,1265c <__call_exitprocs+0x4e>
   12644:	048e                	slli	s1,s1,0x3
   12646:	94ca                	add	s1,s1,s2
   12648:	020b8663          	beqz	s7,12674 <__call_exitprocs+0x66>
   1264c:	2084b783          	ld	a5,520(s1)
   12650:	03778263          	beq	a5,s7,12674 <__call_exitprocs+0x66>
   12654:	347d                	addiw	s0,s0,-1
   12656:	14e1                	addi	s1,s1,-8
   12658:	ff3418e3          	bne	s0,s3,12648 <__call_exitprocs+0x3a>
   1265c:	60a6                	ld	ra,72(sp)
   1265e:	6406                	ld	s0,64(sp)
   12660:	74e2                	ld	s1,56(sp)
   12662:	7942                	ld	s2,48(sp)
   12664:	79a2                	ld	s3,40(sp)
   12666:	7a02                	ld	s4,32(sp)
   12668:	6ae2                	ld	s5,24(sp)
   1266a:	6b42                	ld	s6,16(sp)
   1266c:	6ba2                	ld	s7,8(sp)
   1266e:	6c02                	ld	s8,0(sp)
   12670:	6161                	addi	sp,sp,80
   12672:	8082                	ret
   12674:	00892783          	lw	a5,8(s2)
   12678:	6498                	ld	a4,8(s1)
   1267a:	37fd                	addiw	a5,a5,-1
   1267c:	04878463          	beq	a5,s0,126c4 <__call_exitprocs+0xb6>
   12680:	0004b423          	sd	zero,8(s1)
   12684:	db61                	beqz	a4,12654 <__call_exitprocs+0x46>
   12686:	31092783          	lw	a5,784(s2)
   1268a:	008a96bb          	sllw	a3,s5,s0
   1268e:	00892c03          	lw	s8,8(s2)
   12692:	8ff5                	and	a5,a5,a3
   12694:	2781                	sext.w	a5,a5
   12696:	ef89                	bnez	a5,126b0 <__call_exitprocs+0xa2>
   12698:	9702                	jalr	a4
   1269a:	00892703          	lw	a4,8(s2)
   1269e:	1f8a3783          	ld	a5,504(s4)
   126a2:	01871463          	bne	a4,s8,126aa <__call_exitprocs+0x9c>
   126a6:	faf907e3          	beq	s2,a5,12654 <__call_exitprocs+0x46>
   126aa:	dbcd                	beqz	a5,1265c <__call_exitprocs+0x4e>
   126ac:	893e                	mv	s2,a5
   126ae:	b769                	j	12638 <__call_exitprocs+0x2a>
   126b0:	31492783          	lw	a5,788(s2)
   126b4:	1084b583          	ld	a1,264(s1)
   126b8:	8ff5                	and	a5,a5,a3
   126ba:	2781                	sext.w	a5,a5
   126bc:	e799                	bnez	a5,126ca <__call_exitprocs+0xbc>
   126be:	855a                	mv	a0,s6
   126c0:	9702                	jalr	a4
   126c2:	bfe1                	j	1269a <__call_exitprocs+0x8c>
   126c4:	00892423          	sw	s0,8(s2)
   126c8:	bf75                	j	12684 <__call_exitprocs+0x76>
   126ca:	852e                	mv	a0,a1
   126cc:	9702                	jalr	a4
   126ce:	b7f1                	j	1269a <__call_exitprocs+0x8c>

00000000000126d0 <__sflush_r>:
   126d0:	01059783          	lh	a5,16(a1)
   126d4:	7179                	addi	sp,sp,-48
   126d6:	f022                	sd	s0,32(sp)
   126d8:	e44e                	sd	s3,8(sp)
   126da:	f406                	sd	ra,40(sp)
   126dc:	ec26                	sd	s1,24(sp)
   126de:	e84a                	sd	s2,16(sp)
   126e0:	0087f693          	andi	a3,a5,8
   126e4:	842e                	mv	s0,a1
   126e6:	89aa                	mv	s3,a0
   126e8:	eecd                	bnez	a3,127a2 <__sflush_r+0xd2>
   126ea:	6705                	lui	a4,0x1
   126ec:	80070713          	addi	a4,a4,-2048 # 800 <main-0xf8b0>
   126f0:	4594                	lw	a3,8(a1)
   126f2:	8fd9                	or	a5,a5,a4
   126f4:	00f59823          	sh	a5,16(a1)
   126f8:	10d05363          	blez	a3,127fe <__sflush_r+0x12e>
   126fc:	6438                	ld	a4,72(s0)
   126fe:	cb51                	beqz	a4,12792 <__sflush_r+0xc2>
   12700:	0009a483          	lw	s1,0(s3)
   12704:	03079693          	slli	a3,a5,0x30
   12708:	0009a023          	sw	zero,0(s3)
   1270c:	03379613          	slli	a2,a5,0x33
   12710:	780c                	ld	a1,48(s0)
   12712:	92c1                	srli	a3,a3,0x30
   12714:	0e064963          	bltz	a2,12806 <__sflush_r+0x136>
   12718:	4601                	li	a2,0
   1271a:	4685                	li	a3,1
   1271c:	854e                	mv	a0,s3
   1271e:	9702                	jalr	a4
   12720:	57fd                	li	a5,-1
   12722:	862a                	mv	a2,a0
   12724:	10f50963          	beq	a0,a5,12836 <__sflush_r+0x166>
   12728:	01045683          	lhu	a3,16(s0)
   1272c:	6438                	ld	a4,72(s0)
   1272e:	780c                	ld	a1,48(s0)
   12730:	8a91                	andi	a3,a3,4
   12732:	c699                	beqz	a3,12740 <__sflush_r+0x70>
   12734:	4414                	lw	a3,8(s0)
   12736:	6c3c                	ld	a5,88(s0)
   12738:	8e15                	sub	a2,a2,a3
   1273a:	c399                	beqz	a5,12740 <__sflush_r+0x70>
   1273c:	583c                	lw	a5,112(s0)
   1273e:	8e1d                	sub	a2,a2,a5
   12740:	4681                	li	a3,0
   12742:	854e                	mv	a0,s3
   12744:	9702                	jalr	a4
   12746:	57fd                	li	a5,-1
   12748:	0cf51163          	bne	a0,a5,1280a <__sflush_r+0x13a>
   1274c:	0009a703          	lw	a4,0(s3)
   12750:	01041783          	lh	a5,16(s0)
   12754:	0e070f63          	beqz	a4,12852 <__sflush_r+0x182>
   12758:	46f5                	li	a3,29
   1275a:	00d70563          	beq	a4,a3,12764 <__sflush_r+0x94>
   1275e:	46d9                	li	a3,22
   12760:	0ed71f63          	bne	a4,a3,1285e <__sflush_r+0x18e>
   12764:	6c14                	ld	a3,24(s0)
   12766:	777d                	lui	a4,0xfffff
   12768:	7ff70713          	addi	a4,a4,2047 # fffffffffffff7ff <__BSS_END__+0xfffffffffffe034f>
   1276c:	8ff9                	and	a5,a5,a4
   1276e:	00f41823          	sh	a5,16(s0)
   12772:	00042423          	sw	zero,8(s0)
   12776:	e014                	sd	a3,0(s0)
   12778:	6c2c                	ld	a1,88(s0)
   1277a:	0099a023          	sw	s1,0(s3)
   1277e:	c991                	beqz	a1,12792 <__sflush_r+0xc2>
   12780:	07440793          	addi	a5,s0,116
   12784:	00f58563          	beq	a1,a5,1278e <__sflush_r+0xbe>
   12788:	854e                	mv	a0,s3
   1278a:	4b0000ef          	jal	ra,12c3a <_free_r>
   1278e:	04043c23          	sd	zero,88(s0)
   12792:	4501                	li	a0,0
   12794:	70a2                	ld	ra,40(sp)
   12796:	7402                	ld	s0,32(sp)
   12798:	64e2                	ld	s1,24(sp)
   1279a:	6942                	ld	s2,16(sp)
   1279c:	69a2                	ld	s3,8(sp)
   1279e:	6145                	addi	sp,sp,48
   127a0:	8082                	ret
   127a2:	0185b903          	ld	s2,24(a1)
   127a6:	fe0906e3          	beqz	s2,12792 <__sflush_r+0xc2>
   127aa:	6184                	ld	s1,0(a1)
   127ac:	03079713          	slli	a4,a5,0x30
   127b0:	9341                	srli	a4,a4,0x30
   127b2:	8b0d                	andi	a4,a4,3
   127b4:	0125b023          	sd	s2,0(a1)
   127b8:	412484bb          	subw	s1,s1,s2
   127bc:	4781                	li	a5,0
   127be:	e311                	bnez	a4,127c2 <__sflush_r+0xf2>
   127c0:	519c                	lw	a5,32(a1)
   127c2:	c45c                	sw	a5,12(s0)
   127c4:	00904663          	bgtz	s1,127d0 <__sflush_r+0x100>
   127c8:	b7e9                	j	12792 <__sflush_r+0xc2>
   127ca:	992a                	add	s2,s2,a0
   127cc:	fc9053e3          	blez	s1,12792 <__sflush_r+0xc2>
   127d0:	603c                	ld	a5,64(s0)
   127d2:	780c                	ld	a1,48(s0)
   127d4:	86a6                	mv	a3,s1
   127d6:	864a                	mv	a2,s2
   127d8:	854e                	mv	a0,s3
   127da:	9782                	jalr	a5
   127dc:	9c89                	subw	s1,s1,a0
   127de:	fea046e3          	bgtz	a0,127ca <__sflush_r+0xfa>
   127e2:	01045783          	lhu	a5,16(s0)
   127e6:	70a2                	ld	ra,40(sp)
   127e8:	64e2                	ld	s1,24(sp)
   127ea:	0407e793          	ori	a5,a5,64
   127ee:	00f41823          	sh	a5,16(s0)
   127f2:	7402                	ld	s0,32(sp)
   127f4:	6942                	ld	s2,16(sp)
   127f6:	69a2                	ld	s3,8(sp)
   127f8:	557d                	li	a0,-1
   127fa:	6145                	addi	sp,sp,48
   127fc:	8082                	ret
   127fe:	59b8                	lw	a4,112(a1)
   12800:	eee04ee3          	bgtz	a4,126fc <__sflush_r+0x2c>
   12804:	b779                	j	12792 <__sflush_r+0xc2>
   12806:	6850                	ld	a2,144(s0)
   12808:	b725                	j	12730 <__sflush_r+0x60>
   1280a:	01045783          	lhu	a5,16(s0)
   1280e:	777d                	lui	a4,0xfffff
   12810:	7ff70713          	addi	a4,a4,2047 # fffffffffffff7ff <__BSS_END__+0xfffffffffffe034f>
   12814:	8ff9                	and	a5,a5,a4
   12816:	6c14                	ld	a3,24(s0)
   12818:	0107979b          	slliw	a5,a5,0x10
   1281c:	4107d79b          	sraiw	a5,a5,0x10
   12820:	00f41823          	sh	a5,16(s0)
   12824:	00042423          	sw	zero,8(s0)
   12828:	e014                	sd	a3,0(s0)
   1282a:	03379713          	slli	a4,a5,0x33
   1282e:	f40755e3          	bgez	a4,12778 <__sflush_r+0xa8>
   12832:	e848                	sd	a0,144(s0)
   12834:	b791                	j	12778 <__sflush_r+0xa8>
   12836:	0009a783          	lw	a5,0(s3)
   1283a:	ee0787e3          	beqz	a5,12728 <__sflush_r+0x58>
   1283e:	4775                	li	a4,29
   12840:	00e78563          	beq	a5,a4,1284a <__sflush_r+0x17a>
   12844:	4759                	li	a4,22
   12846:	f8e79ee3          	bne	a5,a4,127e2 <__sflush_r+0x112>
   1284a:	0099a023          	sw	s1,0(s3)
   1284e:	4501                	li	a0,0
   12850:	b791                	j	12794 <__sflush_r+0xc4>
   12852:	777d                	lui	a4,0xfffff
   12854:	7ff70713          	addi	a4,a4,2047 # fffffffffffff7ff <__BSS_END__+0xfffffffffffe034f>
   12858:	6c14                	ld	a3,24(s0)
   1285a:	8ff9                	and	a5,a5,a4
   1285c:	b7d1                	j	12820 <__sflush_r+0x150>
   1285e:	0407e793          	ori	a5,a5,64
   12862:	00f41823          	sh	a5,16(s0)
   12866:	557d                	li	a0,-1
   12868:	b735                	j	12794 <__sflush_r+0xc4>

000000000001286a <_fflush_r>:
   1286a:	1101                	addi	sp,sp,-32
   1286c:	e822                	sd	s0,16(sp)
   1286e:	ec06                	sd	ra,24(sp)
   12870:	842a                	mv	s0,a0
   12872:	c119                	beqz	a0,12878 <_fflush_r+0xe>
   12874:	493c                	lw	a5,80(a0)
   12876:	cb89                	beqz	a5,12888 <_fflush_r+0x1e>
   12878:	01059783          	lh	a5,16(a1)
   1287c:	ef89                	bnez	a5,12896 <_fflush_r+0x2c>
   1287e:	60e2                	ld	ra,24(sp)
   12880:	6442                	ld	s0,16(sp)
   12882:	4501                	li	a0,0
   12884:	6105                	addi	sp,sp,32
   12886:	8082                	ret
   12888:	e42e                	sd	a1,8(sp)
   1288a:	276000ef          	jal	ra,12b00 <__sinit>
   1288e:	65a2                	ld	a1,8(sp)
   12890:	01059783          	lh	a5,16(a1)
   12894:	d7ed                	beqz	a5,1287e <_fflush_r+0x14>
   12896:	8522                	mv	a0,s0
   12898:	6442                	ld	s0,16(sp)
   1289a:	60e2                	ld	ra,24(sp)
   1289c:	6105                	addi	sp,sp,32
   1289e:	bd0d                	j	126d0 <__sflush_r>

00000000000128a0 <fflush>:
   128a0:	85aa                	mv	a1,a0
   128a2:	c501                	beqz	a0,128aa <fflush+0xa>
   128a4:	7581b503          	ld	a0,1880(gp) # 1f408 <_impure_ptr>
   128a8:	b7c9                	j	1286a <_fflush_r>
   128aa:	00000597          	auipc	a1,0x0
   128ae:	fc058593          	addi	a1,a1,-64 # 1286a <_fflush_r>
   128b2:	7481b503          	ld	a0,1864(gp) # 1f3f8 <_global_impure_ptr>
   128b6:	1810006f          	j	13236 <_fwalk_reent>

00000000000128ba <__fp_lock>:
   128ba:	4501                	li	a0,0
   128bc:	8082                	ret

00000000000128be <_cleanup_r>:
   128be:	00007597          	auipc	a1,0x7
   128c2:	36c58593          	addi	a1,a1,876 # 19c2a <_fclose_r>
   128c6:	1710006f          	j	13236 <_fwalk_reent>

00000000000128ca <__sinit.part.0>:
   128ca:	7139                	addi	sp,sp,-64
   128cc:	fc06                	sd	ra,56(sp)
   128ce:	f822                	sd	s0,48(sp)
   128d0:	f426                	sd	s1,40(sp)
   128d2:	f04a                	sd	s2,32(sp)
   128d4:	ec4e                	sd	s3,24(sp)
   128d6:	e852                	sd	s4,16(sp)
   128d8:	e456                	sd	s5,8(sp)
   128da:	e05a                	sd	s6,0(sp)
   128dc:	6500                	ld	s0,8(a0)
   128de:	00000717          	auipc	a4,0x0
   128e2:	fe070713          	addi	a4,a4,-32 # 128be <_cleanup_r>
   128e6:	ed38                	sd	a4,88(a0)
   128e8:	53850793          	addi	a5,a0,1336
   128ec:	470d                	li	a4,3
   128ee:	52e52423          	sw	a4,1320(a0)
   128f2:	52f53823          	sd	a5,1328(a0)
   128f6:	52053023          	sd	zero,1312(a0)
   128fa:	4791                	li	a5,4
   128fc:	892a                	mv	s2,a0
   128fe:	c81c                	sw	a5,16(s0)
   12900:	4621                	li	a2,8
   12902:	4581                	li	a1,0
   12904:	0a042623          	sw	zero,172(s0)
   12908:	00043023          	sd	zero,0(s0)
   1290c:	00043423          	sd	zero,8(s0)
   12910:	00043c23          	sd	zero,24(s0)
   12914:	02042023          	sw	zero,32(s0)
   12918:	02042423          	sw	zero,40(s0)
   1291c:	0a440513          	addi	a0,s0,164
   12920:	d07fd0ef          	jal	ra,10626 <memset>
   12924:	01093483          	ld	s1,16(s2)
   12928:	00004b17          	auipc	s6,0x4
   1292c:	58cb0b13          	addi	s6,s6,1420 # 16eb4 <__sread>
   12930:	00004a97          	auipc	s5,0x4
   12934:	5c0a8a93          	addi	s5,s5,1472 # 16ef0 <__swrite>
   12938:	00004a17          	auipc	s4,0x4
   1293c:	60ca0a13          	addi	s4,s4,1548 # 16f44 <__sseek>
   12940:	00004997          	auipc	s3,0x4
   12944:	64698993          	addi	s3,s3,1606 # 16f86 <__sclose>
   12948:	67c1                	lui	a5,0x10
   1294a:	03643c23          	sd	s6,56(s0)
   1294e:	05543023          	sd	s5,64(s0)
   12952:	05443423          	sd	s4,72(s0)
   12956:	05343823          	sd	s3,80(s0)
   1295a:	f800                	sd	s0,48(s0)
   1295c:	07a5                	addi	a5,a5,9
   1295e:	c89c                	sw	a5,16(s1)
   12960:	4621                	li	a2,8
   12962:	4581                	li	a1,0
   12964:	0a04a623          	sw	zero,172(s1)
   12968:	0004b023          	sd	zero,0(s1)
   1296c:	0004b423          	sd	zero,8(s1)
   12970:	0004bc23          	sd	zero,24(s1)
   12974:	0204a023          	sw	zero,32(s1)
   12978:	0204a423          	sw	zero,40(s1)
   1297c:	0a448513          	addi	a0,s1,164
   12980:	ca7fd0ef          	jal	ra,10626 <memset>
   12984:	01893403          	ld	s0,24(s2)
   12988:	000207b7          	lui	a5,0x20
   1298c:	0364bc23          	sd	s6,56(s1)
   12990:	0554b023          	sd	s5,64(s1)
   12994:	0544b423          	sd	s4,72(s1)
   12998:	0534b823          	sd	s3,80(s1)
   1299c:	f884                	sd	s1,48(s1)
   1299e:	07c9                	addi	a5,a5,18
   129a0:	c81c                	sw	a5,16(s0)
   129a2:	0a042623          	sw	zero,172(s0)
   129a6:	00043023          	sd	zero,0(s0)
   129aa:	00043423          	sd	zero,8(s0)
   129ae:	00043c23          	sd	zero,24(s0)
   129b2:	02042023          	sw	zero,32(s0)
   129b6:	02042423          	sw	zero,40(s0)
   129ba:	0a440513          	addi	a0,s0,164
   129be:	4621                	li	a2,8
   129c0:	4581                	li	a1,0
   129c2:	c65fd0ef          	jal	ra,10626 <memset>
   129c6:	70e2                	ld	ra,56(sp)
   129c8:	03643c23          	sd	s6,56(s0)
   129cc:	05543023          	sd	s5,64(s0)
   129d0:	05443423          	sd	s4,72(s0)
   129d4:	05343823          	sd	s3,80(s0)
   129d8:	f800                	sd	s0,48(s0)
   129da:	7442                	ld	s0,48(sp)
   129dc:	4785                	li	a5,1
   129de:	04f92823          	sw	a5,80(s2)
   129e2:	74a2                	ld	s1,40(sp)
   129e4:	7902                	ld	s2,32(sp)
   129e6:	69e2                	ld	s3,24(sp)
   129e8:	6a42                	ld	s4,16(sp)
   129ea:	6aa2                	ld	s5,8(sp)
   129ec:	6b02                	ld	s6,0(sp)
   129ee:	6121                	addi	sp,sp,64
   129f0:	8082                	ret

00000000000129f2 <__fp_unlock>:
   129f2:	4501                	li	a0,0
   129f4:	8082                	ret

00000000000129f6 <__sfmoreglue>:
   129f6:	1101                	addi	sp,sp,-32
   129f8:	e426                	sd	s1,8(sp)
   129fa:	0b000613          	li	a2,176
   129fe:	fff5849b          	addiw	s1,a1,-1
   12a02:	02c484b3          	mul	s1,s1,a2
   12a06:	e04a                	sd	s2,0(sp)
   12a08:	892e                	mv	s2,a1
   12a0a:	e822                	sd	s0,16(sp)
   12a0c:	ec06                	sd	ra,24(sp)
   12a0e:	0c848593          	addi	a1,s1,200
   12a12:	311020ef          	jal	ra,15522 <_malloc_r>
   12a16:	842a                	mv	s0,a0
   12a18:	cd01                	beqz	a0,12a30 <__sfmoreglue+0x3a>
   12a1a:	0561                	addi	a0,a0,24
   12a1c:	00043023          	sd	zero,0(s0)
   12a20:	01242423          	sw	s2,8(s0)
   12a24:	e808                	sd	a0,16(s0)
   12a26:	0b048613          	addi	a2,s1,176
   12a2a:	4581                	li	a1,0
   12a2c:	bfbfd0ef          	jal	ra,10626 <memset>
   12a30:	60e2                	ld	ra,24(sp)
   12a32:	8522                	mv	a0,s0
   12a34:	6442                	ld	s0,16(sp)
   12a36:	64a2                	ld	s1,8(sp)
   12a38:	6902                	ld	s2,0(sp)
   12a3a:	6105                	addi	sp,sp,32
   12a3c:	8082                	ret

0000000000012a3e <__sfp>:
   12a3e:	7179                	addi	sp,sp,-48
   12a40:	ec26                	sd	s1,24(sp)
   12a42:	7481b483          	ld	s1,1864(gp) # 1f3f8 <_global_impure_ptr>
   12a46:	48bc                	lw	a5,80(s1)
   12a48:	e84a                	sd	s2,16(sp)
   12a4a:	f406                	sd	ra,40(sp)
   12a4c:	f022                	sd	s0,32(sp)
   12a4e:	e44e                	sd	s3,8(sp)
   12a50:	892a                	mv	s2,a0
   12a52:	c3c9                	beqz	a5,12ad4 <__sfp+0x96>
   12a54:	52048493          	addi	s1,s1,1312
   12a58:	0b000993          	li	s3,176
   12a5c:	449c                	lw	a5,8(s1)
   12a5e:	6880                	ld	s0,16(s1)
   12a60:	06f05663          	blez	a5,12acc <__sfp+0x8e>
   12a64:	37fd                	addiw	a5,a5,-1
   12a66:	1782                	slli	a5,a5,0x20
   12a68:	9381                	srli	a5,a5,0x20
   12a6a:	0785                	addi	a5,a5,1
   12a6c:	033787b3          	mul	a5,a5,s3
   12a70:	97a2                	add	a5,a5,s0
   12a72:	a029                	j	12a7c <__sfp+0x3e>
   12a74:	0b040413          	addi	s0,s0,176
   12a78:	04878a63          	beq	a5,s0,12acc <__sfp+0x8e>
   12a7c:	01041703          	lh	a4,16(s0)
   12a80:	fb75                	bnez	a4,12a74 <__sfp+0x36>
   12a82:	77c1                	lui	a5,0xffff0
   12a84:	0785                	addi	a5,a5,1
   12a86:	0a042623          	sw	zero,172(s0)
   12a8a:	00043023          	sd	zero,0(s0)
   12a8e:	00043423          	sd	zero,8(s0)
   12a92:	c81c                	sw	a5,16(s0)
   12a94:	00043c23          	sd	zero,24(s0)
   12a98:	02042023          	sw	zero,32(s0)
   12a9c:	02042423          	sw	zero,40(s0)
   12aa0:	4621                	li	a2,8
   12aa2:	4581                	li	a1,0
   12aa4:	0a440513          	addi	a0,s0,164
   12aa8:	b7ffd0ef          	jal	ra,10626 <memset>
   12aac:	04043c23          	sd	zero,88(s0)
   12ab0:	06042023          	sw	zero,96(s0)
   12ab4:	06043c23          	sd	zero,120(s0)
   12ab8:	08042023          	sw	zero,128(s0)
   12abc:	70a2                	ld	ra,40(sp)
   12abe:	8522                	mv	a0,s0
   12ac0:	7402                	ld	s0,32(sp)
   12ac2:	64e2                	ld	s1,24(sp)
   12ac4:	6942                	ld	s2,16(sp)
   12ac6:	69a2                	ld	s3,8(sp)
   12ac8:	6145                	addi	sp,sp,48
   12aca:	8082                	ret
   12acc:	6080                	ld	s0,0(s1)
   12ace:	c419                	beqz	s0,12adc <__sfp+0x9e>
   12ad0:	84a2                	mv	s1,s0
   12ad2:	b769                	j	12a5c <__sfp+0x1e>
   12ad4:	8526                	mv	a0,s1
   12ad6:	df5ff0ef          	jal	ra,128ca <__sinit.part.0>
   12ada:	bfad                	j	12a54 <__sfp+0x16>
   12adc:	4591                	li	a1,4
   12ade:	854a                	mv	a0,s2
   12ae0:	f17ff0ef          	jal	ra,129f6 <__sfmoreglue>
   12ae4:	e088                	sd	a0,0(s1)
   12ae6:	842a                	mv	s0,a0
   12ae8:	f565                	bnez	a0,12ad0 <__sfp+0x92>
   12aea:	47b1                	li	a5,12
   12aec:	00f92023          	sw	a5,0(s2)
   12af0:	b7f1                	j	12abc <__sfp+0x7e>

0000000000012af2 <_cleanup>:
   12af2:	00007597          	auipc	a1,0x7
   12af6:	13858593          	addi	a1,a1,312 # 19c2a <_fclose_r>
   12afa:	7481b503          	ld	a0,1864(gp) # 1f3f8 <_global_impure_ptr>
   12afe:	af25                	j	13236 <_fwalk_reent>

0000000000012b00 <__sinit>:
   12b00:	493c                	lw	a5,80(a0)
   12b02:	c391                	beqz	a5,12b06 <__sinit+0x6>
   12b04:	8082                	ret
   12b06:	b3d1                	j	128ca <__sinit.part.0>

0000000000012b08 <__sfp_lock_acquire>:
   12b08:	8082                	ret

0000000000012b0a <__sfp_lock_release>:
   12b0a:	8082                	ret

0000000000012b0c <__sinit_lock_acquire>:
   12b0c:	8082                	ret

0000000000012b0e <__sinit_lock_release>:
   12b0e:	8082                	ret

0000000000012b10 <__fp_lock_all>:
   12b10:	00000597          	auipc	a1,0x0
   12b14:	daa58593          	addi	a1,a1,-598 # 128ba <__fp_lock>
   12b18:	7581b503          	ld	a0,1880(gp) # 1f408 <_impure_ptr>
   12b1c:	ad61                	j	131b4 <_fwalk>

0000000000012b1e <__fp_unlock_all>:
   12b1e:	00000597          	auipc	a1,0x0
   12b22:	ed458593          	addi	a1,a1,-300 # 129f2 <__fp_unlock>
   12b26:	7581b503          	ld	a0,1880(gp) # 1f408 <_impure_ptr>
   12b2a:	a569                	j	131b4 <_fwalk>

0000000000012b2c <__libc_fini_array>:
   12b2c:	1101                	addi	sp,sp,-32
   12b2e:	e822                	sd	s0,16(sp)
   12b30:	0000b797          	auipc	a5,0xb
   12b34:	73878793          	addi	a5,a5,1848 # 1e268 <__fini_array_end>
   12b38:	0000b417          	auipc	s0,0xb
   12b3c:	72840413          	addi	s0,s0,1832 # 1e260 <__init_array_end>
   12b40:	8f81                	sub	a5,a5,s0
   12b42:	e426                	sd	s1,8(sp)
   12b44:	ec06                	sd	ra,24(sp)
   12b46:	4037d493          	srai	s1,a5,0x3
   12b4a:	c881                	beqz	s1,12b5a <__libc_fini_array+0x2e>
   12b4c:	17e1                	addi	a5,a5,-8
   12b4e:	943e                	add	s0,s0,a5
   12b50:	601c                	ld	a5,0(s0)
   12b52:	14fd                	addi	s1,s1,-1
   12b54:	1461                	addi	s0,s0,-8
   12b56:	9782                	jalr	a5
   12b58:	fce5                	bnez	s1,12b50 <__libc_fini_array+0x24>
   12b5a:	60e2                	ld	ra,24(sp)
   12b5c:	6442                	ld	s0,16(sp)
   12b5e:	64a2                	ld	s1,8(sp)
   12b60:	6105                	addi	sp,sp,32
   12b62:	8082                	ret

0000000000012b64 <_malloc_trim_r>:
   12b64:	7179                	addi	sp,sp,-48
   12b66:	f022                	sd	s0,32(sp)
   12b68:	ec26                	sd	s1,24(sp)
   12b6a:	e84a                	sd	s2,16(sp)
   12b6c:	e44e                	sd	s3,8(sp)
   12b6e:	e052                	sd	s4,0(sp)
   12b70:	89ae                	mv	s3,a1
   12b72:	f406                	sd	ra,40(sp)
   12b74:	0000ca17          	auipc	s4,0xc
   12b78:	03ca0a13          	addi	s4,s4,60 # 1ebb0 <__malloc_av_>
   12b7c:	892a                	mv	s2,a0
   12b7e:	262030ef          	jal	ra,15de0 <__malloc_lock>
   12b82:	010a3703          	ld	a4,16(s4)
   12b86:	6785                	lui	a5,0x1
   12b88:	fdf78413          	addi	s0,a5,-33 # fdf <main-0xf0d1>
   12b8c:	6704                	ld	s1,8(a4)
   12b8e:	41340433          	sub	s0,s0,s3
   12b92:	98f1                	andi	s1,s1,-4
   12b94:	9426                	add	s0,s0,s1
   12b96:	8031                	srli	s0,s0,0xc
   12b98:	147d                	addi	s0,s0,-1
   12b9a:	0432                	slli	s0,s0,0xc
   12b9c:	00f44b63          	blt	s0,a5,12bb2 <_malloc_trim_r+0x4e>
   12ba0:	4581                	li	a1,0
   12ba2:	854a                	mv	a0,s2
   12ba4:	1cc040ef          	jal	ra,16d70 <_sbrk_r>
   12ba8:	010a3783          	ld	a5,16(s4)
   12bac:	97a6                	add	a5,a5,s1
   12bae:	00f50e63          	beq	a0,a5,12bca <_malloc_trim_r+0x66>
   12bb2:	854a                	mv	a0,s2
   12bb4:	22e030ef          	jal	ra,15de2 <__malloc_unlock>
   12bb8:	70a2                	ld	ra,40(sp)
   12bba:	7402                	ld	s0,32(sp)
   12bbc:	64e2                	ld	s1,24(sp)
   12bbe:	6942                	ld	s2,16(sp)
   12bc0:	69a2                	ld	s3,8(sp)
   12bc2:	6a02                	ld	s4,0(sp)
   12bc4:	4501                	li	a0,0
   12bc6:	6145                	addi	sp,sp,48
   12bc8:	8082                	ret
   12bca:	408005b3          	neg	a1,s0
   12bce:	854a                	mv	a0,s2
   12bd0:	1a0040ef          	jal	ra,16d70 <_sbrk_r>
   12bd4:	57fd                	li	a5,-1
   12bd6:	02f50c63          	beq	a0,a5,12c0e <_malloc_trim_r+0xaa>
   12bda:	0000d717          	auipc	a4,0xd
   12bde:	8a670713          	addi	a4,a4,-1882 # 1f480 <__malloc_current_mallinfo>
   12be2:	431c                	lw	a5,0(a4)
   12be4:	010a3683          	ld	a3,16(s4)
   12be8:	8c81                	sub	s1,s1,s0
   12bea:	0014e493          	ori	s1,s1,1
   12bee:	4087843b          	subw	s0,a5,s0
   12bf2:	854a                	mv	a0,s2
   12bf4:	e684                	sd	s1,8(a3)
   12bf6:	c300                	sw	s0,0(a4)
   12bf8:	1ea030ef          	jal	ra,15de2 <__malloc_unlock>
   12bfc:	70a2                	ld	ra,40(sp)
   12bfe:	7402                	ld	s0,32(sp)
   12c00:	64e2                	ld	s1,24(sp)
   12c02:	6942                	ld	s2,16(sp)
   12c04:	69a2                	ld	s3,8(sp)
   12c06:	6a02                	ld	s4,0(sp)
   12c08:	4505                	li	a0,1
   12c0a:	6145                	addi	sp,sp,48
   12c0c:	8082                	ret
   12c0e:	4581                	li	a1,0
   12c10:	854a                	mv	a0,s2
   12c12:	15e040ef          	jal	ra,16d70 <_sbrk_r>
   12c16:	010a3703          	ld	a4,16(s4)
   12c1a:	46fd                	li	a3,31
   12c1c:	40e507b3          	sub	a5,a0,a4
   12c20:	f8f6d9e3          	bge	a3,a5,12bb2 <_malloc_trim_r+0x4e>
   12c24:	7601b683          	ld	a3,1888(gp) # 1f410 <__malloc_sbrk_base>
   12c28:	8d15                	sub	a0,a0,a3
   12c2a:	0017e793          	ori	a5,a5,1
   12c2e:	0000d697          	auipc	a3,0xd
   12c32:	84a6a923          	sw	a0,-1966(a3) # 1f480 <__malloc_current_mallinfo>
   12c36:	e71c                	sd	a5,8(a4)
   12c38:	bfad                	j	12bb2 <_malloc_trim_r+0x4e>

0000000000012c3a <_free_r>:
   12c3a:	c5f5                	beqz	a1,12d26 <_free_r+0xec>
   12c3c:	1101                	addi	sp,sp,-32
   12c3e:	e822                	sd	s0,16(sp)
   12c40:	e426                	sd	s1,8(sp)
   12c42:	842e                	mv	s0,a1
   12c44:	84aa                	mv	s1,a0
   12c46:	ec06                	sd	ra,24(sp)
   12c48:	198030ef          	jal	ra,15de0 <__malloc_lock>
   12c4c:	ff843583          	ld	a1,-8(s0)
   12c50:	ff040713          	addi	a4,s0,-16
   12c54:	0000c517          	auipc	a0,0xc
   12c58:	f5c50513          	addi	a0,a0,-164 # 1ebb0 <__malloc_av_>
   12c5c:	ffe5f793          	andi	a5,a1,-2
   12c60:	00f70633          	add	a2,a4,a5
   12c64:	6614                	ld	a3,8(a2)
   12c66:	01053803          	ld	a6,16(a0)
   12c6a:	9af1                	andi	a3,a3,-4
   12c6c:	14c80063          	beq	a6,a2,12dac <_free_r+0x172>
   12c70:	e614                	sd	a3,8(a2)
   12c72:	8985                	andi	a1,a1,1
   12c74:	00d60833          	add	a6,a2,a3
   12c78:	e1c1                	bnez	a1,12cf8 <_free_r+0xbe>
   12c7a:	ff043303          	ld	t1,-16(s0)
   12c7e:	00883583          	ld	a1,8(a6)
   12c82:	0000c897          	auipc	a7,0xc
   12c86:	f3e88893          	addi	a7,a7,-194 # 1ebc0 <__malloc_av_+0x10>
   12c8a:	40670733          	sub	a4,a4,t1
   12c8e:	01073803          	ld	a6,16(a4)
   12c92:	979a                	add	a5,a5,t1
   12c94:	8985                	andi	a1,a1,1
   12c96:	0f180863          	beq	a6,a7,12d86 <_free_r+0x14c>
   12c9a:	01873303          	ld	t1,24(a4)
   12c9e:	00683c23          	sd	t1,24(a6)
   12ca2:	01033823          	sd	a6,16(t1)
   12ca6:	14058d63          	beqz	a1,12e00 <_free_r+0x1c6>
   12caa:	0017e693          	ori	a3,a5,1
   12cae:	e714                	sd	a3,8(a4)
   12cb0:	e21c                	sd	a5,0(a2)
   12cb2:	1ff00693          	li	a3,511
   12cb6:	08f6e263          	bltu	a3,a5,12d3a <_free_r+0x100>
   12cba:	838d                	srli	a5,a5,0x3
   12cbc:	0017869b          	addiw	a3,a5,1
   12cc0:	0016969b          	slliw	a3,a3,0x1
   12cc4:	068e                	slli	a3,a3,0x3
   12cc6:	00853803          	ld	a6,8(a0)
   12cca:	96aa                	add	a3,a3,a0
   12ccc:	628c                	ld	a1,0(a3)
   12cce:	4027d61b          	sraiw	a2,a5,0x2
   12cd2:	4785                	li	a5,1
   12cd4:	00c797b3          	sll	a5,a5,a2
   12cd8:	0107e7b3          	or	a5,a5,a6
   12cdc:	ff068613          	addi	a2,a3,-16
   12ce0:	ef10                	sd	a2,24(a4)
   12ce2:	eb0c                	sd	a1,16(a4)
   12ce4:	e51c                	sd	a5,8(a0)
   12ce6:	e298                	sd	a4,0(a3)
   12ce8:	ed98                	sd	a4,24(a1)
   12cea:	6442                	ld	s0,16(sp)
   12cec:	60e2                	ld	ra,24(sp)
   12cee:	8526                	mv	a0,s1
   12cf0:	64a2                	ld	s1,8(sp)
   12cf2:	6105                	addi	sp,sp,32
   12cf4:	0ee0306f          	j	15de2 <__malloc_unlock>
   12cf8:	00883583          	ld	a1,8(a6)
   12cfc:	8985                	andi	a1,a1,1
   12cfe:	e58d                	bnez	a1,12d28 <_free_r+0xee>
   12d00:	97b6                	add	a5,a5,a3
   12d02:	0000c897          	auipc	a7,0xc
   12d06:	ebe88893          	addi	a7,a7,-322 # 1ebc0 <__malloc_av_+0x10>
   12d0a:	6a14                	ld	a3,16(a2)
   12d0c:	0017e813          	ori	a6,a5,1
   12d10:	00f705b3          	add	a1,a4,a5
   12d14:	11168063          	beq	a3,a7,12e14 <_free_r+0x1da>
   12d18:	6e10                	ld	a2,24(a2)
   12d1a:	ee90                	sd	a2,24(a3)
   12d1c:	ea14                	sd	a3,16(a2)
   12d1e:	01073423          	sd	a6,8(a4)
   12d22:	e19c                	sd	a5,0(a1)
   12d24:	b779                	j	12cb2 <_free_r+0x78>
   12d26:	8082                	ret
   12d28:	0017e693          	ori	a3,a5,1
   12d2c:	fed43c23          	sd	a3,-8(s0)
   12d30:	e21c                	sd	a5,0(a2)
   12d32:	1ff00693          	li	a3,511
   12d36:	f8f6f2e3          	bgeu	a3,a5,12cba <_free_r+0x80>
   12d3a:	0097d693          	srli	a3,a5,0x9
   12d3e:	4611                	li	a2,4
   12d40:	08d66f63          	bltu	a2,a3,12dde <_free_r+0x1a4>
   12d44:	0067d693          	srli	a3,a5,0x6
   12d48:	0396859b          	addiw	a1,a3,57
   12d4c:	0015959b          	slliw	a1,a1,0x1
   12d50:	0386861b          	addiw	a2,a3,56
   12d54:	058e                	slli	a1,a1,0x3
   12d56:	95aa                	add	a1,a1,a0
   12d58:	6194                	ld	a3,0(a1)
   12d5a:	15c1                	addi	a1,a1,-16
   12d5c:	0cd58663          	beq	a1,a3,12e28 <_free_r+0x1ee>
   12d60:	6690                	ld	a2,8(a3)
   12d62:	9a71                	andi	a2,a2,-4
   12d64:	00c7f563          	bgeu	a5,a2,12d6e <_free_r+0x134>
   12d68:	6a94                	ld	a3,16(a3)
   12d6a:	fed59be3          	bne	a1,a3,12d60 <_free_r+0x126>
   12d6e:	6e8c                	ld	a1,24(a3)
   12d70:	ef0c                	sd	a1,24(a4)
   12d72:	eb14                	sd	a3,16(a4)
   12d74:	6442                	ld	s0,16(sp)
   12d76:	60e2                	ld	ra,24(sp)
   12d78:	e998                	sd	a4,16(a1)
   12d7a:	8526                	mv	a0,s1
   12d7c:	64a2                	ld	s1,8(sp)
   12d7e:	ee98                	sd	a4,24(a3)
   12d80:	6105                	addi	sp,sp,32
   12d82:	0600306f          	j	15de2 <__malloc_unlock>
   12d86:	0e059d63          	bnez	a1,12e80 <_free_r+0x246>
   12d8a:	6e0c                	ld	a1,24(a2)
   12d8c:	6a10                	ld	a2,16(a2)
   12d8e:	97b6                	add	a5,a5,a3
   12d90:	6442                	ld	s0,16(sp)
   12d92:	ee0c                	sd	a1,24(a2)
   12d94:	e990                	sd	a2,16(a1)
   12d96:	0017e693          	ori	a3,a5,1
   12d9a:	60e2                	ld	ra,24(sp)
   12d9c:	e714                	sd	a3,8(a4)
   12d9e:	8526                	mv	a0,s1
   12da0:	973e                	add	a4,a4,a5
   12da2:	64a2                	ld	s1,8(sp)
   12da4:	e31c                	sd	a5,0(a4)
   12da6:	6105                	addi	sp,sp,32
   12da8:	03a0306f          	j	15de2 <__malloc_unlock>
   12dac:	8985                	andi	a1,a1,1
   12dae:	97b6                	add	a5,a5,a3
   12db0:	e989                	bnez	a1,12dc2 <_free_r+0x188>
   12db2:	ff043583          	ld	a1,-16(s0)
   12db6:	8f0d                	sub	a4,a4,a1
   12db8:	6f14                	ld	a3,24(a4)
   12dba:	6b10                	ld	a2,16(a4)
   12dbc:	97ae                	add	a5,a5,a1
   12dbe:	ee14                	sd	a3,24(a2)
   12dc0:	ea90                	sd	a2,16(a3)
   12dc2:	0017e693          	ori	a3,a5,1
   12dc6:	e714                	sd	a3,8(a4)
   12dc8:	e918                	sd	a4,16(a0)
   12dca:	7681b703          	ld	a4,1896(gp) # 1f418 <__malloc_trim_threshold>
   12dce:	f0e7eee3          	bltu	a5,a4,12cea <_free_r+0xb0>
   12dd2:	7881b583          	ld	a1,1928(gp) # 1f438 <__malloc_top_pad>
   12dd6:	8526                	mv	a0,s1
   12dd8:	d8dff0ef          	jal	ra,12b64 <_malloc_trim_r>
   12ddc:	b739                	j	12cea <_free_r+0xb0>
   12dde:	4651                	li	a2,20
   12de0:	02d67263          	bgeu	a2,a3,12e04 <_free_r+0x1ca>
   12de4:	05400613          	li	a2,84
   12de8:	04d66b63          	bltu	a2,a3,12e3e <_free_r+0x204>
   12dec:	00c7d693          	srli	a3,a5,0xc
   12df0:	06f6859b          	addiw	a1,a3,111
   12df4:	0015959b          	slliw	a1,a1,0x1
   12df8:	06e6861b          	addiw	a2,a3,110
   12dfc:	058e                	slli	a1,a1,0x3
   12dfe:	bfa1                	j	12d56 <_free_r+0x11c>
   12e00:	97b6                	add	a5,a5,a3
   12e02:	b721                	j	12d0a <_free_r+0xd0>
   12e04:	05c6859b          	addiw	a1,a3,92
   12e08:	0015959b          	slliw	a1,a1,0x1
   12e0c:	05b6861b          	addiw	a2,a3,91
   12e10:	058e                	slli	a1,a1,0x3
   12e12:	b791                	j	12d56 <_free_r+0x11c>
   12e14:	f518                	sd	a4,40(a0)
   12e16:	f118                	sd	a4,32(a0)
   12e18:	01173c23          	sd	a7,24(a4)
   12e1c:	01173823          	sd	a7,16(a4)
   12e20:	01073423          	sd	a6,8(a4)
   12e24:	e19c                	sd	a5,0(a1)
   12e26:	b5d1                	j	12cea <_free_r+0xb0>
   12e28:	00853803          	ld	a6,8(a0)
   12e2c:	4026561b          	sraiw	a2,a2,0x2
   12e30:	4785                	li	a5,1
   12e32:	00c79633          	sll	a2,a5,a2
   12e36:	01066633          	or	a2,a2,a6
   12e3a:	e510                	sd	a2,8(a0)
   12e3c:	bf15                	j	12d70 <_free_r+0x136>
   12e3e:	15400613          	li	a2,340
   12e42:	00d66c63          	bltu	a2,a3,12e5a <_free_r+0x220>
   12e46:	00f7d693          	srli	a3,a5,0xf
   12e4a:	0786859b          	addiw	a1,a3,120
   12e4e:	0015959b          	slliw	a1,a1,0x1
   12e52:	0776861b          	addiw	a2,a3,119
   12e56:	058e                	slli	a1,a1,0x3
   12e58:	bdfd                	j	12d56 <_free_r+0x11c>
   12e5a:	55400613          	li	a2,1364
   12e5e:	00d66c63          	bltu	a2,a3,12e76 <_free_r+0x23c>
   12e62:	0127d693          	srli	a3,a5,0x12
   12e66:	07d6859b          	addiw	a1,a3,125
   12e6a:	0015959b          	slliw	a1,a1,0x1
   12e6e:	07c6861b          	addiw	a2,a3,124
   12e72:	058e                	slli	a1,a1,0x3
   12e74:	b5cd                	j	12d56 <_free_r+0x11c>
   12e76:	7f000593          	li	a1,2032
   12e7a:	07e00613          	li	a2,126
   12e7e:	bde1                	j	12d56 <_free_r+0x11c>
   12e80:	0017e693          	ori	a3,a5,1
   12e84:	e714                	sd	a3,8(a4)
   12e86:	e21c                	sd	a5,0(a2)
   12e88:	b58d                	j	12cea <_free_r+0xb0>

0000000000012e8a <__sfvwrite_r>:
   12e8a:	6a1c                	ld	a5,16(a2)
   12e8c:	1a078c63          	beqz	a5,13044 <__sfvwrite_r+0x1ba>
   12e90:	0105d783          	lhu	a5,16(a1)
   12e94:	711d                	addi	sp,sp,-96
   12e96:	e8a2                	sd	s0,80(sp)
   12e98:	f852                	sd	s4,48(sp)
   12e9a:	f456                	sd	s5,40(sp)
   12e9c:	ec86                	sd	ra,88(sp)
   12e9e:	e4a6                	sd	s1,72(sp)
   12ea0:	e0ca                	sd	s2,64(sp)
   12ea2:	fc4e                	sd	s3,56(sp)
   12ea4:	f05a                	sd	s6,32(sp)
   12ea6:	ec5e                	sd	s7,24(sp)
   12ea8:	e862                	sd	s8,16(sp)
   12eaa:	e466                	sd	s9,8(sp)
   12eac:	e06a                	sd	s10,0(sp)
   12eae:	0087f713          	andi	a4,a5,8
   12eb2:	8a32                	mv	s4,a2
   12eb4:	8aaa                	mv	s5,a0
   12eb6:	842e                	mv	s0,a1
   12eb8:	c325                	beqz	a4,12f18 <__sfvwrite_r+0x8e>
   12eba:	6d98                	ld	a4,24(a1)
   12ebc:	cf31                	beqz	a4,12f18 <__sfvwrite_r+0x8e>
   12ebe:	0027f713          	andi	a4,a5,2
   12ec2:	000a3903          	ld	s2,0(s4)
   12ec6:	c735                	beqz	a4,12f32 <__sfvwrite_r+0xa8>
   12ec8:	603c                	ld	a5,64(s0)
   12eca:	780c                	ld	a1,48(s0)
   12ecc:	80000b37          	lui	s6,0x80000
   12ed0:	4981                	li	s3,0
   12ed2:	4481                	li	s1,0
   12ed4:	c00b4b13          	xori	s6,s6,-1024
   12ed8:	864e                	mv	a2,s3
   12eda:	8556                	mv	a0,s5
   12edc:	c885                	beqz	s1,12f0c <__sfvwrite_r+0x82>
   12ede:	86a6                	mv	a3,s1
   12ee0:	009b7363          	bgeu	s6,s1,12ee6 <__sfvwrite_r+0x5c>
   12ee4:	86da                	mv	a3,s6
   12ee6:	2681                	sext.w	a3,a3
   12ee8:	9782                	jalr	a5
   12eea:	14a05563          	blez	a0,13034 <__sfvwrite_r+0x1aa>
   12eee:	010a3783          	ld	a5,16(s4)
   12ef2:	99aa                	add	s3,s3,a0
   12ef4:	8c89                	sub	s1,s1,a0
   12ef6:	40a78533          	sub	a0,a5,a0
   12efa:	00aa3823          	sd	a0,16(s4)
   12efe:	10050763          	beqz	a0,1300c <__sfvwrite_r+0x182>
   12f02:	603c                	ld	a5,64(s0)
   12f04:	780c                	ld	a1,48(s0)
   12f06:	864e                	mv	a2,s3
   12f08:	8556                	mv	a0,s5
   12f0a:	f8f1                	bnez	s1,12ede <__sfvwrite_r+0x54>
   12f0c:	00093983          	ld	s3,0(s2)
   12f10:	00893483          	ld	s1,8(s2)
   12f14:	0941                	addi	s2,s2,16
   12f16:	b7c9                	j	12ed8 <__sfvwrite_r+0x4e>
   12f18:	85a2                	mv	a1,s0
   12f1a:	8556                	mv	a0,s5
   12f1c:	e04ff0ef          	jal	ra,12520 <__swsetup_r>
   12f20:	28051863          	bnez	a0,131b0 <__sfvwrite_r+0x326>
   12f24:	01045783          	lhu	a5,16(s0)
   12f28:	000a3903          	ld	s2,0(s4)
   12f2c:	0027f713          	andi	a4,a5,2
   12f30:	ff41                	bnez	a4,12ec8 <__sfvwrite_r+0x3e>
   12f32:	0017f713          	andi	a4,a5,1
   12f36:	eb35                	bnez	a4,12faa <__sfvwrite_r+0x120>
   12f38:	4444                	lw	s1,12(s0)
   12f3a:	6008                	ld	a0,0(s0)
   12f3c:	80000b37          	lui	s6,0x80000
   12f40:	ffeb4b93          	xori	s7,s6,-2
   12f44:	4c01                	li	s8,0
   12f46:	4981                	li	s3,0
   12f48:	fffb4b13          	not	s6,s6
   12f4c:	8ca6                	mv	s9,s1
   12f4e:	04098863          	beqz	s3,12f9e <__sfvwrite_r+0x114>
   12f52:	2007f713          	andi	a4,a5,512
   12f56:	12070a63          	beqz	a4,1308a <__sfvwrite_r+0x200>
   12f5a:	8d26                	mv	s10,s1
   12f5c:	1899f763          	bgeu	s3,s1,130ea <__sfvwrite_r+0x260>
   12f60:	8cce                	mv	s9,s3
   12f62:	8d4e                	mv	s10,s3
   12f64:	866a                	mv	a2,s10
   12f66:	85e2                	mv	a1,s8
   12f68:	5a3020ef          	jal	ra,15d0a <memmove>
   12f6c:	4458                	lw	a4,12(s0)
   12f6e:	601c                	ld	a5,0(s0)
   12f70:	84ce                	mv	s1,s3
   12f72:	41970cbb          	subw	s9,a4,s9
   12f76:	97ea                	add	a5,a5,s10
   12f78:	01942623          	sw	s9,12(s0)
   12f7c:	e01c                	sd	a5,0(s0)
   12f7e:	4981                	li	s3,0
   12f80:	010a3603          	ld	a2,16(s4)
   12f84:	9c26                	add	s8,s8,s1
   12f86:	409604b3          	sub	s1,a2,s1
   12f8a:	009a3823          	sd	s1,16(s4)
   12f8e:	ccbd                	beqz	s1,1300c <__sfvwrite_r+0x182>
   12f90:	4444                	lw	s1,12(s0)
   12f92:	6008                	ld	a0,0(s0)
   12f94:	01045783          	lhu	a5,16(s0)
   12f98:	8ca6                	mv	s9,s1
   12f9a:	fa099ce3          	bnez	s3,12f52 <__sfvwrite_r+0xc8>
   12f9e:	00093c03          	ld	s8,0(s2)
   12fa2:	00893983          	ld	s3,8(s2)
   12fa6:	0941                	addi	s2,s2,16
   12fa8:	b755                	j	12f4c <__sfvwrite_r+0xc2>
   12faa:	4981                	li	s3,0
   12fac:	4501                	li	a0,0
   12fae:	4c81                	li	s9,0
   12fb0:	4c01                	li	s8,0
   12fb2:	080c0b63          	beqz	s8,13048 <__sfvwrite_r+0x1be>
   12fb6:	c145                	beqz	a0,13056 <__sfvwrite_r+0x1cc>
   12fb8:	8bce                	mv	s7,s3
   12fba:	013c7363          	bgeu	s8,s3,12fc0 <__sfvwrite_r+0x136>
   12fbe:	8be2                	mv	s7,s8
   12fc0:	6008                	ld	a0,0(s0)
   12fc2:	6c1c                	ld	a5,24(s0)
   12fc4:	5014                	lw	a3,32(s0)
   12fc6:	84de                	mv	s1,s7
   12fc8:	00a7f763          	bgeu	a5,a0,12fd6 <__sfvwrite_r+0x14c>
   12fcc:	445c                	lw	a5,12(s0)
   12fce:	00d78b3b          	addw	s6,a5,a3
   12fd2:	097b4d63          	blt	s6,s7,1306c <__sfvwrite_r+0x1e2>
   12fd6:	18dbc463          	blt	s7,a3,1315e <__sfvwrite_r+0x2d4>
   12fda:	603c                	ld	a5,64(s0)
   12fdc:	780c                	ld	a1,48(s0)
   12fde:	8666                	mv	a2,s9
   12fe0:	8556                	mv	a0,s5
   12fe2:	9782                	jalr	a5
   12fe4:	84aa                	mv	s1,a0
   12fe6:	04a05763          	blez	a0,13034 <__sfvwrite_r+0x1aa>
   12fea:	0005079b          	sext.w	a5,a0
   12fee:	40f989bb          	subw	s3,s3,a5
   12ff2:	4505                	li	a0,1
   12ff4:	02098b63          	beqz	s3,1302a <__sfvwrite_r+0x1a0>
   12ff8:	010a3783          	ld	a5,16(s4)
   12ffc:	9ca6                	add	s9,s9,s1
   12ffe:	409c0c33          	sub	s8,s8,s1
   13002:	409784b3          	sub	s1,a5,s1
   13006:	009a3823          	sd	s1,16(s4)
   1300a:	f4c5                	bnez	s1,12fb2 <__sfvwrite_r+0x128>
   1300c:	4501                	li	a0,0
   1300e:	60e6                	ld	ra,88(sp)
   13010:	6446                	ld	s0,80(sp)
   13012:	64a6                	ld	s1,72(sp)
   13014:	6906                	ld	s2,64(sp)
   13016:	79e2                	ld	s3,56(sp)
   13018:	7a42                	ld	s4,48(sp)
   1301a:	7aa2                	ld	s5,40(sp)
   1301c:	7b02                	ld	s6,32(sp)
   1301e:	6be2                	ld	s7,24(sp)
   13020:	6c42                	ld	s8,16(sp)
   13022:	6ca2                	ld	s9,8(sp)
   13024:	6d02                	ld	s10,0(sp)
   13026:	6125                	addi	sp,sp,96
   13028:	8082                	ret
   1302a:	85a2                	mv	a1,s0
   1302c:	8556                	mv	a0,s5
   1302e:	83dff0ef          	jal	ra,1286a <_fflush_r>
   13032:	d179                	beqz	a0,12ff8 <__sfvwrite_r+0x16e>
   13034:	01041783          	lh	a5,16(s0)
   13038:	0407e793          	ori	a5,a5,64
   1303c:	00f41823          	sh	a5,16(s0)
   13040:	557d                	li	a0,-1
   13042:	b7f1                	j	1300e <__sfvwrite_r+0x184>
   13044:	4501                	li	a0,0
   13046:	8082                	ret
   13048:	00893c03          	ld	s8,8(s2)
   1304c:	00093c83          	ld	s9,0(s2)
   13050:	0941                	addi	s2,s2,16
   13052:	fe0c0be3          	beqz	s8,13048 <__sfvwrite_r+0x1be>
   13056:	8662                	mv	a2,s8
   13058:	45a9                	li	a1,10
   1305a:	8566                	mv	a0,s9
   1305c:	333020ef          	jal	ra,15b8e <memchr>
   13060:	12050f63          	beqz	a0,1319e <__sfvwrite_r+0x314>
   13064:	0505                	addi	a0,a0,1
   13066:	419509bb          	subw	s3,a0,s9
   1306a:	b7b9                	j	12fb8 <__sfvwrite_r+0x12e>
   1306c:	85e6                	mv	a1,s9
   1306e:	865a                	mv	a2,s6
   13070:	49b020ef          	jal	ra,15d0a <memmove>
   13074:	601c                	ld	a5,0(s0)
   13076:	85a2                	mv	a1,s0
   13078:	8556                	mv	a0,s5
   1307a:	97da                	add	a5,a5,s6
   1307c:	e01c                	sd	a5,0(s0)
   1307e:	fecff0ef          	jal	ra,1286a <_fflush_r>
   13082:	f94d                	bnez	a0,13034 <__sfvwrite_r+0x1aa>
   13084:	87da                	mv	a5,s6
   13086:	84da                	mv	s1,s6
   13088:	b79d                	j	12fee <__sfvwrite_r+0x164>
   1308a:	6c1c                	ld	a5,24(s0)
   1308c:	02a7e863          	bltu	a5,a0,130bc <__sfvwrite_r+0x232>
   13090:	501c                	lw	a5,32(s0)
   13092:	02f9e563          	bltu	s3,a5,130bc <__sfvwrite_r+0x232>
   13096:	86ce                	mv	a3,s3
   13098:	013bf363          	bgeu	s7,s3,1309e <__sfvwrite_r+0x214>
   1309c:	86da                	mv	a3,s6
   1309e:	02f6c6bb          	divw	a3,a3,a5
   130a2:	6038                	ld	a4,64(s0)
   130a4:	780c                	ld	a1,48(s0)
   130a6:	8662                	mv	a2,s8
   130a8:	8556                	mv	a0,s5
   130aa:	02f686bb          	mulw	a3,a3,a5
   130ae:	9702                	jalr	a4
   130b0:	84aa                	mv	s1,a0
   130b2:	f8a051e3          	blez	a0,13034 <__sfvwrite_r+0x1aa>
   130b6:	409989b3          	sub	s3,s3,s1
   130ba:	b5d9                	j	12f80 <__sfvwrite_r+0xf6>
   130bc:	0099f363          	bgeu	s3,s1,130c2 <__sfvwrite_r+0x238>
   130c0:	84ce                	mv	s1,s3
   130c2:	8626                	mv	a2,s1
   130c4:	85e2                	mv	a1,s8
   130c6:	445020ef          	jal	ra,15d0a <memmove>
   130ca:	445c                	lw	a5,12(s0)
   130cc:	6018                	ld	a4,0(s0)
   130ce:	409786bb          	subw	a3,a5,s1
   130d2:	9726                	add	a4,a4,s1
   130d4:	c454                	sw	a3,12(s0)
   130d6:	e018                	sd	a4,0(s0)
   130d8:	fef9                	bnez	a3,130b6 <__sfvwrite_r+0x22c>
   130da:	85a2                	mv	a1,s0
   130dc:	8556                	mv	a0,s5
   130de:	f8cff0ef          	jal	ra,1286a <_fflush_r>
   130e2:	f929                	bnez	a0,13034 <__sfvwrite_r+0x1aa>
   130e4:	409989b3          	sub	s3,s3,s1
   130e8:	bd61                	j	12f80 <__sfvwrite_r+0xf6>
   130ea:	4807f713          	andi	a4,a5,1152
   130ee:	e6070be3          	beqz	a4,12f64 <__sfvwrite_r+0xda>
   130f2:	5004                	lw	s1,32(s0)
   130f4:	6c0c                	ld	a1,24(s0)
   130f6:	00198713          	addi	a4,s3,1
   130fa:	0014969b          	slliw	a3,s1,0x1
   130fe:	9ea5                	addw	a3,a3,s1
   13100:	8d0d                	sub	a0,a0,a1
   13102:	01f6d49b          	srliw	s1,a3,0x1f
   13106:	00050d1b          	sext.w	s10,a0
   1310a:	9cb5                	addw	s1,s1,a3
   1310c:	4014d49b          	sraiw	s1,s1,0x1
   13110:	976a                	add	a4,a4,s10
   13112:	00e4f563          	bgeu	s1,a4,1311c <__sfvwrite_r+0x292>
   13116:	0019849b          	addiw	s1,s3,1
   1311a:	9ca9                	addw	s1,s1,a0
   1311c:	4007f793          	andi	a5,a5,1024
   13120:	cfa9                	beqz	a5,1317a <__sfvwrite_r+0x2f0>
   13122:	85a6                	mv	a1,s1
   13124:	8556                	mv	a0,s5
   13126:	3fc020ef          	jal	ra,15522 <_malloc_r>
   1312a:	8caa                	mv	s9,a0
   1312c:	cd25                	beqz	a0,131a4 <__sfvwrite_r+0x31a>
   1312e:	6c0c                	ld	a1,24(s0)
   13130:	866a                	mv	a2,s10
   13132:	2fb020ef          	jal	ra,15c2c <memcpy>
   13136:	01045783          	lhu	a5,16(s0)
   1313a:	b7f7f793          	andi	a5,a5,-1153
   1313e:	0807e793          	ori	a5,a5,128
   13142:	00f41823          	sh	a5,16(s0)
   13146:	01ac8533          	add	a0,s9,s10
   1314a:	41a487bb          	subw	a5,s1,s10
   1314e:	01943c23          	sd	s9,24(s0)
   13152:	e008                	sd	a0,0(s0)
   13154:	d004                	sw	s1,32(s0)
   13156:	8cce                	mv	s9,s3
   13158:	c45c                	sw	a5,12(s0)
   1315a:	8d4e                	mv	s10,s3
   1315c:	b521                	j	12f64 <__sfvwrite_r+0xda>
   1315e:	865e                	mv	a2,s7
   13160:	85e6                	mv	a1,s9
   13162:	3a9020ef          	jal	ra,15d0a <memmove>
   13166:	4458                	lw	a4,12(s0)
   13168:	6010                	ld	a2,0(s0)
   1316a:	000b879b          	sext.w	a5,s7
   1316e:	4177073b          	subw	a4,a4,s7
   13172:	965e                	add	a2,a2,s7
   13174:	c458                	sw	a4,12(s0)
   13176:	e010                	sd	a2,0(s0)
   13178:	bd9d                	j	12fee <__sfvwrite_r+0x164>
   1317a:	8626                	mv	a2,s1
   1317c:	8556                	mv	a0,s5
   1317e:	7e4030ef          	jal	ra,16962 <_realloc_r>
   13182:	8caa                	mv	s9,a0
   13184:	f169                	bnez	a0,13146 <__sfvwrite_r+0x2bc>
   13186:	6c0c                	ld	a1,24(s0)
   13188:	8556                	mv	a0,s5
   1318a:	ab1ff0ef          	jal	ra,12c3a <_free_r>
   1318e:	01041783          	lh	a5,16(s0)
   13192:	4731                	li	a4,12
   13194:	00eaa023          	sw	a4,0(s5)
   13198:	f7f7f793          	andi	a5,a5,-129
   1319c:	bd71                	j	13038 <__sfvwrite_r+0x1ae>
   1319e:	001c099b          	addiw	s3,s8,1
   131a2:	bd19                	j	12fb8 <__sfvwrite_r+0x12e>
   131a4:	4731                	li	a4,12
   131a6:	01041783          	lh	a5,16(s0)
   131aa:	00eaa023          	sw	a4,0(s5)
   131ae:	b569                	j	13038 <__sfvwrite_r+0x1ae>
   131b0:	557d                	li	a0,-1
   131b2:	bdb1                	j	1300e <__sfvwrite_r+0x184>

00000000000131b4 <_fwalk>:
   131b4:	715d                	addi	sp,sp,-80
   131b6:	f84a                	sd	s2,48(sp)
   131b8:	f44e                	sd	s3,40(sp)
   131ba:	f052                	sd	s4,32(sp)
   131bc:	ec56                	sd	s5,24(sp)
   131be:	e85a                	sd	s6,16(sp)
   131c0:	e45e                	sd	s7,8(sp)
   131c2:	e486                	sd	ra,72(sp)
   131c4:	e0a2                	sd	s0,64(sp)
   131c6:	fc26                	sd	s1,56(sp)
   131c8:	8a2e                	mv	s4,a1
   131ca:	52050913          	addi	s2,a0,1312
   131ce:	4b01                	li	s6,0
   131d0:	0b000a93          	li	s5,176
   131d4:	4b85                	li	s7,1
   131d6:	59fd                	li	s3,-1
   131d8:	00892783          	lw	a5,8(s2)
   131dc:	01093403          	ld	s0,16(s2)
   131e0:	02f05b63          	blez	a5,13216 <_fwalk+0x62>
   131e4:	fff7849b          	addiw	s1,a5,-1
   131e8:	1482                	slli	s1,s1,0x20
   131ea:	9081                	srli	s1,s1,0x20
   131ec:	0485                	addi	s1,s1,1
   131ee:	035484b3          	mul	s1,s1,s5
   131f2:	94a2                	add	s1,s1,s0
   131f4:	01045783          	lhu	a5,16(s0)
   131f8:	00fbfb63          	bgeu	s7,a5,1320e <_fwalk+0x5a>
   131fc:	01241783          	lh	a5,18(s0)
   13200:	8522                	mv	a0,s0
   13202:	01378663          	beq	a5,s3,1320e <_fwalk+0x5a>
   13206:	9a02                	jalr	s4
   13208:	01656b33          	or	s6,a0,s6
   1320c:	2b01                	sext.w	s6,s6
   1320e:	0b040413          	addi	s0,s0,176
   13212:	fe8491e3          	bne	s1,s0,131f4 <_fwalk+0x40>
   13216:	00093903          	ld	s2,0(s2)
   1321a:	fa091fe3          	bnez	s2,131d8 <_fwalk+0x24>
   1321e:	60a6                	ld	ra,72(sp)
   13220:	6406                	ld	s0,64(sp)
   13222:	74e2                	ld	s1,56(sp)
   13224:	7942                	ld	s2,48(sp)
   13226:	79a2                	ld	s3,40(sp)
   13228:	7a02                	ld	s4,32(sp)
   1322a:	6ae2                	ld	s5,24(sp)
   1322c:	6ba2                	ld	s7,8(sp)
   1322e:	855a                	mv	a0,s6
   13230:	6b42                	ld	s6,16(sp)
   13232:	6161                	addi	sp,sp,80
   13234:	8082                	ret

0000000000013236 <_fwalk_reent>:
   13236:	715d                	addi	sp,sp,-80
   13238:	f84a                	sd	s2,48(sp)
   1323a:	f44e                	sd	s3,40(sp)
   1323c:	f052                	sd	s4,32(sp)
   1323e:	ec56                	sd	s5,24(sp)
   13240:	e85a                	sd	s6,16(sp)
   13242:	e45e                	sd	s7,8(sp)
   13244:	e062                	sd	s8,0(sp)
   13246:	e486                	sd	ra,72(sp)
   13248:	e0a2                	sd	s0,64(sp)
   1324a:	fc26                	sd	s1,56(sp)
   1324c:	8c2a                	mv	s8,a0
   1324e:	8a2e                	mv	s4,a1
   13250:	52050913          	addi	s2,a0,1312
   13254:	4b01                	li	s6,0
   13256:	0b000a93          	li	s5,176
   1325a:	4b85                	li	s7,1
   1325c:	59fd                	li	s3,-1
   1325e:	00892783          	lw	a5,8(s2)
   13262:	01093403          	ld	s0,16(s2)
   13266:	02f05c63          	blez	a5,1329e <_fwalk_reent+0x68>
   1326a:	fff7849b          	addiw	s1,a5,-1
   1326e:	1482                	slli	s1,s1,0x20
   13270:	9081                	srli	s1,s1,0x20
   13272:	0485                	addi	s1,s1,1
   13274:	035484b3          	mul	s1,s1,s5
   13278:	94a2                	add	s1,s1,s0
   1327a:	01045783          	lhu	a5,16(s0)
   1327e:	00fbfc63          	bgeu	s7,a5,13296 <_fwalk_reent+0x60>
   13282:	01241783          	lh	a5,18(s0)
   13286:	85a2                	mv	a1,s0
   13288:	8562                	mv	a0,s8
   1328a:	01378663          	beq	a5,s3,13296 <_fwalk_reent+0x60>
   1328e:	9a02                	jalr	s4
   13290:	01656b33          	or	s6,a0,s6
   13294:	2b01                	sext.w	s6,s6
   13296:	0b040413          	addi	s0,s0,176
   1329a:	fe8490e3          	bne	s1,s0,1327a <_fwalk_reent+0x44>
   1329e:	00093903          	ld	s2,0(s2)
   132a2:	fa091ee3          	bnez	s2,1325e <_fwalk_reent+0x28>
   132a6:	60a6                	ld	ra,72(sp)
   132a8:	6406                	ld	s0,64(sp)
   132aa:	74e2                	ld	s1,56(sp)
   132ac:	7942                	ld	s2,48(sp)
   132ae:	79a2                	ld	s3,40(sp)
   132b0:	7a02                	ld	s4,32(sp)
   132b2:	6ae2                	ld	s5,24(sp)
   132b4:	6ba2                	ld	s7,8(sp)
   132b6:	6c02                	ld	s8,0(sp)
   132b8:	855a                	mv	a0,s6
   132ba:	6b42                	ld	s6,16(sp)
   132bc:	6161                	addi	sp,sp,80
   132be:	8082                	ret

00000000000132c0 <eshdn1>:
   132c0:	00450693          	addi	a3,a0,4
   132c4:	4781                	li	a5,0
   132c6:	0569                	addi	a0,a0,26
   132c8:	7861                	lui	a6,0xffff8
   132ca:	a811                	j	132de <eshdn1+0x1e>
   132cc:	0017979b          	slliw	a5,a5,0x1
   132d0:	00e69023          	sh	a4,0(a3)
   132d4:	17c2                	slli	a5,a5,0x30
   132d6:	0689                	addi	a3,a3,2
   132d8:	93c1                	srli	a5,a5,0x30
   132da:	02d50863          	beq	a0,a3,1330a <eshdn1+0x4a>
   132de:	0006d703          	lhu	a4,0(a3)
   132e2:	00177613          	andi	a2,a4,1
   132e6:	c219                	beqz	a2,132ec <eshdn1+0x2c>
   132e8:	0017e793          	ori	a5,a5,1
   132ec:	8305                	srli	a4,a4,0x1
   132ee:	0027f613          	andi	a2,a5,2
   132f2:	010765b3          	or	a1,a4,a6
   132f6:	da79                	beqz	a2,132cc <eshdn1+0xc>
   132f8:	0017979b          	slliw	a5,a5,0x1
   132fc:	00b69023          	sh	a1,0(a3)
   13300:	17c2                	slli	a5,a5,0x30
   13302:	0689                	addi	a3,a3,2
   13304:	93c1                	srli	a5,a5,0x30
   13306:	fcd51ce3          	bne	a0,a3,132de <eshdn1+0x1e>
   1330a:	8082                	ret

000000000001330c <eshup1>:
   1330c:	01850693          	addi	a3,a0,24
   13310:	4701                	li	a4,0
   13312:	0509                	addi	a0,a0,2
   13314:	a811                	j	13328 <eshup1+0x1c>
   13316:	0017171b          	slliw	a4,a4,0x1
   1331a:	00f69023          	sh	a5,0(a3)
   1331e:	1742                	slli	a4,a4,0x30
   13320:	16f9                	addi	a3,a3,-2
   13322:	9341                	srli	a4,a4,0x30
   13324:	04d50063          	beq	a0,a3,13364 <eshup1+0x58>
   13328:	0006d783          	lhu	a5,0(a3)
   1332c:	0107961b          	slliw	a2,a5,0x10
   13330:	4106561b          	sraiw	a2,a2,0x10
   13334:	02061593          	slli	a1,a2,0x20
   13338:	0017979b          	slliw	a5,a5,0x1
   1333c:	0005d463          	bgez	a1,13344 <eshup1+0x38>
   13340:	00176713          	ori	a4,a4,1
   13344:	17c2                	slli	a5,a5,0x30
   13346:	93c1                	srli	a5,a5,0x30
   13348:	00277613          	andi	a2,a4,2
   1334c:	0017e593          	ori	a1,a5,1
   13350:	d279                	beqz	a2,13316 <eshup1+0xa>
   13352:	0017171b          	slliw	a4,a4,0x1
   13356:	00b69023          	sh	a1,0(a3)
   1335a:	1742                	slli	a4,a4,0x30
   1335c:	16f9                	addi	a3,a3,-2
   1335e:	9341                	srli	a4,a4,0x30
   13360:	fcd514e3          	bne	a0,a3,13328 <eshup1+0x1c>
   13364:	8082                	ret

0000000000013366 <m16m>:
   13366:	1101                	addi	sp,sp,-32
   13368:	6e41                	lui	t3,0x10
   1336a:	00011b23          	sh	zero,22(sp)
   1336e:	00011c23          	sh	zero,24(sp)
   13372:	05e1                	addi	a1,a1,24
   13374:	083c                	addi	a5,sp,24
   13376:	00410813          	addi	a6,sp,4
   1337a:	1e7d                	addi	t3,t3,-1
   1337c:	0005d703          	lhu	a4,0(a1)
   13380:	17f9                	addi	a5,a5,-2
   13382:	15f9                	addi	a1,a1,-2
   13384:	e315                	bnez	a4,133a8 <m16m+0x42>
   13386:	fe079f23          	sh	zero,-2(a5)
   1338a:	ff0799e3          	bne	a5,a6,1337c <m16m+0x16>
   1338e:	0611                	addi	a2,a2,4
   13390:	01a10693          	addi	a3,sp,26
   13394:	0007d703          	lhu	a4,0(a5)
   13398:	0789                	addi	a5,a5,2
   1339a:	0609                	addi	a2,a2,2
   1339c:	fee61f23          	sh	a4,-2(a2)
   133a0:	fed79ae3          	bne	a5,a3,13394 <m16m+0x2e>
   133a4:	6105                	addi	sp,sp,32
   133a6:	8082                	ret
   133a8:	02a70733          	mul	a4,a4,a0
   133ac:	0027d883          	lhu	a7,2(a5)
   133b0:	0007d303          	lhu	t1,0(a5)
   133b4:	01c776b3          	and	a3,a4,t3
   133b8:	96c6                	add	a3,a3,a7
   133ba:	8341                	srli	a4,a4,0x10
   133bc:	0106d893          	srli	a7,a3,0x10
   133c0:	971a                	add	a4,a4,t1
   133c2:	9746                	add	a4,a4,a7
   133c4:	01075893          	srli	a7,a4,0x10
   133c8:	00d79123          	sh	a3,2(a5)
   133cc:	00e79023          	sh	a4,0(a5)
   133d0:	ff179f23          	sh	a7,-2(a5)
   133d4:	fb0794e3          	bne	a5,a6,1337c <m16m+0x16>
   133d8:	bf5d                	j	1338e <m16m+0x28>

00000000000133da <eisnan.part.0>:
   133da:	01250713          	addi	a4,a0,18
   133de:	00055783          	lhu	a5,0(a0)
   133e2:	0509                	addi	a0,a0,2
   133e4:	e789                	bnez	a5,133ee <eisnan.part.0+0x14>
   133e6:	fee51ce3          	bne	a0,a4,133de <eisnan.part.0+0x4>
   133ea:	4501                	li	a0,0
   133ec:	8082                	ret
   133ee:	4505                	li	a0,1
   133f0:	8082                	ret

00000000000133f2 <eneg>:
   133f2:	1101                	addi	sp,sp,-32
   133f4:	e426                	sd	s1,8(sp)
   133f6:	01255483          	lhu	s1,18(a0)
   133fa:	e822                	sd	s0,16(sp)
   133fc:	ec06                	sd	ra,24(sp)
   133fe:	fff4c793          	not	a5,s1
   13402:	03179713          	slli	a4,a5,0x31
   13406:	842a                	mv	s0,a0
   13408:	e701                	bnez	a4,13410 <eneg+0x1e>
   1340a:	fd1ff0ef          	jal	ra,133da <eisnan.part.0>
   1340e:	e509                	bnez	a0,13418 <eneg+0x26>
   13410:	77e1                	lui	a5,0xffff8
   13412:	8cbd                	xor	s1,s1,a5
   13414:	00941923          	sh	s1,18(s0)
   13418:	60e2                	ld	ra,24(sp)
   1341a:	6442                	ld	s0,16(sp)
   1341c:	64a2                	ld	s1,8(sp)
   1341e:	6105                	addi	sp,sp,32
   13420:	8082                	ret

0000000000013422 <eisneg>:
   13422:	1141                	addi	sp,sp,-16
   13424:	e022                	sd	s0,0(sp)
   13426:	01255403          	lhu	s0,18(a0)
   1342a:	e406                	sd	ra,8(sp)
   1342c:	fff44793          	not	a5,s0
   13430:	03179713          	slli	a4,a5,0x31
   13434:	e711                	bnez	a4,13440 <eisneg+0x1e>
   13436:	fa5ff0ef          	jal	ra,133da <eisnan.part.0>
   1343a:	87aa                	mv	a5,a0
   1343c:	4501                	li	a0,0
   1343e:	e399                	bnez	a5,13444 <eisneg+0x22>
   13440:	00f45513          	srli	a0,s0,0xf
   13444:	60a2                	ld	ra,8(sp)
   13446:	6402                	ld	s0,0(sp)
   13448:	0141                	addi	sp,sp,16
   1344a:	8082                	ret

000000000001344c <emovi>:
   1344c:	01255783          	lhu	a5,18(a0)
   13450:	7139                	addi	sp,sp,-64
   13452:	f822                	sd	s0,48(sp)
   13454:	00f7d79b          	srliw	a5,a5,0xf
   13458:	f426                	sd	s1,40(sp)
   1345a:	fc06                	sd	ra,56(sp)
   1345c:	f04a                	sd	s2,32(sp)
   1345e:	ec4e                	sd	s3,24(sp)
   13460:	40f007bb          	negw	a5,a5
   13464:	00f59023          	sh	a5,0(a1)
   13468:	01255783          	lhu	a5,18(a0)
   1346c:	6721                	lui	a4,0x8
   1346e:	177d                	addi	a4,a4,-1
   13470:	8ff9                	and	a5,a5,a4
   13472:	00f59123          	sh	a5,2(a1)
   13476:	84aa                	mv	s1,a0
   13478:	01050413          	addi	s0,a0,16
   1347c:	02e78863          	beq	a5,a4,134ac <emovi+0x60>
   13480:	00658793          	addi	a5,a1,6
   13484:	00059223          	sh	zero,4(a1)
   13488:	1579                	addi	a0,a0,-2
   1348a:	00045703          	lhu	a4,0(s0)
   1348e:	1479                	addi	s0,s0,-2
   13490:	0789                	addi	a5,a5,2
   13492:	fee79f23          	sh	a4,-2(a5) # ffffffffffff7ffe <__BSS_END__+0xfffffffffffd8b4e>
   13496:	fe851ae3          	bne	a0,s0,1348a <emovi+0x3e>
   1349a:	00059c23          	sh	zero,24(a1)
   1349e:	70e2                	ld	ra,56(sp)
   134a0:	7442                	ld	s0,48(sp)
   134a2:	74a2                	ld	s1,40(sp)
   134a4:	7902                	ld	s2,32(sp)
   134a6:	69e2                	ld	s3,24(sp)
   134a8:	6121                	addi	sp,sp,64
   134aa:	8082                	ret
   134ac:	0007869b          	sext.w	a3,a5
   134b0:	01255783          	lhu	a5,18(a0)
   134b4:	00458913          	addi	s2,a1,4
   134b8:	8ff5                	and	a5,a5,a3
   134ba:	02d79663          	bne	a5,a3,134e6 <emovi+0x9a>
   134be:	e42e                	sd	a1,8(sp)
   134c0:	f1bff0ef          	jal	ra,133da <eisnan.part.0>
   134c4:	65a2                	ld	a1,8(sp)
   134c6:	c105                	beqz	a0,134e6 <emovi+0x9a>
   134c8:	00658793          	addi	a5,a1,6
   134cc:	00059223          	sh	zero,4(a1)
   134d0:	ffc48513          	addi	a0,s1,-4
   134d4:	00045703          	lhu	a4,0(s0)
   134d8:	1479                	addi	s0,s0,-2
   134da:	0789                	addi	a5,a5,2
   134dc:	fee79f23          	sh	a4,-2(a5)
   134e0:	fe851ae3          	bne	a0,s0,134d4 <emovi+0x88>
   134e4:	bf6d                	j	1349e <emovi+0x52>
   134e6:	01a58993          	addi	s3,a1,26
   134ea:	0909                	addi	s2,s2,2
   134ec:	fe091f23          	sh	zero,-2(s2)
   134f0:	ff299de3          	bne	s3,s2,134ea <emovi+0x9e>
   134f4:	70e2                	ld	ra,56(sp)
   134f6:	7442                	ld	s0,48(sp)
   134f8:	74a2                	ld	s1,40(sp)
   134fa:	7902                	ld	s2,32(sp)
   134fc:	69e2                	ld	s3,24(sp)
   134fe:	6121                	addi	sp,sp,64
   13500:	8082                	ret

0000000000013502 <ecmp>:
   13502:	01255783          	lhu	a5,18(a0)
   13506:	711d                	addi	sp,sp,-96
   13508:	e8a2                	sd	s0,80(sp)
   1350a:	fff7c793          	not	a5,a5
   1350e:	e4a6                	sd	s1,72(sp)
   13510:	ec86                	sd	ra,88(sp)
   13512:	03179713          	slli	a4,a5,0x31
   13516:	84aa                	mv	s1,a0
   13518:	842e                	mv	s0,a1
   1351a:	e701                	bnez	a4,13522 <ecmp+0x20>
   1351c:	ebfff0ef          	jal	ra,133da <eisnan.part.0>
   13520:	ed39                	bnez	a0,1357e <ecmp+0x7c>
   13522:	01245783          	lhu	a5,18(s0)
   13526:	fff7c793          	not	a5,a5
   1352a:	03179713          	slli	a4,a5,0x31
   1352e:	c721                	beqz	a4,13576 <ecmp+0x74>
   13530:	858a                	mv	a1,sp
   13532:	8526                	mv	a0,s1
   13534:	f19ff0ef          	jal	ra,1344c <emovi>
   13538:	100c                	addi	a1,sp,32
   1353a:	8522                	mv	a0,s0
   1353c:	f11ff0ef          	jal	ra,1344c <emovi>
   13540:	00015583          	lhu	a1,0(sp)
   13544:	02015783          	lhu	a5,32(sp)
   13548:	02b78d63          	beq	a5,a1,13582 <ecmp+0x80>
   1354c:	00210793          	addi	a5,sp,2
   13550:	02210713          	addi	a4,sp,34
   13554:	0830                	addi	a2,sp,24
   13556:	0007d683          	lhu	a3,0(a5)
   1355a:	0789                	addi	a5,a5,2
   1355c:	e2ad                	bnez	a3,135be <ecmp+0xbc>
   1355e:	00075683          	lhu	a3,0(a4) # 8000 <main-0x80b0>
   13562:	0709                	addi	a4,a4,2
   13564:	eea9                	bnez	a3,135be <ecmp+0xbc>
   13566:	fec798e3          	bne	a5,a2,13556 <ecmp+0x54>
   1356a:	4501                	li	a0,0
   1356c:	60e6                	ld	ra,88(sp)
   1356e:	6446                	ld	s0,80(sp)
   13570:	64a6                	ld	s1,72(sp)
   13572:	6125                	addi	sp,sp,96
   13574:	8082                	ret
   13576:	8522                	mv	a0,s0
   13578:	e63ff0ef          	jal	ra,133da <eisnan.part.0>
   1357c:	d955                	beqz	a0,13530 <ecmp+0x2e>
   1357e:	5579                	li	a0,-2
   13580:	b7f5                	j	1356c <ecmp+0x6a>
   13582:	4505                	li	a0,1
   13584:	e1a9                	bnez	a1,135c6 <ecmp+0xc4>
   13586:	00215603          	lhu	a2,2(sp)
   1358a:	02215683          	lhu	a3,34(sp)
   1358e:	00210713          	addi	a4,sp,2
   13592:	02210793          	addi	a5,sp,34
   13596:	182c                	addi	a1,sp,56
   13598:	0789                	addi	a5,a5,2
   1359a:	0709                	addi	a4,a4,2
   1359c:	00d61c63          	bne	a2,a3,135b4 <ecmp+0xb2>
   135a0:	fcb785e3          	beq	a5,a1,1356a <ecmp+0x68>
   135a4:	00075603          	lhu	a2,0(a4)
   135a8:	0007d683          	lhu	a3,0(a5)
   135ac:	0709                	addi	a4,a4,2
   135ae:	0789                	addi	a5,a5,2
   135b0:	fed608e3          	beq	a2,a3,135a0 <ecmp+0x9e>
   135b4:	fac6ece3          	bltu	a3,a2,1356c <ecmp+0x6a>
   135b8:	40a0053b          	negw	a0,a0
   135bc:	bf45                	j	1356c <ecmp+0x6a>
   135be:	4505                	li	a0,1
   135c0:	d5d5                	beqz	a1,1356c <ecmp+0x6a>
   135c2:	557d                	li	a0,-1
   135c4:	b765                	j	1356c <ecmp+0x6a>
   135c6:	557d                	li	a0,-1
   135c8:	bf7d                	j	13586 <ecmp+0x84>

00000000000135ca <eisinf.part.0>:
   135ca:	1141                	addi	sp,sp,-16
   135cc:	e406                	sd	ra,8(sp)
   135ce:	e0dff0ef          	jal	ra,133da <eisnan.part.0>
   135d2:	60a2                	ld	ra,8(sp)
   135d4:	00153513          	seqz	a0,a0
   135d8:	0141                	addi	sp,sp,16
   135da:	8082                	ret

00000000000135dc <eshift.part.0>:
   135dc:	7179                	addi	sp,sp,-48
   135de:	f022                	sd	s0,32(sp)
   135e0:	ec26                	sd	s1,24(sp)
   135e2:	f406                	sd	ra,40(sp)
   135e4:	e84a                	sd	s2,16(sp)
   135e6:	e44e                	sd	s3,8(sp)
   135e8:	84ae                	mv	s1,a1
   135ea:	842a                	mv	s0,a0
   135ec:	0605cb63          	bltz	a1,13662 <eshift.part.0+0x86>
   135f0:	47bd                	li	a5,15
   135f2:	862e                	mv	a2,a1
   135f4:	0511                	addi	a0,a0,4
   135f6:	01840693          	addi	a3,s0,24
   135fa:	45bd                	li	a1,15
   135fc:	0297d063          	bge	a5,s1,1361c <eshift.part.0+0x40>
   13600:	87aa                	mv	a5,a0
   13602:	0027d703          	lhu	a4,2(a5)
   13606:	0789                	addi	a5,a5,2
   13608:	fee79f23          	sh	a4,-2(a5)
   1360c:	fed79be3          	bne	a5,a3,13602 <eshift.part.0+0x26>
   13610:	00041c23          	sh	zero,24(s0)
   13614:	3641                	addiw	a2,a2,-16
   13616:	fec5c5e3          	blt	a1,a2,13600 <eshift.part.0+0x24>
   1361a:	88bd                	andi	s1,s1,15
   1361c:	479d                	li	a5,7
   1361e:	0297d463          	bge	a5,s1,13646 <eshift.part.0+0x6a>
   13622:	01840713          	addi	a4,s0,24
   13626:	00240593          	addi	a1,s0,2
   1362a:	4781                	li	a5,0
   1362c:	00075683          	lhu	a3,0(a4)
   13630:	1779                	addi	a4,a4,-2
   13632:	00869613          	slli	a2,a3,0x8
   13636:	8fd1                	or	a5,a5,a2
   13638:	00f71123          	sh	a5,2(a4)
   1363c:	0086d793          	srli	a5,a3,0x8
   13640:	feb716e3          	bne	a4,a1,1362c <eshift.part.0+0x50>
   13644:	34e1                	addiw	s1,s1,-8
   13646:	c491                	beqz	s1,13652 <eshift.part.0+0x76>
   13648:	34fd                	addiw	s1,s1,-1
   1364a:	8522                	mv	a0,s0
   1364c:	cc1ff0ef          	jal	ra,1330c <eshup1>
   13650:	fce5                	bnez	s1,13648 <eshift.part.0+0x6c>
   13652:	4501                	li	a0,0
   13654:	70a2                	ld	ra,40(sp)
   13656:	7402                	ld	s0,32(sp)
   13658:	64e2                	ld	s1,24(sp)
   1365a:	6942                	ld	s2,16(sp)
   1365c:	69a2                	ld	s3,8(sp)
   1365e:	6145                	addi	sp,sp,48
   13660:	8082                	ret
   13662:	57c5                	li	a5,-15
   13664:	40b0093b          	negw	s2,a1
   13668:	0ef5d463          	bge	a1,a5,13750 <eshift.part.0+0x174>
   1366c:	01850593          	addi	a1,a0,24
   13670:	4981                	li	s3,0
   13672:	00450693          	addi	a3,a0,4
   13676:	463d                	li	a2,15
   13678:	01845703          	lhu	a4,24(s0)
   1367c:	87ae                	mv	a5,a1
   1367e:	00e9e9b3          	or	s3,s3,a4
   13682:	ffe7d703          	lhu	a4,-2(a5)
   13686:	17f9                	addi	a5,a5,-2
   13688:	00e79123          	sh	a4,2(a5)
   1368c:	fed79be3          	bne	a5,a3,13682 <eshift.part.0+0xa6>
   13690:	00041223          	sh	zero,4(s0)
   13694:	3941                	addiw	s2,s2,-16
   13696:	ff2641e3          	blt	a2,s2,13678 <eshift.part.0+0x9c>
   1369a:	57c1                	li	a5,-16
   1369c:	5745                	li	a4,-15
   1369e:	9f85                	subw	a5,a5,s1
   136a0:	4901                	li	s2,0
   136a2:	08e4c063          	blt	s1,a4,13722 <eshift.part.0+0x146>
   136a6:	00f9093b          	addw	s2,s2,a5
   136aa:	479d                	li	a5,7
   136ac:	0327df63          	bge	a5,s2,136ea <eshift.part.0+0x10e>
   136b0:	0109999b          	slliw	s3,s3,0x10
   136b4:	4109d99b          	sraiw	s3,s3,0x10
   136b8:	01844783          	lbu	a5,24(s0)
   136bc:	01a40593          	addi	a1,s0,26
   136c0:	00f9e9b3          	or	s3,s3,a5
   136c4:	19c2                	slli	s3,s3,0x30
   136c6:	0309d993          	srli	s3,s3,0x30
   136ca:	4781                	li	a5,0
   136cc:	0006d603          	lhu	a2,0(a3)
   136d0:	0689                	addi	a3,a3,2
   136d2:	0086571b          	srliw	a4,a2,0x8
   136d6:	8f5d                	or	a4,a4,a5
   136d8:	0086179b          	slliw	a5,a2,0x8
   136dc:	17c2                	slli	a5,a5,0x30
   136de:	fee69f23          	sh	a4,-2(a3)
   136e2:	93c1                	srli	a5,a5,0x30
   136e4:	feb694e3          	bne	a3,a1,136cc <eshift.part.0+0xf0>
   136e8:	3961                	addiw	s2,s2,-8
   136ea:	04090b63          	beqz	s2,13740 <eshift.part.0+0x164>
   136ee:	01845783          	lhu	a5,24(s0)
   136f2:	397d                	addiw	s2,s2,-1
   136f4:	8522                	mv	a0,s0
   136f6:	8b85                	andi	a5,a5,1
   136f8:	0137e9b3          	or	s3,a5,s3
   136fc:	bc5ff0ef          	jal	ra,132c0 <eshdn1>
   13700:	fe0917e3          	bnez	s2,136ee <eshift.part.0+0x112>
   13704:	0109979b          	slliw	a5,s3,0x10
   13708:	4107d79b          	sraiw	a5,a5,0x10
   1370c:	e78d                	bnez	a5,13736 <eshift.part.0+0x15a>
   1370e:	03099513          	slli	a0,s3,0x30
   13712:	9141                	srli	a0,a0,0x30
   13714:	70a2                	ld	ra,40(sp)
   13716:	7402                	ld	s0,32(sp)
   13718:	64e2                	ld	s1,24(sp)
   1371a:	6942                	ld	s2,16(sp)
   1371c:	69a2                	ld	s3,8(sp)
   1371e:	6145                	addi	sp,sp,48
   13720:	8082                	ret
   13722:	ff07f913          	andi	s2,a5,-16
   13726:	4120093b          	negw	s2,s2
   1372a:	00f9093b          	addw	s2,s2,a5
   1372e:	479d                	li	a5,7
   13730:	fb27dde3          	bge	a5,s2,136ea <eshift.part.0+0x10e>
   13734:	bfb5                	j	136b0 <eshift.part.0+0xd4>
   13736:	4985                	li	s3,1
   13738:	03099513          	slli	a0,s3,0x30
   1373c:	9141                	srli	a0,a0,0x30
   1373e:	bfd9                	j	13714 <eshift.part.0+0x138>
   13740:	854e                	mv	a0,s3
   13742:	00099563          	bnez	s3,1374c <eshift.part.0+0x170>
   13746:	1542                	slli	a0,a0,0x30
   13748:	9141                	srli	a0,a0,0x30
   1374a:	b729                	j	13654 <eshift.part.0+0x78>
   1374c:	4505                	li	a0,1
   1374e:	bfe5                	j	13746 <eshift.part.0+0x16a>
   13750:	57e5                	li	a5,-7
   13752:	4981                	li	s3,0
   13754:	f8f5dde3          	bge	a1,a5,136ee <eshift.part.0+0x112>
   13758:	00440693          	addi	a3,s0,4
   1375c:	bfb1                	j	136b8 <eshift.part.0+0xdc>

000000000001375e <enormlz>:
   1375e:	00455783          	lhu	a5,4(a0)
   13762:	1101                	addi	sp,sp,-32
   13764:	e426                	sd	s1,8(sp)
   13766:	ec06                	sd	ra,24(sp)
   13768:	e822                	sd	s0,16(sp)
   1376a:	e04a                	sd	s2,0(sp)
   1376c:	84aa                	mv	s1,a0
   1376e:	ebc5                	bnez	a5,1381e <enormlz+0xc0>
   13770:	00655703          	lhu	a4,6(a0)
   13774:	4401                	li	s0,0
   13776:	0107179b          	slliw	a5,a4,0x10
   1377a:	4107d79b          	sraiw	a5,a5,0x10
   1377e:	02079693          	slli	a3,a5,0x20
   13782:	0806c763          	bltz	a3,13810 <enormlz+0xb2>
   13786:	01a50693          	addi	a3,a0,26
   1378a:	0a000613          	li	a2,160
   1378e:	e31d                	bnez	a4,137b4 <enormlz+0x56>
   13790:	00648793          	addi	a5,s1,6
   13794:	a019                	j	1379a <enormlz+0x3c>
   13796:	0007d703          	lhu	a4,0(a5)
   1379a:	0789                	addi	a5,a5,2
   1379c:	fee79e23          	sh	a4,-4(a5)
   137a0:	fef69be3          	bne	a3,a5,13796 <enormlz+0x38>
   137a4:	00049c23          	sh	zero,24(s1)
   137a8:	2441                	addiw	s0,s0,16
   137aa:	06c40363          	beq	s0,a2,13810 <enormlz+0xb2>
   137ae:	0064d703          	lhu	a4,6(s1)
   137b2:	df79                	beqz	a4,13790 <enormlz+0x32>
   137b4:	f0077793          	andi	a5,a4,-256
   137b8:	eb8d                	bnez	a5,137ea <enormlz+0x8c>
   137ba:	01848513          	addi	a0,s1,24
   137be:	00248593          	addi	a1,s1,2
   137c2:	4781                	li	a5,0
   137c4:	872a                	mv	a4,a0
   137c6:	00075683          	lhu	a3,0(a4)
   137ca:	1779                	addi	a4,a4,-2
   137cc:	00869613          	slli	a2,a3,0x8
   137d0:	8fd1                	or	a5,a5,a2
   137d2:	00f71123          	sh	a5,2(a4)
   137d6:	0086d793          	srli	a5,a3,0x8
   137da:	fee596e3          	bne	a1,a4,137c6 <enormlz+0x68>
   137de:	0064d703          	lhu	a4,6(s1)
   137e2:	2421                	addiw	s0,s0,8
   137e4:	f0077793          	andi	a5,a4,-256
   137e8:	dfe9                	beqz	a5,137c2 <enormlz+0x64>
   137ea:	0a000913          	li	s2,160
   137ee:	a801                	j	137fe <enormlz+0xa0>
   137f0:	2405                	addiw	s0,s0,1
   137f2:	b1bff0ef          	jal	ra,1330c <eshup1>
   137f6:	00894d63          	blt	s2,s0,13810 <enormlz+0xb2>
   137fa:	0064d703          	lhu	a4,6(s1)
   137fe:	0107171b          	slliw	a4,a4,0x10
   13802:	4107571b          	sraiw	a4,a4,0x10
   13806:	02071793          	slli	a5,a4,0x20
   1380a:	8526                	mv	a0,s1
   1380c:	fe07d2e3          	bgez	a5,137f0 <enormlz+0x92>
   13810:	60e2                	ld	ra,24(sp)
   13812:	8522                	mv	a0,s0
   13814:	6442                	ld	s0,16(sp)
   13816:	64a2                	ld	s1,8(sp)
   13818:	6902                	ld	s2,0(sp)
   1381a:	6105                	addi	sp,sp,32
   1381c:	8082                	ret
   1381e:	f007f713          	andi	a4,a5,-256
