
RoCC4x3Tester:     file format elf64-littleriscv


Disassembly of section .text:

00000000000100b0 <main>:
        arraysum += array[i];     
        printf("Array[%d] = %d, Sum is: %d\n", i,array[i], arraysum);
    }
}

int main () {
   100b0:	7139                	addi	sp,sp,-64
   100b2:	fc06                	sd	ra,56(sp)
   100b4:	f822                	sd	s0,48(sp)
   100b6:	f426                	sd	s1,40(sp)

    asm ("nop"); //Marking start of program
   100b8:	0001                	nop

    int ComputeLength = 100;
    int array1[] = {1,2,3,4,5,6};
   100ba:	67f1                	lui	a5,0x1c
   100bc:	53878793          	addi	a5,a5,1336 # 1c538 <__clzdi2+0xdc>
   100c0:	6798                	ld	a4,8(a5)
   100c2:	6394                	ld	a3,0(a5)
   100c4:	6b9c                	ld	a5,16(a5)
    printf("Starting program!\n");
   100c6:	6571                	lui	a0,0x1c
   100c8:	4c050513          	addi	a0,a0,1216 # 1c4c0 <__clzdi2+0x64>
    int array1[] = {1,2,3,4,5,6};
   100cc:	e436                	sd	a3,8(sp)
   100ce:	e83a                	sd	a4,16(sp)
   100d0:	ec3e                	sd	a5,24(sp)
    
    array_gen(ComputeLength,array1);
   100d2:	0020                	addi	s0,sp,8
    printf("Starting program!\n");
   100d4:	6ca000ef          	jal	ra,1079e <puts>
    array_gen(ComputeLength,array1);
   100d8:	85a2                	mv	a1,s0
   100da:	06400513          	li	a0,100
   100de:	466000ef          	jal	ra,10544 <array_gen>

    int sum = 0;

    printf("Addresses: array1: %p, sum has the value: %d with address: %p \n", &array1,sum,&sum);
   100e2:	0044                	addi	s1,sp,4
   100e4:	6571                	lui	a0,0x1c
   100e6:	86a6                	mv	a3,s1
   100e8:	4601                	li	a2,0
   100ea:	85a2                	mv	a1,s0
   100ec:	4d850513          	addi	a0,a0,1240 # 1c4d8 <__clzdi2+0x7c>
    int sum = 0;
   100f0:	c202                	sw	zero,4(sp)
    printf("Addresses: array1: %p, sum has the value: %d with address: %p \n", &array1,sum,&sum);
   100f2:	600000ef          	jal	ra,106f2 <printf>

    asm volatile ("fence");
   100f6:	0ff0000f          	fence

    asm("nop"); //Marking start of configuration
   100fa:	0001                	nop

    // Send the config first
    send_config();
   100fc:	0ec000ef          	jal	ra,101e8 <send_config>

    // Send the first input and output address
    ROCC_INSTRUCTION_SS(0,&array1,&sum,1); 
   10100:	0294300b          	0x294300b

    asm("nop"); //Marking the starting of computation
   10104:	0001                	nop
    
    // Send the array length. This need to be the same for array1 and array2 in this configuration
    // This will also start the calculation
    ROCC_INSTRUCTION_SS(0,ComputeLength,0,3);
   10106:	06400793          	li	a5,100
   1010a:	4701                	li	a4,0
   1010c:	06e7b00b          	0x6e7b00b

    asm("nop"); //Marking end of computatio
   10110:	0001                	nop

    // if not here, the Sum will not be available to CPU (Datarace)
    ROCC_INSTRUCTION_SS(0,&array1, &sum,1);
   10112:	0294300b          	0x294300b

    asm volatile ("fence" ::: "memory");
   10116:	0ff0000f          	fence

    printf("Program Done! Sum is: %d\n", sum);
   1011a:	4592                	lw	a1,4(sp)
   1011c:	6571                	lui	a0,0x1c
   1011e:	51850513          	addi	a0,a0,1304 # 1c518 <__clzdi2+0xbc>
   10122:	5d0000ef          	jal	ra,106f2 <printf>
    return 0;
   10126:	70e2                	ld	ra,56(sp)
   10128:	7442                	ld	s0,48(sp)
   1012a:	74a2                	ld	s1,40(sp)
   1012c:	4501                	li	a0,0
   1012e:	6121                	addi	sp,sp,64
   10130:	8082                	ret

0000000000010132 <register_fini>:
   10132:	ffff0797          	auipc	a5,0xffff0
   10136:	ece78793          	addi	a5,a5,-306 # 0 <main-0x100b0>
   1013a:	c799                	beqz	a5,10148 <register_fini+0x16>
   1013c:	00003517          	auipc	a0,0x3
   10140:	9f050513          	addi	a0,a0,-1552 # 12b2c <__libc_fini_array>
   10144:	21d0906f          	j	19b60 <atexit>
   10148:	8082                	ret

000000000001014a <_start>:
   1014a:	0000f197          	auipc	gp,0xf
   1014e:	b6618193          	addi	gp,gp,-1178 # 1ecb0 <__global_pointer$>
   10152:	77018513          	addi	a0,gp,1904 # 1f420 <_edata>
   10156:	0000f617          	auipc	a2,0xf
   1015a:	35a60613          	addi	a2,a2,858 # 1f4b0 <__BSS_END__>
   1015e:	8e09                	sub	a2,a2,a0
   10160:	4581                	li	a1,0
   10162:	4c4000ef          	jal	ra,10626 <memset>
   10166:	0000a517          	auipc	a0,0xa
   1016a:	9fa50513          	addi	a0,a0,-1542 # 19b60 <atexit>
   1016e:	c519                	beqz	a0,1017c <_start+0x32>
   10170:	00003517          	auipc	a0,0x3
   10174:	9bc50513          	addi	a0,a0,-1604 # 12b2c <__libc_fini_array>
   10178:	1e9090ef          	jal	ra,19b60 <atexit>
   1017c:	440000ef          	jal	ra,105bc <__libc_init_array>
   10180:	4502                	lw	a0,0(sp)
   10182:	002c                	addi	a1,sp,8
   10184:	4601                	li	a2,0
   10186:	f2bff0ef          	jal	ra,100b0 <main>
   1018a:	a911                	j	1059e <exit>

000000000001018c <__do_global_dtors_aux>:
   1018c:	79818793          	addi	a5,gp,1944 # 1f448 <completed.5527>
   10190:	0007c703          	lbu	a4,0(a5)
   10194:	eb0d                	bnez	a4,101c6 <__do_global_dtors_aux+0x3a>
   10196:	1141                	addi	sp,sp,-16
   10198:	e022                	sd	s0,0(sp)
   1019a:	e406                	sd	ra,8(sp)
   1019c:	843e                	mv	s0,a5
   1019e:	ffff0797          	auipc	a5,0xffff0
   101a2:	e6278793          	addi	a5,a5,-414 # 0 <main-0x100b0>
   101a6:	cb89                	beqz	a5,101b8 <__do_global_dtors_aux+0x2c>
   101a8:	0000e517          	auipc	a0,0xe
   101ac:	0a050513          	addi	a0,a0,160 # 1e248 <__FRAME_END__>
   101b0:	00000097          	auipc	ra,0x0
   101b4:	000000e7          	jalr	zero # 0 <main-0x100b0>
   101b8:	4785                	li	a5,1
   101ba:	60a2                	ld	ra,8(sp)
   101bc:	00f40023          	sb	a5,0(s0)
   101c0:	6402                	ld	s0,0(sp)
   101c2:	0141                	addi	sp,sp,16
   101c4:	8082                	ret
   101c6:	8082                	ret

00000000000101c8 <frame_dummy>:
   101c8:	ffff0797          	auipc	a5,0xffff0
   101cc:	e3878793          	addi	a5,a5,-456 # 0 <main-0x100b0>
   101d0:	cb99                	beqz	a5,101e6 <frame_dummy+0x1e>
   101d2:	7a018593          	addi	a1,gp,1952 # 1f450 <object.5532>
   101d6:	0000e517          	auipc	a0,0xe
   101da:	07250513          	addi	a0,a0,114 # 1e248 <__FRAME_END__>
   101de:	00000317          	auipc	t1,0x0
   101e2:	00000067          	jr	zero # 0 <main-0x100b0>
   101e6:	8082                	ret

00000000000101e8 <send_config>:
            config1 = config1 | cgra_configuration[i+(8*k)];
   101e8:	67f9                	lui	a5,0x1e
   101ea:	26878793          	addi	a5,a5,616 # 1e268 <__fini_array_end>
   101ee:	0007c583          	lbu	a1,0(a5)
            config2 = config2 | cgra_configuration[i+(8*k)+8];
   101f2:	0087c603          	lbu	a2,8(a5)
            config1 = config1 | cgra_configuration[i+(8*k)];
   101f6:	0017c683          	lbu	a3,1(a5)
            config2 = config2 | cgra_configuration[i+(8*k)+8];
   101fa:	0097c703          	lbu	a4,9(a5)
            config1 = config1 | cgra_configuration[i+(8*k)];
   101fe:	0027c803          	lbu	a6,2(a5)
            config2 = config2 | cgra_configuration[i+(8*k)+8];
   10202:	00a7c503          	lbu	a0,10(a5)
            config1 = config1 << 8;
   10206:	05a2                	slli	a1,a1,0x8
            config2 = config2 << 8;
   10208:	0622                	slli	a2,a2,0x8
            config1 = config1 | cgra_configuration[i+(8*k)];
   1020a:	8ecd                	or	a3,a3,a1
            config2 = config2 | cgra_configuration[i+(8*k)+8];
   1020c:	8f51                	or	a4,a4,a2
            config1 = config1 | cgra_configuration[i+(8*k)];
   1020e:	0037c583          	lbu	a1,3(a5)
            config2 = config2 | cgra_configuration[i+(8*k)+8];
   10212:	00b7c603          	lbu	a2,11(a5)
            config1 = config1 << 8;
   10216:	06a2                	slli	a3,a3,0x8
            config2 = config2 << 8;
   10218:	0722                	slli	a4,a4,0x8
            config1 = config1 | cgra_configuration[i+(8*k)];
   1021a:	00d86833          	or	a6,a6,a3
            config2 = config2 | cgra_configuration[i+(8*k)+8];
   1021e:	8d59                	or	a0,a0,a4
            config1 = config1 | cgra_configuration[i+(8*k)];
   10220:	0047c683          	lbu	a3,4(a5)
            config2 = config2 | cgra_configuration[i+(8*k)+8];
   10224:	00c7c703          	lbu	a4,12(a5)
            config1 = config1 << 8;
   10228:	0822                	slli	a6,a6,0x8
            config2 = config2 << 8;
   1022a:	0522                	slli	a0,a0,0x8
            config1 = config1 | cgra_configuration[i+(8*k)];
   1022c:	0105e5b3          	or	a1,a1,a6
            config2 = config2 | cgra_configuration[i+(8*k)+8];
   10230:	8e49                	or	a2,a2,a0
            config1 = config1 | cgra_configuration[i+(8*k)];
   10232:	0057c803          	lbu	a6,5(a5)
            config2 = config2 | cgra_configuration[i+(8*k)+8];
   10236:	00d7c503          	lbu	a0,13(a5)
            config1 = config1 << 8;
   1023a:	05a2                	slli	a1,a1,0x8
            config2 = config2 << 8;
   1023c:	0622                	slli	a2,a2,0x8
            config1 = config1 | cgra_configuration[i+(8*k)];
   1023e:	8ecd                	or	a3,a3,a1
            config2 = config2 | cgra_configuration[i+(8*k)+8];
   10240:	8f51                	or	a4,a4,a2
            config1 = config1 | cgra_configuration[i+(8*k)];
   10242:	0067c583          	lbu	a1,6(a5)
            config2 = config2 | cgra_configuration[i+(8*k)+8];
   10246:	00e7c603          	lbu	a2,14(a5)
            config1 = config1 << 8;
   1024a:	06a2                	slli	a3,a3,0x8
            config2 = config2 << 8;
   1024c:	0722                	slli	a4,a4,0x8
            config1 = config1 | cgra_configuration[i+(8*k)];
   1024e:	00d86833          	or	a6,a6,a3
            config2 = config2 | cgra_configuration[i+(8*k)+8];
   10252:	8d59                	or	a0,a0,a4
            config1 = config1 | cgra_configuration[i+(8*k)];
   10254:	0077c683          	lbu	a3,7(a5)
            config2 = config2 | cgra_configuration[i+(8*k)+8];
   10258:	00f7c703          	lbu	a4,15(a5)
            config1 = config1 << 8;
   1025c:	0822                	slli	a6,a6,0x8
            config2 = config2 << 8;
   1025e:	0522                	slli	a0,a0,0x8
            config1 = config1 | cgra_configuration[i+(8*k)];
   10260:	0105e5b3          	or	a1,a1,a6
            config2 = config2 | cgra_configuration[i+(8*k)+8];
   10264:	8e49                	or	a2,a2,a0
            config1 = config1 << 8;
   10266:	05a2                	slli	a1,a1,0x8
            config2 = config2 << 8;
   10268:	0622                	slli	a2,a2,0x8
            config1 = config1 | cgra_configuration[i+(8*k)];
   1026a:	8ecd                	or	a3,a3,a1
            config2 = config2 | cgra_configuration[i+(8*k)+8];
   1026c:	8f51                	or	a4,a4,a2
        ROCC_INSTRUCTION_SS(0,config1, config2, 0);
   1026e:	00e6b00b          	0xe6b00b
            config1 = config1 | cgra_configuration[i+(8*k)];
   10272:	0107c803          	lbu	a6,16(a5)
            config2 = config2 | cgra_configuration[i+(8*k)+8];
   10276:	0187c503          	lbu	a0,24(a5)
            config1 = config1 | cgra_configuration[i+(8*k)];
   1027a:	0117c583          	lbu	a1,17(a5)
            config2 = config2 | cgra_configuration[i+(8*k)+8];
   1027e:	0197c603          	lbu	a2,25(a5)
            config1 = config1 << 8;
   10282:	06a2                	slli	a3,a3,0x8
            config2 = config2 << 8;
   10284:	0722                	slli	a4,a4,0x8
            config1 = config1 | cgra_configuration[i+(8*k)];
   10286:	00d866b3          	or	a3,a6,a3
            config2 = config2 | cgra_configuration[i+(8*k)+8];
   1028a:	8f49                	or	a4,a4,a0
            config1 = config1 | cgra_configuration[i+(8*k)];
   1028c:	0127c803          	lbu	a6,18(a5)
            config2 = config2 | cgra_configuration[i+(8*k)+8];
   10290:	01a7c503          	lbu	a0,26(a5)
            config1 = config1 << 8;
   10294:	06a2                	slli	a3,a3,0x8
            config2 = config2 << 8;
   10296:	0722                	slli	a4,a4,0x8
            config1 = config1 | cgra_configuration[i+(8*k)];
   10298:	8ecd                	or	a3,a3,a1
            config2 = config2 | cgra_configuration[i+(8*k)+8];
   1029a:	8f51                	or	a4,a4,a2
            config1 = config1 | cgra_configuration[i+(8*k)];
   1029c:	0137c583          	lbu	a1,19(a5)
            config2 = config2 | cgra_configuration[i+(8*k)+8];
   102a0:	01b7c603          	lbu	a2,27(a5)
            config1 = config1 << 8;
   102a4:	06a2                	slli	a3,a3,0x8
            config2 = config2 << 8;
   102a6:	0722                	slli	a4,a4,0x8
            config1 = config1 | cgra_configuration[i+(8*k)];
   102a8:	00d86833          	or	a6,a6,a3
            config2 = config2 | cgra_configuration[i+(8*k)+8];
   102ac:	8d59                	or	a0,a0,a4
            config1 = config1 | cgra_configuration[i+(8*k)];
   102ae:	0147c683          	lbu	a3,20(a5)
            config2 = config2 | cgra_configuration[i+(8*k)+8];
   102b2:	01c7c703          	lbu	a4,28(a5)
            config1 = config1 << 8;
   102b6:	0822                	slli	a6,a6,0x8
            config2 = config2 << 8;
   102b8:	0522                	slli	a0,a0,0x8
            config1 = config1 | cgra_configuration[i+(8*k)];
   102ba:	0105e5b3          	or	a1,a1,a6
            config2 = config2 | cgra_configuration[i+(8*k)+8];
   102be:	8e49                	or	a2,a2,a0
            config1 = config1 | cgra_configuration[i+(8*k)];
   102c0:	0157c803          	lbu	a6,21(a5)
            config2 = config2 | cgra_configuration[i+(8*k)+8];
   102c4:	01d7c503          	lbu	a0,29(a5)
            config1 = config1 << 8;
   102c8:	05a2                	slli	a1,a1,0x8
            config2 = config2 << 8;
   102ca:	0622                	slli	a2,a2,0x8
            config1 = config1 | cgra_configuration[i+(8*k)];
   102cc:	8ecd                	or	a3,a3,a1
            config2 = config2 | cgra_configuration[i+(8*k)+8];
   102ce:	8f51                	or	a4,a4,a2
            config1 = config1 | cgra_configuration[i+(8*k)];
   102d0:	0167c583          	lbu	a1,22(a5)
            config2 = config2 | cgra_configuration[i+(8*k)+8];
   102d4:	01e7c603          	lbu	a2,30(a5)
            config1 = config1 << 8;
   102d8:	06a2                	slli	a3,a3,0x8
            config2 = config2 << 8;
   102da:	0722                	slli	a4,a4,0x8
            config1 = config1 | cgra_configuration[i+(8*k)];
   102dc:	00d86833          	or	a6,a6,a3
            config2 = config2 | cgra_configuration[i+(8*k)+8];
   102e0:	8d59                	or	a0,a0,a4
            config1 = config1 | cgra_configuration[i+(8*k)];
   102e2:	0177c683          	lbu	a3,23(a5)
            config2 = config2 | cgra_configuration[i+(8*k)+8];
   102e6:	01f7c703          	lbu	a4,31(a5)
            config1 = config1 << 8;
   102ea:	0822                	slli	a6,a6,0x8
            config2 = config2 << 8;
   102ec:	0522                	slli	a0,a0,0x8
            config1 = config1 | cgra_configuration[i+(8*k)];
   102ee:	0105e5b3          	or	a1,a1,a6
            config2 = config2 | cgra_configuration[i+(8*k)+8];
   102f2:	8e49                	or	a2,a2,a0
            config1 = config1 << 8;
   102f4:	05a2                	slli	a1,a1,0x8
            config2 = config2 << 8;
   102f6:	0622                	slli	a2,a2,0x8
            config1 = config1 | cgra_configuration[i+(8*k)];
   102f8:	8ecd                	or	a3,a3,a1
            config2 = config2 | cgra_configuration[i+(8*k)+8];
   102fa:	8f51                	or	a4,a4,a2
        ROCC_INSTRUCTION_SS(0,config1, config2, 0);
   102fc:	00e6b00b          	0xe6b00b
            config1 = config1 | cgra_configuration[i+(8*k)];
   10300:	0207c803          	lbu	a6,32(a5)
            config2 = config2 | cgra_configuration[i+(8*k)+8];
   10304:	0287c503          	lbu	a0,40(a5)
            config1 = config1 | cgra_configuration[i+(8*k)];
   10308:	0217c583          	lbu	a1,33(a5)
            config2 = config2 | cgra_configuration[i+(8*k)+8];
   1030c:	0297c603          	lbu	a2,41(a5)
            config1 = config1 << 8;
   10310:	06a2                	slli	a3,a3,0x8
            config2 = config2 << 8;
   10312:	0722                	slli	a4,a4,0x8
            config1 = config1 | cgra_configuration[i+(8*k)];
   10314:	00d866b3          	or	a3,a6,a3
            config2 = config2 | cgra_configuration[i+(8*k)+8];
   10318:	8f49                	or	a4,a4,a0
            config1 = config1 | cgra_configuration[i+(8*k)];
   1031a:	0227c803          	lbu	a6,34(a5)
            config2 = config2 | cgra_configuration[i+(8*k)+8];
   1031e:	02a7c503          	lbu	a0,42(a5)
            config1 = config1 << 8;
   10322:	06a2                	slli	a3,a3,0x8
            config2 = config2 << 8;
   10324:	0722                	slli	a4,a4,0x8
            config1 = config1 | cgra_configuration[i+(8*k)];
   10326:	8ecd                	or	a3,a3,a1
            config2 = config2 | cgra_configuration[i+(8*k)+8];
   10328:	8f51                	or	a4,a4,a2
            config1 = config1 | cgra_configuration[i+(8*k)];
   1032a:	0237c583          	lbu	a1,35(a5)
            config2 = config2 | cgra_configuration[i+(8*k)+8];
   1032e:	02b7c603          	lbu	a2,43(a5)
            config1 = config1 << 8;
   10332:	06a2                	slli	a3,a3,0x8
            config2 = config2 << 8;
   10334:	0722                	slli	a4,a4,0x8
            config1 = config1 | cgra_configuration[i+(8*k)];
   10336:	00d86833          	or	a6,a6,a3
            config2 = config2 | cgra_configuration[i+(8*k)+8];
   1033a:	8d59                	or	a0,a0,a4
            config1 = config1 | cgra_configuration[i+(8*k)];
   1033c:	0247c683          	lbu	a3,36(a5)
            config2 = config2 | cgra_configuration[i+(8*k)+8];
   10340:	02c7c703          	lbu	a4,44(a5)
            config1 = config1 << 8;
   10344:	0822                	slli	a6,a6,0x8
            config2 = config2 << 8;
   10346:	0522                	slli	a0,a0,0x8
            config1 = config1 | cgra_configuration[i+(8*k)];
   10348:	0105e5b3          	or	a1,a1,a6
            config2 = config2 | cgra_configuration[i+(8*k)+8];
   1034c:	8e49                	or	a2,a2,a0
            config1 = config1 | cgra_configuration[i+(8*k)];
   1034e:	0257c803          	lbu	a6,37(a5)
            config2 = config2 | cgra_configuration[i+(8*k)+8];
   10352:	02d7c503          	lbu	a0,45(a5)
            config1 = config1 << 8;
   10356:	05a2                	slli	a1,a1,0x8
            config2 = config2 << 8;
   10358:	0622                	slli	a2,a2,0x8
            config1 = config1 | cgra_configuration[i+(8*k)];
   1035a:	8ecd                	or	a3,a3,a1
            config2 = config2 | cgra_configuration[i+(8*k)+8];
   1035c:	8f51                	or	a4,a4,a2
            config1 = config1 | cgra_configuration[i+(8*k)];
   1035e:	0267c583          	lbu	a1,38(a5)
            config2 = config2 | cgra_configuration[i+(8*k)+8];
   10362:	02e7c603          	lbu	a2,46(a5)
            config1 = config1 << 8;
   10366:	06a2                	slli	a3,a3,0x8
            config2 = config2 << 8;
   10368:	0722                	slli	a4,a4,0x8
            config1 = config1 | cgra_configuration[i+(8*k)];
   1036a:	00d86833          	or	a6,a6,a3
            config2 = config2 | cgra_configuration[i+(8*k)+8];
   1036e:	8d59                	or	a0,a0,a4
            config1 = config1 | cgra_configuration[i+(8*k)];
   10370:	0277c683          	lbu	a3,39(a5)
            config2 = config2 | cgra_configuration[i+(8*k)+8];
   10374:	02f7c703          	lbu	a4,47(a5)
            config1 = config1 << 8;
   10378:	0822                	slli	a6,a6,0x8
            config2 = config2 << 8;
   1037a:	0522                	slli	a0,a0,0x8
            config1 = config1 | cgra_configuration[i+(8*k)];
   1037c:	0105e5b3          	or	a1,a1,a6
            config2 = config2 | cgra_configuration[i+(8*k)+8];
   10380:	8e49                	or	a2,a2,a0
            config1 = config1 << 8;
   10382:	05a2                	slli	a1,a1,0x8
            config2 = config2 << 8;
   10384:	0622                	slli	a2,a2,0x8
            config1 = config1 | cgra_configuration[i+(8*k)];
   10386:	8ecd                	or	a3,a3,a1
            config2 = config2 | cgra_configuration[i+(8*k)+8];
   10388:	8f51                	or	a4,a4,a2
        ROCC_INSTRUCTION_SS(0,config1, config2, 0);
   1038a:	00e6b00b          	0xe6b00b
            config1 = config1 | cgra_configuration[i+(8*k)];
   1038e:	0307c803          	lbu	a6,48(a5)
            config2 = config2 | cgra_configuration[i+(8*k)+8];
   10392:	0387c503          	lbu	a0,56(a5)
            config1 = config1 | cgra_configuration[i+(8*k)];
   10396:	0317c583          	lbu	a1,49(a5)
            config2 = config2 | cgra_configuration[i+(8*k)+8];
   1039a:	0397c603          	lbu	a2,57(a5)
            config1 = config1 << 8;
   1039e:	06a2                	slli	a3,a3,0x8
            config2 = config2 << 8;
   103a0:	0722                	slli	a4,a4,0x8
            config1 = config1 | cgra_configuration[i+(8*k)];
   103a2:	00d866b3          	or	a3,a6,a3
            config2 = config2 | cgra_configuration[i+(8*k)+8];
   103a6:	8f49                	or	a4,a4,a0
            config1 = config1 | cgra_configuration[i+(8*k)];
   103a8:	0327c803          	lbu	a6,50(a5)
            config2 = config2 | cgra_configuration[i+(8*k)+8];
   103ac:	03a7c503          	lbu	a0,58(a5)
            config1 = config1 << 8;
   103b0:	06a2                	slli	a3,a3,0x8
            config2 = config2 << 8;
   103b2:	0722                	slli	a4,a4,0x8
            config1 = config1 | cgra_configuration[i+(8*k)];
   103b4:	8ecd                	or	a3,a3,a1
            config2 = config2 | cgra_configuration[i+(8*k)+8];
   103b6:	8f51                	or	a4,a4,a2
            config1 = config1 | cgra_configuration[i+(8*k)];
   103b8:	0337c583          	lbu	a1,51(a5)
            config2 = config2 | cgra_configuration[i+(8*k)+8];
   103bc:	03b7c603          	lbu	a2,59(a5)
            config1 = config1 << 8;
   103c0:	06a2                	slli	a3,a3,0x8
            config2 = config2 << 8;
   103c2:	0722                	slli	a4,a4,0x8
            config1 = config1 | cgra_configuration[i+(8*k)];
   103c4:	00d86833          	or	a6,a6,a3
            config2 = config2 | cgra_configuration[i+(8*k)+8];
   103c8:	8d59                	or	a0,a0,a4
            config1 = config1 | cgra_configuration[i+(8*k)];
   103ca:	0347c683          	lbu	a3,52(a5)
            config2 = config2 | cgra_configuration[i+(8*k)+8];
   103ce:	03c7c703          	lbu	a4,60(a5)
            config1 = config1 << 8;
   103d2:	0822                	slli	a6,a6,0x8
            config2 = config2 << 8;
   103d4:	0522                	slli	a0,a0,0x8
            config1 = config1 | cgra_configuration[i+(8*k)];
   103d6:	0105e5b3          	or	a1,a1,a6
            config2 = config2 | cgra_configuration[i+(8*k)+8];
   103da:	8e49                	or	a2,a2,a0
            config1 = config1 | cgra_configuration[i+(8*k)];
   103dc:	0357c803          	lbu	a6,53(a5)
            config2 = config2 | cgra_configuration[i+(8*k)+8];
   103e0:	03d7c503          	lbu	a0,61(a5)
            config1 = config1 << 8;
   103e4:	05a2                	slli	a1,a1,0x8
            config2 = config2 << 8;
   103e6:	0622                	slli	a2,a2,0x8
            config1 = config1 | cgra_configuration[i+(8*k)];
   103e8:	8ecd                	or	a3,a3,a1
            config2 = config2 | cgra_configuration[i+(8*k)+8];
   103ea:	8f51                	or	a4,a4,a2
            config1 = config1 | cgra_configuration[i+(8*k)];
   103ec:	0367c583          	lbu	a1,54(a5)
            config2 = config2 | cgra_configuration[i+(8*k)+8];
   103f0:	03e7c603          	lbu	a2,62(a5)
            config1 = config1 << 8;
   103f4:	06a2                	slli	a3,a3,0x8
            config2 = config2 << 8;
   103f6:	0722                	slli	a4,a4,0x8
            config1 = config1 | cgra_configuration[i+(8*k)];
   103f8:	00d86833          	or	a6,a6,a3
            config2 = config2 | cgra_configuration[i+(8*k)+8];
   103fc:	8d59                	or	a0,a0,a4
            config1 = config1 | cgra_configuration[i+(8*k)];
   103fe:	0377c683          	lbu	a3,55(a5)
            config2 = config2 | cgra_configuration[i+(8*k)+8];
   10402:	03f7c703          	lbu	a4,63(a5)
            config1 = config1 << 8;
   10406:	0822                	slli	a6,a6,0x8
            config2 = config2 << 8;
   10408:	0522                	slli	a0,a0,0x8
            config1 = config1 | cgra_configuration[i+(8*k)];
   1040a:	0105e5b3          	or	a1,a1,a6
            config2 = config2 | cgra_configuration[i+(8*k)+8];
   1040e:	8e49                	or	a2,a2,a0
            config1 = config1 << 8;
   10410:	05a2                	slli	a1,a1,0x8
            config2 = config2 << 8;
   10412:	0622                	slli	a2,a2,0x8
            config1 = config1 | cgra_configuration[i+(8*k)];
   10414:	8ecd                	or	a3,a3,a1
            config2 = config2 | cgra_configuration[i+(8*k)+8];
   10416:	8f51                	or	a4,a4,a2
        ROCC_INSTRUCTION_SS(0,config1, config2, 0);
   10418:	00e6b00b          	0xe6b00b
            config1 = config1 | cgra_configuration[i+(8*k)];
   1041c:	0407c803          	lbu	a6,64(a5)
            config2 = config2 | cgra_configuration[i+(8*k)+8];
   10420:	0487c503          	lbu	a0,72(a5)
            config1 = config1 | cgra_configuration[i+(8*k)];
   10424:	0417c583          	lbu	a1,65(a5)
            config2 = config2 | cgra_configuration[i+(8*k)+8];
   10428:	0497c603          	lbu	a2,73(a5)
            config1 = config1 << 8;
   1042c:	06a2                	slli	a3,a3,0x8
            config2 = config2 << 8;
   1042e:	0722                	slli	a4,a4,0x8
            config1 = config1 | cgra_configuration[i+(8*k)];
   10430:	00d866b3          	or	a3,a6,a3
            config2 = config2 | cgra_configuration[i+(8*k)+8];
   10434:	8f49                	or	a4,a4,a0
            config1 = config1 | cgra_configuration[i+(8*k)];
   10436:	0427c803          	lbu	a6,66(a5)
            config2 = config2 | cgra_configuration[i+(8*k)+8];
   1043a:	04a7c503          	lbu	a0,74(a5)
            config1 = config1 << 8;
   1043e:	06a2                	slli	a3,a3,0x8
            config2 = config2 << 8;
   10440:	0722                	slli	a4,a4,0x8
            config1 = config1 | cgra_configuration[i+(8*k)];
   10442:	8ecd                	or	a3,a3,a1
            config2 = config2 | cgra_configuration[i+(8*k)+8];
   10444:	8f51                	or	a4,a4,a2
            config1 = config1 | cgra_configuration[i+(8*k)];
   10446:	0437c583          	lbu	a1,67(a5)
            config2 = config2 | cgra_configuration[i+(8*k)+8];
   1044a:	04b7c603          	lbu	a2,75(a5)
            config1 = config1 << 8;
   1044e:	06a2                	slli	a3,a3,0x8
            config2 = config2 << 8;
   10450:	0722                	slli	a4,a4,0x8
            config1 = config1 | cgra_configuration[i+(8*k)];
   10452:	00d86833          	or	a6,a6,a3
            config2 = config2 | cgra_configuration[i+(8*k)+8];
   10456:	8d59                	or	a0,a0,a4
            config1 = config1 | cgra_configuration[i+(8*k)];
   10458:	0447c683          	lbu	a3,68(a5)
            config2 = config2 | cgra_configuration[i+(8*k)+8];
   1045c:	04c7c703          	lbu	a4,76(a5)
            config1 = config1 << 8;
   10460:	0822                	slli	a6,a6,0x8
            config2 = config2 << 8;
   10462:	0522                	slli	a0,a0,0x8
            config1 = config1 | cgra_configuration[i+(8*k)];
   10464:	0105e5b3          	or	a1,a1,a6
            config2 = config2 | cgra_configuration[i+(8*k)+8];
   10468:	8e49                	or	a2,a2,a0
            config1 = config1 | cgra_configuration[i+(8*k)];
   1046a:	0457c803          	lbu	a6,69(a5)
            config2 = config2 | cgra_configuration[i+(8*k)+8];
   1046e:	04d7c503          	lbu	a0,77(a5)
            config1 = config1 << 8;
   10472:	05a2                	slli	a1,a1,0x8
            config2 = config2 << 8;
   10474:	0622                	slli	a2,a2,0x8
            config1 = config1 | cgra_configuration[i+(8*k)];
   10476:	8ecd                	or	a3,a3,a1
            config2 = config2 | cgra_configuration[i+(8*k)+8];
   10478:	8f51                	or	a4,a4,a2
            config1 = config1 | cgra_configuration[i+(8*k)];
   1047a:	0467c583          	lbu	a1,70(a5)
            config2 = config2 | cgra_configuration[i+(8*k)+8];
   1047e:	04e7c603          	lbu	a2,78(a5)
            config1 = config1 << 8;
   10482:	06a2                	slli	a3,a3,0x8
            config2 = config2 << 8;
   10484:	0722                	slli	a4,a4,0x8
            config1 = config1 | cgra_configuration[i+(8*k)];
   10486:	00d86833          	or	a6,a6,a3
            config2 = config2 | cgra_configuration[i+(8*k)+8];
   1048a:	8d59                	or	a0,a0,a4
            config1 = config1 | cgra_configuration[i+(8*k)];
   1048c:	0477c683          	lbu	a3,71(a5)
            config2 = config2 | cgra_configuration[i+(8*k)+8];
   10490:	04f7c703          	lbu	a4,79(a5)
            config1 = config1 << 8;
   10494:	0822                	slli	a6,a6,0x8
            config2 = config2 << 8;
   10496:	0522                	slli	a0,a0,0x8
            config1 = config1 | cgra_configuration[i+(8*k)];
   10498:	0105e5b3          	or	a1,a1,a6
            config2 = config2 | cgra_configuration[i+(8*k)+8];
   1049c:	8e49                	or	a2,a2,a0
            config1 = config1 << 8;
   1049e:	05a2                	slli	a1,a1,0x8
            config2 = config2 << 8;
   104a0:	0622                	slli	a2,a2,0x8
            config1 = config1 | cgra_configuration[i+(8*k)];
   104a2:	8ecd                	or	a3,a3,a1
            config2 = config2 | cgra_configuration[i+(8*k)+8];
   104a4:	8f51                	or	a4,a4,a2
        ROCC_INSTRUCTION_SS(0,config1, config2, 0);
   104a6:	00e6b00b          	0xe6b00b
            config1 = config1 | cgra_configuration[i+(8*k)];
   104aa:	0507c583          	lbu	a1,80(a5)
            config2 = config2 | cgra_configuration[i+(8*k)+8];
   104ae:	0587c603          	lbu	a2,88(a5)
            config1 = config1 | cgra_configuration[i+(8*k)];
   104b2:	0517c803          	lbu	a6,81(a5)
            config2 = config2 | cgra_configuration[i+(8*k)+8];
   104b6:	0597c503          	lbu	a0,89(a5)
            config1 = config1 << 8;
   104ba:	06a2                	slli	a3,a3,0x8
            config2 = config2 << 8;
   104bc:	0722                	slli	a4,a4,0x8
            config1 = config1 | cgra_configuration[i+(8*k)];
   104be:	8ecd                	or	a3,a3,a1
            config2 = config2 | cgra_configuration[i+(8*k)+8];
   104c0:	8f51                	or	a4,a4,a2
            config1 = config1 | cgra_configuration[i+(8*k)];
   104c2:	0527c583          	lbu	a1,82(a5)
            config2 = config2 | cgra_configuration[i+(8*k)+8];
   104c6:	05a7c603          	lbu	a2,90(a5)
            config1 = config1 << 8;
   104ca:	06a2                	slli	a3,a3,0x8
            config2 = config2 << 8;
   104cc:	0722                	slli	a4,a4,0x8
            config1 = config1 | cgra_configuration[i+(8*k)];
   104ce:	00d86833          	or	a6,a6,a3
            config2 = config2 | cgra_configuration[i+(8*k)+8];
   104d2:	8d59                	or	a0,a0,a4
            config1 = config1 | cgra_configuration[i+(8*k)];
   104d4:	0537c683          	lbu	a3,83(a5)
            config2 = config2 | cgra_configuration[i+(8*k)+8];
   104d8:	05b7c703          	lbu	a4,91(a5)
            config1 = config1 << 8;
   104dc:	0822                	slli	a6,a6,0x8
            config2 = config2 << 8;
   104de:	0522                	slli	a0,a0,0x8
            config1 = config1 | cgra_configuration[i+(8*k)];
   104e0:	0105e5b3          	or	a1,a1,a6
            config2 = config2 | cgra_configuration[i+(8*k)+8];
   104e4:	8e49                	or	a2,a2,a0
            config1 = config1 | cgra_configuration[i+(8*k)];
   104e6:	0547c803          	lbu	a6,84(a5)
            config2 = config2 | cgra_configuration[i+(8*k)+8];
   104ea:	05c7c503          	lbu	a0,92(a5)
            config1 = config1 << 8;
   104ee:	05a2                	slli	a1,a1,0x8
            config2 = config2 << 8;
   104f0:	0622                	slli	a2,a2,0x8
            config1 = config1 | cgra_configuration[i+(8*k)];
   104f2:	8ecd                	or	a3,a3,a1
            config2 = config2 | cgra_configuration[i+(8*k)+8];
   104f4:	8f51                	or	a4,a4,a2
            config1 = config1 | cgra_configuration[i+(8*k)];
   104f6:	0557c583          	lbu	a1,85(a5)
            config2 = config2 | cgra_configuration[i+(8*k)+8];
   104fa:	05d7c603          	lbu	a2,93(a5)
            config1 = config1 << 8;
   104fe:	06a2                	slli	a3,a3,0x8
            config2 = config2 << 8;
   10500:	0722                	slli	a4,a4,0x8
            config1 = config1 | cgra_configuration[i+(8*k)];
   10502:	00d86833          	or	a6,a6,a3
            config2 = config2 | cgra_configuration[i+(8*k)+8];
   10506:	8d59                	or	a0,a0,a4
            config1 = config1 | cgra_configuration[i+(8*k)];
   10508:	0567c683          	lbu	a3,86(a5)
            config2 = config2 | cgra_configuration[i+(8*k)+8];
   1050c:	05e7c703          	lbu	a4,94(a5)
            config1 = config1 << 8;
   10510:	0822                	slli	a6,a6,0x8
            config2 = config2 << 8;
   10512:	0522                	slli	a0,a0,0x8
            config2 = config2 | cgra_configuration[i+(8*k)+8];
   10514:	8e49                	or	a2,a2,a0
            config1 = config1 | cgra_configuration[i+(8*k)];
   10516:	0105e5b3          	or	a1,a1,a6
   1051a:	0577c503          	lbu	a0,87(a5)
            config2 = config2 | cgra_configuration[i+(8*k)+8];
   1051e:	05f7c803          	lbu	a6,95(a5)
            config1 = config1 << 8;
   10522:	05a2                	slli	a1,a1,0x8
            config2 = config2 << 8;
   10524:	00861793          	slli	a5,a2,0x8
            config1 = config1 | cgra_configuration[i+(8*k)];
   10528:	8ecd                	or	a3,a3,a1
            config2 = config2 | cgra_configuration[i+(8*k)+8];
   1052a:	8fd9                	or	a5,a5,a4
            config2 = config2 << 8;
   1052c:	07a2                	slli	a5,a5,0x8
            config1 = config1 << 8;
   1052e:	00869713          	slli	a4,a3,0x8
            config1 = config1 | cgra_configuration[i+(8*k)];
   10532:	8f49                	or	a4,a4,a0
            config2 = config2 | cgra_configuration[i+(8*k)+8];
   10534:	00f867b3          	or	a5,a6,a5
        ROCC_INSTRUCTION_SS(0,config1, config2, 0);
   10538:	00f7300b          	0xf7300b
    printf("Config Sent!!\n");
   1053c:	6571                	lui	a0,0x1c
   1053e:	49050513          	addi	a0,a0,1168 # 1c490 <__clzdi2+0x34>
   10542:	acb1                	j	1079e <puts>

0000000000010544 <array_gen>:
    for(int i = 0; i< len; i++){
   10544:	04a05c63          	blez	a0,1059c <array_gen+0x58>
void array_gen(int len , int array[]){
   10548:	7139                	addi	sp,sp,-64
   1054a:	f822                	sd	s0,48(sp)
   1054c:	f426                	sd	s1,40(sp)
   1054e:	f04a                	sd	s2,32(sp)
   10550:	ec4e                	sd	s3,24(sp)
   10552:	e852                	sd	s4,16(sp)
   10554:	e456                	sd	s5,8(sp)
   10556:	fc06                	sd	ra,56(sp)
   10558:	89aa                	mv	s3,a0
   1055a:	84ae                	mv	s1,a1
    for(int i = 0; i< len; i++){
   1055c:	4401                	li	s0,0
    int arraysum = 0;
   1055e:	4901                	li	s2,0
   10560:	6af1                	lui	s5,0x1c
        array[i] = rand() % 100;
   10562:	06400a13          	li	s4,100
   10566:	24c000ef          	jal	ra,107b2 <rand>
   1056a:	0345663b          	remw	a2,a0,s4
        printf("Array[%d] = %d, Sum is: %d\n", i,array[i], arraysum);
   1056e:	85a2                	mv	a1,s0
   10570:	4a0a8513          	addi	a0,s5,1184 # 1c4a0 <__clzdi2+0x44>
    for(int i = 0; i< len; i++){
   10574:	2405                	addiw	s0,s0,1
   10576:	0491                	addi	s1,s1,4
        arraysum += array[i];     
   10578:	0126093b          	addw	s2,a2,s2
        printf("Array[%d] = %d, Sum is: %d\n", i,array[i], arraysum);
   1057c:	86ca                	mv	a3,s2
        array[i] = rand() % 100;
   1057e:	fec4ae23          	sw	a2,-4(s1)
        printf("Array[%d] = %d, Sum is: %d\n", i,array[i], arraysum);
   10582:	170000ef          	jal	ra,106f2 <printf>
    for(int i = 0; i< len; i++){
   10586:	fe8990e3          	bne	s3,s0,10566 <array_gen+0x22>
}
   1058a:	70e2                	ld	ra,56(sp)
   1058c:	7442                	ld	s0,48(sp)
   1058e:	74a2                	ld	s1,40(sp)
   10590:	7902                	ld	s2,32(sp)
   10592:	69e2                	ld	s3,24(sp)
   10594:	6a42                	ld	s4,16(sp)
   10596:	6aa2                	ld	s5,8(sp)
   10598:	6121                	addi	sp,sp,64
   1059a:	8082                	ret
   1059c:	8082                	ret

000000000001059e <exit>:
   1059e:	1141                	addi	sp,sp,-16
   105a0:	4581                	li	a1,0
   105a2:	e022                	sd	s0,0(sp)
   105a4:	e406                	sd	ra,8(sp)
   105a6:	842a                	mv	s0,a0
   105a8:	066020ef          	jal	ra,1260e <__call_exitprocs>
   105ac:	7481b503          	ld	a0,1864(gp) # 1f3f8 <_global_impure_ptr>
   105b0:	6d3c                	ld	a5,88(a0)
   105b2:	c391                	beqz	a5,105b6 <exit+0x18>
   105b4:	9782                	jalr	a5
   105b6:	8522                	mv	a0,s0
   105b8:	0d50a0ef          	jal	ra,1ae8c <_exit>

00000000000105bc <__libc_init_array>:
   105bc:	1101                	addi	sp,sp,-32
   105be:	e822                	sd	s0,16(sp)
   105c0:	e04a                	sd	s2,0(sp)
   105c2:	0000e417          	auipc	s0,0xe
   105c6:	c8a40413          	addi	s0,s0,-886 # 1e24c <__preinit_array_end>
   105ca:	0000e917          	auipc	s2,0xe
   105ce:	c8290913          	addi	s2,s2,-894 # 1e24c <__preinit_array_end>
   105d2:	40890933          	sub	s2,s2,s0
   105d6:	ec06                	sd	ra,24(sp)
   105d8:	e426                	sd	s1,8(sp)
   105da:	40395913          	srai	s2,s2,0x3
   105de:	00090963          	beqz	s2,105f0 <__libc_init_array+0x34>
   105e2:	4481                	li	s1,0
   105e4:	601c                	ld	a5,0(s0)
   105e6:	0485                	addi	s1,s1,1
   105e8:	0421                	addi	s0,s0,8
   105ea:	9782                	jalr	a5
   105ec:	fe991ce3          	bne	s2,s1,105e4 <__libc_init_array+0x28>
   105f0:	0000e417          	auipc	s0,0xe
   105f4:	c6040413          	addi	s0,s0,-928 # 1e250 <__init_array_start>
   105f8:	0000e917          	auipc	s2,0xe
   105fc:	c6890913          	addi	s2,s2,-920 # 1e260 <__init_array_end>
   10600:	40890933          	sub	s2,s2,s0
   10604:	40395913          	srai	s2,s2,0x3
   10608:	00090963          	beqz	s2,1061a <__libc_init_array+0x5e>
   1060c:	4481                	li	s1,0
   1060e:	601c                	ld	a5,0(s0)
   10610:	0485                	addi	s1,s1,1
   10612:	0421                	addi	s0,s0,8
   10614:	9782                	jalr	a5
   10616:	fe991ce3          	bne	s2,s1,1060e <__libc_init_array+0x52>
   1061a:	60e2                	ld	ra,24(sp)
   1061c:	6442                	ld	s0,16(sp)
   1061e:	64a2                	ld	s1,8(sp)
   10620:	6902                	ld	s2,0(sp)
   10622:	6105                	addi	sp,sp,32
   10624:	8082                	ret

0000000000010626 <memset>:
   10626:	433d                	li	t1,15
   10628:	872a                	mv	a4,a0
   1062a:	02c37163          	bgeu	t1,a2,1064c <memset+0x26>
   1062e:	00f77793          	andi	a5,a4,15
   10632:	e3c1                	bnez	a5,106b2 <memset+0x8c>
   10634:	e1bd                	bnez	a1,1069a <memset+0x74>
   10636:	ff067693          	andi	a3,a2,-16
   1063a:	8a3d                	andi	a2,a2,15
   1063c:	96ba                	add	a3,a3,a4
   1063e:	e30c                	sd	a1,0(a4)
   10640:	e70c                	sd	a1,8(a4)
   10642:	0741                	addi	a4,a4,16
   10644:	fed76de3          	bltu	a4,a3,1063e <memset+0x18>
   10648:	e211                	bnez	a2,1064c <memset+0x26>
   1064a:	8082                	ret
   1064c:	40c306b3          	sub	a3,t1,a2
   10650:	068a                	slli	a3,a3,0x2
   10652:	00000297          	auipc	t0,0x0
   10656:	9696                	add	a3,a3,t0
   10658:	00a68067          	jr	10(a3)
   1065c:	00b70723          	sb	a1,14(a4)
   10660:	00b706a3          	sb	a1,13(a4)
   10664:	00b70623          	sb	a1,12(a4)
   10668:	00b705a3          	sb	a1,11(a4)
   1066c:	00b70523          	sb	a1,10(a4)
   10670:	00b704a3          	sb	a1,9(a4)
   10674:	00b70423          	sb	a1,8(a4)
   10678:	00b703a3          	sb	a1,7(a4)
   1067c:	00b70323          	sb	a1,6(a4)
   10680:	00b702a3          	sb	a1,5(a4)
   10684:	00b70223          	sb	a1,4(a4)
   10688:	00b701a3          	sb	a1,3(a4)
   1068c:	00b70123          	sb	a1,2(a4)
   10690:	00b700a3          	sb	a1,1(a4)
   10694:	00b70023          	sb	a1,0(a4)
   10698:	8082                	ret
   1069a:	0ff5f593          	andi	a1,a1,255
   1069e:	00859693          	slli	a3,a1,0x8
   106a2:	8dd5                	or	a1,a1,a3
   106a4:	01059693          	slli	a3,a1,0x10
   106a8:	8dd5                	or	a1,a1,a3
   106aa:	02059693          	slli	a3,a1,0x20
   106ae:	8dd5                	or	a1,a1,a3
   106b0:	b759                	j	10636 <memset+0x10>
   106b2:	00279693          	slli	a3,a5,0x2
   106b6:	00000297          	auipc	t0,0x0
   106ba:	9696                	add	a3,a3,t0
   106bc:	8286                	mv	t0,ra
   106be:	fa2680e7          	jalr	-94(a3)
   106c2:	8096                	mv	ra,t0
   106c4:	17c1                	addi	a5,a5,-16
   106c6:	8f1d                	sub	a4,a4,a5
   106c8:	963e                	add	a2,a2,a5
   106ca:	f8c371e3          	bgeu	t1,a2,1064c <memset+0x26>
   106ce:	b79d                	j	10634 <memset+0xe>

00000000000106d0 <_printf_r>:
   106d0:	715d                	addi	sp,sp,-80
   106d2:	f032                	sd	a2,32(sp)
   106d4:	f436                	sd	a3,40(sp)
   106d6:	f83a                	sd	a4,48(sp)
   106d8:	fc3e                	sd	a5,56(sp)
   106da:	e0c2                	sd	a6,64(sp)
   106dc:	e4c6                	sd	a7,72(sp)
   106de:	862e                	mv	a2,a1
   106e0:	690c                	ld	a1,16(a0)
   106e2:	1014                	addi	a3,sp,32
   106e4:	ec06                	sd	ra,24(sp)
   106e6:	e436                	sd	a3,8(sp)
   106e8:	17c000ef          	jal	ra,10864 <_vfprintf_r>
   106ec:	60e2                	ld	ra,24(sp)
   106ee:	6161                	addi	sp,sp,80
   106f0:	8082                	ret

00000000000106f2 <printf>:
   106f2:	711d                	addi	sp,sp,-96
   106f4:	f832                	sd	a2,48(sp)
   106f6:	fc36                	sd	a3,56(sp)
   106f8:	7581b303          	ld	t1,1880(gp) # 1f408 <_impure_ptr>
   106fc:	f42e                	sd	a1,40(sp)
   106fe:	e0ba                	sd	a4,64(sp)
   10700:	e4be                	sd	a5,72(sp)
   10702:	e8c2                	sd	a6,80(sp)
   10704:	ecc6                	sd	a7,88(sp)
   10706:	01033583          	ld	a1,16(t1) # 101ee <send_config+0x6>
   1070a:	1034                	addi	a3,sp,40
   1070c:	862a                	mv	a2,a0
   1070e:	851a                	mv	a0,t1
   10710:	ec06                	sd	ra,24(sp)
   10712:	e436                	sd	a3,8(sp)
   10714:	150000ef          	jal	ra,10864 <_vfprintf_r>
   10718:	60e2                	ld	ra,24(sp)
   1071a:	6125                	addi	sp,sp,96
   1071c:	8082                	ret

000000000001071e <_puts_r>:
   1071e:	7159                	addi	sp,sp,-112
   10720:	f0a2                	sd	s0,96(sp)
   10722:	842a                	mv	s0,a0
   10724:	852e                	mv	a0,a1
   10726:	eca6                	sd	s1,88(sp)
   10728:	f486                	sd	ra,104(sp)
   1072a:	84ae                	mv	s1,a1
   1072c:	0a4000ef          	jal	ra,107d0 <strlen>
   10730:	00150713          	addi	a4,a0,1
   10734:	0000c697          	auipc	a3,0xc
   10738:	dfc68693          	addi	a3,a3,-516 # 1c530 <__clzdi2+0xd4>
   1073c:	f43a                	sd	a4,40(sp)
   1073e:	483c                	lw	a5,80(s0)
   10740:	1818                	addi	a4,sp,48
   10742:	e0b6                	sd	a3,64(sp)
   10744:	ec3a                	sd	a4,24(sp)
   10746:	4685                	li	a3,1
   10748:	4709                	li	a4,2
   1074a:	f826                	sd	s1,48(sp)
   1074c:	fc2a                	sd	a0,56(sp)
   1074e:	e4b6                	sd	a3,72(sp)
   10750:	d03a                	sw	a4,32(sp)
   10752:	680c                	ld	a1,16(s0)
   10754:	cf8d                	beqz	a5,1078e <_puts_r+0x70>
   10756:	01059783          	lh	a5,16(a1)
   1075a:	03279713          	slli	a4,a5,0x32
   1075e:	00074d63          	bltz	a4,10778 <_puts_r+0x5a>
   10762:	0ac5a703          	lw	a4,172(a1)
   10766:	6689                	lui	a3,0x2
   10768:	8fd5                	or	a5,a5,a3
   1076a:	76f9                	lui	a3,0xffffe
   1076c:	16fd                	addi	a3,a3,-1
   1076e:	8f75                	and	a4,a4,a3
   10770:	00f59823          	sh	a5,16(a1)
   10774:	0ae5a623          	sw	a4,172(a1)
   10778:	0830                	addi	a2,sp,24
   1077a:	8522                	mv	a0,s0
   1077c:	70e020ef          	jal	ra,12e8a <__sfvwrite_r>
   10780:	ed09                	bnez	a0,1079a <_puts_r+0x7c>
   10782:	4529                	li	a0,10
   10784:	70a6                	ld	ra,104(sp)
   10786:	7406                	ld	s0,96(sp)
   10788:	64e6                	ld	s1,88(sp)
   1078a:	6165                	addi	sp,sp,112
   1078c:	8082                	ret
   1078e:	8522                	mv	a0,s0
   10790:	e42e                	sd	a1,8(sp)
   10792:	36e020ef          	jal	ra,12b00 <__sinit>
   10796:	65a2                	ld	a1,8(sp)
   10798:	bf7d                	j	10756 <_puts_r+0x38>
   1079a:	557d                	li	a0,-1
   1079c:	b7e5                	j	10784 <_puts_r+0x66>

000000000001079e <puts>:
   1079e:	85aa                	mv	a1,a0
   107a0:	7581b503          	ld	a0,1880(gp) # 1f408 <_impure_ptr>
   107a4:	bfad                	j	1071e <_puts_r>

00000000000107a6 <srand>:
   107a6:	1502                	slli	a0,a0,0x20
   107a8:	9101                	srli	a0,a0,0x20
   107aa:	7581b783          	ld	a5,1880(gp) # 1f408 <_impure_ptr>
   107ae:	f7e8                	sd	a0,232(a5)
   107b0:	8082                	ret

00000000000107b2 <rand>:
   107b2:	7581b703          	ld	a4,1880(gp) # 1f408 <_impure_ptr>
   107b6:	777c                	ld	a5,232(a4)
   107b8:	0000f697          	auipc	a3,0xf
   107bc:	c086b683          	ld	a3,-1016(a3) # 1f3c0 <__SDATA_BEGIN__>
   107c0:	02d787b3          	mul	a5,a5,a3
   107c4:	0785                	addi	a5,a5,1
   107c6:	00179513          	slli	a0,a5,0x1
   107ca:	f77c                	sd	a5,232(a4)
   107cc:	9105                	srli	a0,a0,0x21
   107ce:	8082                	ret

00000000000107d0 <strlen>:
   107d0:	00757793          	andi	a5,a0,7
   107d4:	872a                	mv	a4,a0
   107d6:	ebb9                	bnez	a5,1082c <strlen+0x5c>
   107d8:	0000f697          	auipc	a3,0xf
   107dc:	bf06b683          	ld	a3,-1040(a3) # 1f3c8 <mask>
   107e0:	55fd                	li	a1,-1
   107e2:	6310                	ld	a2,0(a4)
   107e4:	0721                	addi	a4,a4,8
   107e6:	00d677b3          	and	a5,a2,a3
   107ea:	97b6                	add	a5,a5,a3
   107ec:	8fd1                	or	a5,a5,a2
   107ee:	8fd5                	or	a5,a5,a3
   107f0:	feb789e3          	beq	a5,a1,107e2 <strlen+0x12>
   107f4:	ff874683          	lbu	a3,-8(a4)
   107f8:	40a707b3          	sub	a5,a4,a0
   107fc:	c6a9                	beqz	a3,10846 <strlen+0x76>
   107fe:	ff974683          	lbu	a3,-7(a4)
   10802:	ce9d                	beqz	a3,10840 <strlen+0x70>
   10804:	ffa74683          	lbu	a3,-6(a4)
   10808:	c6a9                	beqz	a3,10852 <strlen+0x82>
   1080a:	ffb74683          	lbu	a3,-5(a4)
   1080e:	ce9d                	beqz	a3,1084c <strlen+0x7c>
   10810:	ffc74683          	lbu	a3,-4(a4)
   10814:	ffd74603          	lbu	a2,-3(a4)
   10818:	ffe74503          	lbu	a0,-2(a4)
   1081c:	ce95                	beqz	a3,10858 <strlen+0x88>
   1081e:	c221                	beqz	a2,1085e <strlen+0x8e>
   10820:	00a03533          	snez	a0,a0
   10824:	953e                	add	a0,a0,a5
   10826:	1579                	addi	a0,a0,-2
   10828:	8082                	ret
   1082a:	d6dd                	beqz	a3,107d8 <strlen+0x8>
   1082c:	00074783          	lbu	a5,0(a4)
   10830:	0705                	addi	a4,a4,1
   10832:	00777693          	andi	a3,a4,7
   10836:	fbf5                	bnez	a5,1082a <strlen+0x5a>
   10838:	8f09                	sub	a4,a4,a0
   1083a:	fff70513          	addi	a0,a4,-1
   1083e:	8082                	ret
   10840:	ff978513          	addi	a0,a5,-7
   10844:	8082                	ret
   10846:	ff878513          	addi	a0,a5,-8
   1084a:	8082                	ret
   1084c:	ffb78513          	addi	a0,a5,-5
   10850:	8082                	ret
   10852:	ffa78513          	addi	a0,a5,-6
   10856:	8082                	ret
   10858:	ffc78513          	addi	a0,a5,-4
   1085c:	8082                	ret
   1085e:	ffd78513          	addi	a0,a5,-3
   10862:	8082                	ret

0000000000010864 <_vfprintf_r>:
   10864:	d8010113          	addi	sp,sp,-640
   10868:	26113c23          	sd	ra,632(sp)
   1086c:	25413823          	sd	s4,592(sp)
   10870:	25513423          	sd	s5,584(sp)
   10874:	23913423          	sd	s9,552(sp)
   10878:	8a2e                	mv	s4,a1
   1087a:	8cb2                	mv	s9,a2
   1087c:	e836                	sd	a3,16(sp)
   1087e:	26813823          	sd	s0,624(sp)
   10882:	26913423          	sd	s1,616(sp)
   10886:	27213023          	sd	s2,608(sp)
   1088a:	25313c23          	sd	s3,600(sp)
   1088e:	25613023          	sd	s6,576(sp)
   10892:	23713c23          	sd	s7,568(sp)
   10896:	23813823          	sd	s8,560(sp)
   1089a:	23a13023          	sd	s10,544(sp)
   1089e:	21b13c23          	sd	s11,536(sp)
   108a2:	8aaa                	mv	s5,a0
   108a4:	2cd040ef          	jal	ra,15370 <_localeconv_r>
   108a8:	611c                	ld	a5,0(a0)
   108aa:	853e                	mv	a0,a5
   108ac:	fcbe                	sd	a5,120(sp)
   108ae:	f23ff0ef          	jal	ra,107d0 <strlen>
   108b2:	f8aa                	sd	a0,112(sp)
   108b4:	e202                	sd	zero,256(sp)
   108b6:	e602                	sd	zero,264(sp)
   108b8:	000a8663          	beqz	s5,108c4 <_vfprintf_r+0x60>
   108bc:	050aa783          	lw	a5,80(s5)
   108c0:	70078063          	beqz	a5,10fc0 <_vfprintf_r+0x75c>
   108c4:	010a1703          	lh	a4,16(s4)
   108c8:	03071793          	slli	a5,a4,0x30
   108cc:	03271693          	slli	a3,a4,0x32
   108d0:	93c1                	srli	a5,a5,0x30
   108d2:	0006cf63          	bltz	a3,108f0 <_vfprintf_r+0x8c>
   108d6:	0aca2683          	lw	a3,172(s4)
   108da:	6789                	lui	a5,0x2
   108dc:	8fd9                	or	a5,a5,a4
   108de:	7779                	lui	a4,0xffffe
   108e0:	177d                	addi	a4,a4,-1
   108e2:	8f75                	and	a4,a4,a3
   108e4:	00fa1823          	sh	a5,16(s4)
   108e8:	17c2                	slli	a5,a5,0x30
   108ea:	0aea2623          	sw	a4,172(s4)
   108ee:	93c1                	srli	a5,a5,0x30
   108f0:	0087f713          	andi	a4,a5,8
   108f4:	26070463          	beqz	a4,10b5c <_vfprintf_r+0x2f8>
   108f8:	018a3703          	ld	a4,24(s4)
   108fc:	26070063          	beqz	a4,10b5c <_vfprintf_r+0x2f8>
   10900:	8be9                	andi	a5,a5,26
   10902:	4729                	li	a4,10
   10904:	26e78963          	beq	a5,a4,10b76 <_vfprintf_r+0x312>
   10908:	000cc783          	lbu	a5,0(s9)
   1090c:	19010b93          	addi	s7,sp,400
   10910:	ea5e                	sd	s7,272(sp)
   10912:	f202                	sd	zero,288(sp)
   10914:	10012c23          	sw	zero,280(sp)
   10918:	f002                	sd	zero,32(sp)
   1091a:	f402                	sd	zero,40(sp)
   1091c:	e102                	sd	zero,128(sp)
   1091e:	f482                	sd	zero,104(sp)
   10920:	e502                	sd	zero,136(sp)
   10922:	e902                	sd	zero,144(sp)
   10924:	e002                	sd	zero,0(sp)
   10926:	835e                	mv	t1,s7
   10928:	4d41                	li	s10,16
   1092a:	0000c917          	auipc	s2,0xc
   1092e:	e0690913          	addi	s2,s2,-506 # 1c730 <zeroes.4521>
   10932:	1c078663          	beqz	a5,10afe <_vfprintf_r+0x29a>
   10936:	8466                	mv	s0,s9
   10938:	02500713          	li	a4,37
   1093c:	30e78463          	beq	a5,a4,10c44 <_vfprintf_r+0x3e0>
   10940:	00144783          	lbu	a5,1(s0)
   10944:	0405                	addi	s0,s0,1
   10946:	fbfd                	bnez	a5,1093c <_vfprintf_r+0xd8>
   10948:	419404bb          	subw	s1,s0,s9
   1094c:	1a048963          	beqz	s1,10afe <_vfprintf_r+0x29a>
   10950:	7712                	ld	a4,288(sp)
   10952:	11812783          	lw	a5,280(sp)
   10956:	01933023          	sd	s9,0(t1)
   1095a:	9726                	add	a4,a4,s1
   1095c:	2785                	addiw	a5,a5,1
   1095e:	00933423          	sd	s1,8(t1)
   10962:	f23a                	sd	a4,288(sp)
   10964:	10f12c23          	sw	a5,280(sp)
   10968:	0007871b          	sext.w	a4,a5
   1096c:	479d                	li	a5,7
   1096e:	0341                	addi	t1,t1,16
   10970:	2ee7c163          	blt	a5,a4,10c52 <_vfprintf_r+0x3ee>
   10974:	6702                	ld	a4,0(sp)
   10976:	00044783          	lbu	a5,0(s0)
   1097a:	9f25                	addw	a4,a4,s1
   1097c:	e03a                	sd	a4,0(sp)
   1097e:	18078063          	beqz	a5,10afe <_vfprintf_r+0x29a>
   10982:	00144f03          	lbu	t5,1(s0)
   10986:	0c010fa3          	sb	zero,223(sp)
   1098a:	0405                	addi	s0,s0,1
   1098c:	5efd                	li	t4,-1
   1098e:	4b01                	li	s6,0
   10990:	4481                	li	s1,0
   10992:	49a5                	li	s3,9
   10994:	02a00c13          	li	s8,42
   10998:	0405                	addi	s0,s0,1
   1099a:	000f0d9b          	sext.w	s11,t5
   1099e:	05a00693          	li	a3,90
   109a2:	fe0d879b          	addiw	a5,s11,-32
   109a6:	0007871b          	sext.w	a4,a5
   109aa:	04e6e663          	bltu	a3,a4,109f6 <_vfprintf_r+0x192>
   109ae:	1782                	slli	a5,a5,0x20
   109b0:	0000c717          	auipc	a4,0xc
   109b4:	c0070713          	addi	a4,a4,-1024 # 1c5b0 <__clzdi2+0x154>
   109b8:	83f9                	srli	a5,a5,0x1e
   109ba:	97ba                	add	a5,a5,a4
   109bc:	439c                	lw	a5,0(a5)
   109be:	97ba                	add	a5,a5,a4
   109c0:	8782                	jr	a5
   109c2:	4b01                	li	s6,0
   109c4:	00044703          	lbu	a4,0(s0)
   109c8:	002b179b          	slliw	a5,s6,0x2
   109cc:	01678b3b          	addw	s6,a5,s6
   109d0:	fd0d8f1b          	addiw	t5,s11,-48
   109d4:	001b1b1b          	slliw	s6,s6,0x1
   109d8:	fd07079b          	addiw	a5,a4,-48
   109dc:	0405                	addi	s0,s0,1
   109de:	016f0b3b          	addw	s6,t5,s6
   109e2:	00070d9b          	sext.w	s11,a4
   109e6:	fcf9ffe3          	bgeu	s3,a5,109c4 <_vfprintf_r+0x160>
   109ea:	fe0d879b          	addiw	a5,s11,-32
   109ee:	0007871b          	sext.w	a4,a5
   109f2:	fae6fee3          	bgeu	a3,a4,109ae <_vfprintf_r+0x14a>
   109f6:	100d8463          	beqz	s11,10afe <_vfprintf_r+0x29a>
   109fa:	13b10423          	sb	s11,296(sp)
   109fe:	0c010fa3          	sb	zero,223(sp)
   10a02:	4985                	li	s3,1
   10a04:	4c05                	li	s8,1
   10a06:	12810c93          	addi	s9,sp,296
   10a0a:	ec02                	sd	zero,24(sp)
   10a0c:	4e81                	li	t4,0
   10a0e:	e882                	sd	zero,80(sp)
   10a10:	f082                	sd	zero,96(sp)
   10a12:	ec82                	sd	zero,88(sp)
   10a14:	0024f793          	andi	a5,s1,2
   10a18:	0007829b          	sext.w	t0,a5
   10a1c:	c391                	beqz	a5,10a20 <_vfprintf_r+0x1bc>
   10a1e:	2989                	addiw	s3,s3,2
   10a20:	0844ff93          	andi	t6,s1,132
   10a24:	7792                	ld	a5,288(sp)
   10a26:	000f9663          	bnez	t6,10a32 <_vfprintf_r+0x1ce>
   10a2a:	413b06bb          	subw	a3,s6,s3
   10a2e:	2cd046e3          	bgtz	a3,114fa <_vfprintf_r+0xc96>
   10a32:	0df14703          	lbu	a4,223(sp)
   10a36:	c70d                	beqz	a4,10a60 <_vfprintf_r+0x1fc>
   10a38:	11812703          	lw	a4,280(sp)
   10a3c:	0df10693          	addi	a3,sp,223
   10a40:	00d33023          	sd	a3,0(t1)
   10a44:	2705                	addiw	a4,a4,1
   10a46:	4685                	li	a3,1
   10a48:	0785                	addi	a5,a5,1
   10a4a:	00d33423          	sd	a3,8(t1)
   10a4e:	10e12c23          	sw	a4,280(sp)
   10a52:	0007069b          	sext.w	a3,a4
   10a56:	f23e                	sd	a5,288(sp)
   10a58:	471d                	li	a4,7
   10a5a:	0341                	addi	t1,t1,16
   10a5c:	42d74863          	blt	a4,a3,10e8c <_vfprintf_r+0x628>
   10a60:	02028563          	beqz	t0,10a8a <_vfprintf_r+0x226>
   10a64:	11812703          	lw	a4,280(sp)
   10a68:	1194                	addi	a3,sp,224
   10a6a:	00d33023          	sd	a3,0(t1)
   10a6e:	2705                	addiw	a4,a4,1
   10a70:	4689                	li	a3,2
   10a72:	0789                	addi	a5,a5,2
   10a74:	00d33423          	sd	a3,8(t1)
   10a78:	10e12c23          	sw	a4,280(sp)
   10a7c:	0007069b          	sext.w	a3,a4
   10a80:	f23e                	sd	a5,288(sp)
   10a82:	471d                	li	a4,7
   10a84:	0341                	addi	t1,t1,16
   10a86:	30d74ce3          	blt	a4,a3,1159e <_vfprintf_r+0xd3a>
   10a8a:	08000713          	li	a4,128
   10a8e:	06ef81e3          	beq	t6,a4,112f0 <_vfprintf_r+0xa8c>
   10a92:	418e8ebb          	subw	t4,t4,s8
   10a96:	0fd043e3          	bgtz	t4,1137c <_vfprintf_r+0xb18>
   10a9a:	1004f713          	andi	a4,s1,256
   10a9e:	78071663          	bnez	a4,1122a <_vfprintf_r+0x9c6>
   10aa2:	11812703          	lw	a4,280(sp)
   10aa6:	97e2                	add	a5,a5,s8
   10aa8:	01933023          	sd	s9,0(t1)
   10aac:	0017069b          	addiw	a3,a4,1
   10ab0:	8736                	mv	a4,a3
   10ab2:	01833423          	sd	s8,8(t1)
   10ab6:	10e12c23          	sw	a4,280(sp)
   10aba:	f23e                	sd	a5,288(sp)
   10abc:	471d                	li	a4,7
   10abe:	44d74963          	blt	a4,a3,10f10 <_vfprintf_r+0x6ac>
   10ac2:	0341                	addi	t1,t1,16
   10ac4:	8891                	andi	s1,s1,4
   10ac6:	c489                	beqz	s1,10ad0 <_vfprintf_r+0x26c>
   10ac8:	413b04bb          	subw	s1,s6,s3
   10acc:	2e9048e3          	bgtz	s1,115bc <_vfprintf_r+0xd58>
   10ad0:	875a                	mv	a4,s6
   10ad2:	013b5363          	bge	s6,s3,10ad8 <_vfprintf_r+0x274>
   10ad6:	874e                	mv	a4,s3
   10ad8:	6682                	ld	a3,0(sp)
   10ada:	9f35                	addw	a4,a4,a3
   10adc:	e03a                	sd	a4,0(sp)
   10ade:	10079ce3          	bnez	a5,113f6 <_vfprintf_r+0xb92>
   10ae2:	67e2                	ld	a5,24(sp)
   10ae4:	10012c23          	sw	zero,280(sp)
   10ae8:	c789                	beqz	a5,10af2 <_vfprintf_r+0x28e>
   10aea:	65e2                	ld	a1,24(sp)
   10aec:	8556                	mv	a0,s5
   10aee:	14c020ef          	jal	ra,12c3a <_free_r>
   10af2:	835e                	mv	t1,s7
   10af4:	8ca2                	mv	s9,s0
   10af6:	000cc783          	lbu	a5,0(s9)
   10afa:	e2079ee3          	bnez	a5,10936 <_vfprintf_r+0xd2>
   10afe:	7792                	ld	a5,288(sp)
   10b00:	c399                	beqz	a5,10b06 <_vfprintf_r+0x2a2>
   10b02:	2de0106f          	j	11de0 <_vfprintf_r+0x157c>
   10b06:	010a5783          	lhu	a5,16(s4)
   10b0a:	0407f793          	andi	a5,a5,64
   10b0e:	c399                	beqz	a5,10b14 <_vfprintf_r+0x2b0>
   10b10:	67c0106f          	j	1218c <_vfprintf_r+0x1928>
   10b14:	27813083          	ld	ra,632(sp)
   10b18:	27013403          	ld	s0,624(sp)
   10b1c:	6502                	ld	a0,0(sp)
   10b1e:	26813483          	ld	s1,616(sp)
   10b22:	26013903          	ld	s2,608(sp)
   10b26:	25813983          	ld	s3,600(sp)
   10b2a:	25013a03          	ld	s4,592(sp)
   10b2e:	24813a83          	ld	s5,584(sp)
   10b32:	24013b03          	ld	s6,576(sp)
   10b36:	23813b83          	ld	s7,568(sp)
   10b3a:	23013c03          	ld	s8,560(sp)
   10b3e:	22813c83          	ld	s9,552(sp)
   10b42:	22013d03          	ld	s10,544(sp)
   10b46:	21813d83          	ld	s11,536(sp)
   10b4a:	28010113          	addi	sp,sp,640
   10b4e:	8082                	ret
   10b50:	0104e493          	ori	s1,s1,16
   10b54:	00044f03          	lbu	t5,0(s0)
   10b58:	2481                	sext.w	s1,s1
   10b5a:	bd3d                	j	10998 <_vfprintf_r+0x134>
   10b5c:	85d2                	mv	a1,s4
   10b5e:	8556                	mv	a0,s5
   10b60:	1c1010ef          	jal	ra,12520 <__swsetup_r>
   10b64:	c119                	beqz	a0,10b6a <_vfprintf_r+0x306>
   10b66:	6260106f          	j	1218c <_vfprintf_r+0x1928>
   10b6a:	010a5783          	lhu	a5,16(s4)
   10b6e:	4729                	li	a4,10
   10b70:	8be9                	andi	a5,a5,26
   10b72:	d8e79be3          	bne	a5,a4,10908 <_vfprintf_r+0xa4>
   10b76:	012a1783          	lh	a5,18(s4)
   10b7a:	d807c7e3          	bltz	a5,10908 <_vfprintf_r+0xa4>
   10b7e:	66c2                	ld	a3,16(sp)
   10b80:	8666                	mv	a2,s9
   10b82:	85d2                	mv	a1,s4
   10b84:	8556                	mv	a0,s5
   10b86:	107010ef          	jal	ra,1248c <__sbprintf>
   10b8a:	e02a                	sd	a0,0(sp)
   10b8c:	b761                	j	10b14 <_vfprintf_r+0x2b0>
   10b8e:	0104e493          	ori	s1,s1,16
   10b92:	2481                	sext.w	s1,s1
   10b94:	66c2                	ld	a3,16(sp)
   10b96:	0204f793          	andi	a5,s1,32
   10b9a:	00868713          	addi	a4,a3,8
   10b9e:	3a078263          	beqz	a5,10f42 <_vfprintf_r+0x6de>
   10ba2:	629c                	ld	a5,0(a3)
   10ba4:	89be                	mv	s3,a5
   10ba6:	3a07cc63          	bltz	a5,10f5e <_vfprintf_r+0x6fa>
   10baa:	57fd                	li	a5,-1
   10bac:	48fe87e3          	beq	t4,a5,1183a <_vfprintf_r+0xfd6>
   10bb0:	f7f4f493          	andi	s1,s1,-129
   10bb4:	e83a                	sd	a4,16(sp)
   10bb6:	0004881b          	sext.w	a6,s1
   10bba:	120993e3          	bnez	s3,114e0 <_vfprintf_r+0xc7c>
   10bbe:	120e94e3          	bnez	t4,114e6 <_vfprintf_r+0xc82>
   10bc2:	84c2                	mv	s1,a6
   10bc4:	4e81                	li	t4,0
   10bc6:	4c01                	li	s8,0
   10bc8:	18c10c93          	addi	s9,sp,396
   10bcc:	000c099b          	sext.w	s3,s8
   10bd0:	01dc5463          	bge	s8,t4,10bd8 <_vfprintf_r+0x374>
   10bd4:	000e899b          	sext.w	s3,t4
   10bd8:	0df14783          	lbu	a5,223(sp)
   10bdc:	ec02                	sd	zero,24(sp)
   10bde:	e882                	sd	zero,80(sp)
   10be0:	f082                	sd	zero,96(sp)
   10be2:	ec82                	sd	zero,88(sp)
   10be4:	e20788e3          	beqz	a5,10a14 <_vfprintf_r+0x1b0>
   10be8:	2985                	addiw	s3,s3,1
   10bea:	b52d                	j	10a14 <_vfprintf_r+0x1b0>
   10bec:	0104e493          	ori	s1,s1,16
   10bf0:	2481                	sext.w	s1,s1
   10bf2:	66c2                	ld	a3,16(sp)
   10bf4:	0204f793          	andi	a5,s1,32
   10bf8:	00868713          	addi	a4,a3,8
   10bfc:	32078463          	beqz	a5,10f24 <_vfprintf_r+0x6c0>
   10c00:	0006b983          	ld	s3,0(a3)
   10c04:	bff4f493          	andi	s1,s1,-1025
   10c08:	0004881b          	sext.w	a6,s1
   10c0c:	e83a                	sd	a4,16(sp)
   10c0e:	4781                	li	a5,0
   10c10:	0c010fa3          	sb	zero,223(sp)
   10c14:	577d                	li	a4,-1
   10c16:	36ee8063          	beq	t4,a4,10f76 <_vfprintf_r+0x712>
   10c1a:	f7f87493          	andi	s1,a6,-129
   10c1e:	2481                	sext.w	s1,s1
   10c20:	0a099ce3          	bnez	s3,114d8 <_vfprintf_r+0xc74>
   10c24:	5c0e9663          	bnez	t4,111f0 <_vfprintf_r+0x98c>
   10c28:	ffd1                	bnez	a5,10bc4 <_vfprintf_r+0x360>
   10c2a:	00187c13          	andi	s8,a6,1
   10c2e:	18c10c93          	addi	s9,sp,396
   10c32:	f80c0de3          	beqz	s8,10bcc <_vfprintf_r+0x368>
   10c36:	03000793          	li	a5,48
   10c3a:	18f105a3          	sb	a5,395(sp)
   10c3e:	18b10c93          	addi	s9,sp,395
   10c42:	b769                	j	10bcc <_vfprintf_r+0x368>
   10c44:	419404bb          	subw	s1,s0,s9
   10c48:	d00494e3          	bnez	s1,10950 <_vfprintf_r+0xec>
   10c4c:	00044783          	lbu	a5,0(s0)
   10c50:	b33d                	j	1097e <_vfprintf_r+0x11a>
   10c52:	0a10                	addi	a2,sp,272
   10c54:	85d2                	mv	a1,s4
   10c56:	8556                	mv	a0,s5
   10c58:	1c2080ef          	jal	ra,18e1a <__sprint_r>
   10c5c:	ea0515e3          	bnez	a0,10b06 <_vfprintf_r+0x2a2>
   10c60:	835e                	mv	t1,s7
   10c62:	bb09                	j	10974 <_vfprintf_r+0x110>
   10c64:	0084f793          	andi	a5,s1,8
   10c68:	3a079ee3          	bnez	a5,11824 <_vfprintf_r+0xfc0>
   10c6c:	67c2                	ld	a5,16(sp)
   10c6e:	ec1a                	sd	t1,24(sp)
   10c70:	e476                	sd	t4,8(sp)
   10c72:	2388                	fld	fa0,0(a5)
   10c74:	00878693          	addi	a3,a5,8 # 2008 <main-0xe0a8>
   10c78:	e836                	sd	a3,16(sp)
   10c7a:	4f00b0ef          	jal	ra,1c16a <__extenddftf2>
   10c7e:	6362                	ld	t1,24(sp)
   10c80:	6ea2                	ld	t4,8(sp)
   10c82:	e22a                	sd	a0,256(sp)
   10c84:	e62e                	sd	a1,264(sp)
   10c86:	0208                	addi	a0,sp,256
   10c88:	ec1a                	sd	t1,24(sp)
   10c8a:	e476                	sd	t4,8(sp)
   10c8c:	6a8040ef          	jal	ra,15334 <_ldcheck>
   10c90:	d5aa                	sw	a0,232(sp)
   10c92:	4789                	li	a5,2
   10c94:	6ea2                	ld	t4,8(sp)
   10c96:	6362                	ld	t1,24(sp)
   10c98:	64f502e3          	beq	a0,a5,11adc <_vfprintf_r+0x1278>
   10c9c:	4785                	li	a5,1
   10c9e:	6ef50ee3          	beq	a0,a5,11b9a <_vfprintf_r+0x1336>
   10ca2:	06100793          	li	a5,97
   10ca6:	00fd9463          	bne	s11,a5,10cae <_vfprintf_r+0x44a>
   10caa:	5740106f          	j	1221e <_vfprintf_r+0x19ba>
   10cae:	04100793          	li	a5,65
   10cb2:	00fd9463          	bne	s11,a5,10cba <_vfprintf_r+0x456>
   10cb6:	1380106f          	j	11dee <_vfprintf_r+0x158a>
   10cba:	fdfdf713          	andi	a4,s11,-33
   10cbe:	57fd                	li	a5,-1
   10cc0:	f0ba                	sd	a4,96(sp)
   10cc2:	00fe9463          	bne	t4,a5,10cca <_vfprintf_r+0x466>
   10cc6:	6140106f          	j	122da <_vfprintf_r+0x1a76>
   10cca:	04700793          	li	a5,71
   10cce:	00f71463          	bne	a4,a5,10cd6 <_vfprintf_r+0x472>
   10cd2:	5c40106f          	j	12296 <_vfprintf_r+0x1a32>
   10cd6:	69b2                	ld	s3,264(sp)
   10cd8:	1004e793          	ori	a5,s1,256
   10cdc:	ed26                	sd	s1,152(sp)
   10cde:	6c12                	ld	s8,256(sp)
   10ce0:	2781                	sext.w	a5,a5
   10ce2:	0009d463          	bgez	s3,10cea <_vfprintf_r+0x486>
   10ce6:	67a0106f          	j	12360 <_vfprintf_r+0x1afc>
   10cea:	e582                	sd	zero,200(sp)
   10cec:	84be                	mv	s1,a5
   10cee:	ec02                	sd	zero,24(sp)
   10cf0:	2701                	sext.w	a4,a4
   10cf2:	04600793          	li	a5,70
   10cf6:	00f71463          	bne	a4,a5,10cfe <_vfprintf_r+0x49a>
   10cfa:	38a0106f          	j	12084 <_vfprintf_r+0x1820>
   10cfe:	7706                	ld	a4,96(sp)
   10d00:	04500793          	li	a5,69
   10d04:	00f70463          	beq	a4,a5,10d0c <_vfprintf_r+0x4a8>
   10d08:	33c0106f          	j	12044 <_vfprintf_r+0x17e0>
   10d0c:	001e871b          	addiw	a4,t4,1
   10d10:	0f810893          	addi	a7,sp,248
   10d14:	0ec10813          	addi	a6,sp,236
   10d18:	11bc                	addi	a5,sp,232
   10d1a:	4689                	li	a3,2
   10d1c:	85e2                	mv	a1,s8
   10d1e:	864e                	mv	a2,s3
   10d20:	8556                	mv	a0,s5
   10d22:	f81a                	sd	t1,48(sp)
   10d24:	f076                	sd	t4,32(sp)
   10d26:	e43a                	sd	a4,8(sp)
   10d28:	794030ef          	jal	ra,144bc <_ldtoa_r>
   10d2c:	6722                	ld	a4,8(sp)
   10d2e:	7e82                	ld	t4,32(sp)
   10d30:	7342                	ld	t1,48(sp)
   10d32:	8caa                	mv	s9,a0
   10d34:	00e508b3          	add	a7,a0,a4
   10d38:	4601                	li	a2,0
   10d3a:	4681                	li	a3,0
   10d3c:	8562                	mv	a0,s8
   10d3e:	85ce                	mv	a1,s3
   10d40:	f846                	sd	a7,48(sp)
   10d42:	f01a                	sd	t1,32(sp)
   10d44:	e476                	sd	t4,8(sp)
   10d46:	3400a0ef          	jal	ra,1b086 <__eqtf2>
   10d4a:	78c2                	ld	a7,48(sp)
   10d4c:	6ea2                	ld	t4,8(sp)
   10d4e:	7302                	ld	t1,32(sp)
   10d50:	87c6                	mv	a5,a7
   10d52:	cd11                	beqz	a0,10d6e <_vfprintf_r+0x50a>
   10d54:	77ee                	ld	a5,248(sp)
   10d56:	0117fc63          	bgeu	a5,a7,10d6e <_vfprintf_r+0x50a>
   10d5a:	03000693          	li	a3,48
   10d5e:	00178713          	addi	a4,a5,1
   10d62:	fdba                	sd	a4,248(sp)
   10d64:	00d78023          	sb	a3,0(a5)
   10d68:	77ee                	ld	a5,248(sp)
   10d6a:	ff17eae3          	bltu	a5,a7,10d5e <_vfprintf_r+0x4fa>
   10d6e:	419787bb          	subw	a5,a5,s9
   10d72:	f03e                	sd	a5,32(sp)
   10d74:	572e                	lw	a4,232(sp)
   10d76:	04700793          	li	a5,71
   10d7a:	ecba                	sd	a4,88(sp)
   10d7c:	7706                	ld	a4,96(sp)
   10d7e:	00f71463          	bne	a4,a5,10d86 <_vfprintf_r+0x522>
   10d82:	2200106f          	j	11fa2 <_vfprintf_r+0x173e>
   10d86:	7706                	ld	a4,96(sp)
   10d88:	04600793          	li	a5,70
   10d8c:	00f71463          	bne	a4,a5,10d94 <_vfprintf_r+0x530>
   10d90:	3c40106f          	j	12154 <_vfprintf_r+0x18f0>
   10d94:	67e6                	ld	a5,88(sp)
   10d96:	7586                	ld	a1,96(sp)
   10d98:	04100613          	li	a2,65
   10d9c:	37fd                	addiw	a5,a5,-1
   10d9e:	d5be                	sw	a5,232(sp)
   10da0:	0ffdf713          	andi	a4,s11,255
   10da4:	4681                	li	a3,0
   10da6:	00c59663          	bne	a1,a2,10db2 <_vfprintf_r+0x54e>
   10daa:	273d                	addiw	a4,a4,15
   10dac:	0ff77713          	andi	a4,a4,255
   10db0:	4685                	li	a3,1
   10db2:	0ee10823          	sb	a4,240(sp)
   10db6:	02b00713          	li	a4,43
   10dba:	0007d763          	bgez	a5,10dc8 <_vfprintf_r+0x564>
   10dbe:	6766                	ld	a4,88(sp)
   10dc0:	4785                	li	a5,1
   10dc2:	9f99                	subw	a5,a5,a4
   10dc4:	02d00713          	li	a4,45
   10dc8:	0ee108a3          	sb	a4,241(sp)
   10dcc:	4725                	li	a4,9
   10dce:	00f74463          	blt	a4,a5,10dd6 <_vfprintf_r+0x572>
   10dd2:	5e00106f          	j	123b2 <_vfprintf_r+0x1b4e>
   10dd6:	0ff10513          	addi	a0,sp,255
   10dda:	85aa                	mv	a1,a0
   10ddc:	46a9                	li	a3,10
   10dde:	06300e93          	li	t4,99
   10de2:	02d7e73b          	remw	a4,a5,a3
   10de6:	862e                	mv	a2,a1
   10de8:	88be                	mv	a7,a5
   10dea:	15fd                	addi	a1,a1,-1
   10dec:	0307071b          	addiw	a4,a4,48
   10df0:	fee60fa3          	sb	a4,-1(a2)
   10df4:	02d7c7bb          	divw	a5,a5,a3
   10df8:	ff1ec5e3          	blt	t4,a7,10de2 <_vfprintf_r+0x57e>
   10dfc:	0307879b          	addiw	a5,a5,48
   10e00:	0ff7f693          	andi	a3,a5,255
   10e04:	fed58fa3          	sb	a3,-1(a1)
   10e08:	ffe60793          	addi	a5,a2,-2
   10e0c:	00a7e463          	bltu	a5,a0,10e14 <_vfprintf_r+0x5b0>
   10e10:	6560106f          	j	12466 <_vfprintf_r+0x1c02>
   10e14:	0f210713          	addi	a4,sp,242
   10e18:	a019                	j	10e1e <_vfprintf_r+0x5ba>
   10e1a:	0007c683          	lbu	a3,0(a5)
   10e1e:	00d70023          	sb	a3,0(a4)
   10e22:	0785                	addi	a5,a5,1
   10e24:	0705                	addi	a4,a4,1
   10e26:	fea79ae3          	bne	a5,a0,10e1a <_vfprintf_r+0x5b6>
   10e2a:	10110793          	addi	a5,sp,257
   10e2e:	0f210713          	addi	a4,sp,242
   10e32:	8f91                	sub	a5,a5,a2
   10e34:	97ba                	add	a5,a5,a4
   10e36:	1998                	addi	a4,sp,240
   10e38:	9f99                	subw	a5,a5,a4
   10e3a:	e13e                	sd	a5,128(sp)
   10e3c:	678a                	ld	a5,128(sp)
   10e3e:	7682                	ld	a3,32(sp)
   10e40:	4705                	li	a4,1
   10e42:	00f68c3b          	addw	s8,a3,a5
   10e46:	87e2                	mv	a5,s8
   10e48:	00d74463          	blt	a4,a3,10e50 <_vfprintf_r+0x5ec>
   10e4c:	5a00106f          	j	123ec <_vfprintf_r+0x1b88>
   10e50:	7746                	ld	a4,112(sp)
   10e52:	00e78c3b          	addw	s8,a5,a4
   10e56:	67ea                	ld	a5,152(sp)
   10e58:	fffc4993          	not	s3,s8
   10e5c:	43f9d993          	srai	s3,s3,0x3f
   10e60:	bff7f493          	andi	s1,a5,-1025
   10e64:	2481                	sext.w	s1,s1
   10e66:	013c79b3          	and	s3,s8,s3
   10e6a:	1004e493          	ori	s1,s1,256
   10e6e:	2981                	sext.w	s3,s3
   10e70:	e882                	sd	zero,80(sp)
   10e72:	f082                	sd	zero,96(sp)
   10e74:	ec82                	sd	zero,88(sp)
   10e76:	67ae                	ld	a5,200(sp)
   10e78:	e399                	bnez	a5,10e7e <_vfprintf_r+0x61a>
   10e7a:	17e0106f          	j	11ff8 <_vfprintf_r+0x1794>
   10e7e:	02d00793          	li	a5,45
   10e82:	0cf10fa3          	sb	a5,223(sp)
   10e86:	4e81                	li	t4,0
   10e88:	2985                	addiw	s3,s3,1
   10e8a:	b669                	j	10a14 <_vfprintf_r+0x1b0>
   10e8c:	0a10                	addi	a2,sp,272
   10e8e:	85d2                	mv	a1,s4
   10e90:	8556                	mv	a0,s5
   10e92:	fc76                	sd	t4,56(sp)
   10e94:	f87e                	sd	t6,48(sp)
   10e96:	e416                	sd	t0,8(sp)
   10e98:	783070ef          	jal	ra,18e1a <__sprint_r>
   10e9c:	56051463          	bnez	a0,11404 <_vfprintf_r+0xba0>
   10ea0:	7792                	ld	a5,288(sp)
   10ea2:	7ee2                	ld	t4,56(sp)
   10ea4:	7fc2                	ld	t6,48(sp)
   10ea6:	62a2                	ld	t0,8(sp)
   10ea8:	835e                	mv	t1,s7
   10eaa:	be5d                	j	10a60 <_vfprintf_r+0x1fc>
   10eac:	76e6                	ld	a3,120(sp)
   10eae:	7746                	ld	a4,112(sp)
   10eb0:	0341                	addi	t1,t1,16
   10eb2:	fed33823          	sd	a3,-16(t1)
   10eb6:	11812683          	lw	a3,280(sp)
   10eba:	97ba                	add	a5,a5,a4
   10ebc:	fee33c23          	sd	a4,-8(t1)
   10ec0:	2685                	addiw	a3,a3,1
   10ec2:	0006871b          	sext.w	a4,a3
   10ec6:	10d12c23          	sw	a3,280(sp)
   10eca:	f23e                	sd	a5,288(sp)
   10ecc:	469d                	li	a3,7
   10ece:	00e6de63          	bge	a3,a4,10eea <_vfprintf_r+0x686>
   10ed2:	0a10                	addi	a2,sp,272
   10ed4:	85d2                	mv	a1,s4
   10ed6:	8556                	mv	a0,s5
   10ed8:	743070ef          	jal	ra,18e1a <__sprint_r>
   10edc:	52051463          	bnez	a0,11404 <_vfprintf_r+0xba0>
   10ee0:	562e                	lw	a2,232(sp)
   10ee2:	7792                	ld	a5,288(sp)
   10ee4:	11812703          	lw	a4,280(sp)
   10ee8:	835e                	mv	t1,s7
   10eea:	00065463          	bgez	a2,10ef2 <_vfprintf_r+0x68e>
   10eee:	2a60106f          	j	12194 <_vfprintf_r+0x1930>
   10ef2:	7682                	ld	a3,32(sp)
   10ef4:	2705                	addiw	a4,a4,1
   10ef6:	10e12c23          	sw	a4,280(sp)
   10efa:	97b6                	add	a5,a5,a3
   10efc:	00d33423          	sd	a3,8(t1)
   10f00:	01933023          	sd	s9,0(t1)
   10f04:	0007069b          	sext.w	a3,a4
   10f08:	f23e                	sd	a5,288(sp)
   10f0a:	471d                	li	a4,7
   10f0c:	bad75be3          	bge	a4,a3,10ac2 <_vfprintf_r+0x25e>
   10f10:	0a10                	addi	a2,sp,272
   10f12:	85d2                	mv	a1,s4
   10f14:	8556                	mv	a0,s5
   10f16:	705070ef          	jal	ra,18e1a <__sprint_r>
   10f1a:	4e051563          	bnez	a0,11404 <_vfprintf_r+0xba0>
   10f1e:	7792                	ld	a5,288(sp)
   10f20:	835e                	mv	t1,s7
   10f22:	b64d                	j	10ac4 <_vfprintf_r+0x260>
   10f24:	0104f793          	andi	a5,s1,16
   10f28:	0e0799e3          	bnez	a5,1181a <_vfprintf_r+0xfb6>
   10f2c:	66c2                	ld	a3,16(sp)
   10f2e:	0404f793          	andi	a5,s1,64
   10f32:	0006a983          	lw	s3,0(a3)
   10f36:	44078ae3          	beqz	a5,11b8a <_vfprintf_r+0x1326>
   10f3a:	19c2                	slli	s3,s3,0x30
   10f3c:	0309d993          	srli	s3,s3,0x30
   10f40:	b1d1                	j	10c04 <_vfprintf_r+0x3a0>
   10f42:	0104f793          	andi	a5,s1,16
   10f46:	0c0795e3          	bnez	a5,11810 <_vfprintf_r+0xfac>
   10f4a:	0404f793          	andi	a5,s1,64
   10f4e:	40078de3          	beqz	a5,11b68 <_vfprintf_r+0x1304>
   10f52:	67c2                	ld	a5,16(sp)
   10f54:	00079983          	lh	s3,0(a5)
   10f58:	87ce                	mv	a5,s3
   10f5a:	c407d8e3          	bgez	a5,10baa <_vfprintf_r+0x346>
   10f5e:	02d00793          	li	a5,45
   10f62:	0cf10fa3          	sb	a5,223(sp)
   10f66:	e83a                	sd	a4,16(sp)
   10f68:	577d                	li	a4,-1
   10f6a:	413009b3          	neg	s3,s3
   10f6e:	8826                	mv	a6,s1
   10f70:	4785                	li	a5,1
   10f72:	caee94e3          	bne	t4,a4,10c1a <_vfprintf_r+0x3b6>
   10f76:	4705                	li	a4,1
   10f78:	56e78463          	beq	a5,a4,114e0 <_vfprintf_r+0xc7c>
   10f7c:	4709                	li	a4,2
   10f7e:	28e78263          	beq	a5,a4,11202 <_vfprintf_r+0x99e>
   10f82:	18c10c13          	addi	s8,sp,396
   10f86:	8ce2                	mv	s9,s8
   10f88:	0079f793          	andi	a5,s3,7
   10f8c:	03078793          	addi	a5,a5,48
   10f90:	fefc8fa3          	sb	a5,-1(s9)
   10f94:	0039d993          	srli	s3,s3,0x3
   10f98:	8766                	mv	a4,s9
   10f9a:	1cfd                	addi	s9,s9,-1
   10f9c:	fe0996e3          	bnez	s3,10f88 <_vfprintf_r+0x724>
   10fa0:	00187693          	andi	a3,a6,1
   10fa4:	26068f63          	beqz	a3,11222 <_vfprintf_r+0x9be>
   10fa8:	03000693          	li	a3,48
   10fac:	26d78b63          	beq	a5,a3,11222 <_vfprintf_r+0x9be>
   10fb0:	1779                	addi	a4,a4,-2
   10fb2:	fedc8fa3          	sb	a3,-1(s9)
   10fb6:	40ec0c3b          	subw	s8,s8,a4
   10fba:	84c2                	mv	s1,a6
   10fbc:	8cba                	mv	s9,a4
   10fbe:	b139                	j	10bcc <_vfprintf_r+0x368>
   10fc0:	8556                	mv	a0,s5
   10fc2:	33f010ef          	jal	ra,12b00 <__sinit>
   10fc6:	b8fd                	j	108c4 <_vfprintf_r+0x60>
   10fc8:	67c2                	ld	a5,16(sp)
   10fca:	0c010fa3          	sb	zero,223(sp)
   10fce:	0007bc83          	ld	s9,0(a5)
   10fd2:	00878693          	addi	a3,a5,8
   10fd6:	1c0c85e3          	beqz	s9,119a0 <_vfprintf_r+0x113c>
   10fda:	57fd                	li	a5,-1
   10fdc:	34fe82e3          	beq	t4,a5,11b20 <_vfprintf_r+0x12bc>
   10fe0:	8676                	mv	a2,t4
   10fe2:	4581                	li	a1,0
   10fe4:	8566                	mv	a0,s9
   10fe6:	f836                	sd	a3,48(sp)
   10fe8:	e81a                	sd	t1,16(sp)
   10fea:	e476                	sd	t4,8(sp)
   10fec:	3a3040ef          	jal	ra,15b8e <memchr>
   10ff0:	ec2a                	sd	a0,24(sp)
   10ff2:	6ea2                	ld	t4,8(sp)
   10ff4:	6342                	ld	t1,16(sp)
   10ff6:	76c2                	ld	a3,48(sp)
   10ff8:	e119                	bnez	a0,10ffe <_vfprintf_r+0x79a>
   10ffa:	1120106f          	j	1210c <_vfprintf_r+0x18a8>
   10ffe:	67e2                	ld	a5,24(sp)
   11000:	e836                	sd	a3,16(sp)
   11002:	ec02                	sd	zero,24(sp)
   11004:	41978c3b          	subw	s8,a5,s9
   11008:	fffc4993          	not	s3,s8
   1100c:	0df14783          	lbu	a5,223(sp)
   11010:	43f9d993          	srai	s3,s3,0x3f
   11014:	013c79b3          	and	s3,s8,s3
   11018:	e882                	sd	zero,80(sp)
   1101a:	f082                	sd	zero,96(sp)
   1101c:	ec82                	sd	zero,88(sp)
   1101e:	2981                	sext.w	s3,s3
   11020:	4e81                	li	t4,0
   11022:	bc0793e3          	bnez	a5,10be8 <_vfprintf_r+0x384>
   11026:	b2fd                	j	10a14 <_vfprintf_r+0x1b0>
   11028:	6742                	ld	a4,16(sp)
   1102a:	0c010fa3          	sb	zero,223(sp)
   1102e:	4985                	li	s3,1
   11030:	431c                	lw	a5,0(a4)
   11032:	0721                	addi	a4,a4,8
   11034:	e83a                	sd	a4,16(sp)
   11036:	12f10423          	sb	a5,296(sp)
   1103a:	4c05                	li	s8,1
   1103c:	12810c93          	addi	s9,sp,296
   11040:	b2e9                	j	10a0a <_vfprintf_r+0x1a6>
   11042:	00044f03          	lbu	t5,0(s0)
   11046:	0044e493          	ori	s1,s1,4
   1104a:	2481                	sext.w	s1,s1
   1104c:	b2b1                	j	10998 <_vfprintf_r+0x134>
   1104e:	02b00793          	li	a5,43
   11052:	00044f03          	lbu	t5,0(s0)
   11056:	0cf10fa3          	sb	a5,223(sp)
   1105a:	ba3d                	j	10998 <_vfprintf_r+0x134>
   1105c:	0804e493          	ori	s1,s1,128
   11060:	00044f03          	lbu	t5,0(s0)
   11064:	2481                	sext.w	s1,s1
   11066:	ba0d                	j	10998 <_vfprintf_r+0x134>
   11068:	00044703          	lbu	a4,0(s0)
   1106c:	00140793          	addi	a5,s0,1
   11070:	00070d9b          	sext.w	s11,a4
   11074:	00ec1463          	bne	s8,a4,1107c <_vfprintf_r+0x818>
   11078:	3d20106f          	j	1244a <_vfprintf_r+0x1be6>
   1107c:	fd07071b          	addiw	a4,a4,-48
   11080:	843e                	mv	s0,a5
   11082:	4e81                	li	t4,0
   11084:	90e9efe3          	bltu	s3,a4,109a2 <_vfprintf_r+0x13e>
   11088:	00044d83          	lbu	s11,0(s0)
   1108c:	002e979b          	slliw	a5,t4,0x2
   11090:	01d78ebb          	addw	t4,a5,t4
   11094:	001e9e9b          	slliw	t4,t4,0x1
   11098:	00ee8ebb          	addw	t4,t4,a4
   1109c:	fd0d871b          	addiw	a4,s11,-48
   110a0:	0405                	addi	s0,s0,1
   110a2:	fee9f3e3          	bgeu	s3,a4,11088 <_vfprintf_r+0x824>
   110a6:	b8f5                	j	109a2 <_vfprintf_r+0x13e>
   110a8:	67c2                	ld	a5,16(sp)
   110aa:	00044f03          	lbu	t5,0(s0)
   110ae:	0007ab03          	lw	s6,0(a5)
   110b2:	07a1                	addi	a5,a5,8
   110b4:	e83e                	sd	a5,16(sp)
   110b6:	8e0b51e3          	bgez	s6,10998 <_vfprintf_r+0x134>
   110ba:	41600b3b          	negw	s6,s6
   110be:	b761                	j	11046 <_vfprintf_r+0x7e2>
   110c0:	8556                	mv	a0,s5
   110c2:	ec1a                	sd	t1,24(sp)
   110c4:	e476                	sd	t4,8(sp)
   110c6:	2aa040ef          	jal	ra,15370 <_localeconv_r>
   110ca:	651c                	ld	a5,8(a0)
   110cc:	853e                	mv	a0,a5
   110ce:	e93e                	sd	a5,144(sp)
   110d0:	f00ff0ef          	jal	ra,107d0 <strlen>
   110d4:	87aa                	mv	a5,a0
   110d6:	8556                	mv	a0,s5
   110d8:	8dbe                	mv	s11,a5
   110da:	e53e                	sd	a5,136(sp)
   110dc:	294040ef          	jal	ra,15370 <_localeconv_r>
   110e0:	6918                	ld	a4,16(a0)
   110e2:	6ea2                	ld	t4,8(sp)
   110e4:	6362                	ld	t1,24(sp)
   110e6:	f4ba                	sd	a4,104(sp)
   110e8:	00044f03          	lbu	t5,0(s0)
   110ec:	8a0d86e3          	beqz	s11,10998 <_vfprintf_r+0x134>
   110f0:	8a0704e3          	beqz	a4,10998 <_vfprintf_r+0x134>
   110f4:	00074783          	lbu	a5,0(a4)
   110f8:	8a0780e3          	beqz	a5,10998 <_vfprintf_r+0x134>
   110fc:	4004e493          	ori	s1,s1,1024
   11100:	2481                	sext.w	s1,s1
   11102:	b859                	j	10998 <_vfprintf_r+0x134>
   11104:	0014e493          	ori	s1,s1,1
   11108:	00044f03          	lbu	t5,0(s0)
   1110c:	2481                	sext.w	s1,s1
   1110e:	b069                	j	10998 <_vfprintf_r+0x134>
   11110:	0df14783          	lbu	a5,223(sp)
   11114:	00044f03          	lbu	t5,0(s0)
   11118:	880790e3          	bnez	a5,10998 <_vfprintf_r+0x134>
   1111c:	02000793          	li	a5,32
   11120:	0cf10fa3          	sb	a5,223(sp)
   11124:	b895                	j	10998 <_vfprintf_r+0x134>
   11126:	0084e493          	ori	s1,s1,8
   1112a:	00044f03          	lbu	t5,0(s0)
   1112e:	2481                	sext.w	s1,s1
   11130:	b0a5                	j	10998 <_vfprintf_r+0x134>
   11132:	0104e493          	ori	s1,s1,16
   11136:	0004881b          	sext.w	a6,s1
   1113a:	66c2                	ld	a3,16(sp)
   1113c:	02087793          	andi	a5,a6,32
   11140:	00868713          	addi	a4,a3,8
   11144:	68078463          	beqz	a5,117cc <_vfprintf_r+0xf68>
   11148:	0006b983          	ld	s3,0(a3)
   1114c:	4785                	li	a5,1
   1114e:	e83a                	sd	a4,16(sp)
   11150:	b4c1                	j	10c10 <_vfprintf_r+0x3ac>
   11152:	0204e493          	ori	s1,s1,32
   11156:	00044f03          	lbu	t5,0(s0)
   1115a:	2481                	sext.w	s1,s1
   1115c:	83dff06f          	j	10998 <_vfprintf_r+0x134>
   11160:	6742                	ld	a4,16(sp)
   11162:	77e1                	lui	a5,0xffff8
   11164:	8307c793          	xori	a5,a5,-2000
   11168:	0ef11023          	sh	a5,224(sp)
   1116c:	00870793          	addi	a5,a4,8
   11170:	0024e493          	ori	s1,s1,2
   11174:	e83e                	sd	a5,16(sp)
   11176:	0000b797          	auipc	a5,0xb
   1117a:	41278793          	addi	a5,a5,1042 # 1c588 <__clzdi2+0x12c>
   1117e:	f43e                	sd	a5,40(sp)
   11180:	00073983          	ld	s3,0(a4)
   11184:	0004881b          	sext.w	a6,s1
   11188:	4789                	li	a5,2
   1118a:	07800d93          	li	s11,120
   1118e:	b449                	j	10c10 <_vfprintf_r+0x3ac>
   11190:	66c2                	ld	a3,16(sp)
   11192:	0204f793          	andi	a5,s1,32
   11196:	6298                	ld	a4,0(a3)
   11198:	06a1                	addi	a3,a3,8
   1119a:	e836                	sd	a3,16(sp)
   1119c:	64079e63          	bnez	a5,117f8 <_vfprintf_r+0xf94>
   111a0:	0104f793          	andi	a5,s1,16
   111a4:	64079a63          	bnez	a5,117f8 <_vfprintf_r+0xf94>
   111a8:	0404f793          	andi	a5,s1,64
   111ac:	3e0799e3          	bnez	a5,11d9e <_vfprintf_r+0x153a>
   111b0:	2004f493          	andi	s1,s1,512
   111b4:	6782                	ld	a5,0(sp)
   111b6:	e099                	bnez	s1,111bc <_vfprintf_r+0x958>
   111b8:	1280106f          	j	122e0 <_vfprintf_r+0x1a7c>
   111bc:	00f70023          	sb	a5,0(a4)
   111c0:	8ca2                	mv	s9,s0
   111c2:	ba15                	j	10af6 <_vfprintf_r+0x292>
   111c4:	00044f03          	lbu	t5,0(s0)
   111c8:	06c00793          	li	a5,108
   111cc:	7aff0263          	beq	t5,a5,11970 <_vfprintf_r+0x110c>
   111d0:	0104e493          	ori	s1,s1,16
   111d4:	2481                	sext.w	s1,s1
   111d6:	fc2ff06f          	j	10998 <_vfprintf_r+0x134>
   111da:	00044f03          	lbu	t5,0(s0)
   111de:	06800793          	li	a5,104
   111e2:	76ff0f63          	beq	t5,a5,11960 <_vfprintf_r+0x10fc>
   111e6:	0404e493          	ori	s1,s1,64
   111ea:	2481                	sext.w	s1,s1
   111ec:	facff06f          	j	10998 <_vfprintf_r+0x134>
   111f0:	4705                	li	a4,1
   111f2:	00e79463          	bne	a5,a4,111fa <_vfprintf_r+0x996>
   111f6:	0220106f          	j	12218 <_vfprintf_r+0x19b4>
   111fa:	4709                	li	a4,2
   111fc:	8826                	mv	a6,s1
   111fe:	d8e792e3          	bne	a5,a4,10f82 <_vfprintf_r+0x71e>
   11202:	18c10c13          	addi	s8,sp,396
   11206:	8ce2                	mv	s9,s8
   11208:	7722                	ld	a4,40(sp)
   1120a:	00f9f793          	andi	a5,s3,15
   1120e:	1cfd                	addi	s9,s9,-1
   11210:	97ba                	add	a5,a5,a4
   11212:	0007c783          	lbu	a5,0(a5)
   11216:	0049d993          	srli	s3,s3,0x4
   1121a:	00fc8023          	sb	a5,0(s9)
   1121e:	fe0995e3          	bnez	s3,11208 <_vfprintf_r+0x9a4>
   11222:	419c0c3b          	subw	s8,s8,s9
   11226:	84c2                	mv	s1,a6
   11228:	b255                	j	10bcc <_vfprintf_r+0x368>
   1122a:	06500713          	li	a4,101
   1122e:	1fb75463          	bge	a4,s11,11416 <_vfprintf_r+0xbb2>
   11232:	6512                	ld	a0,256(sp)
   11234:	65b2                	ld	a1,264(sp)
   11236:	4601                	li	a2,0
   11238:	4681                	li	a3,0
   1123a:	f83e                	sd	a5,48(sp)
   1123c:	e41a                	sd	t1,8(sp)
   1123e:	649090ef          	jal	ra,1b086 <__eqtf2>
   11242:	6322                	ld	t1,8(sp)
   11244:	77c2                	ld	a5,48(sp)
   11246:	3e051b63          	bnez	a0,1163c <_vfprintf_r+0xdd8>
   1124a:	11812703          	lw	a4,280(sp)
   1124e:	0000b697          	auipc	a3,0xb
   11252:	35a68693          	addi	a3,a3,858 # 1c5a8 <__clzdi2+0x14c>
   11256:	00d33023          	sd	a3,0(t1)
   1125a:	2705                	addiw	a4,a4,1
   1125c:	4685                	li	a3,1
   1125e:	0785                	addi	a5,a5,1
   11260:	00d33423          	sd	a3,8(t1)
   11264:	10e12c23          	sw	a4,280(sp)
   11268:	0007069b          	sext.w	a3,a4
   1126c:	f23e                	sd	a5,288(sp)
   1126e:	471d                	li	a4,7
   11270:	0341                	addi	t1,t1,16
   11272:	04d742e3          	blt	a4,a3,11ab6 <_vfprintf_r+0x1252>
   11276:	572e                	lw	a4,232(sp)
   11278:	7682                	ld	a3,32(sp)
   1127a:	56d75a63          	bge	a4,a3,117ee <_vfprintf_r+0xf8a>
   1127e:	7766                	ld	a4,120(sp)
   11280:	76c6                	ld	a3,112(sp)
   11282:	0341                	addi	t1,t1,16
   11284:	fee33823          	sd	a4,-16(t1)
   11288:	11812703          	lw	a4,280(sp)
   1128c:	97b6                	add	a5,a5,a3
   1128e:	fed33c23          	sd	a3,-8(t1)
   11292:	2705                	addiw	a4,a4,1
   11294:	0007069b          	sext.w	a3,a4
   11298:	10e12c23          	sw	a4,280(sp)
   1129c:	f23e                	sd	a5,288(sp)
   1129e:	471d                	li	a4,7
   112a0:	6ed74063          	blt	a4,a3,11980 <_vfprintf_r+0x111c>
   112a4:	7702                	ld	a4,32(sp)
   112a6:	fff70c1b          	addiw	s8,a4,-1
   112aa:	81805de3          	blez	s8,10ac4 <_vfprintf_r+0x260>
   112ae:	11812703          	lw	a4,280(sp)
   112b2:	018d5de3          	bge	s10,s8,11acc <_vfprintf_r+0x1268>
   112b6:	4c9d                	li	s9,7
   112b8:	a021                	j	112c0 <_vfprintf_r+0xa5c>
   112ba:	3c41                	addiw	s8,s8,-16
   112bc:	018d58e3          	bge	s10,s8,11acc <_vfprintf_r+0x1268>
   112c0:	2705                	addiw	a4,a4,1
   112c2:	07c1                	addi	a5,a5,16
   112c4:	01233023          	sd	s2,0(t1)
   112c8:	01a33423          	sd	s10,8(t1)
   112cc:	f23e                	sd	a5,288(sp)
   112ce:	10e12c23          	sw	a4,280(sp)
   112d2:	0341                	addi	t1,t1,16
   112d4:	feecd3e3          	bge	s9,a4,112ba <_vfprintf_r+0xa56>
   112d8:	0a10                	addi	a2,sp,272
   112da:	85d2                	mv	a1,s4
   112dc:	8556                	mv	a0,s5
   112de:	33d070ef          	jal	ra,18e1a <__sprint_r>
   112e2:	12051163          	bnez	a0,11404 <_vfprintf_r+0xba0>
   112e6:	7792                	ld	a5,288(sp)
   112e8:	11812703          	lw	a4,280(sp)
   112ec:	835e                	mv	t1,s7
   112ee:	b7f1                	j	112ba <_vfprintf_r+0xa56>
   112f0:	413b06bb          	subw	a3,s6,s3
   112f4:	f8d05f63          	blez	a3,10a92 <_vfprintf_r+0x22e>
   112f8:	11812703          	lw	a4,280(sp)
   112fc:	04dd5563          	bge	s10,a3,11346 <_vfprintf_r+0xae2>
   11300:	489d                	li	a7,7
   11302:	a021                	j	1130a <_vfprintf_r+0xaa6>
   11304:	36c1                	addiw	a3,a3,-16
   11306:	04dd5063          	bge	s10,a3,11346 <_vfprintf_r+0xae2>
   1130a:	2705                	addiw	a4,a4,1
   1130c:	07c1                	addi	a5,a5,16
   1130e:	01233023          	sd	s2,0(t1)
   11312:	01a33423          	sd	s10,8(t1)
   11316:	f23e                	sd	a5,288(sp)
   11318:	10e12c23          	sw	a4,280(sp)
   1131c:	0341                	addi	t1,t1,16
   1131e:	fee8d3e3          	bge	a7,a4,11304 <_vfprintf_r+0xaa0>
   11322:	0a10                	addi	a2,sp,272
   11324:	85d2                	mv	a1,s4
   11326:	8556                	mv	a0,s5
   11328:	f836                	sd	a3,48(sp)
   1132a:	e476                	sd	t4,8(sp)
   1132c:	2ef070ef          	jal	ra,18e1a <__sprint_r>
   11330:	e971                	bnez	a0,11404 <_vfprintf_r+0xba0>
   11332:	76c2                	ld	a3,48(sp)
   11334:	7792                	ld	a5,288(sp)
   11336:	11812703          	lw	a4,280(sp)
   1133a:	36c1                	addiw	a3,a3,-16
   1133c:	6ea2                	ld	t4,8(sp)
   1133e:	835e                	mv	t1,s7
   11340:	489d                	li	a7,7
   11342:	fcdd44e3          	blt	s10,a3,1130a <_vfprintf_r+0xaa6>
   11346:	2705                	addiw	a4,a4,1
   11348:	97b6                	add	a5,a5,a3
   1134a:	00d33423          	sd	a3,8(t1)
   1134e:	01233023          	sd	s2,0(t1)
   11352:	0007069b          	sext.w	a3,a4
   11356:	10e12c23          	sw	a4,280(sp)
   1135a:	f23e                	sd	a5,288(sp)
   1135c:	471d                	li	a4,7
   1135e:	0341                	addi	t1,t1,16
   11360:	f2d75963          	bge	a4,a3,10a92 <_vfprintf_r+0x22e>
   11364:	0a10                	addi	a2,sp,272
   11366:	85d2                	mv	a1,s4
   11368:	8556                	mv	a0,s5
   1136a:	e476                	sd	t4,8(sp)
   1136c:	2af070ef          	jal	ra,18e1a <__sprint_r>
   11370:	e951                	bnez	a0,11404 <_vfprintf_r+0xba0>
   11372:	7792                	ld	a5,288(sp)
   11374:	6ea2                	ld	t4,8(sp)
   11376:	835e                	mv	t1,s7
   11378:	f1aff06f          	j	10a92 <_vfprintf_r+0x22e>
   1137c:	11812703          	lw	a4,280(sp)
   11380:	05dd5363          	bge	s10,t4,113c6 <_vfprintf_r+0xb62>
   11384:	489d                	li	a7,7
   11386:	a021                	j	1138e <_vfprintf_r+0xb2a>
   11388:	3ec1                	addiw	t4,t4,-16
   1138a:	03dd5e63          	bge	s10,t4,113c6 <_vfprintf_r+0xb62>
   1138e:	2705                	addiw	a4,a4,1
   11390:	07c1                	addi	a5,a5,16
   11392:	01233023          	sd	s2,0(t1)
   11396:	01a33423          	sd	s10,8(t1)
   1139a:	f23e                	sd	a5,288(sp)
   1139c:	10e12c23          	sw	a4,280(sp)
   113a0:	0341                	addi	t1,t1,16
   113a2:	fee8d3e3          	bge	a7,a4,11388 <_vfprintf_r+0xb24>
   113a6:	0a10                	addi	a2,sp,272
   113a8:	85d2                	mv	a1,s4
   113aa:	8556                	mv	a0,s5
   113ac:	e476                	sd	t4,8(sp)
   113ae:	26d070ef          	jal	ra,18e1a <__sprint_r>
   113b2:	e929                	bnez	a0,11404 <_vfprintf_r+0xba0>
   113b4:	6ea2                	ld	t4,8(sp)
   113b6:	7792                	ld	a5,288(sp)
   113b8:	11812703          	lw	a4,280(sp)
   113bc:	3ec1                	addiw	t4,t4,-16
   113be:	835e                	mv	t1,s7
   113c0:	489d                	li	a7,7
   113c2:	fddd46e3          	blt	s10,t4,1138e <_vfprintf_r+0xb2a>
   113c6:	0017069b          	addiw	a3,a4,1
   113ca:	97f6                	add	a5,a5,t4
   113cc:	01233023          	sd	s2,0(t1)
   113d0:	01d33423          	sd	t4,8(t1)
   113d4:	f23e                	sd	a5,288(sp)
   113d6:	10d12c23          	sw	a3,280(sp)
   113da:	471d                	li	a4,7
   113dc:	0341                	addi	t1,t1,16
   113de:	ead75e63          	bge	a4,a3,10a9a <_vfprintf_r+0x236>
   113e2:	0a10                	addi	a2,sp,272
   113e4:	85d2                	mv	a1,s4
   113e6:	8556                	mv	a0,s5
   113e8:	233070ef          	jal	ra,18e1a <__sprint_r>
   113ec:	ed01                	bnez	a0,11404 <_vfprintf_r+0xba0>
   113ee:	7792                	ld	a5,288(sp)
   113f0:	835e                	mv	t1,s7
   113f2:	ea8ff06f          	j	10a9a <_vfprintf_r+0x236>
   113f6:	0a10                	addi	a2,sp,272
   113f8:	85d2                	mv	a1,s4
   113fa:	8556                	mv	a0,s5
   113fc:	21f070ef          	jal	ra,18e1a <__sprint_r>
   11400:	ee050163          	beqz	a0,10ae2 <_vfprintf_r+0x27e>
   11404:	67e2                	ld	a5,24(sp)
   11406:	f0078063          	beqz	a5,10b06 <_vfprintf_r+0x2a2>
   1140a:	85be                	mv	a1,a5
   1140c:	8556                	mv	a0,s5
   1140e:	02d010ef          	jal	ra,12c3a <_free_r>
   11412:	ef4ff06f          	j	10b06 <_vfprintf_r+0x2a2>
   11416:	11812603          	lw	a2,280(sp)
   1141a:	00178d93          	addi	s11,a5,1
   1141e:	7782                	ld	a5,32(sp)
   11420:	0016071b          	addiw	a4,a2,1
   11424:	4585                	li	a1,1
   11426:	01933023          	sd	s9,0(t1)
   1142a:	86ba                	mv	a3,a4
   1142c:	01030c13          	addi	s8,t1,16
   11430:	32f5d863          	bge	a1,a5,11760 <_vfprintf_r+0xefc>
   11434:	4605                	li	a2,1
   11436:	10d12c23          	sw	a3,280(sp)
   1143a:	00c33423          	sd	a2,8(t1)
   1143e:	f26e                	sd	s11,288(sp)
   11440:	469d                	li	a3,7
   11442:	5ce6c463          	blt	a3,a4,11a0a <_vfprintf_r+0x11a6>
   11446:	77c6                	ld	a5,112(sp)
   11448:	0017069b          	addiw	a3,a4,1
   1144c:	7766                	ld	a4,120(sp)
   1144e:	9dbe                	add	s11,s11,a5
   11450:	00fc3423          	sd	a5,8(s8)
   11454:	00ec3023          	sd	a4,0(s8)
   11458:	10d12c23          	sw	a3,280(sp)
   1145c:	0006871b          	sext.w	a4,a3
   11460:	f26e                	sd	s11,288(sp)
   11462:	469d                	li	a3,7
   11464:	0c41                	addi	s8,s8,16
   11466:	5ae6ce63          	blt	a3,a4,11a22 <_vfprintf_r+0x11be>
   1146a:	6512                	ld	a0,256(sp)
   1146c:	65b2                	ld	a1,264(sp)
   1146e:	0017089b          	addiw	a7,a4,1
   11472:	4601                	li	a2,0
   11474:	4681                	li	a3,0
   11476:	e446                	sd	a7,8(sp)
   11478:	f83a                	sd	a4,48(sp)
   1147a:	40d090ef          	jal	ra,1b086 <__eqtf2>
   1147e:	68a2                	ld	a7,8(sp)
   11480:	7782                	ld	a5,32(sp)
   11482:	010c0313          	addi	t1,s8,16
   11486:	0008861b          	sext.w	a2,a7
   1148a:	fff7869b          	addiw	a3,a5,-1
   1148e:	2e050963          	beqz	a0,11780 <_vfprintf_r+0xf1c>
   11492:	9db6                	add	s11,s11,a3
   11494:	001c8813          	addi	a6,s9,1
   11498:	00dc3423          	sd	a3,8(s8)
   1149c:	010c3023          	sd	a6,0(s8)
   114a0:	f26e                	sd	s11,288(sp)
   114a2:	11112c23          	sw	a7,280(sp)
   114a6:	469d                	li	a3,7
   114a8:	44c6c763          	blt	a3,a2,118f6 <_vfprintf_r+0x1092>
   114ac:	7742                	ld	a4,48(sp)
   114ae:	020c0693          	addi	a3,s8,32
   114b2:	8c1a                	mv	s8,t1
   114b4:	0027061b          	addiw	a2,a4,2
   114b8:	8336                	mv	t1,a3
   114ba:	668a                	ld	a3,128(sp)
   114bc:	1998                	addi	a4,sp,240
   114be:	00ec3023          	sd	a4,0(s8)
   114c2:	00dd87b3          	add	a5,s11,a3
   114c6:	00dc3423          	sd	a3,8(s8)
   114ca:	f23e                	sd	a5,288(sp)
   114cc:	10c12c23          	sw	a2,280(sp)
   114d0:	471d                	li	a4,7
   114d2:	dec75963          	bge	a4,a2,10ac4 <_vfprintf_r+0x260>
   114d6:	bc2d                	j	10f10 <_vfprintf_r+0x6ac>
   114d8:	4705                	li	a4,1
   114da:	8826                	mv	a6,s1
   114dc:	aae790e3          	bne	a5,a4,10f7c <_vfprintf_r+0x718>
   114e0:	47a5                	li	a5,9
   114e2:	3737e163          	bltu	a5,s3,11844 <_vfprintf_r+0xfe0>
   114e6:	0309899b          	addiw	s3,s3,48
   114ea:	193105a3          	sb	s3,395(sp)
   114ee:	84c2                	mv	s1,a6
   114f0:	4c05                	li	s8,1
   114f2:	18b10c93          	addi	s9,sp,395
   114f6:	ed6ff06f          	j	10bcc <_vfprintf_r+0x368>
   114fa:	11812703          	lw	a4,280(sp)
   114fe:	0000b897          	auipc	a7,0xb
   11502:	22288893          	addi	a7,a7,546 # 1c720 <blanks.4520>
   11506:	439d                	li	t2,7
   11508:	00dd4663          	blt	s10,a3,11514 <_vfprintf_r+0xcb0>
   1150c:	a889                	j	1155e <_vfprintf_r+0xcfa>
   1150e:	36c1                	addiw	a3,a3,-16
   11510:	04dd5763          	bge	s10,a3,1155e <_vfprintf_r+0xcfa>
   11514:	2705                	addiw	a4,a4,1
   11516:	07c1                	addi	a5,a5,16
   11518:	01133023          	sd	a7,0(t1)
   1151c:	01a33423          	sd	s10,8(t1)
   11520:	f23e                	sd	a5,288(sp)
   11522:	10e12c23          	sw	a4,280(sp)
   11526:	0341                	addi	t1,t1,16
   11528:	fee3d3e3          	bge	t2,a4,1150e <_vfprintf_r+0xcaa>
   1152c:	0a10                	addi	a2,sp,272
   1152e:	85d2                	mv	a1,s4
   11530:	8556                	mv	a0,s5
   11532:	e4c6                	sd	a7,72(sp)
   11534:	e0f6                	sd	t4,64(sp)
   11536:	fc7e                	sd	t6,56(sp)
   11538:	f816                	sd	t0,48(sp)
   1153a:	e436                	sd	a3,8(sp)
   1153c:	0df070ef          	jal	ra,18e1a <__sprint_r>
   11540:	ec0512e3          	bnez	a0,11404 <_vfprintf_r+0xba0>
   11544:	66a2                	ld	a3,8(sp)
   11546:	7792                	ld	a5,288(sp)
   11548:	11812703          	lw	a4,280(sp)
   1154c:	36c1                	addiw	a3,a3,-16
   1154e:	68a6                	ld	a7,72(sp)
   11550:	6e86                	ld	t4,64(sp)
   11552:	7fe2                	ld	t6,56(sp)
   11554:	72c2                	ld	t0,48(sp)
   11556:	835e                	mv	t1,s7
   11558:	439d                	li	t2,7
   1155a:	fadd4de3          	blt	s10,a3,11514 <_vfprintf_r+0xcb0>
   1155e:	2705                	addiw	a4,a4,1
   11560:	97b6                	add	a5,a5,a3
   11562:	00d33423          	sd	a3,8(t1)
   11566:	01133023          	sd	a7,0(t1)
   1156a:	0007069b          	sext.w	a3,a4
   1156e:	10e12c23          	sw	a4,280(sp)
   11572:	f23e                	sd	a5,288(sp)
   11574:	471d                	li	a4,7
   11576:	0341                	addi	t1,t1,16
   11578:	cad75d63          	bge	a4,a3,10a32 <_vfprintf_r+0x1ce>
   1157c:	0a10                	addi	a2,sp,272
   1157e:	85d2                	mv	a1,s4
   11580:	8556                	mv	a0,s5
   11582:	fc76                	sd	t4,56(sp)
   11584:	f87e                	sd	t6,48(sp)
   11586:	e416                	sd	t0,8(sp)
   11588:	093070ef          	jal	ra,18e1a <__sprint_r>
   1158c:	e6051ce3          	bnez	a0,11404 <_vfprintf_r+0xba0>
   11590:	7792                	ld	a5,288(sp)
   11592:	7ee2                	ld	t4,56(sp)
   11594:	7fc2                	ld	t6,48(sp)
   11596:	62a2                	ld	t0,8(sp)
   11598:	835e                	mv	t1,s7
   1159a:	c98ff06f          	j	10a32 <_vfprintf_r+0x1ce>
   1159e:	0a10                	addi	a2,sp,272
   115a0:	85d2                	mv	a1,s4
   115a2:	8556                	mv	a0,s5
   115a4:	f876                	sd	t4,48(sp)
   115a6:	e47e                	sd	t6,8(sp)
   115a8:	073070ef          	jal	ra,18e1a <__sprint_r>
   115ac:	e4051ce3          	bnez	a0,11404 <_vfprintf_r+0xba0>
   115b0:	7792                	ld	a5,288(sp)
   115b2:	7ec2                	ld	t4,48(sp)
   115b4:	6fa2                	ld	t6,8(sp)
   115b6:	835e                	mv	t1,s7
   115b8:	cd2ff06f          	j	10a8a <_vfprintf_r+0x226>
   115bc:	11812703          	lw	a4,280(sp)
   115c0:	0000b897          	auipc	a7,0xb
   115c4:	16088893          	addi	a7,a7,352 # 1c720 <blanks.4520>
   115c8:	4c1d                	li	s8,7
   115ca:	009d4663          	blt	s10,s1,115d6 <_vfprintf_r+0xd72>
   115ce:	a081                	j	1160e <_vfprintf_r+0xdaa>
   115d0:	34c1                	addiw	s1,s1,-16
   115d2:	029d5e63          	bge	s10,s1,1160e <_vfprintf_r+0xdaa>
   115d6:	2705                	addiw	a4,a4,1
   115d8:	07c1                	addi	a5,a5,16
   115da:	01133023          	sd	a7,0(t1)
   115de:	01a33423          	sd	s10,8(t1)
   115e2:	f23e                	sd	a5,288(sp)
   115e4:	10e12c23          	sw	a4,280(sp)
   115e8:	0341                	addi	t1,t1,16
   115ea:	feec53e3          	bge	s8,a4,115d0 <_vfprintf_r+0xd6c>
   115ee:	0a10                	addi	a2,sp,272
   115f0:	85d2                	mv	a1,s4
   115f2:	8556                	mv	a0,s5
   115f4:	e446                	sd	a7,8(sp)
   115f6:	025070ef          	jal	ra,18e1a <__sprint_r>
   115fa:	e00515e3          	bnez	a0,11404 <_vfprintf_r+0xba0>
   115fe:	34c1                	addiw	s1,s1,-16
   11600:	7792                	ld	a5,288(sp)
   11602:	11812703          	lw	a4,280(sp)
   11606:	68a2                	ld	a7,8(sp)
   11608:	835e                	mv	t1,s7
   1160a:	fc9d46e3          	blt	s10,s1,115d6 <_vfprintf_r+0xd72>
   1160e:	0017069b          	addiw	a3,a4,1
   11612:	97a6                	add	a5,a5,s1
   11614:	01133023          	sd	a7,0(t1)
   11618:	00933423          	sd	s1,8(t1)
   1161c:	f23e                	sd	a5,288(sp)
   1161e:	10d12c23          	sw	a3,280(sp)
   11622:	471d                	li	a4,7
   11624:	cad75663          	bge	a4,a3,10ad0 <_vfprintf_r+0x26c>
   11628:	0a10                	addi	a2,sp,272
   1162a:	85d2                	mv	a1,s4
   1162c:	8556                	mv	a0,s5
   1162e:	7ec070ef          	jal	ra,18e1a <__sprint_r>
   11632:	dc0519e3          	bnez	a0,11404 <_vfprintf_r+0xba0>
   11636:	7792                	ld	a5,288(sp)
   11638:	c98ff06f          	j	10ad0 <_vfprintf_r+0x26c>
   1163c:	562e                	lw	a2,232(sp)
   1163e:	3ec05e63          	blez	a2,11a3a <_vfprintf_r+0x11d6>
   11642:	6766                	ld	a4,88(sp)
   11644:	7682                	ld	a3,32(sp)
   11646:	00070c1b          	sext.w	s8,a4
   1164a:	28e6c263          	blt	a3,a4,118ce <_vfprintf_r+0x106a>
   1164e:	03805263          	blez	s8,11672 <_vfprintf_r+0xe0e>
   11652:	11812703          	lw	a4,280(sp)
   11656:	97e2                	add	a5,a5,s8
   11658:	01933023          	sd	s9,0(t1)
   1165c:	0017069b          	addiw	a3,a4,1
   11660:	01833423          	sd	s8,8(t1)
   11664:	f23e                	sd	a5,288(sp)
   11666:	10d12c23          	sw	a3,280(sp)
   1166a:	471d                	li	a4,7
   1166c:	0341                	addi	t1,t1,16
   1166e:	6ed74d63          	blt	a4,a3,11d68 <_vfprintf_r+0x1504>
   11672:	fffc4713          	not	a4,s8
   11676:	977d                	srai	a4,a4,0x3f
   11678:	00ec7c33          	and	s8,s8,a4
   1167c:	6766                	ld	a4,88(sp)
   1167e:	41870c3b          	subw	s8,a4,s8
   11682:	33804c63          	bgtz	s8,119ba <_vfprintf_r+0x1156>
   11686:	66e6                	ld	a3,88(sp)
   11688:	4004f713          	andi	a4,s1,1024
   1168c:	00dc8db3          	add	s11,s9,a3
   11690:	54071f63          	bnez	a4,11bee <_vfprintf_r+0x138a>
   11694:	572e                	lw	a4,232(sp)
   11696:	7682                	ld	a3,32(sp)
   11698:	00d74663          	blt	a4,a3,116a4 <_vfprintf_r+0xe40>
   1169c:	0014f693          	andi	a3,s1,1
   116a0:	6e068063          	beqz	a3,11d80 <_vfprintf_r+0x151c>
   116a4:	76e6                	ld	a3,120(sp)
   116a6:	7646                	ld	a2,112(sp)
   116a8:	0341                	addi	t1,t1,16
   116aa:	fed33823          	sd	a3,-16(t1)
   116ae:	11812683          	lw	a3,280(sp)
   116b2:	97b2                	add	a5,a5,a2
   116b4:	fec33c23          	sd	a2,-8(t1)
   116b8:	2685                	addiw	a3,a3,1
   116ba:	0006861b          	sext.w	a2,a3
   116be:	10d12c23          	sw	a3,280(sp)
   116c2:	f23e                	sd	a5,288(sp)
   116c4:	469d                	li	a3,7
   116c6:	22c6c7e3          	blt	a3,a2,120f4 <_vfprintf_r+0x1890>
   116ca:	7682                	ld	a3,32(sp)
   116cc:	00dc8633          	add	a2,s9,a3
   116d0:	40e6873b          	subw	a4,a3,a4
   116d4:	41b6063b          	subw	a2,a2,s11
   116d8:	0007069b          	sext.w	a3,a4
   116dc:	00d65363          	bge	a2,a3,116e2 <_vfprintf_r+0xe7e>
   116e0:	8732                	mv	a4,a2
   116e2:	00070c9b          	sext.w	s9,a4
   116e6:	03905263          	blez	s9,1170a <_vfprintf_r+0xea6>
   116ea:	11812603          	lw	a2,280(sp)
   116ee:	97e6                	add	a5,a5,s9
   116f0:	01b33023          	sd	s11,0(t1)
   116f4:	0016059b          	addiw	a1,a2,1
   116f8:	01933423          	sd	s9,8(t1)
   116fc:	f23e                	sd	a5,288(sp)
   116fe:	10b12c23          	sw	a1,280(sp)
   11702:	461d                	li	a2,7
   11704:	0341                	addi	t1,t1,16
   11706:	26b644e3          	blt	a2,a1,1216e <_vfprintf_r+0x190a>
   1170a:	fffccc13          	not	s8,s9
   1170e:	43fc5c13          	srai	s8,s8,0x3f
   11712:	018cfc33          	and	s8,s9,s8
   11716:	41868c3b          	subw	s8,a3,s8
   1171a:	bb805563          	blez	s8,10ac4 <_vfprintf_r+0x260>
   1171e:	11812703          	lw	a4,280(sp)
   11722:	3b8d5563          	bge	s10,s8,11acc <_vfprintf_r+0x1268>
   11726:	4c9d                	li	s9,7
   11728:	a021                	j	11730 <_vfprintf_r+0xecc>
   1172a:	3c41                	addiw	s8,s8,-16
   1172c:	3b8d5063          	bge	s10,s8,11acc <_vfprintf_r+0x1268>
   11730:	2705                	addiw	a4,a4,1
   11732:	07c1                	addi	a5,a5,16
   11734:	01233023          	sd	s2,0(t1)
   11738:	01a33423          	sd	s10,8(t1)
   1173c:	f23e                	sd	a5,288(sp)
   1173e:	10e12c23          	sw	a4,280(sp)
   11742:	0341                	addi	t1,t1,16
   11744:	feecd3e3          	bge	s9,a4,1172a <_vfprintf_r+0xec6>
   11748:	0a10                	addi	a2,sp,272
   1174a:	85d2                	mv	a1,s4
   1174c:	8556                	mv	a0,s5
   1174e:	6cc070ef          	jal	ra,18e1a <__sprint_r>
   11752:	ca0519e3          	bnez	a0,11404 <_vfprintf_r+0xba0>
   11756:	7792                	ld	a5,288(sp)
   11758:	11812703          	lw	a4,280(sp)
   1175c:	835e                	mv	t1,s7
   1175e:	b7f1                	j	1172a <_vfprintf_r+0xec6>
   11760:	0014f513          	andi	a0,s1,1
   11764:	cc0518e3          	bnez	a0,11434 <_vfprintf_r+0xbd0>
   11768:	00b33423          	sd	a1,8(t1)
   1176c:	f26e                	sd	s11,288(sp)
   1176e:	10e12c23          	sw	a4,280(sp)
   11772:	469d                	li	a3,7
   11774:	18e6c163          	blt	a3,a4,118f6 <_vfprintf_r+0x1092>
   11778:	2609                	addiw	a2,a2,2
   1177a:	02030313          	addi	t1,t1,32
   1177e:	bb35                	j	114ba <_vfprintf_r+0xc56>
   11780:	d2d05de3          	blez	a3,114ba <_vfprintf_r+0xc56>
   11784:	4cdd50e3          	bge	s10,a3,12444 <_vfprintf_r+0x1be0>
   11788:	4c9d                	li	s9,7
   1178a:	a031                	j	11796 <_vfprintf_r+0xf32>
   1178c:	36c1                	addiw	a3,a3,-16
   1178e:	14dd5563          	bge	s10,a3,118d8 <_vfprintf_r+0x1074>
   11792:	0017089b          	addiw	a7,a4,1
   11796:	0dc1                	addi	s11,s11,16
   11798:	012c3023          	sd	s2,0(s8)
   1179c:	01ac3423          	sd	s10,8(s8)
   117a0:	f26e                	sd	s11,288(sp)
   117a2:	0008871b          	sext.w	a4,a7
   117a6:	11112c23          	sw	a7,280(sp)
   117aa:	0c41                	addi	s8,s8,16
   117ac:	feecd0e3          	bge	s9,a4,1178c <_vfprintf_r+0xf28>
   117b0:	0a10                	addi	a2,sp,272
   117b2:	85d2                	mv	a1,s4
   117b4:	8556                	mv	a0,s5
   117b6:	e436                	sd	a3,8(sp)
   117b8:	662070ef          	jal	ra,18e1a <__sprint_r>
   117bc:	c40514e3          	bnez	a0,11404 <_vfprintf_r+0xba0>
   117c0:	7d92                	ld	s11,288(sp)
   117c2:	11812703          	lw	a4,280(sp)
   117c6:	66a2                	ld	a3,8(sp)
   117c8:	8c5e                	mv	s8,s7
   117ca:	b7c9                	j	1178c <_vfprintf_r+0xf28>
   117cc:	01087793          	andi	a5,a6,16
   117d0:	eb8d                	bnez	a5,11802 <_vfprintf_r+0xf9e>
   117d2:	66c2                	ld	a3,16(sp)
   117d4:	04087793          	andi	a5,a6,64
   117d8:	0006a983          	lw	s3,0(a3)
   117dc:	36078c63          	beqz	a5,11b54 <_vfprintf_r+0x12f0>
   117e0:	19c2                	slli	s3,s3,0x30
   117e2:	0309d993          	srli	s3,s3,0x30
   117e6:	e83a                	sd	a4,16(sp)
   117e8:	4785                	li	a5,1
   117ea:	c26ff06f          	j	10c10 <_vfprintf_r+0x3ac>
   117ee:	0014f713          	andi	a4,s1,1
   117f2:	ac070963          	beqz	a4,10ac4 <_vfprintf_r+0x260>
   117f6:	b461                	j	1127e <_vfprintf_r+0xa1a>
   117f8:	6782                	ld	a5,0(sp)
   117fa:	8ca2                	mv	s9,s0
   117fc:	e31c                	sd	a5,0(a4)
   117fe:	af8ff06f          	j	10af6 <_vfprintf_r+0x292>
   11802:	67c2                	ld	a5,16(sp)
   11804:	e83a                	sd	a4,16(sp)
   11806:	0007b983          	ld	s3,0(a5)
   1180a:	4785                	li	a5,1
   1180c:	c04ff06f          	j	10c10 <_vfprintf_r+0x3ac>
   11810:	67c2                	ld	a5,16(sp)
   11812:	639c                	ld	a5,0(a5)
   11814:	89be                	mv	s3,a5
   11816:	b90ff06f          	j	10ba6 <_vfprintf_r+0x342>
   1181a:	67c2                	ld	a5,16(sp)
   1181c:	0007b983          	ld	s3,0(a5)
   11820:	be4ff06f          	j	10c04 <_vfprintf_r+0x3a0>
   11824:	67c2                	ld	a5,16(sp)
   11826:	07bd                	addi	a5,a5,15
   11828:	9bc1                	andi	a5,a5,-16
   1182a:	6394                	ld	a3,0(a5)
   1182c:	6798                	ld	a4,8(a5)
   1182e:	07c1                	addi	a5,a5,16
   11830:	e83e                	sd	a5,16(sp)
   11832:	e236                	sd	a3,256(sp)
   11834:	e63a                	sd	a4,264(sp)
   11836:	c50ff06f          	j	10c86 <_vfprintf_r+0x422>
   1183a:	e83a                	sd	a4,16(sp)
   1183c:	47a5                	li	a5,9
   1183e:	8826                	mv	a6,s1
   11840:	cb37f3e3          	bgeu	a5,s3,114e6 <_vfprintf_r+0xc82>
   11844:	40087793          	andi	a5,a6,1024
   11848:	18c10c13          	addi	s8,sp,396
   1184c:	2781                	sext.w	a5,a5
   1184e:	f002                	sd	zero,32(sp)
   11850:	85e2                	mv	a1,s8
   11852:	44a9                	li	s1,10
   11854:	4725                	li	a4,9
   11856:	0ff00693          	li	a3,255
   1185a:	a039                	j	11868 <_vfprintf_r+0x1004>
   1185c:	0299d633          	divu	a2,s3,s1
   11860:	9d3771e3          	bgeu	a4,s3,11222 <_vfprintf_r+0x9be>
   11864:	89b2                	mv	s3,a2
   11866:	85e6                	mv	a1,s9
   11868:	7502                	ld	a0,32(sp)
   1186a:	fff58c93          	addi	s9,a1,-1
   1186e:	2505                	addiw	a0,a0,1
   11870:	f02a                	sd	a0,32(sp)
   11872:	0299f633          	remu	a2,s3,s1
   11876:	0306061b          	addiw	a2,a2,48
   1187a:	fec58fa3          	sb	a2,-1(a1)
   1187e:	dff9                	beqz	a5,1185c <_vfprintf_r+0xff8>
   11880:	7626                	ld	a2,104(sp)
   11882:	00064603          	lbu	a2,0(a2)
   11886:	fcc51be3          	bne	a0,a2,1185c <_vfprintf_r+0xff8>
   1188a:	fcd609e3          	beq	a2,a3,1185c <_vfprintf_r+0xff8>
   1188e:	99377ae3          	bgeu	a4,s3,11222 <_vfprintf_r+0x9be>
   11892:	fc3e                	sd	a5,56(sp)
   11894:	67aa                	ld	a5,136(sp)
   11896:	65ca                	ld	a1,144(sp)
   11898:	f81a                	sd	t1,48(sp)
   1189a:	40fc8cb3          	sub	s9,s9,a5
   1189e:	863e                	mv	a2,a5
   118a0:	8566                	mv	a0,s9
   118a2:	ec76                	sd	t4,24(sp)
   118a4:	e442                	sd	a6,8(sp)
   118a6:	073050ef          	jal	ra,17118 <strncpy>
   118aa:	77a6                	ld	a5,104(sp)
   118ac:	0299d633          	divu	a2,s3,s1
   118b0:	6822                	ld	a6,8(sp)
   118b2:	0017c583          	lbu	a1,1(a5)
   118b6:	6ee2                	ld	t4,24(sp)
   118b8:	7342                	ld	t1,48(sp)
   118ba:	00b035b3          	snez	a1,a1
   118be:	97ae                	add	a5,a5,a1
   118c0:	f4be                	sd	a5,104(sp)
   118c2:	f002                	sd	zero,32(sp)
   118c4:	77e2                	ld	a5,56(sp)
   118c6:	4725                	li	a4,9
   118c8:	0ff00693          	li	a3,255
   118cc:	bf61                	j	11864 <_vfprintf_r+0x1000>
   118ce:	00068c1b          	sext.w	s8,a3
   118d2:	d98040e3          	bgtz	s8,11652 <_vfprintf_r+0xdee>
   118d6:	bb71                	j	11672 <_vfprintf_r+0xe0e>
   118d8:	0017061b          	addiw	a2,a4,1
   118dc:	010c0713          	addi	a4,s8,16
   118e0:	9db6                	add	s11,s11,a3
   118e2:	00dc3423          	sd	a3,8(s8)
   118e6:	012c3023          	sd	s2,0(s8)
   118ea:	f26e                	sd	s11,288(sp)
   118ec:	10c12c23          	sw	a2,280(sp)
   118f0:	469d                	li	a3,7
   118f2:	44c6d563          	bge	a3,a2,11d3c <_vfprintf_r+0x14d8>
   118f6:	0a10                	addi	a2,sp,272
   118f8:	85d2                	mv	a1,s4
   118fa:	8556                	mv	a0,s5
   118fc:	51e070ef          	jal	ra,18e1a <__sprint_r>
   11900:	b00512e3          	bnez	a0,11404 <_vfprintf_r+0xba0>
   11904:	11812603          	lw	a2,280(sp)
   11908:	7d92                	ld	s11,288(sp)
   1190a:	1a010313          	addi	t1,sp,416
   1190e:	2605                	addiw	a2,a2,1
   11910:	8c5e                	mv	s8,s7
   11912:	b665                	j	114ba <_vfprintf_r+0xc56>
   11914:	8826                	mv	a6,s1
   11916:	825ff06f          	j	1113a <_vfprintf_r+0x8d6>
   1191a:	0000b797          	auipc	a5,0xb
   1191e:	c6e78793          	addi	a5,a5,-914 # 1c588 <__clzdi2+0x12c>
   11922:	f43e                	sd	a5,40(sp)
   11924:	66c2                	ld	a3,16(sp)
   11926:	0204f793          	andi	a5,s1,32
   1192a:	00868713          	addi	a4,a3,8
   1192e:	c7f9                	beqz	a5,119fc <_vfprintf_r+0x1198>
   11930:	0006b983          	ld	s3,0(a3)
   11934:	0014f793          	andi	a5,s1,1
   11938:	cf81                	beqz	a5,11950 <_vfprintf_r+0x10ec>
   1193a:	00098b63          	beqz	s3,11950 <_vfprintf_r+0x10ec>
   1193e:	0024e493          	ori	s1,s1,2
   11942:	03000793          	li	a5,48
   11946:	0ef10023          	sb	a5,224(sp)
   1194a:	0fb100a3          	sb	s11,225(sp)
   1194e:	2481                	sext.w	s1,s1
   11950:	bff4f493          	andi	s1,s1,-1025
   11954:	0004881b          	sext.w	a6,s1
   11958:	e83a                	sd	a4,16(sp)
   1195a:	4789                	li	a5,2
   1195c:	ab4ff06f          	j	10c10 <_vfprintf_r+0x3ac>
   11960:	2004e493          	ori	s1,s1,512
   11964:	00144f03          	lbu	t5,1(s0)
   11968:	2481                	sext.w	s1,s1
   1196a:	0405                	addi	s0,s0,1
   1196c:	82cff06f          	j	10998 <_vfprintf_r+0x134>
   11970:	0204e493          	ori	s1,s1,32
   11974:	00144f03          	lbu	t5,1(s0)
   11978:	2481                	sext.w	s1,s1
   1197a:	0405                	addi	s0,s0,1
   1197c:	81cff06f          	j	10998 <_vfprintf_r+0x134>
   11980:	0a10                	addi	a2,sp,272
   11982:	85d2                	mv	a1,s4
   11984:	8556                	mv	a0,s5
   11986:	494070ef          	jal	ra,18e1a <__sprint_r>
   1198a:	a6051de3          	bnez	a0,11404 <_vfprintf_r+0xba0>
   1198e:	7792                	ld	a5,288(sp)
   11990:	835e                	mv	t1,s7
   11992:	ba09                	j	112a4 <_vfprintf_r+0xa40>
   11994:	0000b797          	auipc	a5,0xb
   11998:	bdc78793          	addi	a5,a5,-1060 # 1c570 <__clzdi2+0x114>
   1199c:	f43e                	sd	a5,40(sp)
   1199e:	b759                	j	11924 <_vfprintf_r+0x10c0>
   119a0:	4799                	li	a5,6
   119a2:	000e8c1b          	sext.w	s8,t4
   119a6:	3dd7eb63          	bltu	a5,t4,11d7c <_vfprintf_r+0x1518>
   119aa:	89e2                	mv	s3,s8
   119ac:	e836                	sd	a3,16(sp)
   119ae:	0000bc97          	auipc	s9,0xb
   119b2:	bf2c8c93          	addi	s9,s9,-1038 # 1c5a0 <__clzdi2+0x144>
   119b6:	854ff06f          	j	10a0a <_vfprintf_r+0x1a6>
   119ba:	11812703          	lw	a4,280(sp)
   119be:	218d5063          	bge	s10,s8,11bbe <_vfprintf_r+0x135a>
   119c2:	4d9d                	li	s11,7
   119c4:	a021                	j	119cc <_vfprintf_r+0x1168>
   119c6:	3c41                	addiw	s8,s8,-16
   119c8:	1f8d5b63          	bge	s10,s8,11bbe <_vfprintf_r+0x135a>
   119cc:	2705                	addiw	a4,a4,1
   119ce:	07c1                	addi	a5,a5,16
   119d0:	01233023          	sd	s2,0(t1)
   119d4:	01a33423          	sd	s10,8(t1)
   119d8:	f23e                	sd	a5,288(sp)
   119da:	10e12c23          	sw	a4,280(sp)
   119de:	0341                	addi	t1,t1,16
   119e0:	feedd3e3          	bge	s11,a4,119c6 <_vfprintf_r+0x1162>
   119e4:	0a10                	addi	a2,sp,272
   119e6:	85d2                	mv	a1,s4
   119e8:	8556                	mv	a0,s5
   119ea:	430070ef          	jal	ra,18e1a <__sprint_r>
   119ee:	a0051be3          	bnez	a0,11404 <_vfprintf_r+0xba0>
   119f2:	7792                	ld	a5,288(sp)
   119f4:	11812703          	lw	a4,280(sp)
   119f8:	835e                	mv	t1,s7
   119fa:	b7f1                	j	119c6 <_vfprintf_r+0x1162>
   119fc:	0104f793          	andi	a5,s1,16
   11a00:	c3cd                	beqz	a5,11aa2 <_vfprintf_r+0x123e>
   11a02:	67c2                	ld	a5,16(sp)
   11a04:	0007b983          	ld	s3,0(a5)
   11a08:	b735                	j	11934 <_vfprintf_r+0x10d0>
   11a0a:	0a10                	addi	a2,sp,272
   11a0c:	85d2                	mv	a1,s4
   11a0e:	8556                	mv	a0,s5
   11a10:	40a070ef          	jal	ra,18e1a <__sprint_r>
   11a14:	9e0518e3          	bnez	a0,11404 <_vfprintf_r+0xba0>
   11a18:	7d92                	ld	s11,288(sp)
   11a1a:	11812703          	lw	a4,280(sp)
   11a1e:	8c5e                	mv	s8,s7
   11a20:	b41d                	j	11446 <_vfprintf_r+0xbe2>
   11a22:	0a10                	addi	a2,sp,272
   11a24:	85d2                	mv	a1,s4
   11a26:	8556                	mv	a0,s5
   11a28:	3f2070ef          	jal	ra,18e1a <__sprint_r>
   11a2c:	9c051ce3          	bnez	a0,11404 <_vfprintf_r+0xba0>
   11a30:	7d92                	ld	s11,288(sp)
   11a32:	11812703          	lw	a4,280(sp)
   11a36:	8c5e                	mv	s8,s7
   11a38:	bc0d                	j	1146a <_vfprintf_r+0xc06>
   11a3a:	11812703          	lw	a4,280(sp)
   11a3e:	0000b697          	auipc	a3,0xb
   11a42:	b6a68693          	addi	a3,a3,-1174 # 1c5a8 <__clzdi2+0x14c>
   11a46:	00d33023          	sd	a3,0(t1)
   11a4a:	2705                	addiw	a4,a4,1
   11a4c:	4685                	li	a3,1
   11a4e:	0785                	addi	a5,a5,1
   11a50:	00d33423          	sd	a3,8(t1)
   11a54:	10e12c23          	sw	a4,280(sp)
   11a58:	0007069b          	sext.w	a3,a4
   11a5c:	f23e                	sd	a5,288(sp)
   11a5e:	471d                	li	a4,7
   11a60:	0341                	addi	t1,t1,16
   11a62:	2ed74363          	blt	a4,a3,11d48 <_vfprintf_r+0x14e4>
   11a66:	c4061363          	bnez	a2,10eac <_vfprintf_r+0x648>
   11a6a:	7682                	ld	a3,32(sp)
   11a6c:	0014f713          	andi	a4,s1,1
   11a70:	8f55                	or	a4,a4,a3
   11a72:	e319                	bnez	a4,11a78 <_vfprintf_r+0x1214>
   11a74:	850ff06f          	j	10ac4 <_vfprintf_r+0x260>
   11a78:	76e6                	ld	a3,120(sp)
   11a7a:	7746                	ld	a4,112(sp)
   11a7c:	00d33023          	sd	a3,0(t1)
   11a80:	11812683          	lw	a3,280(sp)
   11a84:	97ba                	add	a5,a5,a4
   11a86:	00e33423          	sd	a4,8(t1)
   11a8a:	2685                	addiw	a3,a3,1
   11a8c:	0006871b          	sext.w	a4,a3
   11a90:	10d12c23          	sw	a3,280(sp)
   11a94:	f23e                	sd	a5,288(sp)
   11a96:	469d                	li	a3,7
   11a98:	c2e6cd63          	blt	a3,a4,10ed2 <_vfprintf_r+0x66e>
   11a9c:	0341                	addi	t1,t1,16
   11a9e:	c54ff06f          	j	10ef2 <_vfprintf_r+0x68e>
   11aa2:	66c2                	ld	a3,16(sp)
   11aa4:	0404f793          	andi	a5,s1,64
   11aa8:	0006a983          	lw	s3,0(a3)
   11aac:	cbe1                	beqz	a5,11b7c <_vfprintf_r+0x1318>
   11aae:	19c2                	slli	s3,s3,0x30
   11ab0:	0309d993          	srli	s3,s3,0x30
   11ab4:	b541                	j	11934 <_vfprintf_r+0x10d0>
   11ab6:	0a10                	addi	a2,sp,272
   11ab8:	85d2                	mv	a1,s4
   11aba:	8556                	mv	a0,s5
   11abc:	35e070ef          	jal	ra,18e1a <__sprint_r>
   11ac0:	940512e3          	bnez	a0,11404 <_vfprintf_r+0xba0>
   11ac4:	7792                	ld	a5,288(sp)
   11ac6:	835e                	mv	t1,s7
   11ac8:	faeff06f          	j	11276 <_vfprintf_r+0xa12>
   11acc:	0017069b          	addiw	a3,a4,1
   11ad0:	8736                	mv	a4,a3
   11ad2:	97e2                	add	a5,a5,s8
   11ad4:	01233023          	sd	s2,0(t1)
   11ad8:	fdbfe06f          	j	10ab2 <_vfprintf_r+0x24e>
   11adc:	6512                	ld	a0,256(sp)
   11ade:	65b2                	ld	a1,264(sp)
   11ae0:	4601                	li	a2,0
   11ae2:	4681                	li	a3,0
   11ae4:	e41a                	sd	t1,8(sp)
   11ae6:	6dc090ef          	jal	ra,1b1c2 <__letf2>
   11aea:	6322                	ld	t1,8(sp)
   11aec:	54054763          	bltz	a0,1203a <_vfprintf_r+0x17d6>
   11af0:	0df14783          	lbu	a5,223(sp)
   11af4:	04700713          	li	a4,71
   11af8:	0000bc97          	auipc	s9,0xb
   11afc:	a58c8c93          	addi	s9,s9,-1448 # 1c550 <__clzdi2+0xf4>
   11b00:	25b74f63          	blt	a4,s11,11d5e <_vfprintf_r+0x14fa>
   11b04:	f7f4f493          	andi	s1,s1,-129
   11b08:	ec02                	sd	zero,24(sp)
   11b0a:	e882                	sd	zero,80(sp)
   11b0c:	f082                	sd	zero,96(sp)
   11b0e:	ec82                	sd	zero,88(sp)
   11b10:	2481                	sext.w	s1,s1
   11b12:	498d                	li	s3,3
   11b14:	4c0d                	li	s8,3
   11b16:	4e81                	li	t4,0
   11b18:	8c079863          	bnez	a5,10be8 <_vfprintf_r+0x384>
   11b1c:	ef9fe06f          	j	10a14 <_vfprintf_r+0x1b0>
   11b20:	8566                	mv	a0,s9
   11b22:	e41a                	sd	t1,8(sp)
   11b24:	e836                	sd	a3,16(sp)
   11b26:	cabfe0ef          	jal	ra,107d0 <strlen>
   11b2a:	00050c1b          	sext.w	s8,a0
   11b2e:	fffc4993          	not	s3,s8
   11b32:	0df14783          	lbu	a5,223(sp)
   11b36:	43f9d993          	srai	s3,s3,0x3f
   11b3a:	013c79b3          	and	s3,s8,s3
   11b3e:	ec02                	sd	zero,24(sp)
   11b40:	e882                	sd	zero,80(sp)
   11b42:	f082                	sd	zero,96(sp)
   11b44:	ec82                	sd	zero,88(sp)
   11b46:	6322                	ld	t1,8(sp)
   11b48:	2981                	sext.w	s3,s3
   11b4a:	4e81                	li	t4,0
   11b4c:	88079e63          	bnez	a5,10be8 <_vfprintf_r+0x384>
   11b50:	ec5fe06f          	j	10a14 <_vfprintf_r+0x1b0>
   11b54:	20087793          	andi	a5,a6,512
   11b58:	26078463          	beqz	a5,11dc0 <_vfprintf_r+0x155c>
   11b5c:	0ff9f993          	andi	s3,s3,255
   11b60:	e83a                	sd	a4,16(sp)
   11b62:	4785                	li	a5,1
   11b64:	8acff06f          	j	10c10 <_vfprintf_r+0x3ac>
   11b68:	2004f793          	andi	a5,s1,512
   11b6c:	24078463          	beqz	a5,11db4 <_vfprintf_r+0x1550>
   11b70:	67c2                	ld	a5,16(sp)
   11b72:	00078983          	lb	s3,0(a5)
   11b76:	87ce                	mv	a5,s3
   11b78:	82eff06f          	j	10ba6 <_vfprintf_r+0x342>
   11b7c:	2004f793          	andi	a5,s1,512
   11b80:	24078763          	beqz	a5,11dce <_vfprintf_r+0x156a>
   11b84:	0ff9f993          	andi	s3,s3,255
   11b88:	b375                	j	11934 <_vfprintf_r+0x10d0>
   11b8a:	2004f793          	andi	a5,s1,512
   11b8e:	20078e63          	beqz	a5,11daa <_vfprintf_r+0x1546>
   11b92:	0ff9f993          	andi	s3,s3,255
   11b96:	86eff06f          	j	10c04 <_vfprintf_r+0x3a0>
   11b9a:	67b2                	ld	a5,264(sp)
   11b9c:	2207cd63          	bltz	a5,11dd6 <_vfprintf_r+0x1572>
   11ba0:	0df14783          	lbu	a5,223(sp)
   11ba4:	04700713          	li	a4,71
   11ba8:	0000bc97          	auipc	s9,0xb
   11bac:	9b8c8c93          	addi	s9,s9,-1608 # 1c560 <__clzdi2+0x104>
   11bb0:	f5b75ae3          	bge	a4,s11,11b04 <_vfprintf_r+0x12a0>
   11bb4:	0000bc97          	auipc	s9,0xb
   11bb8:	9b4c8c93          	addi	s9,s9,-1612 # 1c568 <__clzdi2+0x10c>
   11bbc:	b7a1                	j	11b04 <_vfprintf_r+0x12a0>
   11bbe:	0017069b          	addiw	a3,a4,1
   11bc2:	97e2                	add	a5,a5,s8
   11bc4:	01233023          	sd	s2,0(t1)
   11bc8:	01833423          	sd	s8,8(t1)
   11bcc:	f23e                	sd	a5,288(sp)
   11bce:	10d12c23          	sw	a3,280(sp)
   11bd2:	471d                	li	a4,7
   11bd4:	0341                	addi	t1,t1,16
   11bd6:	aad758e3          	bge	a4,a3,11686 <_vfprintf_r+0xe22>
   11bda:	0a10                	addi	a2,sp,272
   11bdc:	85d2                	mv	a1,s4
   11bde:	8556                	mv	a0,s5
   11be0:	23a070ef          	jal	ra,18e1a <__sprint_r>
   11be4:	820510e3          	bnez	a0,11404 <_vfprintf_r+0xba0>
   11be8:	7792                	ld	a5,288(sp)
   11bea:	835e                	mv	t1,s7
   11bec:	bc69                	j	11686 <_vfprintf_r+0xe22>
   11bee:	7702                	ld	a4,32(sp)
   11bf0:	4c1d                	li	s8,7
   11bf2:	9766                	add	a4,a4,s9
   11bf4:	f83a                	sd	a4,48(sp)
   11bf6:	7706                	ld	a4,96(sp)
   11bf8:	cb49                	beqz	a4,11c8a <_vfprintf_r+0x1426>
   11bfa:	6746                	ld	a4,80(sp)
   11bfc:	eb51                	bnez	a4,11c90 <_vfprintf_r+0x142c>
   11bfe:	7726                	ld	a4,104(sp)
   11c00:	177d                	addi	a4,a4,-1
   11c02:	f4ba                	sd	a4,104(sp)
   11c04:	7706                	ld	a4,96(sp)
   11c06:	377d                	addiw	a4,a4,-1
   11c08:	f0ba                	sd	a4,96(sp)
   11c0a:	674a                	ld	a4,144(sp)
   11c0c:	66aa                	ld	a3,136(sp)
   11c0e:	0341                	addi	t1,t1,16
   11c10:	fee33823          	sd	a4,-16(t1)
   11c14:	11812703          	lw	a4,280(sp)
   11c18:	97b6                	add	a5,a5,a3
   11c1a:	fed33c23          	sd	a3,-8(t1)
   11c1e:	2705                	addiw	a4,a4,1
   11c20:	f23e                	sd	a5,288(sp)
   11c22:	0007069b          	sext.w	a3,a4
   11c26:	10e12c23          	sw	a4,280(sp)
   11c2a:	0cdc4e63          	blt	s8,a3,11d06 <_vfprintf_r+0x14a2>
   11c2e:	7726                	ld	a4,104(sp)
   11c30:	00074603          	lbu	a2,0(a4)
   11c34:	7742                	ld	a4,48(sp)
   11c36:	41b705bb          	subw	a1,a4,s11
   11c3a:	0006071b          	sext.w	a4,a2
   11c3e:	0007069b          	sext.w	a3,a4
   11c42:	00e5d463          	bge	a1,a4,11c4a <_vfprintf_r+0x13e6>
   11c46:	0005869b          	sext.w	a3,a1
   11c4a:	02d05663          	blez	a3,11c76 <_vfprintf_r+0x1412>
   11c4e:	11812703          	lw	a4,280(sp)
   11c52:	97b6                	add	a5,a5,a3
   11c54:	01b33023          	sd	s11,0(t1)
   11c58:	0017061b          	addiw	a2,a4,1
   11c5c:	00d33423          	sd	a3,8(t1)
   11c60:	f23e                	sd	a5,288(sp)
   11c62:	10c12c23          	sw	a2,280(sp)
   11c66:	0acc4a63          	blt	s8,a2,11d1a <_vfprintf_r+0x14b6>
   11c6a:	7726                	ld	a4,104(sp)
   11c6c:	0341                	addi	t1,t1,16
   11c6e:	00074603          	lbu	a2,0(a4)
   11c72:	0006071b          	sext.w	a4,a2
   11c76:	fff6c593          	not	a1,a3
   11c7a:	95fd                	srai	a1,a1,0x3f
   11c7c:	8eed                	and	a3,a3,a1
   11c7e:	9f15                	subw	a4,a4,a3
   11c80:	00e04c63          	bgtz	a4,11c98 <_vfprintf_r+0x1434>
   11c84:	9db2                	add	s11,s11,a2
   11c86:	7706                	ld	a4,96(sp)
   11c88:	fb2d                	bnez	a4,11bfa <_vfprintf_r+0x1396>
   11c8a:	6746                	ld	a4,80(sp)
   11c8c:	30070463          	beqz	a4,11f94 <_vfprintf_r+0x1730>
   11c90:	6746                	ld	a4,80(sp)
   11c92:	377d                	addiw	a4,a4,-1
   11c94:	e8ba                	sd	a4,80(sp)
   11c96:	bf95                	j	11c0a <_vfprintf_r+0x13a6>
   11c98:	11812683          	lw	a3,280(sp)
   11c9c:	00ed4663          	blt	s10,a4,11ca8 <_vfprintf_r+0x1444>
   11ca0:	a081                	j	11ce0 <_vfprintf_r+0x147c>
   11ca2:	3741                	addiw	a4,a4,-16
   11ca4:	02ed5e63          	bge	s10,a4,11ce0 <_vfprintf_r+0x147c>
   11ca8:	2685                	addiw	a3,a3,1
   11caa:	07c1                	addi	a5,a5,16
   11cac:	01233023          	sd	s2,0(t1)
   11cb0:	01a33423          	sd	s10,8(t1)
   11cb4:	f23e                	sd	a5,288(sp)
   11cb6:	10d12c23          	sw	a3,280(sp)
   11cba:	0341                	addi	t1,t1,16
   11cbc:	fedc53e3          	bge	s8,a3,11ca2 <_vfprintf_r+0x143e>
   11cc0:	0a10                	addi	a2,sp,272
   11cc2:	85d2                	mv	a1,s4
   11cc4:	8556                	mv	a0,s5
   11cc6:	e43a                	sd	a4,8(sp)
   11cc8:	152070ef          	jal	ra,18e1a <__sprint_r>
   11ccc:	f2051c63          	bnez	a0,11404 <_vfprintf_r+0xba0>
   11cd0:	6722                	ld	a4,8(sp)
   11cd2:	7792                	ld	a5,288(sp)
   11cd4:	11812683          	lw	a3,280(sp)
   11cd8:	3741                	addiw	a4,a4,-16
   11cda:	835e                	mv	t1,s7
   11cdc:	fced46e3          	blt	s10,a4,11ca8 <_vfprintf_r+0x1444>
   11ce0:	2685                	addiw	a3,a3,1
   11ce2:	97ba                	add	a5,a5,a4
   11ce4:	00e33423          	sd	a4,8(t1)
   11ce8:	01233023          	sd	s2,0(t1)
   11cec:	f23e                	sd	a5,288(sp)
   11cee:	0006871b          	sext.w	a4,a3
   11cf2:	10d12c23          	sw	a3,280(sp)
   11cf6:	32ec4463          	blt	s8,a4,1201e <_vfprintf_r+0x17ba>
   11cfa:	7726                	ld	a4,104(sp)
   11cfc:	0341                	addi	t1,t1,16
   11cfe:	00074603          	lbu	a2,0(a4)
   11d02:	9db2                	add	s11,s11,a2
   11d04:	b749                	j	11c86 <_vfprintf_r+0x1422>
   11d06:	0a10                	addi	a2,sp,272
   11d08:	85d2                	mv	a1,s4
   11d0a:	8556                	mv	a0,s5
   11d0c:	10e070ef          	jal	ra,18e1a <__sprint_r>
   11d10:	ee051a63          	bnez	a0,11404 <_vfprintf_r+0xba0>
   11d14:	7792                	ld	a5,288(sp)
   11d16:	835e                	mv	t1,s7
   11d18:	bf19                	j	11c2e <_vfprintf_r+0x13ca>
   11d1a:	0a10                	addi	a2,sp,272
   11d1c:	85d2                	mv	a1,s4
   11d1e:	8556                	mv	a0,s5
   11d20:	e436                	sd	a3,8(sp)
   11d22:	0f8070ef          	jal	ra,18e1a <__sprint_r>
   11d26:	ec051f63          	bnez	a0,11404 <_vfprintf_r+0xba0>
   11d2a:	77a6                	ld	a5,104(sp)
   11d2c:	66a2                	ld	a3,8(sp)
   11d2e:	835e                	mv	t1,s7
   11d30:	0007c603          	lbu	a2,0(a5)
   11d34:	7792                	ld	a5,288(sp)
   11d36:	0006071b          	sext.w	a4,a2
   11d3a:	bf35                	j	11c76 <_vfprintf_r+0x1412>
   11d3c:	2605                	addiw	a2,a2,1
   11d3e:	01070313          	addi	t1,a4,16
   11d42:	8c3a                	mv	s8,a4
   11d44:	f76ff06f          	j	114ba <_vfprintf_r+0xc56>
   11d48:	0a10                	addi	a2,sp,272
   11d4a:	85d2                	mv	a1,s4
   11d4c:	8556                	mv	a0,s5
   11d4e:	0cc070ef          	jal	ra,18e1a <__sprint_r>
   11d52:	ea051963          	bnez	a0,11404 <_vfprintf_r+0xba0>
   11d56:	562e                	lw	a2,232(sp)
   11d58:	7792                	ld	a5,288(sp)
   11d5a:	835e                	mv	t1,s7
   11d5c:	b329                	j	11a66 <_vfprintf_r+0x1202>
   11d5e:	0000ac97          	auipc	s9,0xa
   11d62:	7fac8c93          	addi	s9,s9,2042 # 1c558 <__clzdi2+0xfc>
   11d66:	bb79                	j	11b04 <_vfprintf_r+0x12a0>
   11d68:	0a10                	addi	a2,sp,272
   11d6a:	85d2                	mv	a1,s4
   11d6c:	8556                	mv	a0,s5
   11d6e:	0ac070ef          	jal	ra,18e1a <__sprint_r>
   11d72:	e8051963          	bnez	a0,11404 <_vfprintf_r+0xba0>
   11d76:	7792                	ld	a5,288(sp)
   11d78:	835e                	mv	t1,s7
   11d7a:	b8e5                	j	11672 <_vfprintf_r+0xe0e>
   11d7c:	4c19                	li	s8,6
   11d7e:	b135                	j	119aa <_vfprintf_r+0x1146>
   11d80:	7682                	ld	a3,32(sp)
   11d82:	00dc8833          	add	a6,s9,a3
   11d86:	40e6873b          	subw	a4,a3,a4
   11d8a:	41b80ebb          	subw	t4,a6,s11
   11d8e:	0007069b          	sext.w	a3,a4
   11d92:	00ded363          	bge	t4,a3,11d98 <_vfprintf_r+0x1534>
   11d96:	8776                	mv	a4,t4
   11d98:	00070c9b          	sext.w	s9,a4
   11d9c:	b2bd                	j	1170a <_vfprintf_r+0xea6>
   11d9e:	6782                	ld	a5,0(sp)
   11da0:	8ca2                	mv	s9,s0
   11da2:	00f71023          	sh	a5,0(a4)
   11da6:	d51fe06f          	j	10af6 <_vfprintf_r+0x292>
   11daa:	1982                	slli	s3,s3,0x20
   11dac:	0209d993          	srli	s3,s3,0x20
   11db0:	e55fe06f          	j	10c04 <_vfprintf_r+0x3a0>
   11db4:	67c2                	ld	a5,16(sp)
   11db6:	0007a983          	lw	s3,0(a5)
   11dba:	87ce                	mv	a5,s3
   11dbc:	debfe06f          	j	10ba6 <_vfprintf_r+0x342>
   11dc0:	1982                	slli	s3,s3,0x20
   11dc2:	0209d993          	srli	s3,s3,0x20
   11dc6:	e83a                	sd	a4,16(sp)
   11dc8:	4785                	li	a5,1
   11dca:	e47fe06f          	j	10c10 <_vfprintf_r+0x3ac>
   11dce:	1982                	slli	s3,s3,0x20
   11dd0:	0209d993          	srli	s3,s3,0x20
   11dd4:	b685                	j	11934 <_vfprintf_r+0x10d0>
   11dd6:	02d00793          	li	a5,45
   11dda:	0cf10fa3          	sb	a5,223(sp)
   11dde:	b3d9                	j	11ba4 <_vfprintf_r+0x1340>
   11de0:	0a10                	addi	a2,sp,272
   11de2:	85d2                	mv	a1,s4
   11de4:	8556                	mv	a0,s5
   11de6:	034070ef          	jal	ra,18e1a <__sprint_r>
   11dea:	d1dfe06f          	j	10b06 <_vfprintf_r+0x2a2>
   11dee:	03000793          	li	a5,48
   11df2:	0ef10023          	sb	a5,224(sp)
   11df6:	05800713          	li	a4,88
   11dfa:	0024e793          	ori	a5,s1,2
   11dfe:	2781                	sext.w	a5,a5
   11e00:	0ee100a3          	sb	a4,225(sp)
   11e04:	ed3e                	sd	a5,152(sp)
   11e06:	06300713          	li	a4,99
   11e0a:	ec02                	sd	zero,24(sp)
   11e0c:	12810c93          	addi	s9,sp,296
   11e10:	47d74563          	blt	a4,t4,1227a <_vfprintf_r+0x1a16>
   11e14:	69b2                	ld	s3,264(sp)
   11e16:	fdfdf713          	andi	a4,s11,-33
   11e1a:	1024e493          	ori	s1,s1,258
   11e1e:	f0ba                	sd	a4,96(sp)
   11e20:	e582                	sd	zero,200(sp)
   11e22:	6c12                	ld	s8,256(sp)
   11e24:	2481                	sext.w	s1,s1
   11e26:	1e09c463          	bltz	s3,1200e <_vfprintf_r+0x17aa>
   11e2a:	06100793          	li	a5,97
   11e2e:	52fd8c63          	beq	s11,a5,12366 <_vfprintf_r+0x1b02>
   11e32:	04100793          	li	a5,65
   11e36:	00fd8463          	beq	s11,a5,11e3e <_vfprintf_r+0x15da>
   11e3a:	eb7fe06f          	j	10cf0 <_vfprintf_r+0x48c>
   11e3e:	85ce                	mv	a1,s3
   11e40:	8562                	mv	a0,s8
   11e42:	fc1a                	sd	t1,56(sp)
   11e44:	f876                	sd	t4,48(sp)
   11e46:	3e40a0ef          	jal	ra,1c22a <__trunctfdf2>
   11e4a:	11a8                	addi	a0,sp,232
   11e4c:	75d040ef          	jal	ra,16da8 <frexp>
   11e50:	31a0a0ef          	jal	ra,1c16a <__extenddftf2>
   11e54:	0000b797          	auipc	a5,0xb
   11e58:	90c78793          	addi	a5,a5,-1780 # 1c760 <zeroes.4521+0x30>
   11e5c:	6390                	ld	a2,0(a5)
   11e5e:	6794                	ld	a3,8(a5)
   11e60:	40a090ef          	jal	ra,1b26a <__multf3>
   11e64:	4601                	li	a2,0
   11e66:	4681                	li	a3,0
   11e68:	f02a                	sd	a0,32(sp)
   11e6a:	e42e                	sd	a1,8(sp)
   11e6c:	21a090ef          	jal	ra,1b086 <__eqtf2>
   11e70:	62a2                	ld	t0,8(sp)
   11e72:	7702                	ld	a4,32(sp)
   11e74:	7ec2                	ld	t4,48(sp)
   11e76:	7362                	ld	t1,56(sp)
   11e78:	e119                	bnez	a0,11e7e <_vfprintf_r+0x161a>
   11e7a:	4785                	li	a5,1
   11e7c:	d5be                	sw	a5,232(sp)
   11e7e:	0000a797          	auipc	a5,0xa
   11e82:	6f278793          	addi	a5,a5,1778 # 1c570 <__clzdi2+0x114>
   11e86:	e8be                	sd	a5,80(sp)
   11e88:	020e9793          	slli	a5,t4,0x20
   11e8c:	0000b697          	auipc	a3,0xb
   11e90:	8b468693          	addi	a3,a3,-1868 # 1c740 <zeroes.4521+0x10>
   11e94:	9381                	srli	a5,a5,0x20
   11e96:	6290                	ld	a2,0(a3)
   11e98:	0785                	addi	a5,a5,1
   11e9a:	6694                	ld	a3,8(a3)
   11e9c:	97e6                	add	a5,a5,s9
   11e9e:	f13e                	sd	a5,160(sp)
   11ea0:	01dc87bb          	addw	a5,s9,t4
   11ea4:	fd32                	sd	a2,184(sp)
   11ea6:	e1b6                	sd	a3,192(sp)
   11ea8:	8c66                	mv	s8,s9
   11eaa:	db3e                	sw	a5,180(sp)
   11eac:	a831                	j	11ec8 <_vfprintf_r+0x1664>
   11eae:	4601                	li	a2,0
   11eb0:	4681                	li	a3,0
   11eb2:	e4ae                	sd	a1,72(sp)
   11eb4:	e0aa                	sd	a0,64(sp)
   11eb6:	1d0090ef          	jal	ra,1b086 <__eqtf2>
   11eba:	7ec2                	ld	t4,48(sp)
   11ebc:	7362                	ld	t1,56(sp)
   11ebe:	6f86                	ld	t6,64(sp)
   11ec0:	68a6                	ld	a7,72(sp)
   11ec2:	62a2                	ld	t0,8(sp)
   11ec4:	7702                	ld	a4,32(sp)
   11ec6:	c135                	beqz	a0,11f2a <_vfprintf_r+0x16c6>
   11ec8:	766a                	ld	a2,184(sp)
   11eca:	668e                	ld	a3,192(sp)
   11ecc:	853a                	mv	a0,a4
   11ece:	8596                	mv	a1,t0
   11ed0:	fc1a                	sd	t1,56(sp)
   11ed2:	f876                	sd	t4,48(sp)
   11ed4:	396090ef          	jal	ra,1b26a <__multf3>
   11ed8:	e42e                	sd	a1,8(sp)
   11eda:	f02a                	sd	a0,32(sp)
   11edc:	19c0a0ef          	jal	ra,1c078 <__fixtfsi>
   11ee0:	0005099b          	sext.w	s3,a0
   11ee4:	854e                	mv	a0,s3
   11ee6:	2280a0ef          	jal	ra,1c10e <__floatsitf>
   11eea:	7882                	ld	a7,32(sp)
   11eec:	6722                	ld	a4,8(sp)
   11eee:	862a                	mv	a2,a0
   11ef0:	86ae                	mv	a3,a1
   11ef2:	8546                	mv	a0,a7
   11ef4:	85ba                	mv	a1,a4
   11ef6:	187090ef          	jal	ra,1b87c <__subtf3>
   11efa:	67c6                	ld	a5,80(sp)
   11efc:	f562                	sd	s8,168(sp)
   11efe:	0c05                	addi	s8,s8,1
   11f00:	01378733          	add	a4,a5,s3
   11f04:	57da                	lw	a5,180(sp)
   11f06:	00074703          	lbu	a4,0(a4)
   11f0a:	f02a                	sd	a0,32(sp)
   11f0c:	418787bb          	subw	a5,a5,s8
   11f10:	ecbe                	sd	a5,88(sp)
   11f12:	778a                	ld	a5,160(sp)
   11f14:	feec0fa3          	sb	a4,-1(s8)
   11f18:	e42e                	sd	a1,8(sp)
   11f1a:	7ec2                	ld	t4,48(sp)
   11f1c:	7362                	ld	t1,56(sp)
   11f1e:	8faa                	mv	t6,a0
   11f20:	88ae                	mv	a7,a1
   11f22:	f98796e3          	bne	a5,s8,11eae <_vfprintf_r+0x164a>
   11f26:	57fd                	li	a5,-1
   11f28:	ecbe                	sd	a5,88(sp)
   11f2a:	0000b717          	auipc	a4,0xb
   11f2e:	82670713          	addi	a4,a4,-2010 # 1c750 <zeroes.4521+0x20>
   11f32:	6310                	ld	a2,0(a4)
   11f34:	6714                	ld	a3,8(a4)
   11f36:	857e                	mv	a0,t6
   11f38:	85c6                	mv	a1,a7
   11f3a:	f01a                	sd	t1,32(sp)
   11f3c:	e476                	sd	t4,8(sp)
   11f3e:	e4fe                	sd	t6,72(sp)
   11f40:	e0b2                	sd	a2,64(sp)
   11f42:	fc36                	sd	a3,56(sp)
   11f44:	f846                	sd	a7,48(sp)
   11f46:	1d4090ef          	jal	ra,1b11a <__getf2>
   11f4a:	6ea2                	ld	t4,8(sp)
   11f4c:	7302                	ld	t1,32(sp)
   11f4e:	2ca04f63          	bgtz	a0,1222c <_vfprintf_r+0x19c8>
   11f52:	6fa6                	ld	t6,72(sp)
   11f54:	78c2                	ld	a7,48(sp)
   11f56:	6606                	ld	a2,64(sp)
   11f58:	76e2                	ld	a3,56(sp)
   11f5a:	857e                	mv	a0,t6
   11f5c:	85c6                	mv	a1,a7
   11f5e:	128090ef          	jal	ra,1b086 <__eqtf2>
   11f62:	6ea2                	ld	t4,8(sp)
   11f64:	7302                	ld	t1,32(sp)
   11f66:	e509                	bnez	a0,11f70 <_vfprintf_r+0x170c>
   11f68:	0019f993          	andi	s3,s3,1
   11f6c:	2c099063          	bnez	s3,1222c <_vfprintf_r+0x19c8>
   11f70:	67e6                	ld	a5,88(sp)
   11f72:	03000693          	li	a3,48
   11f76:	00178713          	addi	a4,a5,1
   11f7a:	9762                	add	a4,a4,s8
   11f7c:	0007c763          	bltz	a5,11f8a <_vfprintf_r+0x1726>
   11f80:	0c05                	addi	s8,s8,1
   11f82:	fedc0fa3          	sb	a3,-1(s8)
   11f86:	ff871de3          	bne	a4,s8,11f80 <_vfprintf_r+0x171c>
   11f8a:	419c07bb          	subw	a5,s8,s9
   11f8e:	f03e                	sd	a5,32(sp)
   11f90:	de5fe06f          	j	10d74 <_vfprintf_r+0x510>
   11f94:	7702                	ld	a4,32(sp)
   11f96:	9766                	add	a4,a4,s9
   11f98:	efb77e63          	bgeu	a4,s11,11694 <_vfprintf_r+0xe30>
   11f9c:	8dba                	mv	s11,a4
   11f9e:	ef6ff06f          	j	11694 <_vfprintf_r+0xe30>
   11fa2:	6766                	ld	a4,88(sp)
   11fa4:	57f5                	li	a5,-3
   11fa6:	00f74463          	blt	a4,a5,11fae <_vfprintf_r+0x174a>
   11faa:	00eed863          	bge	t4,a4,11fba <_vfprintf_r+0x1756>
   11fae:	3df9                	addiw	s11,s11,-2
   11fb0:	fdfdf793          	andi	a5,s11,-33
   11fb4:	f0be                	sd	a5,96(sp)
   11fb6:	ddffe06f          	j	10d94 <_vfprintf_r+0x530>
   11fba:	7782                	ld	a5,32(sp)
   11fbc:	6766                	ld	a4,88(sp)
   11fbe:	16f74563          	blt	a4,a5,12128 <_vfprintf_r+0x18c4>
   11fc2:	67ea                	ld	a5,152(sp)
   11fc4:	8c3a                	mv	s8,a4
   11fc6:	8b85                	andi	a5,a5,1
   11fc8:	c781                	beqz	a5,11fd0 <_vfprintf_r+0x176c>
   11fca:	77c6                	ld	a5,112(sp)
   11fcc:	00e78c3b          	addw	s8,a5,a4
   11fd0:	67ea                	ld	a5,152(sp)
   11fd2:	4007f793          	andi	a5,a5,1024
   11fd6:	c781                	beqz	a5,11fde <_vfprintf_r+0x177a>
   11fd8:	67e6                	ld	a5,88(sp)
   11fda:	30f04763          	bgtz	a5,122e8 <_vfprintf_r+0x1a84>
   11fde:	fffc4993          	not	s3,s8
   11fe2:	43f9d993          	srai	s3,s3,0x3f
   11fe6:	013c79b3          	and	s3,s8,s3
   11fea:	2981                	sext.w	s3,s3
   11fec:	06700d93          	li	s11,103
   11ff0:	e882                	sd	zero,80(sp)
   11ff2:	f082                	sd	zero,96(sp)
   11ff4:	e83fe06f          	j	10e76 <_vfprintf_r+0x612>
   11ff8:	0df14783          	lbu	a5,223(sp)
   11ffc:	4e81                	li	t4,0
   11ffe:	c399                	beqz	a5,12004 <_vfprintf_r+0x17a0>
   12000:	be9fe06f          	j	10be8 <_vfprintf_r+0x384>
   12004:	a11fe06f          	j	10a14 <_vfprintf_r+0x1b0>
   12008:	ed26                	sd	s1,152(sp)
   1200a:	ec02                	sd	zero,24(sp)
   1200c:	84fe                	mv	s1,t6
   1200e:	57fd                	li	a5,-1
   12010:	17fe                	slli	a5,a5,0x3f
   12012:	00f9c9b3          	xor	s3,s3,a5
   12016:	02d00793          	li	a5,45
   1201a:	e5be                	sd	a5,200(sp)
   1201c:	b539                	j	11e2a <_vfprintf_r+0x15c6>
   1201e:	0a10                	addi	a2,sp,272
   12020:	85d2                	mv	a1,s4
   12022:	8556                	mv	a0,s5
   12024:	5f7060ef          	jal	ra,18e1a <__sprint_r>
   12028:	bc051e63          	bnez	a0,11404 <_vfprintf_r+0xba0>
   1202c:	77a6                	ld	a5,104(sp)
   1202e:	835e                	mv	t1,s7
   12030:	0007c603          	lbu	a2,0(a5)
   12034:	7792                	ld	a5,288(sp)
   12036:	9db2                	add	s11,s11,a2
   12038:	b1b9                	j	11c86 <_vfprintf_r+0x1422>
   1203a:	02d00793          	li	a5,45
   1203e:	0cf10fa3          	sb	a5,223(sp)
   12042:	bc4d                	j	11af4 <_vfprintf_r+0x1290>
   12044:	8776                	mv	a4,t4
   12046:	11bc                	addi	a5,sp,232
   12048:	0f810893          	addi	a7,sp,248
   1204c:	0ec10813          	addi	a6,sp,236
   12050:	4689                	li	a3,2
   12052:	85e2                	mv	a1,s8
   12054:	864e                	mv	a2,s3
   12056:	8556                	mv	a0,s5
   12058:	f01a                	sd	t1,32(sp)
   1205a:	e476                	sd	t4,8(sp)
   1205c:	460020ef          	jal	ra,144bc <_ldtoa_r>
   12060:	7706                	ld	a4,96(sp)
   12062:	04700793          	li	a5,71
   12066:	6ea2                	ld	t4,8(sp)
   12068:	7302                	ld	t1,32(sp)
   1206a:	8caa                	mv	s9,a0
   1206c:	02f71d63          	bne	a4,a5,120a6 <_vfprintf_r+0x1842>
   12070:	67ea                	ld	a5,152(sp)
   12072:	8b85                	andi	a5,a5,1
   12074:	18079b63          	bnez	a5,1220a <_vfprintf_r+0x19a6>
   12078:	04700713          	li	a4,71
   1207c:	77ee                	ld	a5,248(sp)
   1207e:	f0ba                	sd	a4,96(sp)
   12080:	ceffe06f          	j	10d6e <_vfprintf_r+0x50a>
   12084:	8776                	mv	a4,t4
   12086:	0f810893          	addi	a7,sp,248
   1208a:	0ec10813          	addi	a6,sp,236
   1208e:	11bc                	addi	a5,sp,232
   12090:	468d                	li	a3,3
   12092:	85e2                	mv	a1,s8
   12094:	864e                	mv	a2,s3
   12096:	8556                	mv	a0,s5
   12098:	f01a                	sd	t1,32(sp)
   1209a:	e476                	sd	t4,8(sp)
   1209c:	420020ef          	jal	ra,144bc <_ldtoa_r>
   120a0:	6ea2                	ld	t4,8(sp)
   120a2:	7302                	ld	t1,32(sp)
   120a4:	8caa                	mv	s9,a0
   120a6:	7706                	ld	a4,96(sp)
   120a8:	04600793          	li	a5,70
   120ac:	01dc88b3          	add	a7,s9,t4
   120b0:	00f70463          	beq	a4,a5,120b8 <_vfprintf_r+0x1854>
   120b4:	c85fe06f          	j	10d38 <_vfprintf_r+0x4d4>
   120b8:	000cc703          	lbu	a4,0(s9)
   120bc:	03000793          	li	a5,48
   120c0:	00f70663          	beq	a4,a5,120cc <_vfprintf_r+0x1868>
   120c4:	572e                	lw	a4,232(sp)
   120c6:	98ba                	add	a7,a7,a4
   120c8:	c71fe06f          	j	10d38 <_vfprintf_r+0x4d4>
   120cc:	4601                	li	a2,0
   120ce:	4681                	li	a3,0
   120d0:	8562                	mv	a0,s8
   120d2:	85ce                	mv	a1,s3
   120d4:	f846                	sd	a7,48(sp)
   120d6:	f01a                	sd	t1,32(sp)
   120d8:	e476                	sd	t4,8(sp)
   120da:	7ad080ef          	jal	ra,1b086 <__eqtf2>
   120de:	6ea2                	ld	t4,8(sp)
   120e0:	7302                	ld	t1,32(sp)
   120e2:	78c2                	ld	a7,48(sp)
   120e4:	d165                	beqz	a0,120c4 <_vfprintf_r+0x1860>
   120e6:	4785                	li	a5,1
   120e8:	41d7873b          	subw	a4,a5,t4
   120ec:	d5ba                	sw	a4,232(sp)
   120ee:	98ba                	add	a7,a7,a4
   120f0:	c49fe06f          	j	10d38 <_vfprintf_r+0x4d4>
   120f4:	0a10                	addi	a2,sp,272
   120f6:	85d2                	mv	a1,s4
   120f8:	8556                	mv	a0,s5
   120fa:	521060ef          	jal	ra,18e1a <__sprint_r>
   120fe:	b0051363          	bnez	a0,11404 <_vfprintf_r+0xba0>
   12102:	572e                	lw	a4,232(sp)
   12104:	7792                	ld	a5,288(sp)
   12106:	835e                	mv	t1,s7
   12108:	dc2ff06f          	j	116ca <_vfprintf_r+0xe66>
   1210c:	0df14783          	lbu	a5,223(sp)
   12110:	e836                	sd	a3,16(sp)
   12112:	e882                	sd	zero,80(sp)
   12114:	f082                	sd	zero,96(sp)
   12116:	ec82                	sd	zero,88(sp)
   12118:	89f6                	mv	s3,t4
   1211a:	8c76                	mv	s8,t4
   1211c:	4e81                	li	t4,0
   1211e:	c399                	beqz	a5,12124 <_vfprintf_r+0x18c0>
   12120:	ac9fe06f          	j	10be8 <_vfprintf_r+0x384>
   12124:	8f1fe06f          	j	10a14 <_vfprintf_r+0x1b0>
   12128:	7702                	ld	a4,32(sp)
   1212a:	77c6                	ld	a5,112(sp)
   1212c:	06700d93          	li	s11,103
   12130:	00e78c3b          	addw	s8,a5,a4
   12134:	6766                	ld	a4,88(sp)
   12136:	2ce05263          	blez	a4,123fa <_vfprintf_r+0x1b96>
   1213a:	67ea                	ld	a5,152(sp)
   1213c:	4007f793          	andi	a5,a5,1024
   12140:	1a079663          	bnez	a5,122ec <_vfprintf_r+0x1a88>
   12144:	fffc4993          	not	s3,s8
   12148:	43f9d993          	srai	s3,s3,0x3f
   1214c:	013c79b3          	and	s3,s8,s3
   12150:	2981                	sext.w	s3,s3
   12152:	bd79                	j	11ff0 <_vfprintf_r+0x178c>
   12154:	67ea                	ld	a5,152(sp)
   12156:	6766                	ld	a4,88(sp)
   12158:	8b85                	andi	a5,a5,1
   1215a:	00fee7b3          	or	a5,t4,a5
   1215e:	2ae05c63          	blez	a4,12416 <_vfprintf_r+0x1bb2>
   12162:	26079d63          	bnez	a5,123dc <_vfprintf_r+0x1b78>
   12166:	6c66                	ld	s8,88(sp)
   12168:	06600d93          	li	s11,102
   1216c:	b7f9                	j	1213a <_vfprintf_r+0x18d6>
   1216e:	0a10                	addi	a2,sp,272
   12170:	85d2                	mv	a1,s4
   12172:	8556                	mv	a0,s5
   12174:	4a7060ef          	jal	ra,18e1a <__sprint_r>
   12178:	a8051663          	bnez	a0,11404 <_vfprintf_r+0xba0>
   1217c:	56ae                	lw	a3,232(sp)
   1217e:	7702                	ld	a4,32(sp)
   12180:	7792                	ld	a5,288(sp)
   12182:	835e                	mv	t1,s7
   12184:	40d706bb          	subw	a3,a4,a3
   12188:	d82ff06f          	j	1170a <_vfprintf_r+0xea6>
   1218c:	57fd                	li	a5,-1
   1218e:	e03e                	sd	a5,0(sp)
   12190:	985fe06f          	j	10b14 <_vfprintf_r+0x2b0>
   12194:	56c1                	li	a3,-16
   12196:	40c00c3b          	negw	s8,a2
   1219a:	02d65f63          	bge	a2,a3,121d8 <_vfprintf_r+0x1974>
   1219e:	4d9d                	li	s11,7
   121a0:	a021                	j	121a8 <_vfprintf_r+0x1944>
   121a2:	3c41                	addiw	s8,s8,-16
   121a4:	038d5a63          	bge	s10,s8,121d8 <_vfprintf_r+0x1974>
   121a8:	2705                	addiw	a4,a4,1
   121aa:	07c1                	addi	a5,a5,16
   121ac:	01233023          	sd	s2,0(t1)
   121b0:	01a33423          	sd	s10,8(t1)
   121b4:	f23e                	sd	a5,288(sp)
   121b6:	10e12c23          	sw	a4,280(sp)
   121ba:	0341                	addi	t1,t1,16
   121bc:	feedd3e3          	bge	s11,a4,121a2 <_vfprintf_r+0x193e>
   121c0:	0a10                	addi	a2,sp,272
   121c2:	85d2                	mv	a1,s4
   121c4:	8556                	mv	a0,s5
   121c6:	455060ef          	jal	ra,18e1a <__sprint_r>
   121ca:	a2051d63          	bnez	a0,11404 <_vfprintf_r+0xba0>
   121ce:	7792                	ld	a5,288(sp)
   121d0:	11812703          	lw	a4,280(sp)
   121d4:	835e                	mv	t1,s7
   121d6:	b7f1                	j	121a2 <_vfprintf_r+0x193e>
   121d8:	2705                	addiw	a4,a4,1
   121da:	97e2                	add	a5,a5,s8
   121dc:	01233023          	sd	s2,0(t1)
   121e0:	01833423          	sd	s8,8(t1)
   121e4:	f23e                	sd	a5,288(sp)
   121e6:	10e12c23          	sw	a4,280(sp)
   121ea:	469d                	li	a3,7
   121ec:	8ae6d8e3          	bge	a3,a4,11a9c <_vfprintf_r+0x1238>
   121f0:	0a10                	addi	a2,sp,272
   121f2:	85d2                	mv	a1,s4
   121f4:	8556                	mv	a0,s5
   121f6:	425060ef          	jal	ra,18e1a <__sprint_r>
   121fa:	a0051563          	bnez	a0,11404 <_vfprintf_r+0xba0>
   121fe:	7792                	ld	a5,288(sp)
   12200:	11812703          	lw	a4,280(sp)
   12204:	835e                	mv	t1,s7
   12206:	cedfe06f          	j	10ef2 <_vfprintf_r+0x68e>
   1220a:	04700793          	li	a5,71
   1220e:	01dc88b3          	add	a7,s9,t4
   12212:	f0be                	sd	a5,96(sp)
   12214:	b25fe06f          	j	10d38 <_vfprintf_r+0x4d4>
   12218:	8826                	mv	a6,s1
   1221a:	accff06f          	j	114e6 <_vfprintf_r+0xc82>
   1221e:	03000793          	li	a5,48
   12222:	0ef10023          	sb	a5,224(sp)
   12226:	07800713          	li	a4,120
   1222a:	bec1                	j	11dfa <_vfprintf_r+0x1596>
   1222c:	77aa                	ld	a5,168(sp)
   1222e:	8762                	mv	a4,s8
   12230:	fdbe                	sd	a5,248(sp)
   12232:	67c6                	ld	a5,80(sp)
   12234:	fffc4683          	lbu	a3,-1(s8)
   12238:	00f7c603          	lbu	a2,15(a5)
   1223c:	00d61e63          	bne	a2,a3,12258 <_vfprintf_r+0x19f4>
   12240:	03000593          	li	a1,48
   12244:	feb70fa3          	sb	a1,-1(a4)
   12248:	776e                	ld	a4,248(sp)
   1224a:	fff70693          	addi	a3,a4,-1
   1224e:	fdb6                	sd	a3,248(sp)
   12250:	fff74683          	lbu	a3,-1(a4)
   12254:	fed608e3          	beq	a2,a3,12244 <_vfprintf_r+0x19e0>
   12258:	0016861b          	addiw	a2,a3,1
   1225c:	03900593          	li	a1,57
   12260:	0ff67613          	andi	a2,a2,255
   12264:	00b68563          	beq	a3,a1,1226e <_vfprintf_r+0x1a0a>
   12268:	fec70fa3          	sb	a2,-1(a4)
   1226c:	bb39                	j	11f8a <_vfprintf_r+0x1726>
   1226e:	67c6                	ld	a5,80(sp)
   12270:	00a7c603          	lbu	a2,10(a5)
   12274:	fec70fa3          	sb	a2,-1(a4)
   12278:	bb09                	j	11f8a <_vfprintf_r+0x1726>
   1227a:	001e859b          	addiw	a1,t4,1
   1227e:	8556                	mv	a0,s5
   12280:	ec1a                	sd	t1,24(sp)
   12282:	e476                	sd	t4,8(sp)
   12284:	29e030ef          	jal	ra,15522 <_malloc_r>
   12288:	6ea2                	ld	t4,8(sp)
   1228a:	6362                	ld	t1,24(sp)
   1228c:	8caa                	mv	s9,a0
   1228e:	1e050063          	beqz	a0,1246e <_vfprintf_r+0x1c0a>
   12292:	ec2a                	sd	a0,24(sp)
   12294:	b641                	j	11e14 <_vfprintf_r+0x15b0>
   12296:	000e9363          	bnez	t4,1229c <_vfprintf_r+0x1a38>
   1229a:	4e85                	li	t4,1
   1229c:	69b2                	ld	s3,264(sp)
   1229e:	1004ef93          	ori	t6,s1,256
   122a2:	6c12                	ld	s8,256(sp)
   122a4:	2f81                	sext.w	t6,t6
   122a6:	d609c1e3          	bltz	s3,12008 <_vfprintf_r+0x17a4>
   122aa:	8776                	mv	a4,t4
   122ac:	0f810893          	addi	a7,sp,248
   122b0:	0ec10813          	addi	a6,sp,236
   122b4:	11bc                	addi	a5,sp,232
   122b6:	4689                	li	a3,2
   122b8:	85e2                	mv	a1,s8
   122ba:	864e                	mv	a2,s3
   122bc:	8556                	mv	a0,s5
   122be:	ec7e                	sd	t6,24(sp)
   122c0:	f01a                	sd	t1,32(sp)
   122c2:	e476                	sd	t4,8(sp)
   122c4:	1f8020ef          	jal	ra,144bc <_ldtoa_r>
   122c8:	6fe2                	ld	t6,24(sp)
   122ca:	ed26                	sd	s1,152(sp)
   122cc:	6ea2                	ld	t4,8(sp)
   122ce:	7302                	ld	t1,32(sp)
   122d0:	8caa                	mv	s9,a0
   122d2:	84fe                	mv	s1,t6
   122d4:	ec02                	sd	zero,24(sp)
   122d6:	e582                	sd	zero,200(sp)
   122d8:	bb61                	j	12070 <_vfprintf_r+0x180c>
   122da:	4e99                	li	t4,6
   122dc:	9fbfe06f          	j	10cd6 <_vfprintf_r+0x472>
   122e0:	c31c                	sw	a5,0(a4)
   122e2:	8ca2                	mv	s9,s0
   122e4:	813fe06f          	j	10af6 <_vfprintf_r+0x292>
   122e8:	06700d93          	li	s11,103
   122ec:	77a6                	ld	a5,104(sp)
   122ee:	0ff00713          	li	a4,255
   122f2:	e882                	sd	zero,80(sp)
   122f4:	0007c783          	lbu	a5,0(a5)
   122f8:	f082                	sd	zero,96(sp)
   122fa:	02e78863          	beq	a5,a4,1232a <_vfprintf_r+0x1ac6>
   122fe:	0ff00693          	li	a3,255
   12302:	6666                	ld	a2,88(sp)
   12304:	0007871b          	sext.w	a4,a5
   12308:	02c7d163          	bge	a5,a2,1232a <_vfprintf_r+0x1ac6>
   1230c:	75a6                	ld	a1,104(sp)
   1230e:	40e6073b          	subw	a4,a2,a4
   12312:	ecba                	sd	a4,88(sp)
   12314:	0015c783          	lbu	a5,1(a1)
   12318:	cf8d                	beqz	a5,12352 <_vfprintf_r+0x1aee>
   1231a:	7706                	ld	a4,96(sp)
   1231c:	2705                	addiw	a4,a4,1
   1231e:	f0ba                	sd	a4,96(sp)
   12320:	00158713          	addi	a4,a1,1
   12324:	f4ba                	sd	a4,104(sp)
   12326:	fcd79ee3          	bne	a5,a3,12302 <_vfprintf_r+0x1a9e>
   1232a:	7706                	ld	a4,96(sp)
   1232c:	67c6                	ld	a5,80(sp)
   1232e:	9fb9                	addw	a5,a5,a4
   12330:	672a                	ld	a4,136(sp)
   12332:	02e787bb          	mulw	a5,a5,a4
   12336:	018787bb          	addw	a5,a5,s8
   1233a:	00078c1b          	sext.w	s8,a5
   1233e:	fffc4993          	not	s3,s8
   12342:	43f9d993          	srai	s3,s3,0x3f
   12346:	0137f7b3          	and	a5,a5,s3
   1234a:	0007899b          	sext.w	s3,a5
   1234e:	b29fe06f          	j	10e76 <_vfprintf_r+0x612>
   12352:	6746                	ld	a4,80(sp)
   12354:	77a6                	ld	a5,104(sp)
   12356:	2705                	addiw	a4,a4,1
   12358:	0007c783          	lbu	a5,0(a5)
   1235c:	e8ba                	sd	a4,80(sp)
   1235e:	b7e1                	j	12326 <_vfprintf_r+0x1ac2>
   12360:	ec02                	sd	zero,24(sp)
   12362:	84be                	mv	s1,a5
   12364:	b16d                	j	1200e <_vfprintf_r+0x17aa>
   12366:	85ce                	mv	a1,s3
   12368:	8562                	mv	a0,s8
   1236a:	fc1a                	sd	t1,56(sp)
   1236c:	f876                	sd	t4,48(sp)
   1236e:	6bd090ef          	jal	ra,1c22a <__trunctfdf2>
   12372:	11a8                	addi	a0,sp,232
   12374:	235040ef          	jal	ra,16da8 <frexp>
   12378:	5f3090ef          	jal	ra,1c16a <__extenddftf2>
   1237c:	0000a797          	auipc	a5,0xa
   12380:	3e478793          	addi	a5,a5,996 # 1c760 <zeroes.4521+0x30>
   12384:	6390                	ld	a2,0(a5)
   12386:	6794                	ld	a3,8(a5)
   12388:	6e3080ef          	jal	ra,1b26a <__multf3>
   1238c:	4601                	li	a2,0
   1238e:	4681                	li	a3,0
   12390:	f02a                	sd	a0,32(sp)
   12392:	e42e                	sd	a1,8(sp)
   12394:	4f3080ef          	jal	ra,1b086 <__eqtf2>
   12398:	62a2                	ld	t0,8(sp)
   1239a:	7702                	ld	a4,32(sp)
   1239c:	7ec2                	ld	t4,48(sp)
   1239e:	7362                	ld	t1,56(sp)
   123a0:	e119                	bnez	a0,123a6 <_vfprintf_r+0x1b42>
   123a2:	4785                	li	a5,1
   123a4:	d5be                	sw	a5,232(sp)
   123a6:	0000a797          	auipc	a5,0xa
   123aa:	1e278793          	addi	a5,a5,482 # 1c588 <__clzdi2+0x12c>
   123ae:	e8be                	sd	a5,80(sp)
   123b0:	bce1                	j	11e88 <_vfprintf_r+0x1624>
   123b2:	0f210713          	addi	a4,sp,242
   123b6:	e699                	bnez	a3,123c4 <_vfprintf_r+0x1b60>
   123b8:	03000713          	li	a4,48
   123bc:	0ee10923          	sb	a4,242(sp)
   123c0:	0f310713          	addi	a4,sp,243
   123c4:	0c14                	addi	a3,sp,528
   123c6:	0307879b          	addiw	a5,a5,48
   123ca:	40d706b3          	sub	a3,a4,a3
   123ce:	00f70023          	sb	a5,0(a4)
   123d2:	1216879b          	addiw	a5,a3,289
   123d6:	e13e                	sd	a5,128(sp)
   123d8:	a65fe06f          	j	10e3c <_vfprintf_r+0x5d8>
   123dc:	77c6                	ld	a5,112(sp)
   123de:	06600d93          	li	s11,102
   123e2:	00e78c3b          	addw	s8,a5,a4
   123e6:	01dc0c3b          	addw	s8,s8,t4
   123ea:	bb81                	j	1213a <_vfprintf_r+0x18d6>
   123ec:	676a                	ld	a4,152(sp)
   123ee:	8b05                	andi	a4,a4,1
   123f0:	e319                	bnez	a4,123f6 <_vfprintf_r+0x1b92>
   123f2:	a65fe06f          	j	10e56 <_vfprintf_r+0x5f2>
   123f6:	a5bfe06f          	j	10e50 <_vfprintf_r+0x5ec>
   123fa:	40ec07bb          	subw	a5,s8,a4
   123fe:	2785                	addiw	a5,a5,1
   12400:	00078c1b          	sext.w	s8,a5
   12404:	fffc4993          	not	s3,s8
   12408:	43f9d993          	srai	s3,s3,0x3f
   1240c:	0137f7b3          	and	a5,a5,s3
   12410:	0007899b          	sext.w	s3,a5
   12414:	bef1                	j	11ff0 <_vfprintf_r+0x178c>
   12416:	e791                	bnez	a5,12422 <_vfprintf_r+0x1bbe>
   12418:	4985                	li	s3,1
   1241a:	06600d93          	li	s11,102
   1241e:	4c05                	li	s8,1
   12420:	bec1                	j	11ff0 <_vfprintf_r+0x178c>
   12422:	77c6                	ld	a5,112(sp)
   12424:	06600d93          	li	s11,102
   12428:	2785                	addiw	a5,a5,1
   1242a:	01d78ebb          	addw	t4,a5,t4
   1242e:	000e8c1b          	sext.w	s8,t4
   12432:	fffc4993          	not	s3,s8
   12436:	43f9d993          	srai	s3,s3,0x3f
   1243a:	013efeb3          	and	t4,t4,s3
   1243e:	000e899b          	sext.w	s3,t4
   12442:	b67d                	j	11ff0 <_vfprintf_r+0x178c>
   12444:	871a                	mv	a4,t1
   12446:	c9aff06f          	j	118e0 <_vfprintf_r+0x107c>
   1244a:	66c2                	ld	a3,16(sp)
   1244c:	4298                	lw	a4,0(a3)
   1244e:	06a1                	addi	a3,a3,8
   12450:	00070e9b          	sext.w	t4,a4
   12454:	00075363          	bgez	a4,1245a <_vfprintf_r+0x1bf6>
   12458:	5efd                	li	t4,-1
   1245a:	00144f03          	lbu	t5,1(s0)
   1245e:	e836                	sd	a3,16(sp)
   12460:	843e                	mv	s0,a5
   12462:	d36fe06f          	j	10998 <_vfprintf_r+0x134>
   12466:	4789                	li	a5,2
   12468:	e13e                	sd	a5,128(sp)
   1246a:	9d3fe06f          	j	10e3c <_vfprintf_r+0x5d8>
   1246e:	010a5783          	lhu	a5,16(s4)
   12472:	0407e793          	ori	a5,a5,64
   12476:	00fa1823          	sh	a5,16(s4)
   1247a:	e8cfe06f          	j	10b06 <_vfprintf_r+0x2a2>

000000000001247e <vfprintf>:
   1247e:	86b2                	mv	a3,a2
   12480:	862e                	mv	a2,a1
   12482:	85aa                	mv	a1,a0
   12484:	7581b503          	ld	a0,1880(gp) # 1f408 <_impure_ptr>
   12488:	bdcfe06f          	j	10864 <_vfprintf_r>

000000000001248c <__sbprintf>:
   1248c:	0105d783          	lhu	a5,16(a1)
   12490:	0ac5ae03          	lw	t3,172(a1)
   12494:	0125d303          	lhu	t1,18(a1)
   12498:	0305b883          	ld	a7,48(a1)
   1249c:	0405b803          	ld	a6,64(a1)
   124a0:	b3010113          	addi	sp,sp,-1232
   124a4:	9bf5                	andi	a5,a5,-3
   124a6:	40000713          	li	a4,1024
   124aa:	4c813023          	sd	s0,1216(sp)
   124ae:	00f11823          	sh	a5,16(sp)
   124b2:	842e                	mv	s0,a1
   124b4:	191c                	addi	a5,sp,176
   124b6:	858a                	mv	a1,sp
   124b8:	4a913c23          	sd	s1,1208(sp)
   124bc:	4b213823          	sd	s2,1200(sp)
   124c0:	4c113423          	sd	ra,1224(sp)
   124c4:	892a                	mv	s2,a0
   124c6:	d772                	sw	t3,172(sp)
   124c8:	00611923          	sh	t1,18(sp)
   124cc:	f846                	sd	a7,48(sp)
   124ce:	e0c2                	sd	a6,64(sp)
   124d0:	e03e                	sd	a5,0(sp)
   124d2:	ec3e                	sd	a5,24(sp)
   124d4:	c63a                	sw	a4,12(sp)
   124d6:	d03a                	sw	a4,32(sp)
   124d8:	d402                	sw	zero,40(sp)
   124da:	b8afe0ef          	jal	ra,10864 <_vfprintf_r>
   124de:	84aa                	mv	s1,a0
   124e0:	02055963          	bgez	a0,12512 <__sbprintf+0x86>
   124e4:	01015783          	lhu	a5,16(sp)
   124e8:	0407f793          	andi	a5,a5,64
   124ec:	c799                	beqz	a5,124fa <__sbprintf+0x6e>
   124ee:	01045783          	lhu	a5,16(s0)
   124f2:	0407e793          	ori	a5,a5,64
   124f6:	00f41823          	sh	a5,16(s0)
   124fa:	4c813083          	ld	ra,1224(sp)
   124fe:	4c013403          	ld	s0,1216(sp)
   12502:	4b013903          	ld	s2,1200(sp)
   12506:	8526                	mv	a0,s1
   12508:	4b813483          	ld	s1,1208(sp)
   1250c:	4d010113          	addi	sp,sp,1232
   12510:	8082                	ret
   12512:	858a                	mv	a1,sp
   12514:	854a                	mv	a0,s2
   12516:	354000ef          	jal	ra,1286a <_fflush_r>
   1251a:	d569                	beqz	a0,124e4 <__sbprintf+0x58>
   1251c:	54fd                	li	s1,-1
   1251e:	b7d9                	j	124e4 <__sbprintf+0x58>

0000000000012520 <__swsetup_r>:
   12520:	1101                	addi	sp,sp,-32
   12522:	e822                	sd	s0,16(sp)
   12524:	e426                	sd	s1,8(sp)
   12526:	ec06                	sd	ra,24(sp)
   12528:	7581b783          	ld	a5,1880(gp) # 1f408 <_impure_ptr>
   1252c:	84aa                	mv	s1,a0
   1252e:	842e                	mv	s0,a1
   12530:	c399                	beqz	a5,12536 <__swsetup_r+0x16>
   12532:	4bb8                	lw	a4,80(a5)
   12534:	cf49                	beqz	a4,125ce <__swsetup_r+0xae>
   12536:	01041703          	lh	a4,16(s0)
   1253a:	03071793          	slli	a5,a4,0x30
   1253e:	00877693          	andi	a3,a4,8
   12542:	93c1                	srli	a5,a5,0x30
   12544:	c29d                	beqz	a3,1256a <__swsetup_r+0x4a>
   12546:	6c14                	ld	a3,24(s0)
   12548:	ce9d                	beqz	a3,12586 <__swsetup_r+0x66>
   1254a:	0017f613          	andi	a2,a5,1
   1254e:	ce39                	beqz	a2,125ac <__swsetup_r+0x8c>
   12550:	5010                	lw	a2,32(s0)
   12552:	00042623          	sw	zero,12(s0)
   12556:	4501                	li	a0,0
   12558:	40c0063b          	negw	a2,a2
   1255c:	d410                	sw	a2,40(s0)
   1255e:	ceb9                	beqz	a3,125bc <__swsetup_r+0x9c>
   12560:	60e2                	ld	ra,24(sp)
   12562:	6442                	ld	s0,16(sp)
   12564:	64a2                	ld	s1,8(sp)
   12566:	6105                	addi	sp,sp,32
   12568:	8082                	ret
   1256a:	0107f693          	andi	a3,a5,16
   1256e:	cac1                	beqz	a3,125fe <__swsetup_r+0xde>
   12570:	8b91                	andi	a5,a5,4
   12572:	e3b5                	bnez	a5,125d6 <__swsetup_r+0xb6>
   12574:	6c14                	ld	a3,24(s0)
   12576:	00876713          	ori	a4,a4,8
   1257a:	03071793          	slli	a5,a4,0x30
   1257e:	00e41823          	sh	a4,16(s0)
   12582:	93c1                	srli	a5,a5,0x30
   12584:	f2f9                	bnez	a3,1254a <__swsetup_r+0x2a>
   12586:	2807f613          	andi	a2,a5,640
   1258a:	20000593          	li	a1,512
   1258e:	fab60ee3          	beq	a2,a1,1254a <__swsetup_r+0x2a>
   12592:	85a2                	mv	a1,s0
   12594:	8526                	mv	a0,s1
   12596:	6d1020ef          	jal	ra,15466 <__smakebuf_r>
   1259a:	01041703          	lh	a4,16(s0)
   1259e:	6c14                	ld	a3,24(s0)
   125a0:	03071793          	slli	a5,a4,0x30
   125a4:	93c1                	srli	a5,a5,0x30
   125a6:	0017f613          	andi	a2,a5,1
   125aa:	f25d                	bnez	a2,12550 <__swsetup_r+0x30>
   125ac:	0027f613          	andi	a2,a5,2
   125b0:	4581                	li	a1,0
   125b2:	e211                	bnez	a2,125b6 <__swsetup_r+0x96>
   125b4:	500c                	lw	a1,32(s0)
   125b6:	c44c                	sw	a1,12(s0)
   125b8:	4501                	li	a0,0
   125ba:	f2dd                	bnez	a3,12560 <__swsetup_r+0x40>
   125bc:	0807f793          	andi	a5,a5,128
   125c0:	d3c5                	beqz	a5,12560 <__swsetup_r+0x40>
   125c2:	04076713          	ori	a4,a4,64
   125c6:	00e41823          	sh	a4,16(s0)
   125ca:	557d                	li	a0,-1
   125cc:	bf51                	j	12560 <__swsetup_r+0x40>
   125ce:	853e                	mv	a0,a5
   125d0:	530000ef          	jal	ra,12b00 <__sinit>
   125d4:	b78d                	j	12536 <__swsetup_r+0x16>
   125d6:	6c2c                	ld	a1,88(s0)
   125d8:	cd81                	beqz	a1,125f0 <__swsetup_r+0xd0>
   125da:	07440793          	addi	a5,s0,116
   125de:	00f58763          	beq	a1,a5,125ec <__swsetup_r+0xcc>
   125e2:	8526                	mv	a0,s1
   125e4:	656000ef          	jal	ra,12c3a <_free_r>
   125e8:	01041703          	lh	a4,16(s0)
   125ec:	04043c23          	sd	zero,88(s0)
   125f0:	6c14                	ld	a3,24(s0)
   125f2:	fdb77713          	andi	a4,a4,-37
   125f6:	00042423          	sw	zero,8(s0)
   125fa:	e014                	sd	a3,0(s0)
   125fc:	bfad                	j	12576 <__swsetup_r+0x56>
   125fe:	47a5                	li	a5,9
   12600:	c09c                	sw	a5,0(s1)
   12602:	04076713          	ori	a4,a4,64
   12606:	00e41823          	sh	a4,16(s0)
   1260a:	557d                	li	a0,-1
   1260c:	bf91                	j	12560 <__swsetup_r+0x40>

000000000001260e <__call_exitprocs>:
   1260e:	715d                	addi	sp,sp,-80
   12610:	f052                	sd	s4,32(sp)
   12612:	7481ba03          	ld	s4,1864(gp) # 1f3f8 <_global_impure_ptr>
   12616:	f84a                	sd	s2,48(sp)
   12618:	1f8a3903          	ld	s2,504(s4)
   1261c:	e486                	sd	ra,72(sp)
   1261e:	e0a2                	sd	s0,64(sp)
   12620:	fc26                	sd	s1,56(sp)
   12622:	f44e                	sd	s3,40(sp)
   12624:	ec56                	sd	s5,24(sp)
   12626:	e85a                	sd	s6,16(sp)
   12628:	e45e                	sd	s7,8(sp)
   1262a:	e062                	sd	s8,0(sp)
   1262c:	02090863          	beqz	s2,1265c <__call_exitprocs+0x4e>
   12630:	8b2a                	mv	s6,a0
   12632:	8bae                	mv	s7,a1
   12634:	4a85                	li	s5,1
   12636:	59fd                	li	s3,-1
   12638:	00892483          	lw	s1,8(s2)
   1263c:	fff4841b          	addiw	s0,s1,-1
   12640:	00044e63          	bltz	s0,1265c <__call_exitprocs+0x4e>
   12644:	048e                	slli	s1,s1,0x3
   12646:	94ca                	add	s1,s1,s2
   12648:	020b8663          	beqz	s7,12674 <__call_exitprocs+0x66>
   1264c:	2084b783          	ld	a5,520(s1)
   12650:	03778263          	beq	a5,s7,12674 <__call_exitprocs+0x66>
   12654:	347d                	addiw	s0,s0,-1
   12656:	14e1                	addi	s1,s1,-8
   12658:	ff3418e3          	bne	s0,s3,12648 <__call_exitprocs+0x3a>
   1265c:	60a6                	ld	ra,72(sp)
   1265e:	6406                	ld	s0,64(sp)
   12660:	74e2                	ld	s1,56(sp)
   12662:	7942                	ld	s2,48(sp)
   12664:	79a2                	ld	s3,40(sp)
   12666:	7a02                	ld	s4,32(sp)
   12668:	6ae2                	ld	s5,24(sp)
   1266a:	6b42                	ld	s6,16(sp)
   1266c:	6ba2                	ld	s7,8(sp)
   1266e:	6c02                	ld	s8,0(sp)
   12670:	6161                	addi	sp,sp,80
   12672:	8082                	ret
   12674:	00892783          	lw	a5,8(s2)
   12678:	6498                	ld	a4,8(s1)
   1267a:	37fd                	addiw	a5,a5,-1
   1267c:	04878463          	beq	a5,s0,126c4 <__call_exitprocs+0xb6>
   12680:	0004b423          	sd	zero,8(s1)
   12684:	db61                	beqz	a4,12654 <__call_exitprocs+0x46>
   12686:	31092783          	lw	a5,784(s2)
   1268a:	008a96bb          	sllw	a3,s5,s0
   1268e:	00892c03          	lw	s8,8(s2)
   12692:	8ff5                	and	a5,a5,a3
   12694:	2781                	sext.w	a5,a5
   12696:	ef89                	bnez	a5,126b0 <__call_exitprocs+0xa2>
   12698:	9702                	jalr	a4
   1269a:	00892703          	lw	a4,8(s2)
   1269e:	1f8a3783          	ld	a5,504(s4)
   126a2:	01871463          	bne	a4,s8,126aa <__call_exitprocs+0x9c>
   126a6:	faf907e3          	beq	s2,a5,12654 <__call_exitprocs+0x46>
   126aa:	dbcd                	beqz	a5,1265c <__call_exitprocs+0x4e>
   126ac:	893e                	mv	s2,a5
   126ae:	b769                	j	12638 <__call_exitprocs+0x2a>
   126b0:	31492783          	lw	a5,788(s2)
   126b4:	1084b583          	ld	a1,264(s1)
   126b8:	8ff5                	and	a5,a5,a3
   126ba:	2781                	sext.w	a5,a5
   126bc:	e799                	bnez	a5,126ca <__call_exitprocs+0xbc>
   126be:	855a                	mv	a0,s6
   126c0:	9702                	jalr	a4
   126c2:	bfe1                	j	1269a <__call_exitprocs+0x8c>
   126c4:	00892423          	sw	s0,8(s2)
   126c8:	bf75                	j	12684 <__call_exitprocs+0x76>
   126ca:	852e                	mv	a0,a1
   126cc:	9702                	jalr	a4
   126ce:	b7f1                	j	1269a <__call_exitprocs+0x8c>

00000000000126d0 <__sflush_r>:
   126d0:	01059783          	lh	a5,16(a1)
   126d4:	7179                	addi	sp,sp,-48
   126d6:	f022                	sd	s0,32(sp)
   126d8:	e44e                	sd	s3,8(sp)
   126da:	f406                	sd	ra,40(sp)
   126dc:	ec26                	sd	s1,24(sp)
   126de:	e84a                	sd	s2,16(sp)
   126e0:	0087f693          	andi	a3,a5,8
   126e4:	842e                	mv	s0,a1
   126e6:	89aa                	mv	s3,a0
   126e8:	eecd                	bnez	a3,127a2 <__sflush_r+0xd2>
   126ea:	6705                	lui	a4,0x1
   126ec:	80070713          	addi	a4,a4,-2048 # 800 <main-0xf8b0>
   126f0:	4594                	lw	a3,8(a1)
   126f2:	8fd9                	or	a5,a5,a4
   126f4:	00f59823          	sh	a5,16(a1)
   126f8:	10d05363          	blez	a3,127fe <__sflush_r+0x12e>
   126fc:	6438                	ld	a4,72(s0)
   126fe:	cb51                	beqz	a4,12792 <__sflush_r+0xc2>
   12700:	0009a483          	lw	s1,0(s3)
   12704:	03079693          	slli	a3,a5,0x30
   12708:	0009a023          	sw	zero,0(s3)
   1270c:	03379613          	slli	a2,a5,0x33
   12710:	780c                	ld	a1,48(s0)
   12712:	92c1                	srli	a3,a3,0x30
   12714:	0e064963          	bltz	a2,12806 <__sflush_r+0x136>
   12718:	4601                	li	a2,0
   1271a:	4685                	li	a3,1
   1271c:	854e                	mv	a0,s3
   1271e:	9702                	jalr	a4
   12720:	57fd                	li	a5,-1
   12722:	862a                	mv	a2,a0
   12724:	10f50963          	beq	a0,a5,12836 <__sflush_r+0x166>
   12728:	01045683          	lhu	a3,16(s0)
   1272c:	6438                	ld	a4,72(s0)
   1272e:	780c                	ld	a1,48(s0)
   12730:	8a91                	andi	a3,a3,4
   12732:	c699                	beqz	a3,12740 <__sflush_r+0x70>
   12734:	4414                	lw	a3,8(s0)
   12736:	6c3c                	ld	a5,88(s0)
   12738:	8e15                	sub	a2,a2,a3
   1273a:	c399                	beqz	a5,12740 <__sflush_r+0x70>
   1273c:	583c                	lw	a5,112(s0)
   1273e:	8e1d                	sub	a2,a2,a5
   12740:	4681                	li	a3,0
   12742:	854e                	mv	a0,s3
   12744:	9702                	jalr	a4
   12746:	57fd                	li	a5,-1
   12748:	0cf51163          	bne	a0,a5,1280a <__sflush_r+0x13a>
   1274c:	0009a703          	lw	a4,0(s3)
   12750:	01041783          	lh	a5,16(s0)
   12754:	0e070f63          	beqz	a4,12852 <__sflush_r+0x182>
   12758:	46f5                	li	a3,29
   1275a:	00d70563          	beq	a4,a3,12764 <__sflush_r+0x94>
   1275e:	46d9                	li	a3,22
   12760:	0ed71f63          	bne	a4,a3,1285e <__sflush_r+0x18e>
   12764:	6c14                	ld	a3,24(s0)
   12766:	777d                	lui	a4,0xfffff
   12768:	7ff70713          	addi	a4,a4,2047 # fffffffffffff7ff <__BSS_END__+0xfffffffffffe034f>
   1276c:	8ff9                	and	a5,a5,a4
   1276e:	00f41823          	sh	a5,16(s0)
   12772:	00042423          	sw	zero,8(s0)
   12776:	e014                	sd	a3,0(s0)
   12778:	6c2c                	ld	a1,88(s0)
   1277a:	0099a023          	sw	s1,0(s3)
   1277e:	c991                	beqz	a1,12792 <__sflush_r+0xc2>
   12780:	07440793          	addi	a5,s0,116
   12784:	00f58563          	beq	a1,a5,1278e <__sflush_r+0xbe>
   12788:	854e                	mv	a0,s3
   1278a:	4b0000ef          	jal	ra,12c3a <_free_r>
   1278e:	04043c23          	sd	zero,88(s0)
   12792:	4501                	li	a0,0
   12794:	70a2                	ld	ra,40(sp)
   12796:	7402                	ld	s0,32(sp)
   12798:	64e2                	ld	s1,24(sp)
   1279a:	6942                	ld	s2,16(sp)
   1279c:	69a2                	ld	s3,8(sp)
   1279e:	6145                	addi	sp,sp,48
   127a0:	8082                	ret
   127a2:	0185b903          	ld	s2,24(a1)
   127a6:	fe0906e3          	beqz	s2,12792 <__sflush_r+0xc2>
   127aa:	6184                	ld	s1,0(a1)
   127ac:	03079713          	slli	a4,a5,0x30
   127b0:	9341                	srli	a4,a4,0x30
   127b2:	8b0d                	andi	a4,a4,3
   127b4:	0125b023          	sd	s2,0(a1)
   127b8:	412484bb          	subw	s1,s1,s2
   127bc:	4781                	li	a5,0
   127be:	e311                	bnez	a4,127c2 <__sflush_r+0xf2>
   127c0:	519c                	lw	a5,32(a1)
   127c2:	c45c                	sw	a5,12(s0)
   127c4:	00904663          	bgtz	s1,127d0 <__sflush_r+0x100>
   127c8:	b7e9                	j	12792 <__sflush_r+0xc2>
   127ca:	992a                	add	s2,s2,a0
   127cc:	fc9053e3          	blez	s1,12792 <__sflush_r+0xc2>
   127d0:	603c                	ld	a5,64(s0)
   127d2:	780c                	ld	a1,48(s0)
   127d4:	86a6                	mv	a3,s1
   127d6:	864a                	mv	a2,s2
   127d8:	854e                	mv	a0,s3
   127da:	9782                	jalr	a5
   127dc:	9c89                	subw	s1,s1,a0
   127de:	fea046e3          	bgtz	a0,127ca <__sflush_r+0xfa>
   127e2:	01045783          	lhu	a5,16(s0)
   127e6:	70a2                	ld	ra,40(sp)
   127e8:	64e2                	ld	s1,24(sp)
   127ea:	0407e793          	ori	a5,a5,64
   127ee:	00f41823          	sh	a5,16(s0)
   127f2:	7402                	ld	s0,32(sp)
   127f4:	6942                	ld	s2,16(sp)
   127f6:	69a2                	ld	s3,8(sp)
   127f8:	557d                	li	a0,-1
   127fa:	6145                	addi	sp,sp,48
   127fc:	8082                	ret
   127fe:	59b8                	lw	a4,112(a1)
   12800:	eee04ee3          	bgtz	a4,126fc <__sflush_r+0x2c>
   12804:	b779                	j	12792 <__sflush_r+0xc2>
   12806:	6850                	ld	a2,144(s0)
   12808:	b725                	j	12730 <__sflush_r+0x60>
   1280a:	01045783          	lhu	a5,16(s0)
   1280e:	777d                	lui	a4,0xfffff
   12810:	7ff70713          	addi	a4,a4,2047 # fffffffffffff7ff <__BSS_END__+0xfffffffffffe034f>
   12814:	8ff9                	and	a5,a5,a4
   12816:	6c14                	ld	a3,24(s0)
   12818:	0107979b          	slliw	a5,a5,0x10
   1281c:	4107d79b          	sraiw	a5,a5,0x10
   12820:	00f41823          	sh	a5,16(s0)
   12824:	00042423          	sw	zero,8(s0)
   12828:	e014                	sd	a3,0(s0)
   1282a:	03379713          	slli	a4,a5,0x33
   1282e:	f40755e3          	bgez	a4,12778 <__sflush_r+0xa8>
   12832:	e848                	sd	a0,144(s0)
   12834:	b791                	j	12778 <__sflush_r+0xa8>
   12836:	0009a783          	lw	a5,0(s3)
   1283a:	ee0787e3          	beqz	a5,12728 <__sflush_r+0x58>
   1283e:	4775                	li	a4,29
   12840:	00e78563          	beq	a5,a4,1284a <__sflush_r+0x17a>
   12844:	4759                	li	a4,22
   12846:	f8e79ee3          	bne	a5,a4,127e2 <__sflush_r+0x112>
   1284a:	0099a023          	sw	s1,0(s3)
   1284e:	4501                	li	a0,0
   12850:	b791                	j	12794 <__sflush_r+0xc4>
   12852:	777d                	lui	a4,0xfffff
   12854:	7ff70713          	addi	a4,a4,2047 # fffffffffffff7ff <__BSS_END__+0xfffffffffffe034f>
   12858:	6c14                	ld	a3,24(s0)
   1285a:	8ff9                	and	a5,a5,a4
   1285c:	b7d1                	j	12820 <__sflush_r+0x150>
   1285e:	0407e793          	ori	a5,a5,64
   12862:	00f41823          	sh	a5,16(s0)
   12866:	557d                	li	a0,-1
   12868:	b735                	j	12794 <__sflush_r+0xc4>

000000000001286a <_fflush_r>:
   1286a:	1101                	addi	sp,sp,-32
   1286c:	e822                	sd	s0,16(sp)
   1286e:	ec06                	sd	ra,24(sp)
   12870:	842a                	mv	s0,a0
   12872:	c119                	beqz	a0,12878 <_fflush_r+0xe>
   12874:	493c                	lw	a5,80(a0)
   12876:	cb89                	beqz	a5,12888 <_fflush_r+0x1e>
   12878:	01059783          	lh	a5,16(a1)
   1287c:	ef89                	bnez	a5,12896 <_fflush_r+0x2c>
   1287e:	60e2                	ld	ra,24(sp)
   12880:	6442                	ld	s0,16(sp)
   12882:	4501                	li	a0,0
   12884:	6105                	addi	sp,sp,32
   12886:	8082                	ret
   12888:	e42e                	sd	a1,8(sp)
   1288a:	276000ef          	jal	ra,12b00 <__sinit>
   1288e:	65a2                	ld	a1,8(sp)
   12890:	01059783          	lh	a5,16(a1)
   12894:	d7ed                	beqz	a5,1287e <_fflush_r+0x14>
   12896:	8522                	mv	a0,s0
   12898:	6442                	ld	s0,16(sp)
   1289a:	60e2                	ld	ra,24(sp)
   1289c:	6105                	addi	sp,sp,32
   1289e:	bd0d                	j	126d0 <__sflush_r>

00000000000128a0 <fflush>:
   128a0:	85aa                	mv	a1,a0
   128a2:	c501                	beqz	a0,128aa <fflush+0xa>
   128a4:	7581b503          	ld	a0,1880(gp) # 1f408 <_impure_ptr>
   128a8:	b7c9                	j	1286a <_fflush_r>
   128aa:	00000597          	auipc	a1,0x0
   128ae:	fc058593          	addi	a1,a1,-64 # 1286a <_fflush_r>
   128b2:	7481b503          	ld	a0,1864(gp) # 1f3f8 <_global_impure_ptr>
   128b6:	1810006f          	j	13236 <_fwalk_reent>

00000000000128ba <__fp_lock>:
   128ba:	4501                	li	a0,0
   128bc:	8082                	ret

00000000000128be <_cleanup_r>:
   128be:	00007597          	auipc	a1,0x7
   128c2:	36c58593          	addi	a1,a1,876 # 19c2a <_fclose_r>
   128c6:	1710006f          	j	13236 <_fwalk_reent>

00000000000128ca <__sinit.part.0>:
   128ca:	7139                	addi	sp,sp,-64
   128cc:	fc06                	sd	ra,56(sp)
   128ce:	f822                	sd	s0,48(sp)
   128d0:	f426                	sd	s1,40(sp)
   128d2:	f04a                	sd	s2,32(sp)
   128d4:	ec4e                	sd	s3,24(sp)
   128d6:	e852                	sd	s4,16(sp)
   128d8:	e456                	sd	s5,8(sp)
   128da:	e05a                	sd	s6,0(sp)
   128dc:	6500                	ld	s0,8(a0)
   128de:	00000717          	auipc	a4,0x0
   128e2:	fe070713          	addi	a4,a4,-32 # 128be <_cleanup_r>
   128e6:	ed38                	sd	a4,88(a0)
   128e8:	53850793          	addi	a5,a0,1336
   128ec:	470d                	li	a4,3
   128ee:	52e52423          	sw	a4,1320(a0)
   128f2:	52f53823          	sd	a5,1328(a0)
   128f6:	52053023          	sd	zero,1312(a0)
   128fa:	4791                	li	a5,4
   128fc:	892a                	mv	s2,a0
   128fe:	c81c                	sw	a5,16(s0)
   12900:	4621                	li	a2,8
   12902:	4581                	li	a1,0
   12904:	0a042623          	sw	zero,172(s0)
   12908:	00043023          	sd	zero,0(s0)
   1290c:	00043423          	sd	zero,8(s0)
   12910:	00043c23          	sd	zero,24(s0)
   12914:	02042023          	sw	zero,32(s0)
   12918:	02042423          	sw	zero,40(s0)
   1291c:	0a440513          	addi	a0,s0,164
   12920:	d07fd0ef          	jal	ra,10626 <memset>
   12924:	01093483          	ld	s1,16(s2)
   12928:	00004b17          	auipc	s6,0x4
   1292c:	58cb0b13          	addi	s6,s6,1420 # 16eb4 <__sread>
   12930:	00004a97          	auipc	s5,0x4
   12934:	5c0a8a93          	addi	s5,s5,1472 # 16ef0 <__swrite>
   12938:	00004a17          	auipc	s4,0x4
   1293c:	60ca0a13          	addi	s4,s4,1548 # 16f44 <__sseek>
   12940:	00004997          	auipc	s3,0x4
   12944:	64698993          	addi	s3,s3,1606 # 16f86 <__sclose>
   12948:	67c1                	lui	a5,0x10
   1294a:	03643c23          	sd	s6,56(s0)
   1294e:	05543023          	sd	s5,64(s0)
   12952:	05443423          	sd	s4,72(s0)
   12956:	05343823          	sd	s3,80(s0)
   1295a:	f800                	sd	s0,48(s0)
   1295c:	07a5                	addi	a5,a5,9
   1295e:	c89c                	sw	a5,16(s1)
   12960:	4621                	li	a2,8
   12962:	4581                	li	a1,0
   12964:	0a04a623          	sw	zero,172(s1)
   12968:	0004b023          	sd	zero,0(s1)
   1296c:	0004b423          	sd	zero,8(s1)
   12970:	0004bc23          	sd	zero,24(s1)
   12974:	0204a023          	sw	zero,32(s1)
   12978:	0204a423          	sw	zero,40(s1)
   1297c:	0a448513          	addi	a0,s1,164
   12980:	ca7fd0ef          	jal	ra,10626 <memset>
   12984:	01893403          	ld	s0,24(s2)
   12988:	000207b7          	lui	a5,0x20
   1298c:	0364bc23          	sd	s6,56(s1)
   12990:	0554b023          	sd	s5,64(s1)
   12994:	0544b423          	sd	s4,72(s1)
   12998:	0534b823          	sd	s3,80(s1)
   1299c:	f884                	sd	s1,48(s1)
   1299e:	07c9                	addi	a5,a5,18
   129a0:	c81c                	sw	a5,16(s0)
   129a2:	0a042623          	sw	zero,172(s0)
   129a6:	00043023          	sd	zero,0(s0)
   129aa:	00043423          	sd	zero,8(s0)
   129ae:	00043c23          	sd	zero,24(s0)
   129b2:	02042023          	sw	zero,32(s0)
   129b6:	02042423          	sw	zero,40(s0)
   129ba:	0a440513          	addi	a0,s0,164
   129be:	4621                	li	a2,8
   129c0:	4581                	li	a1,0
   129c2:	c65fd0ef          	jal	ra,10626 <memset>
   129c6:	70e2                	ld	ra,56(sp)
   129c8:	03643c23          	sd	s6,56(s0)
   129cc:	05543023          	sd	s5,64(s0)
   129d0:	05443423          	sd	s4,72(s0)
   129d4:	05343823          	sd	s3,80(s0)
   129d8:	f800                	sd	s0,48(s0)
   129da:	7442                	ld	s0,48(sp)
   129dc:	4785                	li	a5,1
   129de:	04f92823          	sw	a5,80(s2)
   129e2:	74a2                	ld	s1,40(sp)
   129e4:	7902                	ld	s2,32(sp)
   129e6:	69e2                	ld	s3,24(sp)
   129e8:	6a42                	ld	s4,16(sp)
   129ea:	6aa2                	ld	s5,8(sp)
   129ec:	6b02                	ld	s6,0(sp)
   129ee:	6121                	addi	sp,sp,64
   129f0:	8082                	ret

00000000000129f2 <__fp_unlock>:
   129f2:	4501                	li	a0,0
   129f4:	8082                	ret

00000000000129f6 <__sfmoreglue>:
   129f6:	1101                	addi	sp,sp,-32
   129f8:	e426                	sd	s1,8(sp)
   129fa:	0b000613          	li	a2,176
   129fe:	fff5849b          	addiw	s1,a1,-1
   12a02:	02c484b3          	mul	s1,s1,a2
   12a06:	e04a                	sd	s2,0(sp)
   12a08:	892e                	mv	s2,a1
   12a0a:	e822                	sd	s0,16(sp)
   12a0c:	ec06                	sd	ra,24(sp)
   12a0e:	0c848593          	addi	a1,s1,200
   12a12:	311020ef          	jal	ra,15522 <_malloc_r>
   12a16:	842a                	mv	s0,a0
   12a18:	cd01                	beqz	a0,12a30 <__sfmoreglue+0x3a>
   12a1a:	0561                	addi	a0,a0,24
   12a1c:	00043023          	sd	zero,0(s0)
   12a20:	01242423          	sw	s2,8(s0)
   12a24:	e808                	sd	a0,16(s0)
   12a26:	0b048613          	addi	a2,s1,176
   12a2a:	4581                	li	a1,0
   12a2c:	bfbfd0ef          	jal	ra,10626 <memset>
   12a30:	60e2                	ld	ra,24(sp)
   12a32:	8522                	mv	a0,s0
   12a34:	6442                	ld	s0,16(sp)
   12a36:	64a2                	ld	s1,8(sp)
   12a38:	6902                	ld	s2,0(sp)
   12a3a:	6105                	addi	sp,sp,32
   12a3c:	8082                	ret

0000000000012a3e <__sfp>:
   12a3e:	7179                	addi	sp,sp,-48
   12a40:	ec26                	sd	s1,24(sp)
   12a42:	7481b483          	ld	s1,1864(gp) # 1f3f8 <_global_impure_ptr>
   12a46:	48bc                	lw	a5,80(s1)
   12a48:	e84a                	sd	s2,16(sp)
   12a4a:	f406                	sd	ra,40(sp)
   12a4c:	f022                	sd	s0,32(sp)
   12a4e:	e44e                	sd	s3,8(sp)
   12a50:	892a                	mv	s2,a0
   12a52:	c3c9                	beqz	a5,12ad4 <__sfp+0x96>
   12a54:	52048493          	addi	s1,s1,1312
   12a58:	0b000993          	li	s3,176
   12a5c:	449c                	lw	a5,8(s1)
   12a5e:	6880                	ld	s0,16(s1)
   12a60:	06f05663          	blez	a5,12acc <__sfp+0x8e>
   12a64:	37fd                	addiw	a5,a5,-1
   12a66:	1782                	slli	a5,a5,0x20
   12a68:	9381                	srli	a5,a5,0x20
   12a6a:	0785                	addi	a5,a5,1
   12a6c:	033787b3          	mul	a5,a5,s3
   12a70:	97a2                	add	a5,a5,s0
   12a72:	a029                	j	12a7c <__sfp+0x3e>
   12a74:	0b040413          	addi	s0,s0,176
   12a78:	04878a63          	beq	a5,s0,12acc <__sfp+0x8e>
   12a7c:	01041703          	lh	a4,16(s0)
   12a80:	fb75                	bnez	a4,12a74 <__sfp+0x36>
   12a82:	77c1                	lui	a5,0xffff0
   12a84:	0785                	addi	a5,a5,1
   12a86:	0a042623          	sw	zero,172(s0)
   12a8a:	00043023          	sd	zero,0(s0)
   12a8e:	00043423          	sd	zero,8(s0)
   12a92:	c81c                	sw	a5,16(s0)
   12a94:	00043c23          	sd	zero,24(s0)
   12a98:	02042023          	sw	zero,32(s0)
   12a9c:	02042423          	sw	zero,40(s0)
   12aa0:	4621                	li	a2,8
   12aa2:	4581                	li	a1,0
   12aa4:	0a440513          	addi	a0,s0,164
   12aa8:	b7ffd0ef          	jal	ra,10626 <memset>
   12aac:	04043c23          	sd	zero,88(s0)
   12ab0:	06042023          	sw	zero,96(s0)
   12ab4:	06043c23          	sd	zero,120(s0)
   12ab8:	08042023          	sw	zero,128(s0)
   12abc:	70a2                	ld	ra,40(sp)
   12abe:	8522                	mv	a0,s0
   12ac0:	7402                	ld	s0,32(sp)
   12ac2:	64e2                	ld	s1,24(sp)
   12ac4:	6942                	ld	s2,16(sp)
   12ac6:	69a2                	ld	s3,8(sp)
   12ac8:	6145                	addi	sp,sp,48
   12aca:	8082                	ret
   12acc:	6080                	ld	s0,0(s1)
   12ace:	c419                	beqz	s0,12adc <__sfp+0x9e>
   12ad0:	84a2                	mv	s1,s0
   12ad2:	b769                	j	12a5c <__sfp+0x1e>
   12ad4:	8526                	mv	a0,s1
   12ad6:	df5ff0ef          	jal	ra,128ca <__sinit.part.0>
   12ada:	bfad                	j	12a54 <__sfp+0x16>
   12adc:	4591                	li	a1,4
   12ade:	854a                	mv	a0,s2
   12ae0:	f17ff0ef          	jal	ra,129f6 <__sfmoreglue>
   12ae4:	e088                	sd	a0,0(s1)
   12ae6:	842a                	mv	s0,a0
   12ae8:	f565                	bnez	a0,12ad0 <__sfp+0x92>
   12aea:	47b1                	li	a5,12
   12aec:	00f92023          	sw	a5,0(s2)
   12af0:	b7f1                	j	12abc <__sfp+0x7e>

0000000000012af2 <_cleanup>:
   12af2:	00007597          	auipc	a1,0x7
   12af6:	13858593          	addi	a1,a1,312 # 19c2a <_fclose_r>
   12afa:	7481b503          	ld	a0,1864(gp) # 1f3f8 <_global_impure_ptr>
   12afe:	af25                	j	13236 <_fwalk_reent>

0000000000012b00 <__sinit>:
   12b00:	493c                	lw	a5,80(a0)
   12b02:	c391                	beqz	a5,12b06 <__sinit+0x6>
   12b04:	8082                	ret
   12b06:	b3d1                	j	128ca <__sinit.part.0>

0000000000012b08 <__sfp_lock_acquire>:
   12b08:	8082                	ret

0000000000012b0a <__sfp_lock_release>:
   12b0a:	8082                	ret

0000000000012b0c <__sinit_lock_acquire>:
   12b0c:	8082                	ret

0000000000012b0e <__sinit_lock_release>:
   12b0e:	8082                	ret

0000000000012b10 <__fp_lock_all>:
   12b10:	00000597          	auipc	a1,0x0
   12b14:	daa58593          	addi	a1,a1,-598 # 128ba <__fp_lock>
   12b18:	7581b503          	ld	a0,1880(gp) # 1f408 <_impure_ptr>
   12b1c:	ad61                	j	131b4 <_fwalk>

0000000000012b1e <__fp_unlock_all>:
   12b1e:	00000597          	auipc	a1,0x0
   12b22:	ed458593          	addi	a1,a1,-300 # 129f2 <__fp_unlock>
   12b26:	7581b503          	ld	a0,1880(gp) # 1f408 <_impure_ptr>
   12b2a:	a569                	j	131b4 <_fwalk>

0000000000012b2c <__libc_fini_array>:
   12b2c:	1101                	addi	sp,sp,-32
   12b2e:	e822                	sd	s0,16(sp)
   12b30:	0000b797          	auipc	a5,0xb
   12b34:	73878793          	addi	a5,a5,1848 # 1e268 <__fini_array_end>
   12b38:	0000b417          	auipc	s0,0xb
   12b3c:	72840413          	addi	s0,s0,1832 # 1e260 <__init_array_end>
   12b40:	8f81                	sub	a5,a5,s0
   12b42:	e426                	sd	s1,8(sp)
   12b44:	ec06                	sd	ra,24(sp)
   12b46:	4037d493          	srai	s1,a5,0x3
   12b4a:	c881                	beqz	s1,12b5a <__libc_fini_array+0x2e>
   12b4c:	17e1                	addi	a5,a5,-8
   12b4e:	943e                	add	s0,s0,a5
   12b50:	601c                	ld	a5,0(s0)
   12b52:	14fd                	addi	s1,s1,-1
   12b54:	1461                	addi	s0,s0,-8
   12b56:	9782                	jalr	a5
   12b58:	fce5                	bnez	s1,12b50 <__libc_fini_array+0x24>
   12b5a:	60e2                	ld	ra,24(sp)
   12b5c:	6442                	ld	s0,16(sp)
   12b5e:	64a2                	ld	s1,8(sp)
   12b60:	6105                	addi	sp,sp,32
   12b62:	8082                	ret

0000000000012b64 <_malloc_trim_r>:
   12b64:	7179                	addi	sp,sp,-48
   12b66:	f022                	sd	s0,32(sp)
   12b68:	ec26                	sd	s1,24(sp)
   12b6a:	e84a                	sd	s2,16(sp)
   12b6c:	e44e                	sd	s3,8(sp)
   12b6e:	e052                	sd	s4,0(sp)
   12b70:	89ae                	mv	s3,a1
   12b72:	f406                	sd	ra,40(sp)
   12b74:	0000ca17          	auipc	s4,0xc
   12b78:	03ca0a13          	addi	s4,s4,60 # 1ebb0 <__malloc_av_>
   12b7c:	892a                	mv	s2,a0
   12b7e:	262030ef          	jal	ra,15de0 <__malloc_lock>
   12b82:	010a3703          	ld	a4,16(s4)
   12b86:	6785                	lui	a5,0x1
   12b88:	fdf78413          	addi	s0,a5,-33 # fdf <main-0xf0d1>
   12b8c:	6704                	ld	s1,8(a4)
   12b8e:	41340433          	sub	s0,s0,s3
   12b92:	98f1                	andi	s1,s1,-4
   12b94:	9426                	add	s0,s0,s1
   12b96:	8031                	srli	s0,s0,0xc
   12b98:	147d                	addi	s0,s0,-1
   12b9a:	0432                	slli	s0,s0,0xc
   12b9c:	00f44b63          	blt	s0,a5,12bb2 <_malloc_trim_r+0x4e>
   12ba0:	4581                	li	a1,0
   12ba2:	854a                	mv	a0,s2
   12ba4:	1cc040ef          	jal	ra,16d70 <_sbrk_r>
   12ba8:	010a3783          	ld	a5,16(s4)
   12bac:	97a6                	add	a5,a5,s1
   12bae:	00f50e63          	beq	a0,a5,12bca <_malloc_trim_r+0x66>
   12bb2:	854a                	mv	a0,s2
   12bb4:	22e030ef          	jal	ra,15de2 <__malloc_unlock>
   12bb8:	70a2                	ld	ra,40(sp)
   12bba:	7402                	ld	s0,32(sp)
   12bbc:	64e2                	ld	s1,24(sp)
   12bbe:	6942                	ld	s2,16(sp)
   12bc0:	69a2                	ld	s3,8(sp)
   12bc2:	6a02                	ld	s4,0(sp)
   12bc4:	4501                	li	a0,0
   12bc6:	6145                	addi	sp,sp,48
   12bc8:	8082                	ret
   12bca:	408005b3          	neg	a1,s0
   12bce:	854a                	mv	a0,s2
   12bd0:	1a0040ef          	jal	ra,16d70 <_sbrk_r>
   12bd4:	57fd                	li	a5,-1
   12bd6:	02f50c63          	beq	a0,a5,12c0e <_malloc_trim_r+0xaa>
   12bda:	0000d717          	auipc	a4,0xd
   12bde:	8a670713          	addi	a4,a4,-1882 # 1f480 <__malloc_current_mallinfo>
   12be2:	431c                	lw	a5,0(a4)
   12be4:	010a3683          	ld	a3,16(s4)
   12be8:	8c81                	sub	s1,s1,s0
   12bea:	0014e493          	ori	s1,s1,1
   12bee:	4087843b          	subw	s0,a5,s0
   12bf2:	854a                	mv	a0,s2
   12bf4:	e684                	sd	s1,8(a3)
   12bf6:	c300                	sw	s0,0(a4)
   12bf8:	1ea030ef          	jal	ra,15de2 <__malloc_unlock>
   12bfc:	70a2                	ld	ra,40(sp)
   12bfe:	7402                	ld	s0,32(sp)
   12c00:	64e2                	ld	s1,24(sp)
   12c02:	6942                	ld	s2,16(sp)
   12c04:	69a2                	ld	s3,8(sp)
   12c06:	6a02                	ld	s4,0(sp)
   12c08:	4505                	li	a0,1
   12c0a:	6145                	addi	sp,sp,48
   12c0c:	8082                	ret
   12c0e:	4581                	li	a1,0
   12c10:	854a                	mv	a0,s2
   12c12:	15e040ef          	jal	ra,16d70 <_sbrk_r>
   12c16:	010a3703          	ld	a4,16(s4)
   12c1a:	46fd                	li	a3,31
   12c1c:	40e507b3          	sub	a5,a0,a4
   12c20:	f8f6d9e3          	bge	a3,a5,12bb2 <_malloc_trim_r+0x4e>
   12c24:	7601b683          	ld	a3,1888(gp) # 1f410 <__malloc_sbrk_base>
   12c28:	8d15                	sub	a0,a0,a3
   12c2a:	0017e793          	ori	a5,a5,1
   12c2e:	0000d697          	auipc	a3,0xd
   12c32:	84a6a923          	sw	a0,-1966(a3) # 1f480 <__malloc_current_mallinfo>
   12c36:	e71c                	sd	a5,8(a4)
   12c38:	bfad                	j	12bb2 <_malloc_trim_r+0x4e>

0000000000012c3a <_free_r>:
   12c3a:	c5f5                	beqz	a1,12d26 <_free_r+0xec>
   12c3c:	1101                	addi	sp,sp,-32
   12c3e:	e822                	sd	s0,16(sp)
   12c40:	e426                	sd	s1,8(sp)
   12c42:	842e                	mv	s0,a1
   12c44:	84aa                	mv	s1,a0
   12c46:	ec06                	sd	ra,24(sp)
   12c48:	198030ef          	jal	ra,15de0 <__malloc_lock>
   12c4c:	ff843583          	ld	a1,-8(s0)
   12c50:	ff040713          	addi	a4,s0,-16
   12c54:	0000c517          	auipc	a0,0xc
   12c58:	f5c50513          	addi	a0,a0,-164 # 1ebb0 <__malloc_av_>
   12c5c:	ffe5f793          	andi	a5,a1,-2
   12c60:	00f70633          	add	a2,a4,a5
   12c64:	6614                	ld	a3,8(a2)
   12c66:	01053803          	ld	a6,16(a0)
   12c6a:	9af1                	andi	a3,a3,-4
   12c6c:	14c80063          	beq	a6,a2,12dac <_free_r+0x172>
   12c70:	e614                	sd	a3,8(a2)
   12c72:	8985                	andi	a1,a1,1
   12c74:	00d60833          	add	a6,a2,a3
   12c78:	e1c1                	bnez	a1,12cf8 <_free_r+0xbe>
   12c7a:	ff043303          	ld	t1,-16(s0)
   12c7e:	00883583          	ld	a1,8(a6)
   12c82:	0000c897          	auipc	a7,0xc
   12c86:	f3e88893          	addi	a7,a7,-194 # 1ebc0 <__malloc_av_+0x10>
   12c8a:	40670733          	sub	a4,a4,t1
   12c8e:	01073803          	ld	a6,16(a4)
   12c92:	979a                	add	a5,a5,t1
   12c94:	8985                	andi	a1,a1,1
   12c96:	0f180863          	beq	a6,a7,12d86 <_free_r+0x14c>
   12c9a:	01873303          	ld	t1,24(a4)
   12c9e:	00683c23          	sd	t1,24(a6)
   12ca2:	01033823          	sd	a6,16(t1)
   12ca6:	14058d63          	beqz	a1,12e00 <_free_r+0x1c6>
   12caa:	0017e693          	ori	a3,a5,1
   12cae:	e714                	sd	a3,8(a4)
   12cb0:	e21c                	sd	a5,0(a2)
   12cb2:	1ff00693          	li	a3,511
   12cb6:	08f6e263          	bltu	a3,a5,12d3a <_free_r+0x100>
   12cba:	838d                	srli	a5,a5,0x3
   12cbc:	0017869b          	addiw	a3,a5,1
   12cc0:	0016969b          	slliw	a3,a3,0x1
   12cc4:	068e                	slli	a3,a3,0x3
   12cc6:	00853803          	ld	a6,8(a0)
   12cca:	96aa                	add	a3,a3,a0
   12ccc:	628c                	ld	a1,0(a3)
   12cce:	4027d61b          	sraiw	a2,a5,0x2
   12cd2:	4785                	li	a5,1
   12cd4:	00c797b3          	sll	a5,a5,a2
   12cd8:	0107e7b3          	or	a5,a5,a6
   12cdc:	ff068613          	addi	a2,a3,-16
   12ce0:	ef10                	sd	a2,24(a4)
   12ce2:	eb0c                	sd	a1,16(a4)
   12ce4:	e51c                	sd	a5,8(a0)
   12ce6:	e298                	sd	a4,0(a3)
   12ce8:	ed98                	sd	a4,24(a1)
   12cea:	6442                	ld	s0,16(sp)
   12cec:	60e2                	ld	ra,24(sp)
   12cee:	8526                	mv	a0,s1
   12cf0:	64a2                	ld	s1,8(sp)
   12cf2:	6105                	addi	sp,sp,32
   12cf4:	0ee0306f          	j	15de2 <__malloc_unlock>
   12cf8:	00883583          	ld	a1,8(a6)
   12cfc:	8985                	andi	a1,a1,1
   12cfe:	e58d                	bnez	a1,12d28 <_free_r+0xee>
   12d00:	97b6                	add	a5,a5,a3
   12d02:	0000c897          	auipc	a7,0xc
   12d06:	ebe88893          	addi	a7,a7,-322 # 1ebc0 <__malloc_av_+0x10>
   12d0a:	6a14                	ld	a3,16(a2)
   12d0c:	0017e813          	ori	a6,a5,1
   12d10:	00f705b3          	add	a1,a4,a5
   12d14:	11168063          	beq	a3,a7,12e14 <_free_r+0x1da>
   12d18:	6e10                	ld	a2,24(a2)
   12d1a:	ee90                	sd	a2,24(a3)
   12d1c:	ea14                	sd	a3,16(a2)
   12d1e:	01073423          	sd	a6,8(a4)
   12d22:	e19c                	sd	a5,0(a1)
   12d24:	b779                	j	12cb2 <_free_r+0x78>
   12d26:	8082                	ret
   12d28:	0017e693          	ori	a3,a5,1
   12d2c:	fed43c23          	sd	a3,-8(s0)
   12d30:	e21c                	sd	a5,0(a2)
   12d32:	1ff00693          	li	a3,511
   12d36:	f8f6f2e3          	bgeu	a3,a5,12cba <_free_r+0x80>
   12d3a:	0097d693          	srli	a3,a5,0x9
   12d3e:	4611                	li	a2,4
   12d40:	08d66f63          	bltu	a2,a3,12dde <_free_r+0x1a4>
   12d44:	0067d693          	srli	a3,a5,0x6
   12d48:	0396859b          	addiw	a1,a3,57
   12d4c:	0015959b          	slliw	a1,a1,0x1
   12d50:	0386861b          	addiw	a2,a3,56
   12d54:	058e                	slli	a1,a1,0x3
   12d56:	95aa                	add	a1,a1,a0
   12d58:	6194                	ld	a3,0(a1)
   12d5a:	15c1                	addi	a1,a1,-16
   12d5c:	0cd58663          	beq	a1,a3,12e28 <_free_r+0x1ee>
   12d60:	6690                	ld	a2,8(a3)
   12d62:	9a71                	andi	a2,a2,-4
   12d64:	00c7f563          	bgeu	a5,a2,12d6e <_free_r+0x134>
   12d68:	6a94                	ld	a3,16(a3)
   12d6a:	fed59be3          	bne	a1,a3,12d60 <_free_r+0x126>
   12d6e:	6e8c                	ld	a1,24(a3)
   12d70:	ef0c                	sd	a1,24(a4)
   12d72:	eb14                	sd	a3,16(a4)
   12d74:	6442                	ld	s0,16(sp)
   12d76:	60e2                	ld	ra,24(sp)
   12d78:	e998                	sd	a4,16(a1)
   12d7a:	8526                	mv	a0,s1
   12d7c:	64a2                	ld	s1,8(sp)
   12d7e:	ee98                	sd	a4,24(a3)
   12d80:	6105                	addi	sp,sp,32
   12d82:	0600306f          	j	15de2 <__malloc_unlock>
   12d86:	0e059d63          	bnez	a1,12e80 <_free_r+0x246>
   12d8a:	6e0c                	ld	a1,24(a2)
   12d8c:	6a10                	ld	a2,16(a2)
   12d8e:	97b6                	add	a5,a5,a3
   12d90:	6442                	ld	s0,16(sp)
   12d92:	ee0c                	sd	a1,24(a2)
   12d94:	e990                	sd	a2,16(a1)
   12d96:	0017e693          	ori	a3,a5,1
   12d9a:	60e2                	ld	ra,24(sp)
   12d9c:	e714                	sd	a3,8(a4)
   12d9e:	8526                	mv	a0,s1
   12da0:	973e                	add	a4,a4,a5
   12da2:	64a2                	ld	s1,8(sp)
   12da4:	e31c                	sd	a5,0(a4)
   12da6:	6105                	addi	sp,sp,32
   12da8:	03a0306f          	j	15de2 <__malloc_unlock>
   12dac:	8985                	andi	a1,a1,1
   12dae:	97b6                	add	a5,a5,a3
   12db0:	e989                	bnez	a1,12dc2 <_free_r+0x188>
   12db2:	ff043583          	ld	a1,-16(s0)
   12db6:	8f0d                	sub	a4,a4,a1
   12db8:	6f14                	ld	a3,24(a4)
   12dba:	6b10                	ld	a2,16(a4)
   12dbc:	97ae                	add	a5,a5,a1
   12dbe:	ee14                	sd	a3,24(a2)
   12dc0:	ea90                	sd	a2,16(a3)
   12dc2:	0017e693          	ori	a3,a5,1
   12dc6:	e714                	sd	a3,8(a4)
   12dc8:	e918                	sd	a4,16(a0)
   12dca:	7681b703          	ld	a4,1896(gp) # 1f418 <__malloc_trim_threshold>
   12dce:	f0e7eee3          	bltu	a5,a4,12cea <_free_r+0xb0>
   12dd2:	7881b583          	ld	a1,1928(gp) # 1f438 <__malloc_top_pad>
   12dd6:	8526                	mv	a0,s1
   12dd8:	d8dff0ef          	jal	ra,12b64 <_malloc_trim_r>
   12ddc:	b739                	j	12cea <_free_r+0xb0>
   12dde:	4651                	li	a2,20
   12de0:	02d67263          	bgeu	a2,a3,12e04 <_free_r+0x1ca>
   12de4:	05400613          	li	a2,84
   12de8:	04d66b63          	bltu	a2,a3,12e3e <_free_r+0x204>
   12dec:	00c7d693          	srli	a3,a5,0xc
   12df0:	06f6859b          	addiw	a1,a3,111
   12df4:	0015959b          	slliw	a1,a1,0x1
   12df8:	06e6861b          	addiw	a2,a3,110
   12dfc:	058e                	slli	a1,a1,0x3
   12dfe:	bfa1                	j	12d56 <_free_r+0x11c>
   12e00:	97b6                	add	a5,a5,a3
   12e02:	b721                	j	12d0a <_free_r+0xd0>
   12e04:	05c6859b          	addiw	a1,a3,92
   12e08:	0015959b          	slliw	a1,a1,0x1
   12e0c:	05b6861b          	addiw	a2,a3,91
   12e10:	058e                	slli	a1,a1,0x3
   12e12:	b791                	j	12d56 <_free_r+0x11c>
   12e14:	f518                	sd	a4,40(a0)
   12e16:	f118                	sd	a4,32(a0)
   12e18:	01173c23          	sd	a7,24(a4)
   12e1c:	01173823          	sd	a7,16(a4)
   12e20:	01073423          	sd	a6,8(a4)
   12e24:	e19c                	sd	a5,0(a1)
   12e26:	b5d1                	j	12cea <_free_r+0xb0>
   12e28:	00853803          	ld	a6,8(a0)
   12e2c:	4026561b          	sraiw	a2,a2,0x2
   12e30:	4785                	li	a5,1
   12e32:	00c79633          	sll	a2,a5,a2
   12e36:	01066633          	or	a2,a2,a6
   12e3a:	e510                	sd	a2,8(a0)
   12e3c:	bf15                	j	12d70 <_free_r+0x136>
   12e3e:	15400613          	li	a2,340
   12e42:	00d66c63          	bltu	a2,a3,12e5a <_free_r+0x220>
   12e46:	00f7d693          	srli	a3,a5,0xf
   12e4a:	0786859b          	addiw	a1,a3,120
   12e4e:	0015959b          	slliw	a1,a1,0x1
   12e52:	0776861b          	addiw	a2,a3,119
   12e56:	058e                	slli	a1,a1,0x3
   12e58:	bdfd                	j	12d56 <_free_r+0x11c>
   12e5a:	55400613          	li	a2,1364
   12e5e:	00d66c63          	bltu	a2,a3,12e76 <_free_r+0x23c>
   12e62:	0127d693          	srli	a3,a5,0x12
   12e66:	07d6859b          	addiw	a1,a3,125
   12e6a:	0015959b          	slliw	a1,a1,0x1
   12e6e:	07c6861b          	addiw	a2,a3,124
   12e72:	058e                	slli	a1,a1,0x3
   12e74:	b5cd                	j	12d56 <_free_r+0x11c>
   12e76:	7f000593          	li	a1,2032
   12e7a:	07e00613          	li	a2,126
   12e7e:	bde1                	j	12d56 <_free_r+0x11c>
   12e80:	0017e693          	ori	a3,a5,1
   12e84:	e714                	sd	a3,8(a4)
   12e86:	e21c                	sd	a5,0(a2)
   12e88:	b58d                	j	12cea <_free_r+0xb0>

0000000000012e8a <__sfvwrite_r>:
   12e8a:	6a1c                	ld	a5,16(a2)
   12e8c:	1a078c63          	beqz	a5,13044 <__sfvwrite_r+0x1ba>
   12e90:	0105d783          	lhu	a5,16(a1)
   12e94:	711d                	addi	sp,sp,-96
   12e96:	e8a2                	sd	s0,80(sp)
   12e98:	f852                	sd	s4,48(sp)
   12e9a:	f456                	sd	s5,40(sp)
   12e9c:	ec86                	sd	ra,88(sp)
   12e9e:	e4a6                	sd	s1,72(sp)
   12ea0:	e0ca                	sd	s2,64(sp)
   12ea2:	fc4e                	sd	s3,56(sp)
   12ea4:	f05a                	sd	s6,32(sp)
   12ea6:	ec5e                	sd	s7,24(sp)
   12ea8:	e862                	sd	s8,16(sp)
   12eaa:	e466                	sd	s9,8(sp)
   12eac:	e06a                	sd	s10,0(sp)
   12eae:	0087f713          	andi	a4,a5,8
   12eb2:	8a32                	mv	s4,a2
   12eb4:	8aaa                	mv	s5,a0
   12eb6:	842e                	mv	s0,a1
   12eb8:	c325                	beqz	a4,12f18 <__sfvwrite_r+0x8e>
   12eba:	6d98                	ld	a4,24(a1)
   12ebc:	cf31                	beqz	a4,12f18 <__sfvwrite_r+0x8e>
   12ebe:	0027f713          	andi	a4,a5,2
   12ec2:	000a3903          	ld	s2,0(s4)
   12ec6:	c735                	beqz	a4,12f32 <__sfvwrite_r+0xa8>
   12ec8:	603c                	ld	a5,64(s0)
   12eca:	780c                	ld	a1,48(s0)
   12ecc:	80000b37          	lui	s6,0x80000
   12ed0:	4981                	li	s3,0
   12ed2:	4481                	li	s1,0
   12ed4:	c00b4b13          	xori	s6,s6,-1024
   12ed8:	864e                	mv	a2,s3
   12eda:	8556                	mv	a0,s5
   12edc:	c885                	beqz	s1,12f0c <__sfvwrite_r+0x82>
   12ede:	86a6                	mv	a3,s1
   12ee0:	009b7363          	bgeu	s6,s1,12ee6 <__sfvwrite_r+0x5c>
   12ee4:	86da                	mv	a3,s6
   12ee6:	2681                	sext.w	a3,a3
   12ee8:	9782                	jalr	a5
   12eea:	14a05563          	blez	a0,13034 <__sfvwrite_r+0x1aa>
   12eee:	010a3783          	ld	a5,16(s4)
   12ef2:	99aa                	add	s3,s3,a0
   12ef4:	8c89                	sub	s1,s1,a0
   12ef6:	40a78533          	sub	a0,a5,a0
   12efa:	00aa3823          	sd	a0,16(s4)
   12efe:	10050763          	beqz	a0,1300c <__sfvwrite_r+0x182>
   12f02:	603c                	ld	a5,64(s0)
   12f04:	780c                	ld	a1,48(s0)
   12f06:	864e                	mv	a2,s3
   12f08:	8556                	mv	a0,s5
   12f0a:	f8f1                	bnez	s1,12ede <__sfvwrite_r+0x54>
   12f0c:	00093983          	ld	s3,0(s2)
   12f10:	00893483          	ld	s1,8(s2)
   12f14:	0941                	addi	s2,s2,16
   12f16:	b7c9                	j	12ed8 <__sfvwrite_r+0x4e>
   12f18:	85a2                	mv	a1,s0
   12f1a:	8556                	mv	a0,s5
   12f1c:	e04ff0ef          	jal	ra,12520 <__swsetup_r>
   12f20:	28051863          	bnez	a0,131b0 <__sfvwrite_r+0x326>
   12f24:	01045783          	lhu	a5,16(s0)
   12f28:	000a3903          	ld	s2,0(s4)
   12f2c:	0027f713          	andi	a4,a5,2
   12f30:	ff41                	bnez	a4,12ec8 <__sfvwrite_r+0x3e>
   12f32:	0017f713          	andi	a4,a5,1
   12f36:	eb35                	bnez	a4,12faa <__sfvwrite_r+0x120>
   12f38:	4444                	lw	s1,12(s0)
   12f3a:	6008                	ld	a0,0(s0)
   12f3c:	80000b37          	lui	s6,0x80000
   12f40:	ffeb4b93          	xori	s7,s6,-2
   12f44:	4c01                	li	s8,0
   12f46:	4981                	li	s3,0
   12f48:	fffb4b13          	not	s6,s6
   12f4c:	8ca6                	mv	s9,s1
   12f4e:	04098863          	beqz	s3,12f9e <__sfvwrite_r+0x114>
   12f52:	2007f713          	andi	a4,a5,512
   12f56:	12070a63          	beqz	a4,1308a <__sfvwrite_r+0x200>
   12f5a:	8d26                	mv	s10,s1
   12f5c:	1899f763          	bgeu	s3,s1,130ea <__sfvwrite_r+0x260>
   12f60:	8cce                	mv	s9,s3
   12f62:	8d4e                	mv	s10,s3
   12f64:	866a                	mv	a2,s10
   12f66:	85e2                	mv	a1,s8
   12f68:	5a3020ef          	jal	ra,15d0a <memmove>
   12f6c:	4458                	lw	a4,12(s0)
   12f6e:	601c                	ld	a5,0(s0)
   12f70:	84ce                	mv	s1,s3
   12f72:	41970cbb          	subw	s9,a4,s9
   12f76:	97ea                	add	a5,a5,s10
   12f78:	01942623          	sw	s9,12(s0)
   12f7c:	e01c                	sd	a5,0(s0)
   12f7e:	4981                	li	s3,0
   12f80:	010a3603          	ld	a2,16(s4)
   12f84:	9c26                	add	s8,s8,s1
   12f86:	409604b3          	sub	s1,a2,s1
   12f8a:	009a3823          	sd	s1,16(s4)
   12f8e:	ccbd                	beqz	s1,1300c <__sfvwrite_r+0x182>
   12f90:	4444                	lw	s1,12(s0)
   12f92:	6008                	ld	a0,0(s0)
   12f94:	01045783          	lhu	a5,16(s0)
   12f98:	8ca6                	mv	s9,s1
   12f9a:	fa099ce3          	bnez	s3,12f52 <__sfvwrite_r+0xc8>
   12f9e:	00093c03          	ld	s8,0(s2)
   12fa2:	00893983          	ld	s3,8(s2)
   12fa6:	0941                	addi	s2,s2,16
   12fa8:	b755                	j	12f4c <__sfvwrite_r+0xc2>
   12faa:	4981                	li	s3,0
   12fac:	4501                	li	a0,0
   12fae:	4c81                	li	s9,0
   12fb0:	4c01                	li	s8,0
   12fb2:	080c0b63          	beqz	s8,13048 <__sfvwrite_r+0x1be>
   12fb6:	c145                	beqz	a0,13056 <__sfvwrite_r+0x1cc>
   12fb8:	8bce                	mv	s7,s3
   12fba:	013c7363          	bgeu	s8,s3,12fc0 <__sfvwrite_r+0x136>
   12fbe:	8be2                	mv	s7,s8
   12fc0:	6008                	ld	a0,0(s0)
   12fc2:	6c1c                	ld	a5,24(s0)
   12fc4:	5014                	lw	a3,32(s0)
   12fc6:	84de                	mv	s1,s7
   12fc8:	00a7f763          	bgeu	a5,a0,12fd6 <__sfvwrite_r+0x14c>
   12fcc:	445c                	lw	a5,12(s0)
   12fce:	00d78b3b          	addw	s6,a5,a3
   12fd2:	097b4d63          	blt	s6,s7,1306c <__sfvwrite_r+0x1e2>
   12fd6:	18dbc463          	blt	s7,a3,1315e <__sfvwrite_r+0x2d4>
   12fda:	603c                	ld	a5,64(s0)
   12fdc:	780c                	ld	a1,48(s0)
   12fde:	8666                	mv	a2,s9
   12fe0:	8556                	mv	a0,s5
   12fe2:	9782                	jalr	a5
   12fe4:	84aa                	mv	s1,a0
   12fe6:	04a05763          	blez	a0,13034 <__sfvwrite_r+0x1aa>
   12fea:	0005079b          	sext.w	a5,a0
   12fee:	40f989bb          	subw	s3,s3,a5
   12ff2:	4505                	li	a0,1
   12ff4:	02098b63          	beqz	s3,1302a <__sfvwrite_r+0x1a0>
   12ff8:	010a3783          	ld	a5,16(s4)
   12ffc:	9ca6                	add	s9,s9,s1
   12ffe:	409c0c33          	sub	s8,s8,s1
   13002:	409784b3          	sub	s1,a5,s1
   13006:	009a3823          	sd	s1,16(s4)
   1300a:	f4c5                	bnez	s1,12fb2 <__sfvwrite_r+0x128>
   1300c:	4501                	li	a0,0
   1300e:	60e6                	ld	ra,88(sp)
   13010:	6446                	ld	s0,80(sp)
   13012:	64a6                	ld	s1,72(sp)
   13014:	6906                	ld	s2,64(sp)
   13016:	79e2                	ld	s3,56(sp)
   13018:	7a42                	ld	s4,48(sp)
   1301a:	7aa2                	ld	s5,40(sp)
   1301c:	7b02                	ld	s6,32(sp)
   1301e:	6be2                	ld	s7,24(sp)
   13020:	6c42                	ld	s8,16(sp)
   13022:	6ca2                	ld	s9,8(sp)
   13024:	6d02                	ld	s10,0(sp)
   13026:	6125                	addi	sp,sp,96
   13028:	8082                	ret
   1302a:	85a2                	mv	a1,s0
   1302c:	8556                	mv	a0,s5
   1302e:	83dff0ef          	jal	ra,1286a <_fflush_r>
   13032:	d179                	beqz	a0,12ff8 <__sfvwrite_r+0x16e>
   13034:	01041783          	lh	a5,16(s0)
   13038:	0407e793          	ori	a5,a5,64
   1303c:	00f41823          	sh	a5,16(s0)
   13040:	557d                	li	a0,-1
   13042:	b7f1                	j	1300e <__sfvwrite_r+0x184>
   13044:	4501                	li	a0,0
   13046:	8082                	ret
   13048:	00893c03          	ld	s8,8(s2)
   1304c:	00093c83          	ld	s9,0(s2)
   13050:	0941                	addi	s2,s2,16
   13052:	fe0c0be3          	beqz	s8,13048 <__sfvwrite_r+0x1be>
   13056:	8662                	mv	a2,s8
   13058:	45a9                	li	a1,10
   1305a:	8566                	mv	a0,s9
   1305c:	333020ef          	jal	ra,15b8e <memchr>
   13060:	12050f63          	beqz	a0,1319e <__sfvwrite_r+0x314>
   13064:	0505                	addi	a0,a0,1
   13066:	419509bb          	subw	s3,a0,s9
   1306a:	b7b9                	j	12fb8 <__sfvwrite_r+0x12e>
   1306c:	85e6                	mv	a1,s9
   1306e:	865a                	mv	a2,s6
   13070:	49b020ef          	jal	ra,15d0a <memmove>
   13074:	601c                	ld	a5,0(s0)
   13076:	85a2                	mv	a1,s0
   13078:	8556                	mv	a0,s5
   1307a:	97da                	add	a5,a5,s6
   1307c:	e01c                	sd	a5,0(s0)
   1307e:	fecff0ef          	jal	ra,1286a <_fflush_r>
   13082:	f94d                	bnez	a0,13034 <__sfvwrite_r+0x1aa>
   13084:	87da                	mv	a5,s6
   13086:	84da                	mv	s1,s6
   13088:	b79d                	j	12fee <__sfvwrite_r+0x164>
   1308a:	6c1c                	ld	a5,24(s0)
   1308c:	02a7e863          	bltu	a5,a0,130bc <__sfvwrite_r+0x232>
   13090:	501c                	lw	a5,32(s0)
   13092:	02f9e563          	bltu	s3,a5,130bc <__sfvwrite_r+0x232>
   13096:	86ce                	mv	a3,s3
   13098:	013bf363          	bgeu	s7,s3,1309e <__sfvwrite_r+0x214>
   1309c:	86da                	mv	a3,s6
   1309e:	02f6c6bb          	divw	a3,a3,a5
   130a2:	6038                	ld	a4,64(s0)
   130a4:	780c                	ld	a1,48(s0)
   130a6:	8662                	mv	a2,s8
   130a8:	8556                	mv	a0,s5
   130aa:	02f686bb          	mulw	a3,a3,a5
   130ae:	9702                	jalr	a4
   130b0:	84aa                	mv	s1,a0
   130b2:	f8a051e3          	blez	a0,13034 <__sfvwrite_r+0x1aa>
   130b6:	409989b3          	sub	s3,s3,s1
   130ba:	b5d9                	j	12f80 <__sfvwrite_r+0xf6>
   130bc:	0099f363          	bgeu	s3,s1,130c2 <__sfvwrite_r+0x238>
   130c0:	84ce                	mv	s1,s3
   130c2:	8626                	mv	a2,s1
   130c4:	85e2                	mv	a1,s8
   130c6:	445020ef          	jal	ra,15d0a <memmove>
   130ca:	445c                	lw	a5,12(s0)
   130cc:	6018                	ld	a4,0(s0)
   130ce:	409786bb          	subw	a3,a5,s1
   130d2:	9726                	add	a4,a4,s1
   130d4:	c454                	sw	a3,12(s0)
   130d6:	e018                	sd	a4,0(s0)
   130d8:	fef9                	bnez	a3,130b6 <__sfvwrite_r+0x22c>
   130da:	85a2                	mv	a1,s0
   130dc:	8556                	mv	a0,s5
   130de:	f8cff0ef          	jal	ra,1286a <_fflush_r>
   130e2:	f929                	bnez	a0,13034 <__sfvwrite_r+0x1aa>
   130e4:	409989b3          	sub	s3,s3,s1
   130e8:	bd61                	j	12f80 <__sfvwrite_r+0xf6>
   130ea:	4807f713          	andi	a4,a5,1152
   130ee:	e6070be3          	beqz	a4,12f64 <__sfvwrite_r+0xda>
   130f2:	5004                	lw	s1,32(s0)
   130f4:	6c0c                	ld	a1,24(s0)
   130f6:	00198713          	addi	a4,s3,1
   130fa:	0014969b          	slliw	a3,s1,0x1
   130fe:	9ea5                	addw	a3,a3,s1
   13100:	8d0d                	sub	a0,a0,a1
   13102:	01f6d49b          	srliw	s1,a3,0x1f
   13106:	00050d1b          	sext.w	s10,a0
   1310a:	9cb5                	addw	s1,s1,a3
   1310c:	4014d49b          	sraiw	s1,s1,0x1
   13110:	976a                	add	a4,a4,s10
   13112:	00e4f563          	bgeu	s1,a4,1311c <__sfvwrite_r+0x292>
   13116:	0019849b          	addiw	s1,s3,1
   1311a:	9ca9                	addw	s1,s1,a0
   1311c:	4007f793          	andi	a5,a5,1024
   13120:	cfa9                	beqz	a5,1317a <__sfvwrite_r+0x2f0>
   13122:	85a6                	mv	a1,s1
   13124:	8556                	mv	a0,s5
   13126:	3fc020ef          	jal	ra,15522 <_malloc_r>
   1312a:	8caa                	mv	s9,a0
   1312c:	cd25                	beqz	a0,131a4 <__sfvwrite_r+0x31a>
   1312e:	6c0c                	ld	a1,24(s0)
   13130:	866a                	mv	a2,s10
   13132:	2fb020ef          	jal	ra,15c2c <memcpy>
   13136:	01045783          	lhu	a5,16(s0)
   1313a:	b7f7f793          	andi	a5,a5,-1153
   1313e:	0807e793          	ori	a5,a5,128
   13142:	00f41823          	sh	a5,16(s0)
   13146:	01ac8533          	add	a0,s9,s10
   1314a:	41a487bb          	subw	a5,s1,s10
   1314e:	01943c23          	sd	s9,24(s0)
   13152:	e008                	sd	a0,0(s0)
   13154:	d004                	sw	s1,32(s0)
   13156:	8cce                	mv	s9,s3
   13158:	c45c                	sw	a5,12(s0)
   1315a:	8d4e                	mv	s10,s3
   1315c:	b521                	j	12f64 <__sfvwrite_r+0xda>
   1315e:	865e                	mv	a2,s7
   13160:	85e6                	mv	a1,s9
   13162:	3a9020ef          	jal	ra,15d0a <memmove>
   13166:	4458                	lw	a4,12(s0)
   13168:	6010                	ld	a2,0(s0)
   1316a:	000b879b          	sext.w	a5,s7
   1316e:	4177073b          	subw	a4,a4,s7
   13172:	965e                	add	a2,a2,s7
   13174:	c458                	sw	a4,12(s0)
   13176:	e010                	sd	a2,0(s0)
   13178:	bd9d                	j	12fee <__sfvwrite_r+0x164>
   1317a:	8626                	mv	a2,s1
   1317c:	8556                	mv	a0,s5
   1317e:	7e4030ef          	jal	ra,16962 <_realloc_r>
   13182:	8caa                	mv	s9,a0
   13184:	f169                	bnez	a0,13146 <__sfvwrite_r+0x2bc>
   13186:	6c0c                	ld	a1,24(s0)
   13188:	8556                	mv	a0,s5
   1318a:	ab1ff0ef          	jal	ra,12c3a <_free_r>
   1318e:	01041783          	lh	a5,16(s0)
   13192:	4731                	li	a4,12
   13194:	00eaa023          	sw	a4,0(s5)
   13198:	f7f7f793          	andi	a5,a5,-129
   1319c:	bd71                	j	13038 <__sfvwrite_r+0x1ae>
   1319e:	001c099b          	addiw	s3,s8,1
   131a2:	bd19                	j	12fb8 <__sfvwrite_r+0x12e>
   131a4:	4731                	li	a4,12
   131a6:	01041783          	lh	a5,16(s0)
   131aa:	00eaa023          	sw	a4,0(s5)
   131ae:	b569                	j	13038 <__sfvwrite_r+0x1ae>
   131b0:	557d                	li	a0,-1
   131b2:	bdb1                	j	1300e <__sfvwrite_r+0x184>

00000000000131b4 <_fwalk>:
   131b4:	715d                	addi	sp,sp,-80
   131b6:	f84a                	sd	s2,48(sp)
   131b8:	f44e                	sd	s3,40(sp)
   131ba:	f052                	sd	s4,32(sp)
   131bc:	ec56                	sd	s5,24(sp)
   131be:	e85a                	sd	s6,16(sp)
   131c0:	e45e                	sd	s7,8(sp)
   131c2:	e486                	sd	ra,72(sp)
   131c4:	e0a2                	sd	s0,64(sp)
   131c6:	fc26                	sd	s1,56(sp)
   131c8:	8a2e                	mv	s4,a1
   131ca:	52050913          	addi	s2,a0,1312
   131ce:	4b01                	li	s6,0
   131d0:	0b000a93          	li	s5,176
   131d4:	4b85                	li	s7,1
   131d6:	59fd                	li	s3,-1
   131d8:	00892783          	lw	a5,8(s2)
   131dc:	01093403          	ld	s0,16(s2)
   131e0:	02f05b63          	blez	a5,13216 <_fwalk+0x62>
   131e4:	fff7849b          	addiw	s1,a5,-1
   131e8:	1482                	slli	s1,s1,0x20
   131ea:	9081                	srli	s1,s1,0x20
   131ec:	0485                	addi	s1,s1,1
   131ee:	035484b3          	mul	s1,s1,s5
   131f2:	94a2                	add	s1,s1,s0
   131f4:	01045783          	lhu	a5,16(s0)
   131f8:	00fbfb63          	bgeu	s7,a5,1320e <_fwalk+0x5a>
   131fc:	01241783          	lh	a5,18(s0)
   13200:	8522                	mv	a0,s0
   13202:	01378663          	beq	a5,s3,1320e <_fwalk+0x5a>
   13206:	9a02                	jalr	s4
   13208:	01656b33          	or	s6,a0,s6
   1320c:	2b01                	sext.w	s6,s6
   1320e:	0b040413          	addi	s0,s0,176
   13212:	fe8491e3          	bne	s1,s0,131f4 <_fwalk+0x40>
   13216:	00093903          	ld	s2,0(s2)
   1321a:	fa091fe3          	bnez	s2,131d8 <_fwalk+0x24>
   1321e:	60a6                	ld	ra,72(sp)
   13220:	6406                	ld	s0,64(sp)
   13222:	74e2                	ld	s1,56(sp)
   13224:	7942                	ld	s2,48(sp)
   13226:	79a2                	ld	s3,40(sp)
   13228:	7a02                	ld	s4,32(sp)
   1322a:	6ae2                	ld	s5,24(sp)
   1322c:	6ba2                	ld	s7,8(sp)
   1322e:	855a                	mv	a0,s6
   13230:	6b42                	ld	s6,16(sp)
   13232:	6161                	addi	sp,sp,80
   13234:	8082                	ret

0000000000013236 <_fwalk_reent>:
   13236:	715d                	addi	sp,sp,-80
   13238:	f84a                	sd	s2,48(sp)
   1323a:	f44e                	sd	s3,40(sp)
   1323c:	f052                	sd	s4,32(sp)
   1323e:	ec56                	sd	s5,24(sp)
   13240:	e85a                	sd	s6,16(sp)
   13242:	e45e                	sd	s7,8(sp)
   13244:	e062                	sd	s8,0(sp)
   13246:	e486                	sd	ra,72(sp)
   13248:	e0a2                	sd	s0,64(sp)
   1324a:	fc26                	sd	s1,56(sp)
   1324c:	8c2a                	mv	s8,a0
   1324e:	8a2e                	mv	s4,a1
   13250:	52050913          	addi	s2,a0,1312
   13254:	4b01                	li	s6,0
   13256:	0b000a93          	li	s5,176
   1325a:	4b85                	li	s7,1
   1325c:	59fd                	li	s3,-1
   1325e:	00892783          	lw	a5,8(s2)
   13262:	01093403          	ld	s0,16(s2)
   13266:	02f05c63          	blez	a5,1329e <_fwalk_reent+0x68>
   1326a:	fff7849b          	addiw	s1,a5,-1
   1326e:	1482                	slli	s1,s1,0x20
   13270:	9081                	srli	s1,s1,0x20
   13272:	0485                	addi	s1,s1,1
   13274:	035484b3          	mul	s1,s1,s5
   13278:	94a2                	add	s1,s1,s0
   1327a:	01045783          	lhu	a5,16(s0)
   1327e:	00fbfc63          	bgeu	s7,a5,13296 <_fwalk_reent+0x60>
   13282:	01241783          	lh	a5,18(s0)
   13286:	85a2                	mv	a1,s0
   13288:	8562                	mv	a0,s8
   1328a:	01378663          	beq	a5,s3,13296 <_fwalk_reent+0x60>
   1328e:	9a02                	jalr	s4
   13290:	01656b33          	or	s6,a0,s6
   13294:	2b01                	sext.w	s6,s6
   13296:	0b040413          	addi	s0,s0,176
   1329a:	fe8490e3          	bne	s1,s0,1327a <_fwalk_reent+0x44>
   1329e:	00093903          	ld	s2,0(s2)
   132a2:	fa091ee3          	bnez	s2,1325e <_fwalk_reent+0x28>
   132a6:	60a6                	ld	ra,72(sp)
   132a8:	6406                	ld	s0,64(sp)
   132aa:	74e2                	ld	s1,56(sp)
   132ac:	7942                	ld	s2,48(sp)
   132ae:	79a2                	ld	s3,40(sp)
   132b0:	7a02                	ld	s4,32(sp)
   132b2:	6ae2                	ld	s5,24(sp)
   132b4:	6ba2                	ld	s7,8(sp)
   132b6:	6c02                	ld	s8,0(sp)
   132b8:	855a                	mv	a0,s6
   132ba:	6b42                	ld	s6,16(sp)
   132bc:	6161                	addi	sp,sp,80
   132be:	8082                	ret

00000000000132c0 <eshdn1>:
   132c0:	00450693          	addi	a3,a0,4
   132c4:	4781                	li	a5,0
   132c6:	0569                	addi	a0,a0,26
   132c8:	7861                	lui	a6,0xffff8
   132ca:	a811                	j	132de <eshdn1+0x1e>
   132cc:	0017979b          	slliw	a5,a5,0x1
   132d0:	00e69023          	sh	a4,0(a3)
   132d4:	17c2                	slli	a5,a5,0x30
   132d6:	0689                	addi	a3,a3,2
   132d8:	93c1                	srli	a5,a5,0x30
   132da:	02d50863          	beq	a0,a3,1330a <eshdn1+0x4a>
   132de:	0006d703          	lhu	a4,0(a3)
   132e2:	00177613          	andi	a2,a4,1
   132e6:	c219                	beqz	a2,132ec <eshdn1+0x2c>
   132e8:	0017e793          	ori	a5,a5,1
   132ec:	8305                	srli	a4,a4,0x1
   132ee:	0027f613          	andi	a2,a5,2
   132f2:	010765b3          	or	a1,a4,a6
   132f6:	da79                	beqz	a2,132cc <eshdn1+0xc>
   132f8:	0017979b          	slliw	a5,a5,0x1
   132fc:	00b69023          	sh	a1,0(a3)
   13300:	17c2                	slli	a5,a5,0x30
   13302:	0689                	addi	a3,a3,2
   13304:	93c1                	srli	a5,a5,0x30
   13306:	fcd51ce3          	bne	a0,a3,132de <eshdn1+0x1e>
   1330a:	8082                	ret

000000000001330c <eshup1>:
   1330c:	01850693          	addi	a3,a0,24
   13310:	4701                	li	a4,0
   13312:	0509                	addi	a0,a0,2
   13314:	a811                	j	13328 <eshup1+0x1c>
   13316:	0017171b          	slliw	a4,a4,0x1
   1331a:	00f69023          	sh	a5,0(a3)
   1331e:	1742                	slli	a4,a4,0x30
   13320:	16f9                	addi	a3,a3,-2
   13322:	9341                	srli	a4,a4,0x30
   13324:	04d50063          	beq	a0,a3,13364 <eshup1+0x58>
   13328:	0006d783          	lhu	a5,0(a3)
   1332c:	0107961b          	slliw	a2,a5,0x10
   13330:	4106561b          	sraiw	a2,a2,0x10
   13334:	02061593          	slli	a1,a2,0x20
   13338:	0017979b          	slliw	a5,a5,0x1
   1333c:	0005d463          	bgez	a1,13344 <eshup1+0x38>
   13340:	00176713          	ori	a4,a4,1
   13344:	17c2                	slli	a5,a5,0x30
   13346:	93c1                	srli	a5,a5,0x30
   13348:	00277613          	andi	a2,a4,2
   1334c:	0017e593          	ori	a1,a5,1
   13350:	d279                	beqz	a2,13316 <eshup1+0xa>
   13352:	0017171b          	slliw	a4,a4,0x1
   13356:	00b69023          	sh	a1,0(a3)
   1335a:	1742                	slli	a4,a4,0x30
   1335c:	16f9                	addi	a3,a3,-2
   1335e:	9341                	srli	a4,a4,0x30
   13360:	fcd514e3          	bne	a0,a3,13328 <eshup1+0x1c>
   13364:	8082                	ret

0000000000013366 <m16m>:
   13366:	1101                	addi	sp,sp,-32
   13368:	6e41                	lui	t3,0x10
   1336a:	00011b23          	sh	zero,22(sp)
   1336e:	00011c23          	sh	zero,24(sp)
   13372:	05e1                	addi	a1,a1,24
   13374:	083c                	addi	a5,sp,24
   13376:	00410813          	addi	a6,sp,4
   1337a:	1e7d                	addi	t3,t3,-1
   1337c:	0005d703          	lhu	a4,0(a1)
   13380:	17f9                	addi	a5,a5,-2
   13382:	15f9                	addi	a1,a1,-2
   13384:	e315                	bnez	a4,133a8 <m16m+0x42>
   13386:	fe079f23          	sh	zero,-2(a5)
   1338a:	ff0799e3          	bne	a5,a6,1337c <m16m+0x16>
   1338e:	0611                	addi	a2,a2,4
   13390:	01a10693          	addi	a3,sp,26
   13394:	0007d703          	lhu	a4,0(a5)
   13398:	0789                	addi	a5,a5,2
   1339a:	0609                	addi	a2,a2,2
   1339c:	fee61f23          	sh	a4,-2(a2)
   133a0:	fed79ae3          	bne	a5,a3,13394 <m16m+0x2e>
   133a4:	6105                	addi	sp,sp,32
   133a6:	8082                	ret
   133a8:	02a70733          	mul	a4,a4,a0
   133ac:	0027d883          	lhu	a7,2(a5)
   133b0:	0007d303          	lhu	t1,0(a5)
   133b4:	01c776b3          	and	a3,a4,t3
   133b8:	96c6                	add	a3,a3,a7
   133ba:	8341                	srli	a4,a4,0x10
   133bc:	0106d893          	srli	a7,a3,0x10
   133c0:	971a                	add	a4,a4,t1
   133c2:	9746                	add	a4,a4,a7
   133c4:	01075893          	srli	a7,a4,0x10
   133c8:	00d79123          	sh	a3,2(a5)
   133cc:	00e79023          	sh	a4,0(a5)
   133d0:	ff179f23          	sh	a7,-2(a5)
   133d4:	fb0794e3          	bne	a5,a6,1337c <m16m+0x16>
   133d8:	bf5d                	j	1338e <m16m+0x28>

00000000000133da <eisnan.part.0>:
   133da:	01250713          	addi	a4,a0,18
   133de:	00055783          	lhu	a5,0(a0)
   133e2:	0509                	addi	a0,a0,2
   133e4:	e789                	bnez	a5,133ee <eisnan.part.0+0x14>
   133e6:	fee51ce3          	bne	a0,a4,133de <eisnan.part.0+0x4>
   133ea:	4501                	li	a0,0
   133ec:	8082                	ret
   133ee:	4505                	li	a0,1
   133f0:	8082                	ret

00000000000133f2 <eneg>:
   133f2:	1101                	addi	sp,sp,-32
   133f4:	e426                	sd	s1,8(sp)
   133f6:	01255483          	lhu	s1,18(a0)
   133fa:	e822                	sd	s0,16(sp)
   133fc:	ec06                	sd	ra,24(sp)
   133fe:	fff4c793          	not	a5,s1
   13402:	03179713          	slli	a4,a5,0x31
   13406:	842a                	mv	s0,a0
   13408:	e701                	bnez	a4,13410 <eneg+0x1e>
   1340a:	fd1ff0ef          	jal	ra,133da <eisnan.part.0>
   1340e:	e509                	bnez	a0,13418 <eneg+0x26>
   13410:	77e1                	lui	a5,0xffff8
   13412:	8cbd                	xor	s1,s1,a5
   13414:	00941923          	sh	s1,18(s0)
   13418:	60e2                	ld	ra,24(sp)
   1341a:	6442                	ld	s0,16(sp)
   1341c:	64a2                	ld	s1,8(sp)
   1341e:	6105                	addi	sp,sp,32
   13420:	8082                	ret

0000000000013422 <eisneg>:
   13422:	1141                	addi	sp,sp,-16
   13424:	e022                	sd	s0,0(sp)
   13426:	01255403          	lhu	s0,18(a0)
   1342a:	e406                	sd	ra,8(sp)
   1342c:	fff44793          	not	a5,s0
   13430:	03179713          	slli	a4,a5,0x31
   13434:	e711                	bnez	a4,13440 <eisneg+0x1e>
   13436:	fa5ff0ef          	jal	ra,133da <eisnan.part.0>
   1343a:	87aa                	mv	a5,a0
   1343c:	4501                	li	a0,0
   1343e:	e399                	bnez	a5,13444 <eisneg+0x22>
   13440:	00f45513          	srli	a0,s0,0xf
   13444:	60a2                	ld	ra,8(sp)
   13446:	6402                	ld	s0,0(sp)
   13448:	0141                	addi	sp,sp,16
   1344a:	8082                	ret

000000000001344c <emovi>:
   1344c:	01255783          	lhu	a5,18(a0)
   13450:	7139                	addi	sp,sp,-64
   13452:	f822                	sd	s0,48(sp)
   13454:	00f7d79b          	srliw	a5,a5,0xf
   13458:	f426                	sd	s1,40(sp)
   1345a:	fc06                	sd	ra,56(sp)
   1345c:	f04a                	sd	s2,32(sp)
   1345e:	ec4e                	sd	s3,24(sp)
   13460:	40f007bb          	negw	a5,a5
   13464:	00f59023          	sh	a5,0(a1)
   13468:	01255783          	lhu	a5,18(a0)
   1346c:	6721                	lui	a4,0x8
   1346e:	177d                	addi	a4,a4,-1
   13470:	8ff9                	and	a5,a5,a4
   13472:	00f59123          	sh	a5,2(a1)
   13476:	84aa                	mv	s1,a0
   13478:	01050413          	addi	s0,a0,16
   1347c:	02e78863          	beq	a5,a4,134ac <emovi+0x60>
   13480:	00658793          	addi	a5,a1,6
   13484:	00059223          	sh	zero,4(a1)
   13488:	1579                	addi	a0,a0,-2
   1348a:	00045703          	lhu	a4,0(s0)
   1348e:	1479                	addi	s0,s0,-2
   13490:	0789                	addi	a5,a5,2
   13492:	fee79f23          	sh	a4,-2(a5) # ffffffffffff7ffe <__BSS_END__+0xfffffffffffd8b4e>
   13496:	fe851ae3          	bne	a0,s0,1348a <emovi+0x3e>
   1349a:	00059c23          	sh	zero,24(a1)
   1349e:	70e2                	ld	ra,56(sp)
   134a0:	7442                	ld	s0,48(sp)
   134a2:	74a2                	ld	s1,40(sp)
   134a4:	7902                	ld	s2,32(sp)
   134a6:	69e2                	ld	s3,24(sp)
   134a8:	6121                	addi	sp,sp,64
   134aa:	8082                	ret
   134ac:	0007869b          	sext.w	a3,a5
   134b0:	01255783          	lhu	a5,18(a0)
   134b4:	00458913          	addi	s2,a1,4
   134b8:	8ff5                	and	a5,a5,a3
   134ba:	02d79663          	bne	a5,a3,134e6 <emovi+0x9a>
   134be:	e42e                	sd	a1,8(sp)
   134c0:	f1bff0ef          	jal	ra,133da <eisnan.part.0>
   134c4:	65a2                	ld	a1,8(sp)
   134c6:	c105                	beqz	a0,134e6 <emovi+0x9a>
   134c8:	00658793          	addi	a5,a1,6
   134cc:	00059223          	sh	zero,4(a1)
   134d0:	ffc48513          	addi	a0,s1,-4
   134d4:	00045703          	lhu	a4,0(s0)
   134d8:	1479                	addi	s0,s0,-2
   134da:	0789                	addi	a5,a5,2
   134dc:	fee79f23          	sh	a4,-2(a5)
   134e0:	fe851ae3          	bne	a0,s0,134d4 <emovi+0x88>
   134e4:	bf6d                	j	1349e <emovi+0x52>
   134e6:	01a58993          	addi	s3,a1,26
   134ea:	0909                	addi	s2,s2,2
   134ec:	fe091f23          	sh	zero,-2(s2)
   134f0:	ff299de3          	bne	s3,s2,134ea <emovi+0x9e>
   134f4:	70e2                	ld	ra,56(sp)
   134f6:	7442                	ld	s0,48(sp)
   134f8:	74a2                	ld	s1,40(sp)
   134fa:	7902                	ld	s2,32(sp)
   134fc:	69e2                	ld	s3,24(sp)
   134fe:	6121                	addi	sp,sp,64
   13500:	8082                	ret

0000000000013502 <ecmp>:
   13502:	01255783          	lhu	a5,18(a0)
   13506:	711d                	addi	sp,sp,-96
   13508:	e8a2                	sd	s0,80(sp)
   1350a:	fff7c793          	not	a5,a5
   1350e:	e4a6                	sd	s1,72(sp)
   13510:	ec86                	sd	ra,88(sp)
   13512:	03179713          	slli	a4,a5,0x31
   13516:	84aa                	mv	s1,a0
   13518:	842e                	mv	s0,a1
   1351a:	e701                	bnez	a4,13522 <ecmp+0x20>
   1351c:	ebfff0ef          	jal	ra,133da <eisnan.part.0>
   13520:	ed39                	bnez	a0,1357e <ecmp+0x7c>
   13522:	01245783          	lhu	a5,18(s0)
   13526:	fff7c793          	not	a5,a5
   1352a:	03179713          	slli	a4,a5,0x31
   1352e:	c721                	beqz	a4,13576 <ecmp+0x74>
   13530:	858a                	mv	a1,sp
   13532:	8526                	mv	a0,s1
   13534:	f19ff0ef          	jal	ra,1344c <emovi>
   13538:	100c                	addi	a1,sp,32
   1353a:	8522                	mv	a0,s0
   1353c:	f11ff0ef          	jal	ra,1344c <emovi>
   13540:	00015583          	lhu	a1,0(sp)
   13544:	02015783          	lhu	a5,32(sp)
   13548:	02b78d63          	beq	a5,a1,13582 <ecmp+0x80>
   1354c:	00210793          	addi	a5,sp,2
   13550:	02210713          	addi	a4,sp,34
   13554:	0830                	addi	a2,sp,24
   13556:	0007d683          	lhu	a3,0(a5)
   1355a:	0789                	addi	a5,a5,2
   1355c:	e2ad                	bnez	a3,135be <ecmp+0xbc>
   1355e:	00075683          	lhu	a3,0(a4) # 8000 <main-0x80b0>
   13562:	0709                	addi	a4,a4,2
   13564:	eea9                	bnez	a3,135be <ecmp+0xbc>
   13566:	fec798e3          	bne	a5,a2,13556 <ecmp+0x54>
   1356a:	4501                	li	a0,0
   1356c:	60e6                	ld	ra,88(sp)
   1356e:	6446                	ld	s0,80(sp)
   13570:	64a6                	ld	s1,72(sp)
   13572:	6125                	addi	sp,sp,96
   13574:	8082                	ret
   13576:	8522                	mv	a0,s0
   13578:	e63ff0ef          	jal	ra,133da <eisnan.part.0>
   1357c:	d955                	beqz	a0,13530 <ecmp+0x2e>
   1357e:	5579                	li	a0,-2
   13580:	b7f5                	j	1356c <ecmp+0x6a>
   13582:	4505                	li	a0,1
   13584:	e1a9                	bnez	a1,135c6 <ecmp+0xc4>
   13586:	00215603          	lhu	a2,2(sp)
   1358a:	02215683          	lhu	a3,34(sp)
   1358e:	00210713          	addi	a4,sp,2
   13592:	02210793          	addi	a5,sp,34
   13596:	182c                	addi	a1,sp,56
   13598:	0789                	addi	a5,a5,2
   1359a:	0709                	addi	a4,a4,2
   1359c:	00d61c63          	bne	a2,a3,135b4 <ecmp+0xb2>
   135a0:	fcb785e3          	beq	a5,a1,1356a <ecmp+0x68>
   135a4:	00075603          	lhu	a2,0(a4)
   135a8:	0007d683          	lhu	a3,0(a5)
   135ac:	0709                	addi	a4,a4,2
   135ae:	0789                	addi	a5,a5,2
   135b0:	fed608e3          	beq	a2,a3,135a0 <ecmp+0x9e>
   135b4:	fac6ece3          	bltu	a3,a2,1356c <ecmp+0x6a>
   135b8:	40a0053b          	negw	a0,a0
   135bc:	bf45                	j	1356c <ecmp+0x6a>
   135be:	4505                	li	a0,1
   135c0:	d5d5                	beqz	a1,1356c <ecmp+0x6a>
   135c2:	557d                	li	a0,-1
   135c4:	b765                	j	1356c <ecmp+0x6a>
   135c6:	557d                	li	a0,-1
   135c8:	bf7d                	j	13586 <ecmp+0x84>

00000000000135ca <eisinf.part.0>:
   135ca:	1141                	addi	sp,sp,-16
   135cc:	e406                	sd	ra,8(sp)
   135ce:	e0dff0ef          	jal	ra,133da <eisnan.part.0>
   135d2:	60a2                	ld	ra,8(sp)
   135d4:	00153513          	seqz	a0,a0
   135d8:	0141                	addi	sp,sp,16
   135da:	8082                	ret

00000000000135dc <eshift.part.0>:
   135dc:	7179                	addi	sp,sp,-48
   135de:	f022                	sd	s0,32(sp)
   135e0:	ec26                	sd	s1,24(sp)
   135e2:	f406                	sd	ra,40(sp)
   135e4:	e84a                	sd	s2,16(sp)
   135e6:	e44e                	sd	s3,8(sp)
   135e8:	84ae                	mv	s1,a1
   135ea:	842a                	mv	s0,a0
   135ec:	0605cb63          	bltz	a1,13662 <eshift.part.0+0x86>
   135f0:	47bd                	li	a5,15
   135f2:	862e                	mv	a2,a1
   135f4:	0511                	addi	a0,a0,4
   135f6:	01840693          	addi	a3,s0,24
   135fa:	45bd                	li	a1,15
   135fc:	0297d063          	bge	a5,s1,1361c <eshift.part.0+0x40>
   13600:	87aa                	mv	a5,a0
   13602:	0027d703          	lhu	a4,2(a5)
   13606:	0789                	addi	a5,a5,2
   13608:	fee79f23          	sh	a4,-2(a5)
   1360c:	fed79be3          	bne	a5,a3,13602 <eshift.part.0+0x26>
   13610:	00041c23          	sh	zero,24(s0)
   13614:	3641                	addiw	a2,a2,-16
   13616:	fec5c5e3          	blt	a1,a2,13600 <eshift.part.0+0x24>
   1361a:	88bd                	andi	s1,s1,15
   1361c:	479d                	li	a5,7
   1361e:	0297d463          	bge	a5,s1,13646 <eshift.part.0+0x6a>
   13622:	01840713          	addi	a4,s0,24
   13626:	00240593          	addi	a1,s0,2
   1362a:	4781                	li	a5,0
   1362c:	00075683          	lhu	a3,0(a4)
   13630:	1779                	addi	a4,a4,-2
   13632:	00869613          	slli	a2,a3,0x8
   13636:	8fd1                	or	a5,a5,a2
   13638:	00f71123          	sh	a5,2(a4)
   1363c:	0086d793          	srli	a5,a3,0x8
   13640:	feb716e3          	bne	a4,a1,1362c <eshift.part.0+0x50>
   13644:	34e1                	addiw	s1,s1,-8
   13646:	c491                	beqz	s1,13652 <eshift.part.0+0x76>
   13648:	34fd                	addiw	s1,s1,-1
   1364a:	8522                	mv	a0,s0
   1364c:	cc1ff0ef          	jal	ra,1330c <eshup1>
   13650:	fce5                	bnez	s1,13648 <eshift.part.0+0x6c>
   13652:	4501                	li	a0,0
   13654:	70a2                	ld	ra,40(sp)
   13656:	7402                	ld	s0,32(sp)
   13658:	64e2                	ld	s1,24(sp)
   1365a:	6942                	ld	s2,16(sp)
   1365c:	69a2                	ld	s3,8(sp)
   1365e:	6145                	addi	sp,sp,48
   13660:	8082                	ret
   13662:	57c5                	li	a5,-15
   13664:	40b0093b          	negw	s2,a1
   13668:	0ef5d463          	bge	a1,a5,13750 <eshift.part.0+0x174>
   1366c:	01850593          	addi	a1,a0,24
   13670:	4981                	li	s3,0
   13672:	00450693          	addi	a3,a0,4
   13676:	463d                	li	a2,15
   13678:	01845703          	lhu	a4,24(s0)
   1367c:	87ae                	mv	a5,a1
   1367e:	00e9e9b3          	or	s3,s3,a4
   13682:	ffe7d703          	lhu	a4,-2(a5)
   13686:	17f9                	addi	a5,a5,-2
   13688:	00e79123          	sh	a4,2(a5)
   1368c:	fed79be3          	bne	a5,a3,13682 <eshift.part.0+0xa6>
   13690:	00041223          	sh	zero,4(s0)
   13694:	3941                	addiw	s2,s2,-16
   13696:	ff2641e3          	blt	a2,s2,13678 <eshift.part.0+0x9c>
   1369a:	57c1                	li	a5,-16
   1369c:	5745                	li	a4,-15
   1369e:	9f85                	subw	a5,a5,s1
   136a0:	4901                	li	s2,0
   136a2:	08e4c063          	blt	s1,a4,13722 <eshift.part.0+0x146>
   136a6:	00f9093b          	addw	s2,s2,a5
   136aa:	479d                	li	a5,7
   136ac:	0327df63          	bge	a5,s2,136ea <eshift.part.0+0x10e>
   136b0:	0109999b          	slliw	s3,s3,0x10
   136b4:	4109d99b          	sraiw	s3,s3,0x10
   136b8:	01844783          	lbu	a5,24(s0)
   136bc:	01a40593          	addi	a1,s0,26
   136c0:	00f9e9b3          	or	s3,s3,a5
   136c4:	19c2                	slli	s3,s3,0x30
   136c6:	0309d993          	srli	s3,s3,0x30
   136ca:	4781                	li	a5,0
   136cc:	0006d603          	lhu	a2,0(a3)
   136d0:	0689                	addi	a3,a3,2
   136d2:	0086571b          	srliw	a4,a2,0x8
   136d6:	8f5d                	or	a4,a4,a5
   136d8:	0086179b          	slliw	a5,a2,0x8
   136dc:	17c2                	slli	a5,a5,0x30
   136de:	fee69f23          	sh	a4,-2(a3)
   136e2:	93c1                	srli	a5,a5,0x30
   136e4:	feb694e3          	bne	a3,a1,136cc <eshift.part.0+0xf0>
   136e8:	3961                	addiw	s2,s2,-8
   136ea:	04090b63          	beqz	s2,13740 <eshift.part.0+0x164>
   136ee:	01845783          	lhu	a5,24(s0)
   136f2:	397d                	addiw	s2,s2,-1
   136f4:	8522                	mv	a0,s0
   136f6:	8b85                	andi	a5,a5,1
   136f8:	0137e9b3          	or	s3,a5,s3
   136fc:	bc5ff0ef          	jal	ra,132c0 <eshdn1>
   13700:	fe0917e3          	bnez	s2,136ee <eshift.part.0+0x112>
   13704:	0109979b          	slliw	a5,s3,0x10
   13708:	4107d79b          	sraiw	a5,a5,0x10
   1370c:	e78d                	bnez	a5,13736 <eshift.part.0+0x15a>
   1370e:	03099513          	slli	a0,s3,0x30
   13712:	9141                	srli	a0,a0,0x30
   13714:	70a2                	ld	ra,40(sp)
   13716:	7402                	ld	s0,32(sp)
   13718:	64e2                	ld	s1,24(sp)
   1371a:	6942                	ld	s2,16(sp)
   1371c:	69a2                	ld	s3,8(sp)
   1371e:	6145                	addi	sp,sp,48
   13720:	8082                	ret
   13722:	ff07f913          	andi	s2,a5,-16
   13726:	4120093b          	negw	s2,s2
   1372a:	00f9093b          	addw	s2,s2,a5
   1372e:	479d                	li	a5,7
   13730:	fb27dde3          	bge	a5,s2,136ea <eshift.part.0+0x10e>
   13734:	bfb5                	j	136b0 <eshift.part.0+0xd4>
   13736:	4985                	li	s3,1
   13738:	03099513          	slli	a0,s3,0x30
   1373c:	9141                	srli	a0,a0,0x30
   1373e:	bfd9                	j	13714 <eshift.part.0+0x138>
   13740:	854e                	mv	a0,s3
   13742:	00099563          	bnez	s3,1374c <eshift.part.0+0x170>
   13746:	1542                	slli	a0,a0,0x30
   13748:	9141                	srli	a0,a0,0x30
   1374a:	b729                	j	13654 <eshift.part.0+0x78>
   1374c:	4505                	li	a0,1
   1374e:	bfe5                	j	13746 <eshift.part.0+0x16a>
   13750:	57e5                	li	a5,-7
   13752:	4981                	li	s3,0
   13754:	f8f5dde3          	bge	a1,a5,136ee <eshift.part.0+0x112>
   13758:	00440693          	addi	a3,s0,4
   1375c:	bfb1                	j	136b8 <eshift.part.0+0xdc>

000000000001375e <enormlz>:
   1375e:	00455783          	lhu	a5,4(a0)
   13762:	1101                	addi	sp,sp,-32
   13764:	e426                	sd	s1,8(sp)
   13766:	ec06                	sd	ra,24(sp)
   13768:	e822                	sd	s0,16(sp)
   1376a:	e04a                	sd	s2,0(sp)
   1376c:	84aa                	mv	s1,a0
   1376e:	ebc5                	bnez	a5,1381e <enormlz+0xc0>
   13770:	00655703          	lhu	a4,6(a0)
   13774:	4401                	li	s0,0
   13776:	0107179b          	slliw	a5,a4,0x10
   1377a:	4107d79b          	sraiw	a5,a5,0x10
   1377e:	02079693          	slli	a3,a5,0x20
   13782:	0806c763          	bltz	a3,13810 <enormlz+0xb2>
   13786:	01a50693          	addi	a3,a0,26
   1378a:	0a000613          	li	a2,160
   1378e:	e31d                	bnez	a4,137b4 <enormlz+0x56>
   13790:	00648793          	addi	a5,s1,6
   13794:	a019                	j	1379a <enormlz+0x3c>
   13796:	0007d703          	lhu	a4,0(a5)
   1379a:	0789                	addi	a5,a5,2
   1379c:	fee79e23          	sh	a4,-4(a5)
   137a0:	fef69be3          	bne	a3,a5,13796 <enormlz+0x38>
   137a4:	00049c23          	sh	zero,24(s1)
   137a8:	2441                	addiw	s0,s0,16
   137aa:	06c40363          	beq	s0,a2,13810 <enormlz+0xb2>
   137ae:	0064d703          	lhu	a4,6(s1)
   137b2:	df79                	beqz	a4,13790 <enormlz+0x32>
   137b4:	f0077793          	andi	a5,a4,-256
   137b8:	eb8d                	bnez	a5,137ea <enormlz+0x8c>
   137ba:	01848513          	addi	a0,s1,24
   137be:	00248593          	addi	a1,s1,2
   137c2:	4781                	li	a5,0
   137c4:	872a                	mv	a4,a0
   137c6:	00075683          	lhu	a3,0(a4)
   137ca:	1779                	addi	a4,a4,-2
   137cc:	00869613          	slli	a2,a3,0x8
   137d0:	8fd1                	or	a5,a5,a2
   137d2:	00f71123          	sh	a5,2(a4)
   137d6:	0086d793          	srli	a5,a3,0x8
   137da:	fee596e3          	bne	a1,a4,137c6 <enormlz+0x68>
   137de:	0064d703          	lhu	a4,6(s1)
   137e2:	2421                	addiw	s0,s0,8
   137e4:	f0077793          	andi	a5,a4,-256
   137e8:	dfe9                	beqz	a5,137c2 <enormlz+0x64>
   137ea:	0a000913          	li	s2,160
   137ee:	a801                	j	137fe <enormlz+0xa0>
   137f0:	2405                	addiw	s0,s0,1
   137f2:	b1bff0ef          	jal	ra,1330c <eshup1>
   137f6:	00894d63          	blt	s2,s0,13810 <enormlz+0xb2>
   137fa:	0064d703          	lhu	a4,6(s1)
   137fe:	0107171b          	slliw	a4,a4,0x10
   13802:	4107571b          	sraiw	a4,a4,0x10
   13806:	02071793          	slli	a5,a4,0x20
   1380a:	8526                	mv	a0,s1
   1380c:	fe07d2e3          	bgez	a5,137f0 <enormlz+0x92>
   13810:	60e2                	ld	ra,24(sp)
   13812:	8522                	mv	a0,s0
   13814:	6442                	ld	s0,16(sp)
   13816:	64a2                	ld	s1,8(sp)
   13818:	6902                	ld	s2,0(sp)
   1381a:	6105                	addi	sp,sp,32
   1381c:	8082                	ret
   1381e:	f007f713          	andi	a4,a5,-256
   13822:	4401                	li	s0,0
   13824:	e705                	bnez	a4,1384c <enormlz+0xee>
   13826:	f6f00913          	li	s2,-145
   1382a:	a801                	j	1383a <enormlz+0xdc>
   1382c:	347d                	addiw	s0,s0,-1
   1382e:	a93ff0ef          	jal	ra,132c0 <eshdn1>
   13832:	fd240fe3          	beq	s0,s2,13810 <enormlz+0xb2>
   13836:	0044d783          	lhu	a5,4(s1)
   1383a:	8526                	mv	a0,s1
   1383c:	fbe5                	bnez	a5,1382c <enormlz+0xce>
   1383e:	60e2                	ld	ra,24(sp)
   13840:	8522                	mv	a0,s0
   13842:	6442                	ld	s0,16(sp)
   13844:	64a2                	ld	s1,8(sp)
   13846:	6902                	ld	s2,0(sp)
   13848:	6105                	addi	sp,sp,32
   1384a:	8082                	ret
   1384c:	00450693          	addi	a3,a0,4
   13850:	01a50593          	addi	a1,a0,26
   13854:	4701                	li	a4,0
   13856:	a019                	j	1385c <enormlz+0xfe>
   13858:	0006d783          	lhu	a5,0(a3)
   1385c:	0087d61b          	srliw	a2,a5,0x8
   13860:	8f51                	or	a4,a4,a2
   13862:	0087979b          	slliw	a5,a5,0x8
   13866:	00e69023          	sh	a4,0(a3)
   1386a:	03079713          	slli	a4,a5,0x30
   1386e:	0689                	addi	a3,a3,2
   13870:	9341                	srli	a4,a4,0x30
   13872:	feb693e3          	bne	a3,a1,13858 <enormlz+0xfa>
   13876:	0044d783          	lhu	a5,4(s1)
   1387a:	5461                	li	s0,-8
   1387c:	b76d                	j	13826 <enormlz+0xc8>

000000000001387e <emdnorm>:
   1387e:	7139                	addi	sp,sp,-64
   13880:	f822                	sd	s0,48(sp)
   13882:	f426                	sd	s1,40(sp)
   13884:	f04a                	sd	s2,32(sp)
   13886:	ec4e                	sd	s3,24(sp)
   13888:	e852                	sd	s4,16(sp)
   1388a:	e456                	sd	s5,8(sp)
   1388c:	8936                	mv	s2,a3
   1388e:	84be                	mv	s1,a5
   13890:	fc06                	sd	ra,56(sp)
   13892:	842a                	mv	s0,a0
   13894:	89ae                	mv	s3,a1
   13896:	8a32                	mv	s4,a2
   13898:	8aba                	mv	s5,a4
   1389a:	ec5ff0ef          	jal	ra,1375e <enormlz>
   1389e:	09000793          	li	a5,144
   138a2:	40a90933          	sub	s2,s2,a0
   138a6:	12a7db63          	bge	a5,a0,139dc <emdnorm+0x15e>
   138aa:	67a1                	lui	a5,0x8
   138ac:	17f9                	addi	a5,a5,-2
   138ae:	1927dd63          	bge	a5,s2,13a48 <emdnorm+0x1ca>
   138b2:	160a8b63          	beqz	s5,13a28 <emdnorm+0x1aa>
   138b6:	40c8                	lw	a0,4(s1)
   138b8:	409c                	lw	a5,0(s1)
   138ba:	04a78e63          	beq	a5,a0,13916 <emdnorm+0x98>
   138be:	01a48713          	addi	a4,s1,26
   138c2:	03448793          	addi	a5,s1,52
   138c6:	0709                	addi	a4,a4,2
   138c8:	fe071f23          	sh	zero,-2(a4)
   138cc:	fef71de3          	bne	a4,a5,138c6 <emdnorm+0x48>
   138d0:	03800793          	li	a5,56
   138d4:	28f50263          	beq	a0,a5,13b58 <emdnorm+0x2da>
   138d8:	12a7d163          	bge	a5,a0,139fa <emdnorm+0x17c>
   138dc:	04000793          	li	a5,64
   138e0:	24f50c63          	beq	a0,a5,13b38 <emdnorm+0x2ba>
   138e4:	07100793          	li	a5,113
   138e8:	28f51163          	bne	a0,a5,13b6a <emdnorm+0x2ec>
   138ec:	47a9                	li	a5,10
   138ee:	40008737          	lui	a4,0x40008
   138f2:	177d                	addi	a4,a4,-1
   138f4:	1782                	slli	a5,a5,0x20
   138f6:	07a9                	addi	a5,a5,10
   138f8:	c8d8                	sw	a4,20(s1)
   138fa:	7761                	lui	a4,0xffff8
   138fc:	00e49c23          	sh	a4,24(s1)
   13900:	e49c                	sd	a5,8(s1)
   13902:	6721                	lui	a4,0x8
   13904:	47a9                	li	a5,10
   13906:	07a1                	addi	a5,a5,8
   13908:	0786                	slli	a5,a5,0x1
   1390a:	97a6                	add	a5,a5,s1
   1390c:	00e79523          	sh	a4,10(a5) # 800a <main-0x80a6>
   13910:	c088                	sw	a0,0(s1)
   13912:	17205163          	blez	s2,13a74 <emdnorm+0x1f6>
   13916:	4494                	lw	a3,8(s1)
   13918:	0144d603          	lhu	a2,20(s1)
   1391c:	08f00793          	li	a5,143
   13920:	00169713          	slli	a4,a3,0x1
   13924:	00e40833          	add	a6,s0,a4
   13928:	00085883          	lhu	a7,0(a6) # ffffffffffff8000 <__BSS_END__+0xfffffffffffd8b50>
   1392c:	00c8f5b3          	and	a1,a7,a2
   13930:	02a7ce63          	blt	a5,a0,1396c <emdnorm+0xee>
   13934:	47ad                	li	a5,11
   13936:	02d7cb63          	blt	a5,a3,1396c <emdnorm+0xee>
   1393a:	9f95                	subw	a5,a5,a3
   1393c:	1782                	slli	a5,a5,0x20
   1393e:	9381                	srli	a5,a5,0x20
   13940:	97b6                	add	a5,a5,a3
   13942:	00179693          	slli	a3,a5,0x1
   13946:	0709                	addi	a4,a4,2
   13948:	00440793          	addi	a5,s0,4
   1394c:	9722                	add	a4,a4,s0
   1394e:	97b6                	add	a5,a5,a3
   13950:	00075683          	lhu	a3,0(a4) # 8000 <main-0x80b0>
   13954:	c299                	beqz	a3,1395a <emdnorm+0xdc>
   13956:	0015e593          	ori	a1,a1,1
   1395a:	00071023          	sh	zero,0(a4)
   1395e:	0709                	addi	a4,a4,2
   13960:	fee798e3          	bne	a5,a4,13950 <emdnorm+0xd2>
   13964:	00085883          	lhu	a7,0(a6)
   13968:	0144d603          	lhu	a2,20(s1)
   1396c:	fff64613          	not	a2,a2
   13970:	01167633          	and	a2,a2,a7
   13974:	00c81023          	sh	a2,0(a6)
   13978:	0164d783          	lhu	a5,22(s1)
   1397c:	00b7f733          	and	a4,a5,a1
   13980:	cb05                	beqz	a4,139b0 <emdnorm+0x132>
   13982:	12b78f63          	beq	a5,a1,13ac0 <emdnorm+0x242>
   13986:	03248613          	addi	a2,s1,50
   1398a:	01840693          	addi	a3,s0,24
   1398e:	04f1                	addi	s1,s1,28
   13990:	4701                	li	a4,0
   13992:	00065783          	lhu	a5,0(a2)
   13996:	0006d583          	lhu	a1,0(a3)
   1399a:	16f9                	addi	a3,a3,-2
   1399c:	1679                	addi	a2,a2,-2
   1399e:	97ae                	add	a5,a5,a1
   139a0:	97ba                	add	a5,a5,a4
   139a2:	0107d713          	srli	a4,a5,0x10
   139a6:	00f69123          	sh	a5,2(a3)
   139aa:	8b05                	andi	a4,a4,1
   139ac:	fe9613e3          	bne	a2,s1,13992 <emdnorm+0x114>
   139b0:	13205663          	blez	s2,13adc <emdnorm+0x25e>
   139b4:	00445783          	lhu	a5,4(s0)
   139b8:	e7ed                	bnez	a5,13aa2 <emdnorm+0x224>
   139ba:	67a1                	lui	a5,0x8
   139bc:	00041c23          	sh	zero,24(s0)
   139c0:	17f9                	addi	a5,a5,-2
   139c2:	0727c563          	blt	a5,s2,13a2c <emdnorm+0x1ae>
   139c6:	01241123          	sh	s2,2(s0)
   139ca:	70e2                	ld	ra,56(sp)
   139cc:	7442                	ld	s0,48(sp)
   139ce:	74a2                	ld	s1,40(sp)
   139d0:	7902                	ld	s2,32(sp)
   139d2:	69e2                	ld	s3,24(sp)
   139d4:	6a42                	ld	s4,16(sp)
   139d6:	6aa2                	ld	s5,8(sp)
   139d8:	6121                	addi	sp,sp,64
   139da:	8082                	ret
   139dc:	0a095a63          	bgez	s2,13a90 <emdnorm+0x212>
   139e0:	f7000793          	li	a5,-144
   139e4:	06f95b63          	bge	s2,a5,13a5a <emdnorm+0x1dc>
   139e8:	00240793          	addi	a5,s0,2
   139ec:	0469                	addi	s0,s0,26
   139ee:	0789                	addi	a5,a5,2
   139f0:	fe079f23          	sh	zero,-2(a5) # 7ffe <main-0x80b2>
   139f4:	fe879de3          	bne	a5,s0,139ee <emdnorm+0x170>
   139f8:	bfc9                	j	139ca <emdnorm+0x14c>
   139fa:	47e1                	li	a5,24
   139fc:	10f50f63          	beq	a0,a5,13b1a <emdnorm+0x29c>
   13a00:	03500793          	li	a5,53
   13a04:	16f51363          	bne	a0,a5,13b6a <emdnorm+0x2ec>
   13a08:	040006b7          	lui	a3,0x4000
   13a0c:	6705                	lui	a4,0x1
   13a0e:	7ff68693          	addi	a3,a3,2047 # 40007ff <__BSS_END__+0x3fe134f>
   13a12:	4799                	li	a5,6
   13a14:	80070713          	addi	a4,a4,-2048 # 800 <main-0xf8b0>
   13a18:	c8d4                	sw	a3,20(s1)
   13a1a:	1782                	slli	a5,a5,0x20
   13a1c:	0799                	addi	a5,a5,6
   13a1e:	e49c                	sd	a5,8(s1)
   13a20:	00e49c23          	sh	a4,24(s1)
   13a24:	4799                	li	a5,6
   13a26:	b5c5                	j	13906 <emdnorm+0x88>
   13a28:	00041c23          	sh	zero,24(s0)
   13a2c:	77e1                	lui	a5,0xffff8
   13a2e:	fff7c793          	not	a5,a5
   13a32:	00f41123          	sh	a5,2(s0)
   13a36:	00440793          	addi	a5,s0,4
   13a3a:	0461                	addi	s0,s0,24
   13a3c:	00079023          	sh	zero,0(a5) # ffffffffffff8000 <__BSS_END__+0xfffffffffffd8b50>
   13a40:	0789                	addi	a5,a5,2
   13a42:	fef41de3          	bne	s0,a5,13a3c <emdnorm+0x1be>
   13a46:	b751                	j	139ca <emdnorm+0x14c>
   13a48:	00240793          	addi	a5,s0,2
   13a4c:	0469                	addi	s0,s0,26
   13a4e:	0789                	addi	a5,a5,2
   13a50:	fe079f23          	sh	zero,-2(a5)
   13a54:	fe879de3          	bne	a5,s0,13a4e <emdnorm+0x1d0>
   13a58:	bf8d                	j	139ca <emdnorm+0x14c>
   13a5a:	0009059b          	sext.w	a1,s2
   13a5e:	8522                	mv	a0,s0
   13a60:	b7dff0ef          	jal	ra,135dc <eshift.part.0>
   13a64:	c111                	beqz	a0,13a68 <emdnorm+0x1ea>
   13a66:	4985                	li	s3,1
   13a68:	0a0a8463          	beqz	s5,13b10 <emdnorm+0x292>
   13a6c:	40c8                	lw	a0,4(s1)
   13a6e:	409c                	lw	a5,0(s1)
   13a70:	e4a797e3          	bne	a5,a0,138be <emdnorm+0x40>
   13a74:	09000793          	li	a5,144
   13a78:	08f50163          	beq	a0,a5,13afa <emdnorm+0x27c>
   13a7c:	01845783          	lhu	a5,24(s0)
   13a80:	8522                	mv	a0,s0
   13a82:	8b85                	andi	a5,a5,1
   13a84:	00f9e9b3          	or	s3,s3,a5
   13a88:	839ff0ef          	jal	ra,132c0 <eshdn1>
   13a8c:	40c8                	lw	a0,4(s1)
   13a8e:	b561                	j	13916 <emdnorm+0x98>
   13a90:	f20a85e3          	beqz	s5,139ba <emdnorm+0x13c>
   13a94:	40c8                	lw	a0,4(s1)
   13a96:	409c                	lw	a5,0(s1)
   13a98:	e2a793e3          	bne	a5,a0,138be <emdnorm+0x40>
   13a9c:	e7204de3          	bgtz	s2,13916 <emdnorm+0x98>
   13aa0:	bfd1                	j	13a74 <emdnorm+0x1f6>
   13aa2:	8522                	mv	a0,s0
   13aa4:	81dff0ef          	jal	ra,132c0 <eshdn1>
   13aa8:	67a1                	lui	a5,0x8
   13aaa:	0905                	addi	s2,s2,1
   13aac:	00041c23          	sh	zero,24(s0)
   13ab0:	17f9                	addi	a5,a5,-2
   13ab2:	f727cde3          	blt	a5,s2,13a2c <emdnorm+0x1ae>
   13ab6:	f00958e3          	bgez	s2,139c6 <emdnorm+0x148>
   13aba:	00041123          	sh	zero,2(s0)
   13abe:	b731                	j	139ca <emdnorm+0x14c>
   13ac0:	08099963          	bnez	s3,13b52 <emdnorm+0x2d4>
   13ac4:	44dc                	lw	a5,12(s1)
   13ac6:	0184d703          	lhu	a4,24(s1)
   13aca:	0786                	slli	a5,a5,0x1
   13acc:	97a2                	add	a5,a5,s0
   13ace:	0007d783          	lhu	a5,0(a5) # 8000 <main-0x80b0>
   13ad2:	8ff9                	and	a5,a5,a4
   13ad4:	ea0799e3          	bnez	a5,13986 <emdnorm+0x108>
   13ad8:	ed204ee3          	bgtz	s2,139b4 <emdnorm+0x136>
   13adc:	09000793          	li	a5,144
   13ae0:	00f50563          	beq	a0,a5,13aea <emdnorm+0x26c>
   13ae4:	8522                	mv	a0,s0
   13ae6:	827ff0ef          	jal	ra,1330c <eshup1>
   13aea:	00445783          	lhu	a5,4(s0)
   13aee:	fbd5                	bnez	a5,13aa2 <emdnorm+0x224>
   13af0:	00041c23          	sh	zero,24(s0)
   13af4:	fc0943e3          	bltz	s2,13aba <emdnorm+0x23c>
   13af8:	b5f9                	j	139c6 <emdnorm+0x148>
   13afa:	0084a803          	lw	a6,8(s1)
   13afe:	0144d603          	lhu	a2,20(s1)
   13b02:	0806                	slli	a6,a6,0x1
   13b04:	9822                	add	a6,a6,s0
   13b06:	00085883          	lhu	a7,0(a6)
   13b0a:	011675b3          	and	a1,a2,a7
   13b0e:	bdb9                	j	1396c <emdnorm+0xee>
   13b10:	00041c23          	sh	zero,24(s0)
   13b14:	00041123          	sh	zero,2(s0)
   13b18:	bd4d                	j	139ca <emdnorm+0x14c>
   13b1a:	4791                	li	a5,4
   13b1c:	00800737          	lui	a4,0x800
   13b20:	0ff70713          	addi	a4,a4,255 # 8000ff <__BSS_END__+0x7e0c4f>
   13b24:	1782                	slli	a5,a5,0x20
   13b26:	0791                	addi	a5,a5,4
   13b28:	c8d8                	sw	a4,20(s1)
   13b2a:	10000713          	li	a4,256
   13b2e:	e49c                	sd	a5,8(s1)
   13b30:	00e49c23          	sh	a4,24(s1)
   13b34:	4791                	li	a5,4
   13b36:	bbc1                	j	13906 <emdnorm+0x88>
   13b38:	478d                	li	a5,3
   13b3a:	80010737          	lui	a4,0x80010
   13b3e:	177d                	addi	a4,a4,-1
   13b40:	1786                	slli	a5,a5,0x21
   13b42:	079d                	addi	a5,a5,7
   13b44:	c8d8                	sw	a4,20(s1)
   13b46:	4705                	li	a4,1
   13b48:	e49c                	sd	a5,8(s1)
   13b4a:	00e49c23          	sh	a4,24(s1)
   13b4e:	4799                	li	a5,6
   13b50:	bb5d                	j	13906 <emdnorm+0x88>
   13b52:	e20a0ae3          	beqz	s4,13986 <emdnorm+0x108>
   13b56:	bda9                	j	139b0 <emdnorm+0x132>
   13b58:	00800737          	lui	a4,0x800
   13b5c:	0ff70713          	addi	a4,a4,255 # 8000ff <__BSS_END__+0x7e0c4f>
   13b60:	c8d8                	sw	a4,20(s1)
   13b62:	4799                	li	a5,6
   13b64:	10000713          	li	a4,256
   13b68:	bd4d                	j	13a1a <emdnorm+0x19c>
   13b6a:	47ad                	li	a5,11
   13b6c:	80010737          	lui	a4,0x80010
   13b70:	177d                	addi	a4,a4,-1
   13b72:	1782                	slli	a5,a5,0x20
   13b74:	07b1                	addi	a5,a5,12
   13b76:	c8d8                	sw	a4,20(s1)
   13b78:	4705                	li	a4,1
   13b7a:	e49c                	sd	a5,8(s1)
   13b7c:	00e49c23          	sh	a4,24(s1)
   13b80:	47ad                	li	a5,11
   13b82:	b351                	j	13906 <emdnorm+0x88>

0000000000013b84 <eiremain>:
   13b84:	711d                	addi	sp,sp,-96
   13b86:	e4a6                	sd	s1,72(sp)
   13b88:	fc4e                	sd	s3,56(sp)
   13b8a:	84ae                	mv	s1,a1
   13b8c:	00255983          	lhu	s3,2(a0)
   13b90:	ec86                	sd	ra,88(sp)
   13b92:	e8a2                	sd	s0,80(sp)
   13b94:	e0ca                	sd	s2,64(sp)
   13b96:	f852                	sd	s4,48(sp)
   13b98:	8932                	mv	s2,a2
   13b9a:	f456                	sd	s5,40(sp)
   13b9c:	f05a                	sd	s6,32(sp)
   13b9e:	ec5e                	sd	s7,24(sp)
   13ba0:	e862                	sd	s8,16(sp)
   13ba2:	e466                	sd	s9,8(sp)
   13ba4:	e06a                	sd	s10,0(sp)
   13ba6:	8a2a                	mv	s4,a0
   13ba8:	bb7ff0ef          	jal	ra,1375e <enormlz>
   13bac:	0024d403          	lhu	s0,2(s1)
   13bb0:	87aa                	mv	a5,a0
   13bb2:	8526                	mv	a0,s1
   13bb4:	40f989b3          	sub	s3,s3,a5
   13bb8:	03490a93          	addi	s5,s2,52
   13bbc:	ba3ff0ef          	jal	ra,1375e <enormlz>
   13bc0:	8c09                	sub	s0,s0,a0
   13bc2:	04e90713          	addi	a4,s2,78
   13bc6:	87d6                	mv	a5,s5
   13bc8:	0789                	addi	a5,a5,2
   13bca:	fe079f23          	sh	zero,-2(a5)
   13bce:	fee79de3          	bne	a5,a4,13bc8 <eiremain+0x44>
   13bd2:	07344b63          	blt	s0,s3,13c48 <eiremain+0xc4>
   13bd6:	004a0b93          	addi	s7,s4,4
   13bda:	00448b13          	addi	s6,s1,4
   13bde:	19fd                	addi	s3,s3,-1
   13be0:	01aa0c93          	addi	s9,s4,26
   13be4:	00248c13          	addi	s8,s1,2
   13be8:	875a                	mv	a4,s6
   13bea:	87de                	mv	a5,s7
   13bec:	0007d603          	lhu	a2,0(a5)
   13bf0:	00075683          	lhu	a3,0(a4) # ffffffff80010000 <__BSS_END__+0xffffffff7fff0b50>
   13bf4:	0789                	addi	a5,a5,2
   13bf6:	0709                	addi	a4,a4,2
   13bf8:	06d61c63          	bne	a2,a3,13c70 <eiremain+0xec>
   13bfc:	fefc98e3          	bne	s9,a5,13bec <eiremain+0x68>
   13c00:	018a0613          	addi	a2,s4,24
   13c04:	01848713          	addi	a4,s1,24
   13c08:	4681                	li	a3,0
   13c0a:	00075783          	lhu	a5,0(a4)
   13c0e:	00065583          	lhu	a1,0(a2)
   13c12:	1779                	addi	a4,a4,-2
   13c14:	8f95                	sub	a5,a5,a3
   13c16:	8f8d                	sub	a5,a5,a1
   13c18:	0107d693          	srli	a3,a5,0x10
   13c1c:	00f71123          	sh	a5,2(a4)
   13c20:	8a85                	andi	a3,a3,1
   13c22:	1679                	addi	a2,a2,-2
   13c24:	feec13e3          	bne	s8,a4,13c0a <eiremain+0x86>
   13c28:	4d05                	li	s10,1
   13c2a:	8556                	mv	a0,s5
   13c2c:	ee0ff0ef          	jal	ra,1330c <eshup1>
   13c30:	04c95783          	lhu	a5,76(s2)
   13c34:	147d                	addi	s0,s0,-1
   13c36:	8526                	mv	a0,s1
   13c38:	00fd6d33          	or	s10,s10,a5
   13c3c:	05a91623          	sh	s10,76(s2)
   13c40:	eccff0ef          	jal	ra,1330c <eshup1>
   13c44:	fb3412e3          	bne	s0,s3,13be8 <eiremain+0x64>
   13c48:	86a2                	mv	a3,s0
   13c4a:	6446                	ld	s0,80(sp)
   13c4c:	60e6                	ld	ra,88(sp)
   13c4e:	79e2                	ld	s3,56(sp)
   13c50:	7a42                	ld	s4,48(sp)
   13c52:	7aa2                	ld	s5,40(sp)
   13c54:	7b02                	ld	s6,32(sp)
   13c56:	6be2                	ld	s7,24(sp)
   13c58:	6c42                	ld	s8,16(sp)
   13c5a:	6ca2                	ld	s9,8(sp)
   13c5c:	6d02                	ld	s10,0(sp)
   13c5e:	87ca                	mv	a5,s2
   13c60:	8526                	mv	a0,s1
   13c62:	6906                	ld	s2,64(sp)
   13c64:	64a6                	ld	s1,72(sp)
   13c66:	4701                	li	a4,0
   13c68:	4601                	li	a2,0
   13c6a:	4581                	li	a1,0
   13c6c:	6125                	addi	sp,sp,96
   13c6e:	b901                	j	1387e <emdnorm>
   13c70:	4d01                	li	s10,0
   13c72:	fac6ece3          	bltu	a3,a2,13c2a <eiremain+0xa6>
   13c76:	b769                	j	13c00 <eiremain+0x7c>

0000000000013c78 <emovo.isra.0>:
   13c78:	00055703          	lhu	a4,0(a0)
   13c7c:	00255783          	lhu	a5,2(a0)
   13c80:	c319                	beqz	a4,13c86 <emovo.isra.0+0xe>
   13c82:	6721                	lui	a4,0x8
   13c84:	8fd9                	or	a5,a5,a4
   13c86:	00f59923          	sh	a5,18(a1)
   13c8a:	00255703          	lhu	a4,2(a0)
   13c8e:	67a1                	lui	a5,0x8
   13c90:	17fd                	addi	a5,a5,-1
   13c92:	00f70f63          	beq	a4,a5,13cb0 <emovo.isra.0+0x38>
   13c96:	00650793          	addi	a5,a0,6
   13c9a:	05c1                	addi	a1,a1,16
   13c9c:	0561                	addi	a0,a0,24
   13c9e:	0007d703          	lhu	a4,0(a5) # 8000 <main-0x80b0>
   13ca2:	0789                	addi	a5,a5,2
   13ca4:	15f9                	addi	a1,a1,-2
   13ca6:	00e59123          	sh	a4,2(a1)
   13caa:	fea79ae3          	bne	a5,a0,13c9e <emovo.isra.0+0x26>
   13cae:	8082                	ret
   13cb0:	00650793          	addi	a5,a0,6
   13cb4:	0569                	addi	a0,a0,26
   13cb6:	0007d703          	lhu	a4,0(a5)
   13cba:	0789                	addi	a5,a5,2
   13cbc:	e31d                	bnez	a4,13ce2 <emovo.isra.0+0x6a>
   13cbe:	fea79ce3          	bne	a5,a0,13cb6 <emovo.isra.0+0x3e>
   13cc2:	01258713          	addi	a4,a1,18
   13cc6:	87ae                	mv	a5,a1
   13cc8:	0789                	addi	a5,a5,2
   13cca:	fe079f23          	sh	zero,-2(a5)
   13cce:	fef71de3          	bne	a4,a5,13cc8 <emovo.isra.0+0x50>
   13cd2:	0125d783          	lhu	a5,18(a1)
   13cd6:	6721                	lui	a4,0x8
   13cd8:	177d                	addi	a4,a4,-1
   13cda:	8fd9                	or	a5,a5,a4
   13cdc:	00f59923          	sh	a5,18(a1)
   13ce0:	8082                	ret
   13ce2:	01058713          	addi	a4,a1,16
   13ce6:	87ae                	mv	a5,a1
   13ce8:	0789                	addi	a5,a5,2
   13cea:	fe079f23          	sh	zero,-2(a5)
   13cee:	fef71de3          	bne	a4,a5,13ce8 <emovo.isra.0+0x70>
   13cf2:	7fffc7b7          	lui	a5,0x7fffc
   13cf6:	c99c                	sw	a5,16(a1)
   13cf8:	8082                	ret

0000000000013cfa <emul>:
   13cfa:	7131                	addi	sp,sp,-192
   13cfc:	e556                	sd	s5,136(sp)
   13cfe:	01255a83          	lhu	s5,18(a0)
   13d02:	67a1                	lui	a5,0x8
   13d04:	17fd                	addi	a5,a5,-1
   13d06:	f922                	sd	s0,176(sp)
   13d08:	f526                	sd	s1,168(sp)
   13d0a:	f14a                	sd	s2,160(sp)
   13d0c:	ed4e                	sd	s3,152(sp)
   13d0e:	e15a                	sd	s6,128(sp)
   13d10:	fd06                	sd	ra,184(sp)
   13d12:	e952                	sd	s4,144(sp)
   13d14:	fcde                	sd	s7,120(sp)
   13d16:	f8e2                	sd	s8,112(sp)
   13d18:	f4e6                	sd	s9,104(sp)
   13d1a:	0157fb33          	and	s6,a5,s5
   13d1e:	84aa                	mv	s1,a0
   13d20:	892e                	mv	s2,a1
   13d22:	8432                	mv	s0,a2
   13d24:	89b6                	mv	s3,a3
   13d26:	0cfb1263          	bne	s6,a5,13dea <emul+0xf0>
   13d2a:	eb0ff0ef          	jal	ra,133da <eisnan.part.0>
   13d2e:	1e051863          	bnez	a0,13f1e <emul+0x224>
   13d32:	01295a03          	lhu	s4,18(s2)
   13d36:	014b77b3          	and	a5,s6,s4
   13d3a:	1f678d63          	beq	a5,s6,13f34 <emul+0x23a>
   13d3e:	8526                	mv	a0,s1
   13d40:	88bff0ef          	jal	ra,135ca <eisinf.part.0>
   13d44:	22050c63          	beqz	a0,13f7c <emul+0x282>
   13d48:	00009597          	auipc	a1,0x9
   13d4c:	a6058593          	addi	a1,a1,-1440 # 1c7a8 <ezero>
   13d50:	854a                	mv	a0,s2
   13d52:	fb0ff0ef          	jal	ra,13502 <ecmp>
   13d56:	28050963          	beqz	a0,13fe8 <emul+0x2ee>
   13d5a:	01295a03          	lhu	s4,18(s2)
   13d5e:	67a1                	lui	a5,0x8
   13d60:	17fd                	addi	a5,a5,-1
   13d62:	0147fa33          	and	s4,a5,s4
   13d66:	1a42                	slli	s4,s4,0x30
   13d68:	030a5a13          	srli	s4,s4,0x30
   13d6c:	20fa1663          	bne	s4,a5,13f78 <emul+0x27e>
   13d70:	854a                	mv	a0,s2
   13d72:	859ff0ef          	jal	ra,135ca <eisinf.part.0>
   13d76:	24051a63          	bnez	a0,13fca <emul+0x2d0>
   13d7a:	0124d783          	lhu	a5,18(s1)
   13d7e:	00fa77b3          	and	a5,s4,a5
   13d82:	07479a63          	bne	a5,s4,13df6 <emul+0xfc>
   13d86:	8526                	mv	a0,s1
   13d88:	843ff0ef          	jal	ra,135ca <eisinf.part.0>
   13d8c:	e509                	bnez	a0,13d96 <emul+0x9c>
   13d8e:	854a                	mv	a0,s2
   13d90:	83bff0ef          	jal	ra,135ca <eisinf.part.0>
   13d94:	c12d                	beqz	a0,13df6 <emul+0xfc>
   13d96:	8526                	mv	a0,s1
   13d98:	e8aff0ef          	jal	ra,13422 <eisneg>
   13d9c:	84aa                	mv	s1,a0
   13d9e:	854a                	mv	a0,s2
   13da0:	e82ff0ef          	jal	ra,13422 <eisneg>
   13da4:	40a48533          	sub	a0,s1,a0
   13da8:	00a03533          	snez	a0,a0
   13dac:	053e                	slli	a0,a0,0xf
   13dae:	00a41923          	sh	a0,18(s0)
   13db2:	01240713          	addi	a4,s0,18
   13db6:	87a2                	mv	a5,s0
   13db8:	0789                	addi	a5,a5,2
   13dba:	fe079f23          	sh	zero,-2(a5) # 7ffe <main-0x80b2>
   13dbe:	fef71de3          	bne	a4,a5,13db8 <emul+0xbe>
   13dc2:	01245783          	lhu	a5,18(s0)
   13dc6:	6721                	lui	a4,0x8
   13dc8:	177d                	addi	a4,a4,-1
   13dca:	8fd9                	or	a5,a5,a4
   13dcc:	00f41923          	sh	a5,18(s0)
   13dd0:	70ea                	ld	ra,184(sp)
   13dd2:	744a                	ld	s0,176(sp)
   13dd4:	74aa                	ld	s1,168(sp)
   13dd6:	790a                	ld	s2,160(sp)
   13dd8:	69ea                	ld	s3,152(sp)
   13dda:	6a4a                	ld	s4,144(sp)
   13ddc:	6aaa                	ld	s5,136(sp)
   13dde:	6b0a                	ld	s6,128(sp)
   13de0:	7be6                	ld	s7,120(sp)
   13de2:	7c46                	ld	s8,112(sp)
   13de4:	7ca6                	ld	s9,104(sp)
   13de6:	6129                	addi	sp,sp,192
   13de8:	8082                	ret
   13dea:	0125da03          	lhu	s4,18(a1)
   13dee:	0147f733          	and	a4,a5,s4
   13df2:	02f70f63          	beq	a4,a5,13e30 <emul+0x136>
   13df6:	8526                	mv	a0,s1
   13df8:	858a                	mv	a1,sp
   13dfa:	e52ff0ef          	jal	ra,1344c <emovi>
   13dfe:	854a                	mv	a0,s2
   13e00:	100c                	addi	a1,sp,32
   13e02:	e4aff0ef          	jal	ra,1344c <emovi>
   13e06:	00215483          	lhu	s1,2(sp)
   13e0a:	02215903          	lhu	s2,34(sp)
   13e0e:	e0a1                	bnez	s1,13e4e <emul+0x154>
   13e10:	005c                	addi	a5,sp,4
   13e12:	0834                	addi	a3,sp,24
   13e14:	18f68b63          	beq	a3,a5,13faa <emul+0x2b0>
   13e18:	0007d703          	lhu	a4,0(a5)
   13e1c:	0789                	addi	a5,a5,2
   13e1e:	db7d                	beqz	a4,13e14 <emul+0x11a>
   13e20:	850a                	mv	a0,sp
   13e22:	93dff0ef          	jal	ra,1375e <enormlz>
   13e26:	02215703          	lhu	a4,34(sp)
   13e2a:	40a004b3          	neg	s1,a0
   13e2e:	a00d                	j	13e50 <emul+0x156>
   13e30:	852e                	mv	a0,a1
   13e32:	da8ff0ef          	jal	ra,133da <eisnan.part.0>
   13e36:	d505                	beqz	a0,13d5e <emul+0x64>
   13e38:	01490713          	addi	a4,s2,20
   13e3c:	00095783          	lhu	a5,0(s2)
   13e40:	0909                	addi	s2,s2,2
   13e42:	0409                	addi	s0,s0,2
   13e44:	fef41f23          	sh	a5,-2(s0)
   13e48:	fee91ae3          	bne	s2,a4,13e3c <emul+0x142>
   13e4c:	b751                	j	13dd0 <emul+0xd6>
   13e4e:	874a                	mv	a4,s2
   13e50:	8aca                	mv	s5,s2
   13e52:	105c                	addi	a5,sp,36
   13e54:	1834                	addi	a3,sp,56
   13e56:	ef11                	bnez	a4,13e72 <emul+0x178>
   13e58:	16f68163          	beq	a3,a5,13fba <emul+0x2c0>
   13e5c:	0007d703          	lhu	a4,0(a5)
   13e60:	0789                	addi	a5,a5,2
   13e62:	db7d                	beqz	a4,13e58 <emul+0x15e>
   13e64:	1008                	addi	a0,sp,32
   13e66:	8f9ff0ef          	jal	ra,1375e <enormlz>
   13e6a:	02215703          	lhu	a4,34(sp)
   13e6e:	40a90ab3          	sub	s5,s2,a0
   13e72:	02015783          	lhu	a5,32(sp)
   13e76:	03898c13          	addi	s8,s3,56
   13e7a:	02e99b23          	sh	a4,54(s3)
   13e7e:	02f99a23          	sh	a5,52(s3)
   13e82:	04e98713          	addi	a4,s3,78
   13e86:	87e2                	mv	a5,s8
   13e88:	00079023          	sh	zero,0(a5)
   13e8c:	0789                	addi	a5,a5,2
   13e8e:	fef71de3          	bne	a4,a5,13e88 <emul+0x18e>
   13e92:	04c98a13          	addi	s4,s3,76
   13e96:	4b81                	li	s7,0
   13e98:	01810913          	addi	s2,sp,24
   13e9c:	00410c93          	addi	s9,sp,4
   13ea0:	04210b13          	addi	s6,sp,66
   13ea4:	00095503          	lhu	a0,0(s2)
   13ea8:	1979                	addi	s2,s2,-2
   13eaa:	e145                	bnez	a0,13f4a <emul+0x250>
   13eac:	04c9d703          	lhu	a4,76(s3)
   13eb0:	87d2                	mv	a5,s4
   13eb2:	00ebebb3          	or	s7,s7,a4
   13eb6:	ffe7d703          	lhu	a4,-2(a5)
   13eba:	17f9                	addi	a5,a5,-2
   13ebc:	00e79123          	sh	a4,2(a5)
   13ec0:	ff879be3          	bne	a5,s8,13eb6 <emul+0x1bc>
   13ec4:	02099c23          	sh	zero,56(s3)
   13ec8:	fd991ee3          	bne	s2,s9,13ea4 <emul+0x1aa>
   13ecc:	03498713          	addi	a4,s3,52
   13ed0:	101c                	addi	a5,sp,32
   13ed2:	03a10593          	addi	a1,sp,58
   13ed6:	00075603          	lhu	a2,0(a4) # 8000 <main-0x80b0>
   13eda:	0789                	addi	a5,a5,2
   13edc:	0709                	addi	a4,a4,2
   13ede:	fec79f23          	sh	a2,-2(a5)
   13ee2:	fef59ae3          	bne	a1,a5,13ed6 <emul+0x1dc>
   13ee6:	76f1                	lui	a3,0xffffc
   13ee8:	94d6                	add	s1,s1,s5
   13eea:	0689                	addi	a3,a3,2
   13eec:	85de                	mv	a1,s7
   13eee:	1008                	addi	a0,sp,32
   13ef0:	87ce                	mv	a5,s3
   13ef2:	04000713          	li	a4,64
   13ef6:	96a6                	add	a3,a3,s1
   13ef8:	4601                	li	a2,0
   13efa:	985ff0ef          	jal	ra,1387e <emdnorm>
   13efe:	02015703          	lhu	a4,32(sp)
   13f02:	00015783          	lhu	a5,0(sp)
   13f06:	85a2                	mv	a1,s0
   13f08:	1008                	addi	a0,sp,32
   13f0a:	8f99                	sub	a5,a5,a4
   13f0c:	00f037b3          	snez	a5,a5
   13f10:	40f007bb          	negw	a5,a5
   13f14:	02f11023          	sh	a5,32(sp)
   13f18:	d61ff0ef          	jal	ra,13c78 <emovo.isra.0>
   13f1c:	bd55                	j	13dd0 <emul+0xd6>
   13f1e:	01448713          	addi	a4,s1,20
   13f22:	0004d783          	lhu	a5,0(s1)
   13f26:	0489                	addi	s1,s1,2
   13f28:	0409                	addi	s0,s0,2
   13f2a:	fef41f23          	sh	a5,-2(s0)
   13f2e:	fee49ae3          	bne	s1,a4,13f22 <emul+0x228>
   13f32:	bd79                	j	13dd0 <emul+0xd6>
   13f34:	854a                	mv	a0,s2
   13f36:	ca4ff0ef          	jal	ra,133da <eisnan.part.0>
   13f3a:	ee051fe3          	bnez	a0,13e38 <emul+0x13e>
   13f3e:	8526                	mv	a0,s1
   13f40:	e8aff0ef          	jal	ra,135ca <eisinf.part.0>
   13f44:	e0050de3          	beqz	a0,13d5e <emul+0x64>
   13f48:	b501                	j	13d48 <emul+0x4e>
   13f4a:	0090                	addi	a2,sp,64
   13f4c:	100c                	addi	a1,sp,32
   13f4e:	c18ff0ef          	jal	ra,13366 <m16m>
   13f52:	85d2                	mv	a1,s4
   13f54:	4601                	li	a2,0
   13f56:	08b8                	addi	a4,sp,88
   13f58:	0005d803          	lhu	a6,0(a1)
   13f5c:	00075783          	lhu	a5,0(a4)
   13f60:	15f9                	addi	a1,a1,-2
   13f62:	1779                	addi	a4,a4,-2
   13f64:	97c2                	add	a5,a5,a6
   13f66:	97b2                	add	a5,a5,a2
   13f68:	0107d613          	srli	a2,a5,0x10
   13f6c:	00f59123          	sh	a5,2(a1)
   13f70:	8a05                	andi	a2,a2,1
   13f72:	ff6713e3          	bne	a4,s6,13f58 <emul+0x25e>
   13f76:	bf1d                	j	13eac <emul+0x1b2>
   13f78:	0124da83          	lhu	s5,18(s1)
   13f7c:	67a1                	lui	a5,0x8
   13f7e:	17fd                	addi	a5,a5,-1
   13f80:	0157fab3          	and	s5,a5,s5
   13f84:	1ac2                	slli	s5,s5,0x30
   13f86:	030ada93          	srli	s5,s5,0x30
   13f8a:	e6fa96e3          	bne	s5,a5,13df6 <emul+0xfc>
   13f8e:	8526                	mv	a0,s1
   13f90:	e3aff0ef          	jal	ra,135ca <eisinf.part.0>
   13f94:	e00511e3          	bnez	a0,13d96 <emul+0x9c>
   13f98:	01295783          	lhu	a5,18(s2)
   13f9c:	fff7c793          	not	a5,a5
   13fa0:	03179713          	slli	a4,a5,0x31
   13fa4:	e40719e3          	bnez	a4,13df6 <emul+0xfc>
   13fa8:	b3dd                	j	13d8e <emul+0x94>
   13faa:	01440793          	addi	a5,s0,20
   13fae:	0409                	addi	s0,s0,2
   13fb0:	fe041f23          	sh	zero,-2(s0)
   13fb4:	fef41de3          	bne	s0,a5,13fae <emul+0x2b4>
   13fb8:	bd21                	j	13dd0 <emul+0xd6>
   13fba:	01440793          	addi	a5,s0,20
   13fbe:	0409                	addi	s0,s0,2
   13fc0:	fe041f23          	sh	zero,-2(s0)
   13fc4:	fef41de3          	bne	s0,a5,13fbe <emul+0x2c4>
   13fc8:	b521                	j	13dd0 <emul+0xd6>
   13fca:	00008597          	auipc	a1,0x8
   13fce:	7de58593          	addi	a1,a1,2014 # 1c7a8 <ezero>
   13fd2:	8526                	mv	a0,s1
   13fd4:	d2eff0ef          	jal	ra,13502 <ecmp>
   13fd8:	c901                	beqz	a0,13fe8 <emul+0x2ee>
   13fda:	0124d783          	lhu	a5,18(s1)
   13fde:	00fa77b3          	and	a5,s4,a5
   13fe2:	fb4786e3          	beq	a5,s4,13f8e <emul+0x294>
   13fe6:	bf4d                	j	13f98 <emul+0x29e>
   13fe8:	01040713          	addi	a4,s0,16
   13fec:	87a2                	mv	a5,s0
   13fee:	0789                	addi	a5,a5,2
   13ff0:	fe079f23          	sh	zero,-2(a5) # 7ffe <main-0x80b2>
   13ff4:	fee79de3          	bne	a5,a4,13fee <emul+0x2f4>
   13ff8:	7fffc7b7          	lui	a5,0x7fffc
   13ffc:	c81c                	sw	a5,16(s0)
   13ffe:	bbc9                	j	13dd0 <emul+0xd6>

0000000000014000 <ediv>:
   14000:	01255783          	lhu	a5,18(a0)
   14004:	7115                	addi	sp,sp,-224
   14006:	e9a2                	sd	s0,208(sp)
   14008:	fff7c793          	not	a5,a5
   1400c:	e5a6                	sd	s1,200(sp)
   1400e:	e1ca                	sd	s2,192(sp)
   14010:	fd4e                	sd	s3,184(sp)
   14012:	ed86                	sd	ra,216(sp)
   14014:	f952                	sd	s4,176(sp)
   14016:	f556                	sd	s5,168(sp)
   14018:	f15a                	sd	s6,160(sp)
   1401a:	ed5e                	sd	s7,152(sp)
   1401c:	e962                	sd	s8,144(sp)
   1401e:	e566                	sd	s9,136(sp)
   14020:	e16a                	sd	s10,128(sp)
   14022:	fcee                	sd	s11,120(sp)
   14024:	03179713          	slli	a4,a5,0x31
   14028:	892a                	mv	s2,a0
   1402a:	89ae                	mv	s3,a1
   1402c:	8432                	mv	s0,a2
   1402e:	84b6                	mv	s1,a3
   14030:	e709                	bnez	a4,1403a <ediv+0x3a>
   14032:	ba8ff0ef          	jal	ra,133da <eisnan.part.0>
   14036:	2a051463          	bnez	a0,142de <ediv+0x2de>
   1403a:	0129d783          	lhu	a5,18(s3)
   1403e:	fff7c793          	not	a5,a5
   14042:	03179713          	slli	a4,a5,0x31
   14046:	c72d                	beqz	a4,140b0 <ediv+0xb0>
   14048:	00008597          	auipc	a1,0x8
   1404c:	76058593          	addi	a1,a1,1888 # 1c7a8 <ezero>
   14050:	854a                	mv	a0,s2
   14052:	cb0ff0ef          	jal	ra,13502 <ecmp>
   14056:	cd55                	beqz	a0,14112 <ediv+0x112>
   14058:	01295a03          	lhu	s4,18(s2)
   1405c:	0129d703          	lhu	a4,18(s3)
   14060:	67a1                	lui	a5,0x8
   14062:	17fd                	addi	a5,a5,-1
   14064:	0147fa33          	and	s4,a5,s4
   14068:	00e7fab3          	and	s5,a5,a4
   1406c:	06fa1163          	bne	s4,a5,140ce <ediv+0xce>
   14070:	854a                	mv	a0,s2
   14072:	d58ff0ef          	jal	ra,135ca <eisinf.part.0>
   14076:	c171                	beqz	a0,1413a <ediv+0x13a>
   14078:	014a9663          	bne	s5,s4,14084 <ediv+0x84>
   1407c:	854e                	mv	a0,s3
   1407e:	d4cff0ef          	jal	ra,135ca <eisinf.part.0>
   14082:	e145                	bnez	a0,14122 <ediv+0x122>
   14084:	01440793          	addi	a5,s0,20
   14088:	0409                	addi	s0,s0,2
   1408a:	fe041f23          	sh	zero,-2(s0)
   1408e:	fef41de3          	bne	s0,a5,14088 <ediv+0x88>
   14092:	60ee                	ld	ra,216(sp)
   14094:	644e                	ld	s0,208(sp)
   14096:	64ae                	ld	s1,200(sp)
   14098:	690e                	ld	s2,192(sp)
   1409a:	79ea                	ld	s3,184(sp)
   1409c:	7a4a                	ld	s4,176(sp)
   1409e:	7aaa                	ld	s5,168(sp)
   140a0:	7b0a                	ld	s6,160(sp)
   140a2:	6bea                	ld	s7,152(sp)
   140a4:	6c4a                	ld	s8,144(sp)
   140a6:	6caa                	ld	s9,136(sp)
   140a8:	6d0a                	ld	s10,128(sp)
   140aa:	7de6                	ld	s11,120(sp)
   140ac:	612d                	addi	sp,sp,224
   140ae:	8082                	ret
   140b0:	854e                	mv	a0,s3
   140b2:	b28ff0ef          	jal	ra,133da <eisnan.part.0>
   140b6:	d949                	beqz	a0,14048 <ediv+0x48>
   140b8:	01498713          	addi	a4,s3,20
   140bc:	0009d783          	lhu	a5,0(s3)
   140c0:	0989                	addi	s3,s3,2
   140c2:	0409                	addi	s0,s0,2
   140c4:	fef41f23          	sh	a5,-2(s0)
   140c8:	fee99ae3          	bne	s3,a4,140bc <ediv+0xbc>
   140cc:	b7d9                	j	14092 <ediv+0x92>
   140ce:	06fa8863          	beq	s5,a5,1413e <ediv+0x13e>
   140d2:	854a                	mv	a0,s2
   140d4:	080c                	addi	a1,sp,16
   140d6:	b76ff0ef          	jal	ra,1344c <emovi>
   140da:	180c                	addi	a1,sp,48
   140dc:	854e                	mv	a0,s3
   140de:	b6eff0ef          	jal	ra,1344c <emovi>
   140e2:	03215b83          	lhu	s7,50(sp)
   140e6:	01215903          	lhu	s2,18(sp)
   140ea:	080b9c63          	bnez	s7,14182 <ediv+0x182>
   140ee:	185c                	addi	a5,sp,52
   140f0:	04810d93          	addi	s11,sp,72
   140f4:	28fd8563          	beq	s11,a5,1437e <ediv+0x37e>
   140f8:	0007d703          	lhu	a4,0(a5) # 8000 <main-0x80b0>
   140fc:	0789                	addi	a5,a5,2
   140fe:	db7d                	beqz	a4,140f4 <ediv+0xf4>
   14100:	1808                	addi	a0,sp,48
   14102:	e5cff0ef          	jal	ra,1375e <enormlz>
   14106:	40a007b3          	neg	a5,a0
   1410a:	01215603          	lhu	a2,18(sp)
   1410e:	e43e                	sd	a5,8(sp)
   14110:	a89d                	j	14186 <ediv+0x186>
   14112:	00008597          	auipc	a1,0x8
   14116:	69658593          	addi	a1,a1,1686 # 1c7a8 <ezero>
   1411a:	854e                	mv	a0,s3
   1411c:	be6ff0ef          	jal	ra,13502 <ecmp>
   14120:	fd05                	bnez	a0,14058 <ediv+0x58>
   14122:	01040713          	addi	a4,s0,16
   14126:	87a2                	mv	a5,s0
   14128:	0789                	addi	a5,a5,2
   1412a:	fe079f23          	sh	zero,-2(a5)
   1412e:	fee79de3          	bne	a5,a4,14128 <ediv+0x128>
   14132:	7fffc7b7          	lui	a5,0x7fffc
   14136:	c81c                	sw	a5,16(s0)
   14138:	bfa9                	j	14092 <ediv+0x92>
   1413a:	f94a9ce3          	bne	s5,s4,140d2 <ediv+0xd2>
   1413e:	854e                	mv	a0,s3
   14140:	c8aff0ef          	jal	ra,135ca <eisinf.part.0>
   14144:	d559                	beqz	a0,140d2 <ediv+0xd2>
   14146:	854a                	mv	a0,s2
   14148:	adaff0ef          	jal	ra,13422 <eisneg>
   1414c:	84aa                	mv	s1,a0
   1414e:	854e                	mv	a0,s3
   14150:	ad2ff0ef          	jal	ra,13422 <eisneg>
   14154:	40a487b3          	sub	a5,s1,a0
   14158:	00f037b3          	snez	a5,a5
   1415c:	07be                	slli	a5,a5,0xf
   1415e:	00f41923          	sh	a5,18(s0)
   14162:	01240713          	addi	a4,s0,18
   14166:	87a2                	mv	a5,s0
   14168:	0789                	addi	a5,a5,2
   1416a:	fe079f23          	sh	zero,-2(a5) # 7fffbffe <__BSS_END__+0x7ffdcb4e>
   1416e:	fee79de3          	bne	a5,a4,14168 <ediv+0x168>
   14172:	01245783          	lhu	a5,18(s0)
   14176:	6721                	lui	a4,0x8
   14178:	177d                	addi	a4,a4,-1
   1417a:	8fd9                	or	a5,a5,a4
   1417c:	00f41923          	sh	a5,18(s0)
   14180:	bf09                	j	14092 <ediv+0x92>
   14182:	e45e                	sd	s7,8(sp)
   14184:	864a                	mv	a2,s2
   14186:	e04a                	sd	s2,0(sp)
   14188:	085c                	addi	a5,sp,20
   1418a:	1034                	addi	a3,sp,40
   1418c:	ee09                	bnez	a2,141a6 <ediv+0x1a6>
   1418e:	20f68063          	beq	a3,a5,1438e <ediv+0x38e>
   14192:	0007d703          	lhu	a4,0(a5)
   14196:	0789                	addi	a5,a5,2
   14198:	db7d                	beqz	a4,1418e <ediv+0x18e>
   1419a:	0808                	addi	a0,sp,16
   1419c:	dc2ff0ef          	jal	ra,1375e <enormlz>
   141a0:	40a907b3          	sub	a5,s2,a0
   141a4:	e03e                	sd	a5,0(sp)
   141a6:	5742                	lw	a4,48(sp)
   141a8:	03848d13          	addi	s10,s1,56
   141ac:	87ea                	mv	a5,s10
   141ae:	d8d8                	sw	a4,52(s1)
   141b0:	04e48913          	addi	s2,s1,78
   141b4:	0789                	addi	a5,a5,2
   141b6:	fe079f23          	sh	zero,-2(a5)
   141ba:	fef91de3          	bne	s2,a5,141b4 <ediv+0x1b4>
   141be:	1808                	addi	a0,sp,48
   141c0:	900ff0ef          	jal	ra,132c0 <eshdn1>
   141c4:	01615c03          	lhu	s8,22(sp)
   141c8:	6a41                	lui	s4,0x10
   141ca:	04810d93          	addi	s11,sp,72
   141ce:	010c1a93          	slli	s5,s8,0x10
   141d2:	418a8ab3          	sub	s5,s5,s8
   141d6:	03210b13          	addi	s6,sp,50
   141da:	1a7d                	addi	s4,s4,-1
   141dc:	06a10c93          	addi	s9,sp,106
   141e0:	05210993          	addi	s3,sp,82
   141e4:	03415783          	lhu	a5,52(sp)
   141e8:	03615703          	lhu	a4,54(sp)
   141ec:	8bd2                	mv	s7,s4
   141ee:	07c2                	slli	a5,a5,0x10
   141f0:	97ba                	add	a5,a5,a4
   141f2:	00fae863          	bltu	s5,a5,14202 <ediv+0x202>
   141f6:	0387d7b3          	divu	a5,a5,s8
   141fa:	03079b93          	slli	s7,a5,0x30
   141fe:	030bdb93          	srli	s7,s7,0x30
   14202:	0890                	addi	a2,sp,80
   14204:	080c                	addi	a1,sp,16
   14206:	855e                	mv	a0,s7
   14208:	95eff0ef          	jal	ra,13366 <m16m>
   1420c:	1858                	addi	a4,sp,52
   1420e:	08dc                	addi	a5,sp,84
   14210:	0007d583          	lhu	a1,0(a5)
   14214:	00075603          	lhu	a2,0(a4) # 8000 <main-0x80b0>
   14218:	0789                	addi	a5,a5,2
   1421a:	0709                	addi	a4,a4,2
   1421c:	0cc59c63          	bne	a1,a2,142f4 <ediv+0x2f4>
   14220:	ff9798e3          	bne	a5,s9,14210 <ediv+0x210>
   14224:	4781                	li	a5,0
   14226:	10ac                	addi	a1,sp,104
   14228:	866e                	mv	a2,s11
   1422a:	00065703          	lhu	a4,0(a2)
   1422e:	0005d803          	lhu	a6,0(a1)
   14232:	1679                	addi	a2,a2,-2
   14234:	8f1d                	sub	a4,a4,a5
   14236:	41070733          	sub	a4,a4,a6
   1423a:	01075793          	srli	a5,a4,0x10
   1423e:	00e61123          	sh	a4,2(a2)
   14242:	8b85                	andi	a5,a5,1
   14244:	15f9                	addi	a1,a1,-2
   14246:	ff6612e3          	bne	a2,s6,1422a <ediv+0x22a>
   1424a:	017d1023          	sh	s7,0(s10)
   1424e:	185c                	addi	a5,sp,52
   14250:	0027d703          	lhu	a4,2(a5)
   14254:	0789                	addi	a5,a5,2
   14256:	fee79f23          	sh	a4,-2(a5)
   1425a:	ffb79be3          	bne	a5,s11,14250 <ediv+0x250>
   1425e:	04011423          	sh	zero,72(sp)
   14262:	0d09                	addi	s10,s10,2
   14264:	f9a910e3          	bne	s2,s10,141e4 <ediv+0x1e4>
   14268:	4581                	li	a1,0
   1426a:	185c                	addi	a5,sp,52
   1426c:	04a10693          	addi	a3,sp,74
   14270:	0007d703          	lhu	a4,0(a5)
   14274:	0789                	addi	a5,a5,2
   14276:	8dd9                	or	a1,a1,a4
   14278:	fed79ce3          	bne	a5,a3,14270 <ediv+0x270>
   1427c:	0105979b          	slliw	a5,a1,0x10
   14280:	4107d79b          	sraiw	a5,a5,0x10
   14284:	c391                	beqz	a5,14288 <ediv+0x288>
   14286:	4585                	li	a1,1
   14288:	15c2                	slli	a1,a1,0x30
   1428a:	91c1                	srli	a1,a1,0x30
   1428c:	03448713          	addi	a4,s1,52
   14290:	181c                	addi	a5,sp,48
   14292:	00075603          	lhu	a2,0(a4)
   14296:	0789                	addi	a5,a5,2
   14298:	0709                	addi	a4,a4,2
   1429a:	fec79f23          	sh	a2,-2(a5)
   1429e:	fef69ae3          	bne	a3,a5,14292 <ediv+0x292>
   142a2:	67a2                	ld	a5,8(sp)
   142a4:	6702                	ld	a4,0(sp)
   142a6:	6691                	lui	a3,0x4
   142a8:	16fd                	addi	a3,a3,-1
   142aa:	40e78bb3          	sub	s7,a5,a4
   142ae:	1808                	addi	a0,sp,48
   142b0:	87a6                	mv	a5,s1
   142b2:	04000713          	li	a4,64
   142b6:	96de                	add	a3,a3,s7
   142b8:	4601                	li	a2,0
   142ba:	dc4ff0ef          	jal	ra,1387e <emdnorm>
   142be:	03015703          	lhu	a4,48(sp)
   142c2:	01015783          	lhu	a5,16(sp)
   142c6:	85a2                	mv	a1,s0
   142c8:	1808                	addi	a0,sp,48
   142ca:	8f99                	sub	a5,a5,a4
   142cc:	00f037b3          	snez	a5,a5
   142d0:	40f007bb          	negw	a5,a5
   142d4:	02f11823          	sh	a5,48(sp)
   142d8:	9a1ff0ef          	jal	ra,13c78 <emovo.isra.0>
   142dc:	bb5d                	j	14092 <ediv+0x92>
   142de:	01490713          	addi	a4,s2,20
   142e2:	00095783          	lhu	a5,0(s2)
   142e6:	0909                	addi	s2,s2,2
   142e8:	0409                	addi	s0,s0,2
   142ea:	fef41f23          	sh	a5,-2(s0)
   142ee:	fee91ae3          	bne	s2,a4,142e2 <ediv+0x2e2>
   142f2:	b345                	j	14092 <ediv+0x92>
   142f4:	f2b678e3          	bgeu	a2,a1,14224 <ediv+0x224>
   142f8:	fffb879b          	addiw	a5,s7,-1
   142fc:	03079893          	slli	a7,a5,0x30
   14300:	0308d893          	srli	a7,a7,0x30
   14304:	4781                	li	a5,0
   14306:	102c                	addi	a1,sp,40
   14308:	10b0                	addi	a2,sp,104
   1430a:	00065703          	lhu	a4,0(a2)
   1430e:	0005d803          	lhu	a6,0(a1)
   14312:	1679                	addi	a2,a2,-2
   14314:	8f1d                	sub	a4,a4,a5
   14316:	41070733          	sub	a4,a4,a6
   1431a:	01075793          	srli	a5,a4,0x10
   1431e:	00e61123          	sh	a4,2(a2)
   14322:	8b85                	andi	a5,a5,1
   14324:	15f9                	addi	a1,a1,-2
   14326:	ff3612e3          	bne	a2,s3,1430a <ediv+0x30a>
   1432a:	1858                	addi	a4,sp,52
   1432c:	08dc                	addi	a5,sp,84
   1432e:	0007d583          	lhu	a1,0(a5)
   14332:	00075603          	lhu	a2,0(a4)
   14336:	0789                	addi	a5,a5,2
   14338:	0709                	addi	a4,a4,2
   1433a:	00c59663          	bne	a1,a2,14346 <ediv+0x346>
   1433e:	ff9798e3          	bne	a5,s9,1432e <ediv+0x32e>
   14342:	8bc6                	mv	s7,a7
   14344:	b5c5                	j	14224 <ediv+0x224>
   14346:	feb67ee3          	bgeu	a2,a1,14342 <ediv+0x342>
   1434a:	ffeb879b          	addiw	a5,s7,-2
   1434e:	03079b93          	slli	s7,a5,0x30
   14352:	030bdb93          	srli	s7,s7,0x30
   14356:	4601                	li	a2,0
   14358:	102c                	addi	a1,sp,40
   1435a:	10b8                	addi	a4,sp,104
   1435c:	00075783          	lhu	a5,0(a4)
   14360:	0005d803          	lhu	a6,0(a1)
   14364:	1779                	addi	a4,a4,-2
   14366:	8f91                	sub	a5,a5,a2
   14368:	410787b3          	sub	a5,a5,a6
   1436c:	0107d613          	srli	a2,a5,0x10
   14370:	00f71123          	sh	a5,2(a4)
   14374:	8a05                	andi	a2,a2,1
   14376:	15f9                	addi	a1,a1,-2
   14378:	ff3712e3          	bne	a4,s3,1435c <ediv+0x35c>
   1437c:	b565                	j	14224 <ediv+0x224>
   1437e:	01440793          	addi	a5,s0,20
   14382:	0409                	addi	s0,s0,2
   14384:	fe041f23          	sh	zero,-2(s0)
   14388:	fe879de3          	bne	a5,s0,14382 <ediv+0x382>
   1438c:	b319                	j	14092 <ediv+0x92>
   1438e:	01015703          	lhu	a4,16(sp)
   14392:	03015783          	lhu	a5,48(sp)
   14396:	00f70363          	beq	a4,a5,1439c <ediv+0x39c>
   1439a:	6621                	lui	a2,0x8
   1439c:	00c41923          	sh	a2,18(s0)
   143a0:	01240713          	addi	a4,s0,18
   143a4:	87a2                	mv	a5,s0
   143a6:	0789                	addi	a5,a5,2
   143a8:	fe079f23          	sh	zero,-2(a5)
   143ac:	fef71de3          	bne	a4,a5,143a6 <ediv+0x3a6>
   143b0:	01245783          	lhu	a5,18(s0)
   143b4:	6721                	lui	a4,0x8
   143b6:	177d                	addi	a4,a4,-1
   143b8:	8fd9                	or	a5,a5,a4
   143ba:	00f41923          	sh	a5,18(s0)
   143be:	b9d1                	j	14092 <ediv+0x92>

00000000000143c0 <e113toe.isra.0>:
   143c0:	7179                	addi	sp,sp,-48
   143c2:	f022                	sd	s0,32(sp)
   143c4:	f406                	sd	ra,40(sp)
   143c6:	842e                	mv	s0,a1
   143c8:	878a                	mv	a5,sp
   143ca:	01a10713          	addi	a4,sp,26
   143ce:	0789                	addi	a5,a5,2
   143d0:	fe079f23          	sh	zero,-2(a5)
   143d4:	fee79de3          	bne	a5,a4,143ce <e113toe.isra.0+0xe>
   143d8:	00e55783          	lhu	a5,14(a0)
   143dc:	0107971b          	slliw	a4,a5,0x10
   143e0:	4107571b          	sraiw	a4,a4,0x10
   143e4:	02071693          	slli	a3,a4,0x20
   143e8:	0406cc63          	bltz	a3,14440 <e113toe.isra.0+0x80>
   143ec:	6721                	lui	a4,0x8
   143ee:	177d                	addi	a4,a4,-1
   143f0:	00e7f6b3          	and	a3,a5,a4
   143f4:	00011023          	sh	zero,0(sp)
   143f8:	8636                	mv	a2,a3
   143fa:	04e68d63          	beq	a3,a4,14454 <e113toe.isra.0+0x94>
   143fe:	00e50793          	addi	a5,a0,14
   14402:	00d11123          	sh	a3,2(sp)
   14406:	00610713          	addi	a4,sp,6
   1440a:	ffe7d683          	lhu	a3,-2(a5)
   1440e:	17f9                	addi	a5,a5,-2
   14410:	0709                	addi	a4,a4,2
   14412:	fed71f23          	sh	a3,-2(a4) # 7ffe <main-0x80b2>
   14416:	fef51ae3          	bne	a0,a5,1440a <e113toe.isra.0+0x4a>
   1441a:	ea19                	bnez	a2,14430 <e113toe.isra.0+0x70>
   1441c:	00011223          	sh	zero,4(sp)
   14420:	85a2                	mv	a1,s0
   14422:	850a                	mv	a0,sp
   14424:	855ff0ef          	jal	ra,13c78 <emovo.isra.0>
   14428:	70a2                	ld	ra,40(sp)
   1442a:	7402                	ld	s0,32(sp)
   1442c:	6145                	addi	sp,sp,48
   1442e:	8082                	ret
   14430:	4785                	li	a5,1
   14432:	55fd                	li	a1,-1
   14434:	850a                	mv	a0,sp
   14436:	00f11223          	sh	a5,4(sp)
   1443a:	9a2ff0ef          	jal	ra,135dc <eshift.part.0>
   1443e:	b7cd                	j	14420 <e113toe.isra.0+0x60>
   14440:	577d                	li	a4,-1
   14442:	00e11023          	sh	a4,0(sp)
   14446:	6721                	lui	a4,0x8
   14448:	177d                	addi	a4,a4,-1
   1444a:	00e7f6b3          	and	a3,a5,a4
   1444e:	8636                	mv	a2,a3
   14450:	fae697e3          	bne	a3,a4,143fe <e113toe.isra.0+0x3e>
   14454:	87aa                	mv	a5,a0
   14456:	00e50693          	addi	a3,a0,14
   1445a:	0007d703          	lhu	a4,0(a5)
   1445e:	0789                	addi	a5,a5,2
   14460:	e331                	bnez	a4,144a4 <e113toe.isra.0+0xe4>
   14462:	fed79ce3          	bne	a5,a3,1445a <e113toe.isra.0+0x9a>
   14466:	01440713          	addi	a4,s0,20
   1446a:	87a2                	mv	a5,s0
   1446c:	0789                	addi	a5,a5,2
   1446e:	fe079f23          	sh	zero,-2(a5)
   14472:	fef71de3          	bne	a4,a5,1446c <e113toe.isra.0+0xac>
   14476:	01240713          	addi	a4,s0,18
   1447a:	87a2                	mv	a5,s0
   1447c:	0789                	addi	a5,a5,2
   1447e:	fe079f23          	sh	zero,-2(a5)
   14482:	fef71de3          	bne	a4,a5,1447c <e113toe.isra.0+0xbc>
   14486:	01245783          	lhu	a5,18(s0)
   1448a:	6721                	lui	a4,0x8
   1448c:	177d                	addi	a4,a4,-1
   1448e:	8fd9                	or	a5,a5,a4
   14490:	00f41923          	sh	a5,18(s0)
   14494:	00e51783          	lh	a5,14(a0)
   14498:	f807d8e3          	bgez	a5,14428 <e113toe.isra.0+0x68>
   1449c:	8522                	mv	a0,s0
   1449e:	f55fe0ef          	jal	ra,133f2 <eneg>
   144a2:	b759                	j	14428 <e113toe.isra.0+0x68>
   144a4:	01040713          	addi	a4,s0,16
   144a8:	87a2                	mv	a5,s0
   144aa:	0789                	addi	a5,a5,2
   144ac:	fe079f23          	sh	zero,-2(a5)
   144b0:	fef71de3          	bne	a4,a5,144aa <e113toe.isra.0+0xea>
   144b4:	7fffc7b7          	lui	a5,0x7fffc
   144b8:	c81c                	sw	a5,16(s0)
   144ba:	b7bd                	j	14428 <e113toe.isra.0+0x68>

00000000000144bc <_ldtoa_r>:
   144bc:	09100313          	li	t1,145
   144c0:	1302                	slli	t1,t1,0x20
   144c2:	06053e03          	ld	t3,96(a0)
   144c6:	da010113          	addi	sp,sp,-608
   144ca:	137d                	addi	t1,t1,-1
   144cc:	24813823          	sd	s0,592(sp)
   144d0:	23513423          	sd	s5,552(sp)
   144d4:	21713c23          	sd	s7,536(sp)
   144d8:	24113c23          	sd	ra,600(sp)
   144dc:	24913423          	sd	s1,584(sp)
   144e0:	25213023          	sd	s2,576(sp)
   144e4:	23313c23          	sd	s3,568(sp)
   144e8:	23413823          	sd	s4,560(sp)
   144ec:	23613023          	sd	s6,544(sp)
   144f0:	21813823          	sd	s8,528(sp)
   144f4:	21913423          	sd	s9,520(sp)
   144f8:	21a13023          	sd	s10,512(sp)
   144fc:	ffee                	sd	s11,504(sp)
   144fe:	e8ae                	sd	a1,80(sp)
   14500:	ecb2                	sd	a2,88(sp)
   14502:	f31a                	sd	t1,416(sp)
   14504:	e83a                	sd	a4,16(sp)
   14506:	ec3e                	sd	a5,24(sp)
   14508:	f846                	sd	a7,48(sp)
   1450a:	8aaa                	mv	s5,a0
   1450c:	8bb6                	mv	s7,a3
   1450e:	8442                	mv	s0,a6
   14510:	000e0f63          	beqz	t3,1452e <_ldtoa_r+0x72>
   14514:	5538                	lw	a4,104(a0)
   14516:	4785                	li	a5,1
   14518:	85f2                	mv	a1,t3
   1451a:	00e797bb          	sllw	a5,a5,a4
   1451e:	00ee2423          	sw	a4,8(t3) # 10008 <main-0xa8>
   14522:	00fe2623          	sw	a5,12(t3)
   14526:	123010ef          	jal	ra,15e48 <_Bfree>
   1452a:	060ab023          	sd	zero,96(s5)
   1452e:	010c                	addi	a1,sp,128
   14530:	0888                	addi	a0,sp,80
   14532:	e8fff0ef          	jal	ra,143c0 <e113toe.isra.0>
   14536:	0108                	addi	a0,sp,128
   14538:	eebfe0ef          	jal	ra,13422 <eisneg>
   1453c:	00a03533          	snez	a0,a0
   14540:	c008                	sw	a0,0(s0)
   14542:	478d                	li	a5,3
   14544:	76fb8063          	beq	s7,a5,14ca4 <_ldtoa_r+0x7e8>
   14548:	47d1                	li	a5,20
   1454a:	e43e                	sd	a5,8(sp)
   1454c:	2e0b9ce3          	bnez	s7,15044 <_ldtoa_r+0xb88>
   14550:	09215783          	lhu	a5,146(sp)
   14554:	1a412703          	lw	a4,420(sp)
   14558:	fff7c793          	not	a5,a5
   1455c:	f43a                	sd	a4,40(sp)
   1455e:	03179713          	slli	a4,a5,0x31
   14562:	e711                	bnez	a4,1456e <_ldtoa_r+0xb2>
   14564:	0108                	addi	a0,sp,128
   14566:	e75fe0ef          	jal	ra,133da <eisnan.part.0>
   1456a:	180512e3          	bnez	a0,14eee <_ldtoa_r+0xa32>
   1456e:	09000793          	li	a5,144
   14572:	1af12223          	sw	a5,420(sp)
   14576:	1118                	addi	a4,sp,160
   14578:	011c                	addi	a5,sp,128
   1457a:	0950                	addi	a2,sp,148
   1457c:	0007d683          	lhu	a3,0(a5) # 7fffc000 <__BSS_END__+0x7ffdcb50>
   14580:	0789                	addi	a5,a5,2
   14582:	0709                	addi	a4,a4,2
   14584:	fed71f23          	sh	a3,-2(a4) # 7ffe <main-0x80b2>
   14588:	fec79ae3          	bne	a5,a2,1457c <_ldtoa_r+0xc0>
   1458c:	0b215603          	lhu	a2,178(sp)
   14590:	f002                	sd	zero,32(sp)
   14592:	0106179b          	slliw	a5,a2,0x10
   14596:	4107d79b          	sraiw	a5,a5,0x10
   1459a:	02079713          	slli	a4,a5,0x20
   1459e:	00075963          	bgez	a4,145b0 <_ldtoa_r+0xf4>
   145a2:	1646                	slli	a2,a2,0x31
   145a4:	67c1                	lui	a5,0x10
   145a6:	9245                	srli	a2,a2,0x31
   145a8:	17fd                	addi	a5,a5,-1
   145aa:	0ac11923          	sh	a2,178(sp)
   145ae:	f03e                	sd	a5,32(sp)
   145b0:	4681                	li	a3,0
   145b2:	019c                	addi	a5,sp,192
   145b4:	00008717          	auipc	a4,0x8
   145b8:	20c70713          	addi	a4,a4,524 # 1c7c0 <eone>
   145bc:	0d410d93          	addi	s11,sp,212
   145c0:	a019                	j	145c6 <_ldtoa_r+0x10a>
   145c2:	00075683          	lhu	a3,0(a4)
   145c6:	0789                	addi	a5,a5,2
   145c8:	fed79f23          	sh	a3,-2(a5) # fffe <main-0xb2>
   145cc:	0709                	addi	a4,a4,2
   145ce:	ffb79ae3          	bne	a5,s11,145c2 <_ldtoa_r+0x106>
   145d2:	12060063          	beqz	a2,146f2 <_ldtoa_r+0x236>
   145d6:	67a1                	lui	a5,0x8
   145d8:	17fd                	addi	a5,a5,-1
   145da:	28f607e3          	beq	a2,a5,15068 <_ldtoa_r+0xbac>
   145de:	0b011783          	lh	a5,176(sp)
   145e2:	2c07d0e3          	bgez	a5,150a2 <_ldtoa_r+0xbe6>
   145e6:	110c                	addi	a1,sp,160
   145e8:	00008517          	auipc	a0,0x8
   145ec:	1d850513          	addi	a0,a0,472 # 1c7c0 <eone>
   145f0:	f13fe0ef          	jal	ra,13502 <ecmp>
   145f4:	10050963          	beqz	a0,14706 <_ldtoa_r+0x24a>
   145f8:	70054663          	bltz	a0,14d04 <_ldtoa_r+0x848>
   145fc:	0b215783          	lhu	a5,178(sp)
   14600:	320797e3          	bnez	a5,1512e <_ldtoa_r+0xc72>
   14604:	0b011783          	lh	a5,176(sp)
   14608:	4481                	li	s1,0
   1460a:	1a010993          	addi	s3,sp,416
   1460e:	0207c163          	bltz	a5,14630 <_ldtoa_r+0x174>
   14612:	00008417          	auipc	s0,0x8
   14616:	2b640413          	addi	s0,s0,694 # 1c8c8 <etens+0xf0>
   1461a:	1110                	addi	a2,sp,160
   1461c:	86ce                	mv	a3,s3
   1461e:	85b2                	mv	a1,a2
   14620:	8522                	mv	a0,s0
   14622:	ed8ff0ef          	jal	ra,13cfa <emul>
   14626:	0b011783          	lh	a5,176(sp)
   1462a:	34fd                	addiw	s1,s1,-1
   1462c:	fe07d7e3          	bgez	a5,1461a <_ldtoa_r+0x15e>
   14630:	0200                	addi	s0,sp,256
   14632:	11810a13          	addi	s4,sp,280
   14636:	8722                	mv	a4,s0
   14638:	111c                	addi	a5,sp,160
   1463a:	1950                	addi	a2,sp,180
   1463c:	0007d683          	lhu	a3,0(a5) # 8000 <main-0x80b0>
   14640:	0789                	addi	a5,a5,2
   14642:	0709                	addi	a4,a4,2
   14644:	fed71f23          	sh	a3,-2(a4)
   14648:	fec79ae3          	bne	a5,a2,1463c <_ldtoa_r+0x180>
   1464c:	4681                	li	a3,0
   1464e:	019c                	addi	a5,sp,192
   14650:	00008717          	auipc	a4,0x8
   14654:	17070713          	addi	a4,a4,368 # 1c7c0 <eone>
   14658:	a019                	j	1465e <_ldtoa_r+0x1a2>
   1465a:	00075683          	lhu	a3,0(a4)
   1465e:	0789                	addi	a5,a5,2
   14660:	fed79f23          	sh	a3,-2(a5)
   14664:	0709                	addi	a4,a4,2
   14666:	ffb79ae3          	bne	a5,s11,1465a <_ldtoa_r+0x19e>
   1466a:	7b7d                	lui	s6,0xfffff
   1466c:	00008917          	auipc	s2,0x8
   14670:	16c90913          	addi	s2,s2,364 # 1c7d8 <etens>
   14674:	00008d97          	auipc	s11,0x8
   14678:	26cd8d93          	addi	s11,s11,620 # 1c8e0 <emtens>
   1467c:	00008c97          	auipc	s9,0x8
   14680:	144c8c93          	addi	s9,s9,324 # 1c7c0 <eone>
   14684:	00008c17          	auipc	s8,0x8
   14688:	244c0c13          	addi	s8,s8,580 # 1c8c8 <etens+0xf0>
   1468c:	a019                	j	14692 <_ldtoa_r+0x1d6>
   1468e:	0dd1                	addi	s11,s11,20
   14690:	0951                	addi	s2,s2,20
   14692:	85a2                	mv	a1,s0
   14694:	8566                	mv	a0,s9
   14696:	e6dfe0ef          	jal	ra,13502 <ecmp>
   1469a:	87aa                	mv	a5,a0
   1469c:	85a2                	mv	a1,s0
   1469e:	856e                	mv	a0,s11
   146a0:	02f05d63          	blez	a5,146da <_ldtoa_r+0x21e>
   146a4:	e5ffe0ef          	jal	ra,13502 <ecmp>
   146a8:	87aa                	mv	a5,a0
   146aa:	86ce                	mv	a3,s3
   146ac:	8622                	mv	a2,s0
   146ae:	85a2                	mv	a1,s0
   146b0:	854a                	mv	a0,s2
   146b2:	0007cc63          	bltz	a5,146ca <_ldtoa_r+0x20e>
   146b6:	e44ff0ef          	jal	ra,13cfa <emul>
   146ba:	0190                	addi	a2,sp,192
   146bc:	86ce                	mv	a3,s3
   146be:	85b2                	mv	a1,a2
   146c0:	854a                	mv	a0,s2
   146c2:	e38ff0ef          	jal	ra,13cfa <emul>
   146c6:	009b04bb          	addw	s1,s6,s1
   146ca:	01fb579b          	srliw	a5,s6,0x1f
   146ce:	01678b3b          	addw	s6,a5,s6
   146d2:	401b5b1b          	sraiw	s6,s6,0x1
   146d6:	fb891ce3          	bne	s2,s8,1468e <_ldtoa_r+0x1d2>
   146da:	0190                	addi	a2,sp,192
   146dc:	86ce                	mv	a3,s3
   146de:	00008597          	auipc	a1,0x8
   146e2:	0e258593          	addi	a1,a1,226 # 1c7c0 <eone>
   146e6:	8532                	mv	a0,a2
   146e8:	919ff0ef          	jal	ra,14000 <ediv>
   146ec:	16010913          	addi	s2,sp,352
   146f0:	a01d                	j	14716 <_ldtoa_r+0x25a>
   146f2:	111c                	addi	a5,sp,160
   146f4:	0b210693          	addi	a3,sp,178
   146f8:	0007d703          	lhu	a4,0(a5)
   146fc:	0789                	addi	a5,a5,2
   146fe:	ee0714e3          	bnez	a4,145e6 <_ldtoa_r+0x12a>
   14702:	fef69be3          	bne	a3,a5,146f8 <_ldtoa_r+0x23c>
   14706:	4481                	li	s1,0
   14708:	16010913          	addi	s2,sp,352
   1470c:	1a010993          	addi	s3,sp,416
   14710:	0200                	addi	s0,sp,256
   14712:	11810a13          	addi	s4,sp,280
   14716:	85a2                	mv	a1,s0
   14718:	0188                	addi	a0,sp,192
   1471a:	d33fe0ef          	jal	ra,1344c <emovi>
   1471e:	0198                	addi	a4,sp,192
   14720:	87a2                	mv	a5,s0
   14722:	0007d683          	lhu	a3,0(a5)
   14726:	0789                	addi	a5,a5,2
   14728:	0709                	addi	a4,a4,2
   1472a:	fed71f23          	sh	a3,-2(a4)
   1472e:	ff479ae3          	bne	a5,s4,14722 <_ldtoa_r+0x266>
   14732:	85a2                	mv	a1,s0
   14734:	1108                	addi	a0,sp,160
   14736:	0c011c23          	sh	zero,216(sp)
   1473a:	d13fe0ef          	jal	ra,1344c <emovi>
   1473e:	111c                	addi	a5,sp,160
   14740:	00045703          	lhu	a4,0(s0)
   14744:	0409                	addi	s0,s0,2
   14746:	0789                	addi	a5,a5,2
   14748:	fee79f23          	sh	a4,-2(a5)
   1474c:	ff441ae3          	bne	s0,s4,14740 <_ldtoa_r+0x284>
   14750:	864e                	mv	a2,s3
   14752:	110c                	addi	a1,sp,160
   14754:	0188                	addi	a0,sp,192
   14756:	0a011c23          	sh	zero,184(sp)
   1475a:	c2aff0ef          	jal	ra,13b84 <eiremain>
   1475e:	1ec15d83          	lhu	s11,492(sp)
   14762:	160d9963          	bnez	s11,148d4 <_ldtoa_r+0x418>
   14766:	00008b17          	auipc	s6,0x8
   1476a:	042b0b13          	addi	s6,s6,66 # 1c7a8 <ezero>
   1476e:	0b810c13          	addi	s8,sp,184
   14772:	0a210413          	addi	s0,sp,162
   14776:	0e210a13          	addi	s4,sp,226
   1477a:	85da                	mv	a1,s6
   1477c:	1108                	addi	a0,sp,160
   1477e:	d85fe0ef          	jal	ra,13502 <ecmp>
   14782:	14050963          	beqz	a0,148d4 <_ldtoa_r+0x418>
   14786:	4701                	li	a4,0
   14788:	8662                	mv	a2,s8
   1478a:	a811                	j	1479e <_ldtoa_r+0x2e2>
   1478c:	0017171b          	slliw	a4,a4,0x1
   14790:	00f61023          	sh	a5,0(a2) # 8000 <main-0x80b0>
   14794:	1742                	slli	a4,a4,0x30
   14796:	1679                	addi	a2,a2,-2
   14798:	9341                	srli	a4,a4,0x30
   1479a:	04860063          	beq	a2,s0,147da <_ldtoa_r+0x31e>
   1479e:	00065783          	lhu	a5,0(a2)
   147a2:	0107959b          	slliw	a1,a5,0x10
   147a6:	4105d59b          	sraiw	a1,a1,0x10
   147aa:	02059693          	slli	a3,a1,0x20
   147ae:	0017979b          	slliw	a5,a5,0x1
   147b2:	0006d463          	bgez	a3,147ba <_ldtoa_r+0x2fe>
   147b6:	00176713          	ori	a4,a4,1
   147ba:	17c2                	slli	a5,a5,0x30
   147bc:	93c1                	srli	a5,a5,0x30
   147be:	00277593          	andi	a1,a4,2
   147c2:	0017e513          	ori	a0,a5,1
   147c6:	d1f9                	beqz	a1,1478c <_ldtoa_r+0x2d0>
   147c8:	0017171b          	slliw	a4,a4,0x1
   147cc:	00a61023          	sh	a0,0(a2)
   147d0:	1742                	slli	a4,a4,0x30
   147d2:	1679                	addi	a2,a2,-2
   147d4:	9341                	srli	a4,a4,0x30
   147d6:	fc8614e3          	bne	a2,s0,1479e <_ldtoa_r+0x2e2>
   147da:	1198                	addi	a4,sp,224
   147dc:	111c                	addi	a5,sp,160
   147de:	0007d603          	lhu	a2,0(a5)
   147e2:	0789                	addi	a5,a5,2
   147e4:	0709                	addi	a4,a4,2
   147e6:	fec71f23          	sh	a2,-2(a4)
   147ea:	ff879ae3          	bne	a5,s8,147de <_ldtoa_r+0x322>
   147ee:	0e011c23          	sh	zero,248(sp)
   147f2:	4701                	li	a4,0
   147f4:	19b0                	addi	a2,sp,248
   147f6:	a811                	j	1480a <_ldtoa_r+0x34e>
   147f8:	0017171b          	slliw	a4,a4,0x1
   147fc:	00f61023          	sh	a5,0(a2)
   14800:	1742                	slli	a4,a4,0x30
   14802:	1679                	addi	a2,a2,-2
   14804:	9341                	srli	a4,a4,0x30
   14806:	05460063          	beq	a2,s4,14846 <_ldtoa_r+0x38a>
   1480a:	00065783          	lhu	a5,0(a2)
   1480e:	0107959b          	slliw	a1,a5,0x10
   14812:	4105d59b          	sraiw	a1,a1,0x10
   14816:	02059693          	slli	a3,a1,0x20
   1481a:	0017979b          	slliw	a5,a5,0x1
   1481e:	0006d463          	bgez	a3,14826 <_ldtoa_r+0x36a>
   14822:	00176713          	ori	a4,a4,1
   14826:	17c2                	slli	a5,a5,0x30
   14828:	93c1                	srli	a5,a5,0x30
   1482a:	00277593          	andi	a1,a4,2
   1482e:	0017e513          	ori	a0,a5,1
   14832:	d1f9                	beqz	a1,147f8 <_ldtoa_r+0x33c>
   14834:	0017171b          	slliw	a4,a4,0x1
   14838:	00a61023          	sh	a0,0(a2)
   1483c:	1742                	slli	a4,a4,0x30
   1483e:	1679                	addi	a2,a2,-2
   14840:	9341                	srli	a4,a4,0x30
   14842:	fd4614e3          	bne	a2,s4,1480a <_ldtoa_r+0x34e>
   14846:	4701                	li	a4,0
   14848:	19b0                	addi	a2,sp,248
   1484a:	a811                	j	1485e <_ldtoa_r+0x3a2>
   1484c:	0017171b          	slliw	a4,a4,0x1
   14850:	00f61023          	sh	a5,0(a2)
   14854:	1742                	slli	a4,a4,0x30
   14856:	1679                	addi	a2,a2,-2
   14858:	9341                	srli	a4,a4,0x30
   1485a:	05460063          	beq	a2,s4,1489a <_ldtoa_r+0x3de>
   1485e:	00065783          	lhu	a5,0(a2)
   14862:	0107959b          	slliw	a1,a5,0x10
   14866:	4105d59b          	sraiw	a1,a1,0x10
   1486a:	02059693          	slli	a3,a1,0x20
   1486e:	0017979b          	slliw	a5,a5,0x1
   14872:	0006d463          	bgez	a3,1487a <_ldtoa_r+0x3be>
   14876:	00176713          	ori	a4,a4,1
   1487a:	17c2                	slli	a5,a5,0x30
   1487c:	93c1                	srli	a5,a5,0x30
   1487e:	00277593          	andi	a1,a4,2
   14882:	0017e513          	ori	a0,a5,1
   14886:	d1f9                	beqz	a1,1484c <_ldtoa_r+0x390>
   14888:	0017171b          	slliw	a4,a4,0x1
   1488c:	00a61023          	sh	a0,0(a2)
   14890:	1742                	slli	a4,a4,0x30
   14892:	1679                	addi	a2,a2,-2
   14894:	9341                	srli	a4,a4,0x30
   14896:	fd4614e3          	bne	a2,s4,1485e <_ldtoa_r+0x3a2>
   1489a:	4581                	li	a1,0
   1489c:	8662                	mv	a2,s8
   1489e:	19b8                	addi	a4,sp,248
   148a0:	00065503          	lhu	a0,0(a2)
   148a4:	00075783          	lhu	a5,0(a4)
   148a8:	1679                	addi	a2,a2,-2
   148aa:	1779                	addi	a4,a4,-2
   148ac:	97aa                	add	a5,a5,a0
   148ae:	97ae                	add	a5,a5,a1
   148b0:	0107d593          	srli	a1,a5,0x10
   148b4:	00f61123          	sh	a5,2(a2)
   148b8:	8985                	andi	a1,a1,1
   148ba:	ff4713e3          	bne	a4,s4,148a0 <_ldtoa_r+0x3e4>
   148be:	864e                	mv	a2,s3
   148c0:	110c                	addi	a1,sp,160
   148c2:	0188                	addi	a0,sp,192
   148c4:	ac0ff0ef          	jal	ra,13b84 <eiremain>
   148c8:	1ec15783          	lhu	a5,492(sp)
   148cc:	34fd                	addiw	s1,s1,-1
   148ce:	ea0786e3          	beqz	a5,1477a <_ldtoa_r+0x2be>
   148d2:	8dbe                	mv	s11,a5
   148d4:	7702                	ld	a4,32(sp)
   148d6:	02d00793          	li	a5,45
   148da:	e319                	bnez	a4,148e0 <_ldtoa_r+0x424>
   148dc:	02000793          	li	a5,32
   148e0:	16f10023          	sb	a5,352(sp)
   148e4:	470d                	li	a4,3
   148e6:	67a2                	ld	a5,8(sp)
   148e8:	00eb9363          	bne	s7,a4,148ee <_ldtoa_r+0x432>
   148ec:	9fa5                	addw	a5,a5,s1
   148ee:	02a00713          	li	a4,42
   148f2:	0007841b          	sext.w	s0,a5
   148f6:	00f75463          	bge	a4,a5,148fe <_ldtoa_r+0x442>
   148fa:	02a00413          	li	s0,42
   148fe:	4729                	li	a4,10
   14900:	3ced8f63          	beq	s11,a4,14cde <_ldtoa_r+0x822>
   14904:	030d8d9b          	addiw	s11,s11,48
   14908:	02e00713          	li	a4,46
   1490c:	17b100a3          	sb	s11,353(sp)
   14910:	16e10123          	sb	a4,354(sp)
   14914:	7a07c463          	bltz	a5,150bc <_ldtoa_r+0xc00>
   14918:	16310d93          	addi	s11,sp,355
   1491c:	4c01                	li	s8,0
   1491e:	0e010b13          	addi	s6,sp,224
   14922:	0b810a13          	addi	s4,sp,184
   14926:	0a210c93          	addi	s9,sp,162
   1492a:	0e210d13          	addi	s10,sp,226
   1492e:	4601                	li	a2,0
   14930:	85d2                	mv	a1,s4
   14932:	a811                	j	14946 <_ldtoa_r+0x48a>
   14934:	0016161b          	slliw	a2,a2,0x1
   14938:	00f59023          	sh	a5,0(a1)
   1493c:	1642                	slli	a2,a2,0x30
   1493e:	15f9                	addi	a1,a1,-2
   14940:	9241                	srli	a2,a2,0x30
   14942:	05958063          	beq	a1,s9,14982 <_ldtoa_r+0x4c6>
   14946:	0005d783          	lhu	a5,0(a1)
   1494a:	0107951b          	slliw	a0,a5,0x10
   1494e:	4105551b          	sraiw	a0,a0,0x10
   14952:	02051713          	slli	a4,a0,0x20
   14956:	0017979b          	slliw	a5,a5,0x1
   1495a:	00075463          	bgez	a4,14962 <_ldtoa_r+0x4a6>
   1495e:	00166613          	ori	a2,a2,1
   14962:	17c2                	slli	a5,a5,0x30
   14964:	93c1                	srli	a5,a5,0x30
   14966:	00267513          	andi	a0,a2,2
   1496a:	0017e313          	ori	t1,a5,1
   1496e:	d179                	beqz	a0,14934 <_ldtoa_r+0x478>
   14970:	0016161b          	slliw	a2,a2,0x1
   14974:	00659023          	sh	t1,0(a1)
   14978:	1642                	slli	a2,a2,0x30
   1497a:	15f9                	addi	a1,a1,-2
   1497c:	9241                	srli	a2,a2,0x30
   1497e:	fd9594e3          	bne	a1,s9,14946 <_ldtoa_r+0x48a>
   14982:	865a                	mv	a2,s6
   14984:	111c                	addi	a5,sp,160
   14986:	0007d583          	lhu	a1,0(a5)
   1498a:	0789                	addi	a5,a5,2
   1498c:	0609                	addi	a2,a2,2
   1498e:	feb61f23          	sh	a1,-2(a2)
   14992:	ff479ae3          	bne	a5,s4,14986 <_ldtoa_r+0x4ca>
   14996:	0e011c23          	sh	zero,248(sp)
   1499a:	4601                	li	a2,0
   1499c:	19ac                	addi	a1,sp,248
   1499e:	a811                	j	149b2 <_ldtoa_r+0x4f6>
   149a0:	0016161b          	slliw	a2,a2,0x1
   149a4:	00f59023          	sh	a5,0(a1)
   149a8:	1642                	slli	a2,a2,0x30
   149aa:	15f9                	addi	a1,a1,-2
   149ac:	9241                	srli	a2,a2,0x30
   149ae:	05a58063          	beq	a1,s10,149ee <_ldtoa_r+0x532>
   149b2:	0005d783          	lhu	a5,0(a1)
   149b6:	0107951b          	slliw	a0,a5,0x10
   149ba:	4105551b          	sraiw	a0,a0,0x10
   149be:	02051713          	slli	a4,a0,0x20
   149c2:	0017979b          	slliw	a5,a5,0x1
   149c6:	00075463          	bgez	a4,149ce <_ldtoa_r+0x512>
   149ca:	00166613          	ori	a2,a2,1
   149ce:	17c2                	slli	a5,a5,0x30
   149d0:	93c1                	srli	a5,a5,0x30
   149d2:	00267513          	andi	a0,a2,2
   149d6:	0017e313          	ori	t1,a5,1
   149da:	d179                	beqz	a0,149a0 <_ldtoa_r+0x4e4>
   149dc:	0016161b          	slliw	a2,a2,0x1
   149e0:	00659023          	sh	t1,0(a1)
   149e4:	1642                	slli	a2,a2,0x30
   149e6:	15f9                	addi	a1,a1,-2
   149e8:	9241                	srli	a2,a2,0x30
   149ea:	fda594e3          	bne	a1,s10,149b2 <_ldtoa_r+0x4f6>
   149ee:	4601                	li	a2,0
   149f0:	19ac                	addi	a1,sp,248
   149f2:	a811                	j	14a06 <_ldtoa_r+0x54a>
   149f4:	0016161b          	slliw	a2,a2,0x1
   149f8:	00f59023          	sh	a5,0(a1)
   149fc:	1642                	slli	a2,a2,0x30
   149fe:	15f9                	addi	a1,a1,-2
   14a00:	9241                	srli	a2,a2,0x30
   14a02:	05a58063          	beq	a1,s10,14a42 <_ldtoa_r+0x586>
   14a06:	0005d783          	lhu	a5,0(a1)
   14a0a:	0107951b          	slliw	a0,a5,0x10
   14a0e:	4105551b          	sraiw	a0,a0,0x10
   14a12:	02051713          	slli	a4,a0,0x20
   14a16:	0017979b          	slliw	a5,a5,0x1
   14a1a:	00075463          	bgez	a4,14a22 <_ldtoa_r+0x566>
   14a1e:	00166613          	ori	a2,a2,1
   14a22:	17c2                	slli	a5,a5,0x30
   14a24:	93c1                	srli	a5,a5,0x30
   14a26:	00267513          	andi	a0,a2,2
   14a2a:	0017e313          	ori	t1,a5,1
   14a2e:	d179                	beqz	a0,149f4 <_ldtoa_r+0x538>
   14a30:	0016161b          	slliw	a2,a2,0x1
   14a34:	00659023          	sh	t1,0(a1)
   14a38:	1642                	slli	a2,a2,0x30
   14a3a:	15f9                	addi	a1,a1,-2
   14a3c:	9241                	srli	a2,a2,0x30
   14a3e:	fda594e3          	bne	a1,s10,14a06 <_ldtoa_r+0x54a>
   14a42:	4501                	li	a0,0
   14a44:	85d2                	mv	a1,s4
   14a46:	19b0                	addi	a2,sp,248
   14a48:	0005d303          	lhu	t1,0(a1)
   14a4c:	00065783          	lhu	a5,0(a2)
   14a50:	15f9                	addi	a1,a1,-2
   14a52:	1679                	addi	a2,a2,-2
   14a54:	979a                	add	a5,a5,t1
   14a56:	97aa                	add	a5,a5,a0
   14a58:	0107d513          	srli	a0,a5,0x10
   14a5c:	00f59123          	sh	a5,2(a1)
   14a60:	8905                	andi	a0,a0,1
   14a62:	ffa613e3          	bne	a2,s10,14a48 <_ldtoa_r+0x58c>
   14a66:	864e                	mv	a2,s3
   14a68:	110c                	addi	a1,sp,160
   14a6a:	0188                	addi	a0,sp,192
   14a6c:	918ff0ef          	jal	ra,13b84 <eiremain>
   14a70:	1ec15783          	lhu	a5,492(sp)
   14a74:	018d8633          	add	a2,s11,s8
   14a78:	0c05                	addi	s8,s8,1
   14a7a:	0307859b          	addiw	a1,a5,48
   14a7e:	00b60023          	sb	a1,0(a2)
   14a82:	000c061b          	sext.w	a2,s8
   14a86:	eac454e3          	bge	s0,a2,1492e <_ldtoa_r+0x472>
   14a8a:	fff44513          	not	a0,s0
   14a8e:	957d                	srai	a0,a0,0x3f
   14a90:	8d61                	and	a0,a0,s0
   14a92:	2501                	sext.w	a0,a0
   14a94:	00150993          	addi	s3,a0,1
   14a98:	99ee                	add	s3,s3,s11
   14a9a:	9daa                	add	s11,s11,a0
   14a9c:	4711                	li	a4,4
   14a9e:	04f75c63          	bge	a4,a5,14af6 <_ldtoa_r+0x63a>
   14aa2:	4715                	li	a4,5
   14aa4:	62e78e63          	beq	a5,a4,150e0 <_ldtoa_r+0xc24>
   14aa8:	ffe9c783          	lbu	a5,-2(s3)
   14aac:	ffe98713          	addi	a4,s3,-2
   14ab0:	07f7f693          	andi	a3,a5,127
   14ab4:	87b6                	mv	a5,a3
   14ab6:	5c044c63          	bltz	s0,1508e <_ldtoa_r+0xbd2>
   14aba:	02e00613          	li	a2,46
   14abe:	03800593          	li	a1,56
   14ac2:	03000513          	li	a0,48
   14ac6:	00c68d63          	beq	a3,a2,14ae0 <_ldtoa_r+0x624>
   14aca:	5cf5d863          	bge	a1,a5,1509a <_ldtoa_r+0xbde>
   14ace:	fff74783          	lbu	a5,-1(a4)
   14ad2:	00a70023          	sb	a0,0(a4)
   14ad6:	177d                	addi	a4,a4,-1
   14ad8:	07f7f693          	andi	a3,a5,127
   14adc:	87b6                	mv	a5,a3
   14ade:	b7e5                	j	14ac6 <_ldtoa_r+0x60a>
   14ae0:	fff74783          	lbu	a5,-1(a4)
   14ae4:	03800693          	li	a3,56
   14ae8:	62f6ff63          	bgeu	a3,a5,15126 <_ldtoa_r+0xc6a>
   14aec:	03100793          	li	a5,49
   14af0:	2485                	addiw	s1,s1,1
   14af2:	fef70fa3          	sb	a5,-1(a4)
   14af6:	8626                	mv	a2,s1
   14af8:	00008597          	auipc	a1,0x8
   14afc:	ca858593          	addi	a1,a1,-856 # 1c7a0 <zeroes.4521+0x70>
   14b00:	856e                	mv	a0,s11
   14b02:	368020ef          	jal	ra,16e6a <sprintf>
   14b06:	09215783          	lhu	a5,146(sp)
   14b0a:	7722                	ld	a4,40(sp)
   14b0c:	1a912823          	sw	s1,432(sp)
   14b10:	fff7c793          	not	a5,a5
   14b14:	1ae12223          	sw	a4,420(sp)
   14b18:	03179713          	slli	a4,a5,0x31
   14b1c:	eb19                	bnez	a4,14b32 <_ldtoa_r+0x676>
   14b1e:	0108                	addi	a0,sp,128
   14b20:	aabfe0ef          	jal	ra,135ca <eisinf.part.0>
   14b24:	1a051763          	bnez	a0,14cd2 <_ldtoa_r+0x816>
   14b28:	0108                	addi	a0,sp,128
   14b2a:	8b1fe0ef          	jal	ra,133da <eisnan.part.0>
   14b2e:	1a051263          	bnez	a0,14cd2 <_ldtoa_r+0x816>
   14b32:	66e2                	ld	a3,24(sp)
   14b34:	16014703          	lbu	a4,352(sp)
   14b38:	0014879b          	addiw	a5,s1,1
   14b3c:	c29c                	sw	a5,0(a3)
   14b3e:	87ca                	mv	a5,s2
   14b40:	c70d                	beqz	a4,14b6a <_ldtoa_r+0x6ae>
   14b42:	02e00693          	li	a3,46
   14b46:	16d70b63          	beq	a4,a3,14cbc <_ldtoa_r+0x800>
   14b4a:	0017c703          	lbu	a4,1(a5)
   14b4e:	0785                	addi	a5,a5,1
   14b50:	fb7d                	bnez	a4,14b46 <_ldtoa_r+0x68a>
   14b52:	04500693          	li	a3,69
   14b56:	00f96563          	bltu	s2,a5,14b60 <_ldtoa_r+0x6a4>
   14b5a:	a801                	j	14b6a <_ldtoa_r+0x6ae>
   14b5c:	01278763          	beq	a5,s2,14b6a <_ldtoa_r+0x6ae>
   14b60:	fff7c703          	lbu	a4,-1(a5)
   14b64:	17fd                	addi	a5,a5,-1
   14b66:	fed71be3          	bne	a4,a3,14b5c <_ldtoa_r+0x6a0>
   14b6a:	00078023          	sb	zero,0(a5)
   14b6e:	87ca                	mv	a5,s2
   14b70:	02000693          	li	a3,32
   14b74:	02d00613          	li	a2,45
   14b78:	0007c703          	lbu	a4,0(a5)
   14b7c:	00d70463          	beq	a4,a3,14b84 <_ldtoa_r+0x6c8>
   14b80:	00c71463          	bne	a4,a2,14b88 <_ldtoa_r+0x6cc>
   14b84:	0785                	addi	a5,a5,1
   14b86:	bfcd                	j	14b78 <_ldtoa_r+0x6bc>
   14b88:	844a                	mv	s0,s2
   14b8a:	a021                	j	14b92 <_ldtoa_r+0x6d6>
   14b8c:	0007c703          	lbu	a4,0(a5)
   14b90:	8436                	mv	s0,a3
   14b92:	00e40023          	sb	a4,0(s0)
   14b96:	00140693          	addi	a3,s0,1
   14b9a:	0785                	addi	a5,a5,1
   14b9c:	fb65                	bnez	a4,14b8c <_ldtoa_r+0x6d0>
   14b9e:	4789                	li	a5,2
   14ba0:	fff44703          	lbu	a4,-1(s0)
   14ba4:	0efb8663          	beq	s7,a5,14c90 <_ldtoa_r+0x7d4>
   14ba8:	67a2                	ld	a5,8(sp)
   14baa:	0007869b          	sext.w	a3,a5
   14bae:	0097d463          	bge	a5,s1,14bb6 <_ldtoa_r+0x6fa>
   14bb2:	0004869b          	sext.w	a3,s1
   14bb6:	03000793          	li	a5,48
   14bba:	02f71463          	bne	a4,a5,14be2 <_ldtoa_r+0x726>
   14bbe:	412407b3          	sub	a5,s0,s2
   14bc2:	02f6d063          	bge	a3,a5,14be2 <_ldtoa_r+0x726>
   14bc6:	03000613          	li	a2,48
   14bca:	a019                	j	14bd0 <_ldtoa_r+0x714>
   14bcc:	00e6db63          	bge	a3,a4,14be2 <_ldtoa_r+0x726>
   14bd0:	ffe44783          	lbu	a5,-2(s0)
   14bd4:	fe040fa3          	sb	zero,-1(s0)
   14bd8:	147d                	addi	s0,s0,-1
   14bda:	41240733          	sub	a4,s0,s2
   14bde:	fec787e3          	beq	a5,a2,14bcc <_ldtoa_r+0x710>
   14be2:	478d                	li	a5,3
   14be4:	08fb8363          	beq	s7,a5,14c6a <_ldtoa_r+0x7ae>
   14be8:	67c2                	ld	a5,16(sp)
   14bea:	060aa423          	sw	zero,104(s5)
   14bee:	00978a1b          	addiw	s4,a5,9
   14bf2:	47fd                	li	a5,31
   14bf4:	0947fc63          	bgeu	a5,s4,14c8c <_ldtoa_r+0x7d0>
   14bf8:	4685                	li	a3,1
   14bfa:	4791                	li	a5,4
   14bfc:	0017979b          	slliw	a5,a5,0x1
   14c00:	01c78613          	addi	a2,a5,28
   14c04:	0006859b          	sext.w	a1,a3
   14c08:	2685                	addiw	a3,a3,1
   14c0a:	feca79e3          	bgeu	s4,a2,14bfc <_ldtoa_r+0x740>
   14c0e:	06baa423          	sw	a1,104(s5)
   14c12:	8556                	mv	a0,s5
   14c14:	1d0010ef          	jal	ra,15de4 <_Balloc>
   14c18:	06aab023          	sd	a0,96(s5)
   14c1c:	85ca                	mv	a1,s2
   14c1e:	84aa                	mv	s1,a0
   14c20:	458020ef          	jal	ra,17078 <strcpy>
   14c24:	77c2                	ld	a5,48(sp)
   14c26:	c789                	beqz	a5,14c30 <_ldtoa_r+0x774>
   14c28:	41240433          	sub	s0,s0,s2
   14c2c:	9426                	add	s0,s0,s1
   14c2e:	e380                	sd	s0,0(a5)
   14c30:	25813083          	ld	ra,600(sp)
   14c34:	25013403          	ld	s0,592(sp)
   14c38:	24013903          	ld	s2,576(sp)
   14c3c:	23813983          	ld	s3,568(sp)
   14c40:	23013a03          	ld	s4,560(sp)
   14c44:	22813a83          	ld	s5,552(sp)
   14c48:	22013b03          	ld	s6,544(sp)
   14c4c:	21813b83          	ld	s7,536(sp)
   14c50:	21013c03          	ld	s8,528(sp)
   14c54:	20813c83          	ld	s9,520(sp)
   14c58:	20013d03          	ld	s10,512(sp)
   14c5c:	7dfe                	ld	s11,504(sp)
   14c5e:	8526                	mv	a0,s1
   14c60:	24813483          	ld	s1,584(sp)
   14c64:	26010113          	addi	sp,sp,608
   14c68:	8082                	ret
   14c6a:	67a2                	ld	a5,8(sp)
   14c6c:	9cbd                	addw	s1,s1,a5
   14c6e:	3c04ce63          	bltz	s1,1504a <_ldtoa_r+0xb8e>
   14c72:	67e2                	ld	a5,24(sp)
   14c74:	6742                	ld	a4,16(sp)
   14c76:	439c                	lw	a5,0(a5)
   14c78:	9fb9                	addw	a5,a5,a4
   14c7a:	e83e                	sd	a5,16(sp)
   14c7c:	67c2                	ld	a5,16(sp)
   14c7e:	060aa423          	sw	zero,104(s5)
   14c82:	00378a1b          	addiw	s4,a5,3
   14c86:	47fd                	li	a5,31
   14c88:	f747e8e3          	bltu	a5,s4,14bf8 <_ldtoa_r+0x73c>
   14c8c:	4581                	li	a1,0
   14c8e:	b751                	j	14c12 <_ldtoa_r+0x756>
   14c90:	03000793          	li	a5,48
   14c94:	f4f71ae3          	bne	a4,a5,14be8 <_ldtoa_r+0x72c>
   14c98:	412407b3          	sub	a5,s0,s2
   14c9c:	4685                	li	a3,1
   14c9e:	f2f6c4e3          	blt	a3,a5,14bc6 <_ldtoa_r+0x70a>
   14ca2:	b799                	j	14be8 <_ldtoa_r+0x72c>
   14ca4:	67c2                	ld	a5,16(sp)
   14ca6:	02a00713          	li	a4,42
   14caa:	8c3e                	mv	s8,a5
   14cac:	00f75463          	bge	a4,a5,14cb4 <_ldtoa_r+0x7f8>
   14cb0:	02a00c13          	li	s8,42
   14cb4:	000c079b          	sext.w	a5,s8
   14cb8:	e43e                	sd	a5,8(sp)
   14cba:	b859                	j	14550 <_ldtoa_r+0x94>
   14cbc:	0007c703          	lbu	a4,0(a5)
   14cc0:	e80709e3          	beqz	a4,14b52 <_ldtoa_r+0x696>
   14cc4:	0017c703          	lbu	a4,1(a5)
   14cc8:	0785                	addi	a5,a5,1
   14cca:	fee78fa3          	sb	a4,-1(a5)
   14cce:	fb7d                	bnez	a4,14cc4 <_ldtoa_r+0x808>
   14cd0:	b549                	j	14b52 <_ldtoa_r+0x696>
   14cd2:	6762                	ld	a4,24(sp)
   14cd4:	6789                	lui	a5,0x2
   14cd6:	70f78793          	addi	a5,a5,1807 # 270f <main-0xd9a1>
   14cda:	c31c                	sw	a5,0(a4)
   14cdc:	bd49                	j	14b6e <_ldtoa_r+0x6b2>
   14cde:	03100713          	li	a4,49
   14ce2:	16e100a3          	sb	a4,353(sp)
   14ce6:	02e00713          	li	a4,46
   14cea:	16e10123          	sb	a4,354(sp)
   14cee:	2485                	addiw	s1,s1,1
   14cf0:	20f05c63          	blez	a5,14f08 <_ldtoa_r+0xa4c>
   14cf4:	03000793          	li	a5,48
   14cf8:	16f101a3          	sb	a5,355(sp)
   14cfc:	347d                	addiw	s0,s0,-1
   14cfe:	16410d93          	addi	s11,sp,356
   14d02:	b929                	j	1491c <_ldtoa_r+0x460>
   14d04:	0e010b13          	addi	s6,sp,224
   14d08:	875a                	mv	a4,s6
   14d0a:	111c                	addi	a5,sp,160
   14d0c:	1950                	addi	a2,sp,180
   14d0e:	0007d683          	lhu	a3,0(a5)
   14d12:	0789                	addi	a5,a5,2
   14d14:	0709                	addi	a4,a4,2
   14d16:	fed71f23          	sh	a3,-2(a4)
   14d1a:	fec79ae3          	bne	a5,a2,14d0e <_ldtoa_r+0x852>
   14d1e:	6791                	lui	a5,0x4
   14d20:	08e78793          	addi	a5,a5,142 # 408e <main-0xc022>
   14d24:	0ef11923          	sh	a5,242(sp)
   14d28:	67a1                	lui	a5,0x8
   14d2a:	17fd                	addi	a5,a5,-1
   14d2c:	fc3e                	sd	a5,56(sp)
   14d2e:	77f1                	lui	a5,0xffffc
   14d30:	2789                	addiw	a5,a5,2
   14d32:	4a41                	li	s4,16
   14d34:	4481                	li	s1,0
   14d36:	00008d17          	auipc	s10,0x8
   14d3a:	b42d0d13          	addi	s10,s10,-1214 # 1c878 <etens+0xa0>
   14d3e:	16010913          	addi	s2,sp,352
   14d42:	1a010993          	addi	s3,sp,416
   14d46:	0200                	addi	s0,sp,256
   14d48:	0d210c13          	addi	s8,sp,210
   14d4c:	c2be                	sw	a5,68(sp)
   14d4e:	07a10c93          	addi	s9,sp,122
   14d52:	86ce                	mv	a3,s3
   14d54:	0190                	addi	a2,sp,192
   14d56:	85da                	mv	a1,s6
   14d58:	856a                	mv	a0,s10
   14d5a:	aa6ff0ef          	jal	ra,14000 <ediv>
   14d5e:	10b8                	addi	a4,sp,104
   14d60:	019c                	addi	a5,sp,192
   14d62:	0007d683          	lhu	a3,0(a5) # ffffffffffffc000 <__BSS_END__+0xfffffffffffdcb50>
   14d66:	0789                	addi	a5,a5,2
   14d68:	0709                	addi	a4,a4,2
   14d6a:	fed71f23          	sh	a3,-2(a4)
   14d6e:	ffb79ae3          	bne	a5,s11,14d62 <_ldtoa_r+0x8a6>
   14d72:	77e2                	ld	a5,56(sp)
   14d74:	07a15503          	lhu	a0,122(sp)
   14d78:	00f57eb3          	and	t4,a0,a5
   14d7c:	4796                	lw	a5,68(sp)
   14d7e:	00fe87bb          	addw	a5,t4,a5
   14d82:	8ebe                	mv	t4,a5
   14d84:	2cf05a63          	blez	a5,15058 <_ldtoa_r+0xb9c>
   14d88:	09000593          	li	a1,144
   14d8c:	40f58f3b          	subw	t5,a1,a5
   14d90:	85fa                	mv	a1,t5
   14d92:	8722                	mv	a4,s0
   14d94:	10bc                	addi	a5,sp,104
   14d96:	18f0                	addi	a2,sp,124
   14d98:	0007d683          	lhu	a3,0(a5)
   14d9c:	0789                	addi	a5,a5,2
   14d9e:	0709                	addi	a4,a4,2
   14da0:	fed71f23          	sh	a3,-2(a4)
   14da4:	fec79ae3          	bne	a5,a2,14d98 <_ldtoa_r+0x8dc>
   14da8:	07e05263          	blez	t5,14e0c <_ldtoa_r+0x950>
   14dac:	47bd                	li	a5,15
   14dae:	8722                	mv	a4,s0
   14db0:	03e7d863          	bge	a5,t5,14de0 <_ldtoa_r+0x924>
   14db4:	35c1                	addiw	a1,a1,-16
   14db6:	0045d71b          	srliw	a4,a1,0x4
   14dba:	0705                	addi	a4,a4,1
   14dbc:	0706                	slli	a4,a4,0x1
   14dbe:	0045d59b          	srliw	a1,a1,0x4
   14dc2:	9722                	add	a4,a4,s0
   14dc4:	87a2                	mv	a5,s0
   14dc6:	0789                	addi	a5,a5,2
   14dc8:	fe079f23          	sh	zero,-2(a5)
   14dcc:	fef71de3          	bne	a4,a5,14dc6 <_ldtoa_r+0x90a>
   14dd0:	08000f13          	li	t5,128
   14dd4:	41df0ebb          	subw	t4,t5,t4
   14dd8:	0045959b          	slliw	a1,a1,0x4
   14ddc:	40be8f3b          	subw	t5,t4,a1
   14de0:	001f1593          	slli	a1,t5,0x1
   14de4:	00008f17          	auipc	t5,0x8
   14de8:	9c4f0f13          	addi	t5,t5,-1596 # 1c7a8 <ezero>
   14dec:	95fa                	add	a1,a1,t5
   14dee:	00075783          	lhu	a5,0(a4)
   14df2:	2405d683          	lhu	a3,576(a1)
   14df6:	8ff5                	and	a5,a5,a3
   14df8:	00f71023          	sh	a5,0(a4)
   14dfc:	0105151b          	slliw	a0,a0,0x10
   14e00:	4105551b          	sraiw	a0,a0,0x10
   14e04:	02051793          	slli	a5,a0,0x20
   14e08:	1007c563          	bltz	a5,14f12 <_ldtoa_r+0xa56>
   14e0c:	019c                	addi	a5,sp,192
   14e0e:	8722                	mv	a4,s0
   14e10:	0007d603          	lhu	a2,0(a5)
   14e14:	00075683          	lhu	a3,0(a4)
   14e18:	0789                	addi	a5,a5,2
   14e1a:	0709                	addi	a4,a4,2
   14e1c:	02d61063          	bne	a2,a3,14e3c <_ldtoa_r+0x980>
   14e20:	fefc18e3          	bne	s8,a5,14e10 <_ldtoa_r+0x954>
   14e24:	875a                	mv	a4,s6
   14e26:	019c                	addi	a5,sp,192
   14e28:	0007d683          	lhu	a3,0(a5)
   14e2c:	0789                	addi	a5,a5,2
   14e2e:	0709                	addi	a4,a4,2
   14e30:	fed71f23          	sh	a3,-2(a4)
   14e34:	ffb79ae3          	bne	a5,s11,14e28 <_ldtoa_r+0x96c>
   14e38:	009a04bb          	addw	s1,s4,s1
   14e3c:	0d51                	addi	s10,s10,20
   14e3e:	00008797          	auipc	a5,0x8
   14e42:	a9e78793          	addi	a5,a5,-1378 # 1c8dc <etens+0x104>
   14e46:	001a5a13          	srli	s4,s4,0x1
   14e4a:	f0fd14e3          	bne	s10,a5,14d52 <_ldtoa_r+0x896>
   14e4e:	0f215783          	lhu	a5,242(sp)
   14e52:	0b215703          	lhu	a4,178(sp)
   14e56:	19d0                	addi	a2,sp,244
   14e58:	9fb9                	addw	a5,a5,a4
   14e5a:	7771                	lui	a4,0xffffc
   14e5c:	f727071b          	addiw	a4,a4,-142
   14e60:	9fb9                	addw	a5,a5,a4
   14e62:	0ef11923          	sh	a5,242(sp)
   14e66:	1118                	addi	a4,sp,160
   14e68:	87da                	mv	a5,s6
   14e6a:	0007d683          	lhu	a3,0(a5)
   14e6e:	0789                	addi	a5,a5,2
   14e70:	0709                	addi	a4,a4,2
   14e72:	fed71f23          	sh	a3,-2(a4) # ffffffffffffbffe <__BSS_END__+0xfffffffffffdcb4e>
   14e76:	fec79ae3          	bne	a5,a2,14e6a <_ldtoa_r+0x9ae>
   14e7a:	4681                	li	a3,0
   14e7c:	019c                	addi	a5,sp,192
   14e7e:	00008717          	auipc	a4,0x8
   14e82:	94270713          	addi	a4,a4,-1726 # 1c7c0 <eone>
   14e86:	a019                	j	14e8c <_ldtoa_r+0x9d0>
   14e88:	00075683          	lhu	a3,0(a4)
   14e8c:	0789                	addi	a5,a5,2
   14e8e:	fed79f23          	sh	a3,-2(a5)
   14e92:	0709                	addi	a4,a4,2
   14e94:	ffb79ae3          	bne	a5,s11,14e88 <_ldtoa_r+0x9cc>
   14e98:	6c05                	lui	s8,0x1
   14e9a:	00008a17          	auipc	s4,0x8
   14e9e:	93ea0a13          	addi	s4,s4,-1730 # 1c7d8 <etens>
   14ea2:	00008d97          	auipc	s11,0x8
   14ea6:	a26d8d93          	addi	s11,s11,-1498 # 1c8c8 <etens+0xf0>
   14eaa:	a031                	j	14eb6 <_ldtoa_r+0x9fa>
   14eac:	001c5c13          	srli	s8,s8,0x1
   14eb0:	1dba0b63          	beq	s4,s11,15086 <_ldtoa_r+0xbca>
   14eb4:	0a51                	addi	s4,s4,20
   14eb6:	85da                	mv	a1,s6
   14eb8:	856e                	mv	a0,s11
   14eba:	e48fe0ef          	jal	ra,13502 <ecmp>
   14ebe:	872a                	mv	a4,a0
   14ec0:	85da                	mv	a1,s6
   14ec2:	8552                	mv	a0,s4
   14ec4:	1ce04163          	bgtz	a4,15086 <_ldtoa_r+0xbca>
   14ec8:	e3afe0ef          	jal	ra,13502 <ecmp>
   14ecc:	fea040e3          	bgtz	a0,14eac <_ldtoa_r+0x9f0>
   14ed0:	86ce                	mv	a3,s3
   14ed2:	865a                	mv	a2,s6
   14ed4:	85da                	mv	a1,s6
   14ed6:	8552                	mv	a0,s4
   14ed8:	928ff0ef          	jal	ra,14000 <ediv>
   14edc:	0190                	addi	a2,sp,192
   14ede:	86ce                	mv	a3,s3
   14ee0:	85b2                	mv	a1,a2
   14ee2:	8552                	mv	a0,s4
   14ee4:	e17fe0ef          	jal	ra,13cfa <emul>
   14ee8:	009c04bb          	addw	s1,s8,s1
   14eec:	b7c1                	j	14eac <_ldtoa_r+0x9f0>
   14eee:	16010913          	addi	s2,sp,352
   14ef2:	00008597          	auipc	a1,0x8
   14ef6:	87e58593          	addi	a1,a1,-1922 # 1c770 <zeroes.4521+0x40>
   14efa:	854a                	mv	a0,s2
   14efc:	6489                	lui	s1,0x2
   14efe:	76d010ef          	jal	ra,16e6a <sprintf>
   14f02:	70f48493          	addi	s1,s1,1807 # 270f <main-0xd9a1>
   14f06:	b101                	j	14b06 <_ldtoa_r+0x64a>
   14f08:	16310d93          	addi	s11,sp,355
   14f0c:	be0795e3          	bnez	a5,14af6 <_ldtoa_r+0x63a>
   14f10:	b431                	j	1491c <_ldtoa_r+0x460>
   14f12:	10bc                	addi	a5,sp,104
   14f14:	8722                	mv	a4,s0
   14f16:	a019                	j	14f1c <_ldtoa_r+0xa60>
   14f18:	eefc8ae3          	beq	s9,a5,14e0c <_ldtoa_r+0x950>
   14f1c:	0007d603          	lhu	a2,0(a5)
   14f20:	00075683          	lhu	a3,0(a4)
   14f24:	0789                	addi	a5,a5,2
   14f26:	0709                	addi	a4,a4,2
   14f28:	fed608e3          	beq	a2,a3,14f18 <_ldtoa_r+0xa5c>
   14f2c:	11215783          	lhu	a5,274(sp)
   14f30:	7762                	ld	a4,56(sp)
   14f32:	8ff9                	and	a5,a5,a4
   14f34:	00e79c63          	bne	a5,a4,14f4c <_ldtoa_r+0xa90>
   14f38:	8522                	mv	a0,s0
   14f3a:	ca0fe0ef          	jal	ra,133da <eisnan.part.0>
   14f3e:	ec0517e3          	bnez	a0,14e0c <_ldtoa_r+0x950>
   14f42:	8522                	mv	a0,s0
   14f44:	e86fe0ef          	jal	ra,135ca <eisinf.part.0>
   14f48:	ec0512e3          	bnez	a0,14e0c <_ldtoa_r+0x950>
   14f4c:	120c                	addi	a1,sp,288
   14f4e:	00008517          	auipc	a0,0x8
   14f52:	87250513          	addi	a0,a0,-1934 # 1c7c0 <eone>
   14f56:	cf6fe0ef          	jal	ra,1344c <emovi>
   14f5a:	028c                	addi	a1,sp,320
   14f5c:	8522                	mv	a0,s0
   14f5e:	ceefe0ef          	jal	ra,1344c <emovi>
   14f62:	12015603          	lhu	a2,288(sp)
   14f66:	14215503          	lhu	a0,322(sp)
   14f6a:	12215e83          	lhu	t4,290(sp)
   14f6e:	fff64613          	not	a2,a2
   14f72:	1642                	slli	a2,a2,0x30
   14f74:	9241                	srli	a2,a2,0x30
   14f76:	12c11023          	sh	a2,288(sp)
   14f7a:	40ae85b3          	sub	a1,t4,a0
   14f7e:	86aa                	mv	a3,a0
   14f80:	04b05e63          	blez	a1,14fdc <_ldtoa_r+0xb20>
   14f84:	86ca                	mv	a3,s2
   14f86:	0298                	addi	a4,sp,320
   14f88:	0abc                	addi	a5,sp,344
   14f8a:	00075583          	lhu	a1,0(a4)
   14f8e:	0709                	addi	a4,a4,2
   14f90:	0689                	addi	a3,a3,2
   14f92:	feb69f23          	sh	a1,-2(a3) # 3ffe <main-0xc0b2>
   14f96:	fef71ae3          	bne	a4,a5,14f8a <_ldtoa_r+0xace>
   14f9a:	16011c23          	sh	zero,376(sp)
   14f9e:	0298                	addi	a4,sp,320
   14fa0:	1214                	addi	a3,sp,288
   14fa2:	a019                	j	14fa8 <_ldtoa_r+0xaec>
   14fa4:	0006d603          	lhu	a2,0(a3)
   14fa8:	0709                	addi	a4,a4,2
   14faa:	fec71f23          	sh	a2,-2(a4)
   14fae:	0689                	addi	a3,a3,2
   14fb0:	fef71ae3          	bne	a4,a5,14fa4 <_ldtoa_r+0xae8>
   14fb4:	14011c23          	sh	zero,344(sp)
   14fb8:	1218                	addi	a4,sp,288
   14fba:	87ca                	mv	a5,s2
   14fbc:	1ab0                	addi	a2,sp,376
   14fbe:	0007d683          	lhu	a3,0(a5)
   14fc2:	0789                	addi	a5,a5,2
   14fc4:	0709                	addi	a4,a4,2
   14fc6:	fed71f23          	sh	a3,-2(a4)
   14fca:	fec79ae3          	bne	a5,a2,14fbe <_ldtoa_r+0xb02>
   14fce:	14215683          	lhu	a3,322(sp)
   14fd2:	41d505b3          	sub	a1,a0,t4
   14fd6:	12011c23          	sh	zero,312(sp)
   14fda:	8536                	mv	a0,a3
   14fdc:	22058263          	beqz	a1,15200 <_ldtoa_r+0xd44>
   14fe0:	e4b6                	sd	a3,72(sp)
   14fe2:	f6f00793          	li	a5,-145
   14fe6:	04f5ca63          	blt	a1,a5,1503a <_ldtoa_r+0xb7e>
   14fea:	2581                	sext.w	a1,a1
   14fec:	1208                	addi	a0,sp,288
   14fee:	deefe0ef          	jal	ra,135dc <eshift.part.0>
   14ff2:	66a6                	ld	a3,72(sp)
   14ff4:	85aa                	mv	a1,a0
   14ff6:	0abc                	addi	a5,sp,344
   14ff8:	1a28                	addi	a0,sp,312
   14ffa:	12015603          	lhu	a2,288(sp)
   14ffe:	14015703          	lhu	a4,320(sp)
   15002:	24e60163          	beq	a2,a4,15244 <_ldtoa_r+0xd88>
   15006:	4601                	li	a2,0
   15008:	0007d703          	lhu	a4,0(a5)
   1500c:	00055e83          	lhu	t4,0(a0)
   15010:	17f9                	addi	a5,a5,-2
   15012:	8f11                	sub	a4,a4,a2
   15014:	41d70733          	sub	a4,a4,t4
   15018:	01075613          	srli	a2,a4,0x10
   1501c:	00e79123          	sh	a4,2(a5)
   15020:	14210713          	addi	a4,sp,322
   15024:	8a05                	andi	a2,a2,1
   15026:	1579                	addi	a0,a0,-2
   15028:	fee790e3          	bne	a5,a4,15008 <_ldtoa_r+0xb4c>
   1502c:	4605                	li	a2,1
   1502e:	87ce                	mv	a5,s3
   15030:	04000713          	li	a4,64
   15034:	0288                	addi	a0,sp,320
   15036:	849fe0ef          	jal	ra,1387e <emdnorm>
   1503a:	85a2                	mv	a1,s0
   1503c:	0288                	addi	a0,sp,320
   1503e:	c3bfe0ef          	jal	ra,13c78 <emovo.isra.0>
   15042:	b3e9                	j	14e0c <_ldtoa_r+0x950>
   15044:	67c2                	ld	a5,16(sp)
   15046:	37fd                	addiw	a5,a5,-1
   15048:	b9b9                	j	14ca6 <_ldtoa_r+0x7ea>
   1504a:	67e2                	ld	a5,24(sp)
   1504c:	16010023          	sb	zero,352(sp)
   15050:	844a                	mv	s0,s2
   15052:	0007a023          	sw	zero,0(a5)
   15056:	b11d                	j	14c7c <_ldtoa_r+0x7c0>
   15058:	87a2                	mv	a5,s0
   1505a:	0a58                	addi	a4,sp,276
   1505c:	0789                	addi	a5,a5,2
   1505e:	fe079f23          	sh	zero,-2(a5)
   15062:	fee79de3          	bne	a5,a4,1505c <_ldtoa_r+0xba0>
   15066:	bb59                	j	14dfc <_ldtoa_r+0x940>
   15068:	7782                	ld	a5,32(sp)
   1506a:	16010913          	addi	s2,sp,352
   1506e:	cfb1                	beqz	a5,150ca <_ldtoa_r+0xc0e>
   15070:	00007597          	auipc	a1,0x7
   15074:	70858593          	addi	a1,a1,1800 # 1c778 <zeroes.4521+0x48>
   15078:	854a                	mv	a0,s2
   1507a:	6489                	lui	s1,0x2
   1507c:	5ef010ef          	jal	ra,16e6a <sprintf>
   15080:	70f48493          	addi	s1,s1,1807 # 270f <main-0xd9a1>
   15084:	b449                	j	14b06 <_ldtoa_r+0x64a>
   15086:	11810a13          	addi	s4,sp,280
   1508a:	e8cff06f          	j	14716 <_ldtoa_r+0x25a>
   1508e:	03100793          	li	a5,49
   15092:	fef98f23          	sb	a5,-2(s3)
   15096:	2485                	addiw	s1,s1,1
   15098:	bcb9                	j	14af6 <_ldtoa_r+0x63a>
   1509a:	2685                	addiw	a3,a3,1
   1509c:	00d70023          	sb	a3,0(a4)
   150a0:	bc99                	j	14af6 <_ldtoa_r+0x63a>
   150a2:	16010913          	addi	s2,sp,352
   150a6:	00007597          	auipc	a1,0x7
   150aa:	6f258593          	addi	a1,a1,1778 # 1c798 <zeroes.4521+0x68>
   150ae:	854a                	mv	a0,s2
   150b0:	6489                	lui	s1,0x2
   150b2:	5b9010ef          	jal	ra,16e6a <sprintf>
   150b6:	70f48493          	addi	s1,s1,1807 # 270f <main-0xd9a1>
   150ba:	b4b1                	j	14b06 <_ldtoa_r+0x64a>
   150bc:	1ec15783          	lhu	a5,492(sp)
   150c0:	16210d93          	addi	s11,sp,354
   150c4:	16310993          	addi	s3,sp,355
   150c8:	bad1                	j	14a9c <_ldtoa_r+0x5e0>
   150ca:	00007597          	auipc	a1,0x7
   150ce:	6be58593          	addi	a1,a1,1726 # 1c788 <zeroes.4521+0x58>
   150d2:	854a                	mv	a0,s2
   150d4:	6489                	lui	s1,0x2
   150d6:	595010ef          	jal	ra,16e6a <sprintf>
   150da:	70f48493          	addi	s1,s1,1807 # 270f <main-0xd9a1>
   150de:	b425                	j	14b06 <_ldtoa_r+0x64a>
   150e0:	018c                	addi	a1,sp,192
   150e2:	1108                	addi	a0,sp,160
   150e4:	b95fe0ef          	jal	ra,13c78 <emovo.isra.0>
   150e8:	00007597          	auipc	a1,0x7
   150ec:	6c058593          	addi	a1,a1,1728 # 1c7a8 <ezero>
   150f0:	0188                	addi	a0,sp,192
   150f2:	c10fe0ef          	jal	ra,13502 <ecmp>
   150f6:	9a0519e3          	bnez	a0,14aa8 <_ldtoa_r+0x5ec>
   150fa:	9e044ee3          	bltz	s0,14af6 <_ldtoa_r+0x63a>
   150fe:	ffe9c783          	lbu	a5,-2(s3)
   15102:	fd278713          	addi	a4,a5,-46
   15106:	00173713          	seqz	a4,a4
   1510a:	fff74713          	not	a4,a4
   1510e:	976e                	add	a4,a4,s11
   15110:	00074703          	lbu	a4,0(a4)
   15114:	8b05                	andi	a4,a4,1
   15116:	9e0700e3          	beqz	a4,14af6 <_ldtoa_r+0x63a>
   1511a:	07f7f693          	andi	a3,a5,127
   1511e:	ffe98713          	addi	a4,s3,-2
   15122:	87b6                	mv	a5,a3
   15124:	ba59                	j	14aba <_ldtoa_r+0x5fe>
   15126:	2785                	addiw	a5,a5,1
   15128:	fef70fa3          	sb	a5,-1(a4)
   1512c:	b2e9                	j	14af6 <_ldtoa_r+0x63a>
   1512e:	0200                	addi	s0,sp,256
   15130:	85a2                	mv	a1,s0
   15132:	1108                	addi	a0,sp,160
   15134:	6b11                	lui	s6,0x4
   15136:	b16fe0ef          	jal	ra,1344c <emovi>
   1513a:	4481                	li	s1,0
   1513c:	11810a13          	addi	s4,sp,280
   15140:	0f810913          	addi	s2,sp,248
   15144:	10210993          	addi	s3,sp,258
   15148:	1b79                	addi	s6,s6,-2
   1514a:	fd500c13          	li	s8,-43
   1514e:	11815783          	lhu	a5,280(sp)
   15152:	8b9d                	andi	a5,a5,7
   15154:	efd1                	bnez	a5,151f0 <_ldtoa_r+0xd34>
   15156:	1198                	addi	a4,sp,224
   15158:	87a2                	mv	a5,s0
   1515a:	0007d683          	lhu	a3,0(a5)
   1515e:	0789                	addi	a5,a5,2
   15160:	0709                	addi	a4,a4,2
   15162:	fed71f23          	sh	a3,-2(a4)
   15166:	ff479ae3          	bne	a5,s4,1515a <_ldtoa_r+0xc9e>
   1516a:	1188                	addi	a0,sp,224
   1516c:	0e011c23          	sh	zero,248(sp)
   15170:	950fe0ef          	jal	ra,132c0 <eshdn1>
   15174:	1188                	addi	a0,sp,224
   15176:	94afe0ef          	jal	ra,132c0 <eshdn1>
   1517a:	4601                	li	a2,0
   1517c:	86ca                	mv	a3,s2
   1517e:	8752                	mv	a4,s4
   15180:	0006d583          	lhu	a1,0(a3)
   15184:	00075783          	lhu	a5,0(a4)
   15188:	16f9                	addi	a3,a3,-2
   1518a:	1779                	addi	a4,a4,-2
   1518c:	97ae                	add	a5,a5,a1
   1518e:	97b2                	add	a5,a5,a2
   15190:	0107d613          	srli	a2,a5,0x10
   15194:	00f69123          	sh	a5,2(a3)
   15198:	8a05                	andi	a2,a2,1
   1519a:	ff3713e3          	bne	a4,s3,15180 <_ldtoa_r+0xcc4>
   1519e:	0e215783          	lhu	a5,226(sp)
   151a2:	0e415703          	lhu	a4,228(sp)
   151a6:	278d                	addiw	a5,a5,3
   151a8:	0ef11123          	sh	a5,226(sp)
   151ac:	cf01                	beqz	a4,151c4 <_ldtoa_r+0xd08>
   151ae:	1188                	addi	a0,sp,224
   151b0:	910fe0ef          	jal	ra,132c0 <eshdn1>
   151b4:	0e215783          	lhu	a5,226(sp)
   151b8:	0e415703          	lhu	a4,228(sp)
   151bc:	2785                	addiw	a5,a5,1
   151be:	0ef11123          	sh	a5,226(sp)
   151c2:	f775                	bnez	a4,151ae <_ldtoa_r+0xcf2>
   151c4:	0f815783          	lhu	a5,248(sp)
   151c8:	e785                	bnez	a5,151f0 <_ldtoa_r+0xd34>
   151ca:	0e215783          	lhu	a5,226(sp)
   151ce:	02fb6163          	bltu	s6,a5,151f0 <_ldtoa_r+0xd34>
   151d2:	8722                	mv	a4,s0
   151d4:	119c                	addi	a5,sp,224
   151d6:	0007d683          	lhu	a3,0(a5)
   151da:	0789                	addi	a5,a5,2
   151dc:	0709                	addi	a4,a4,2
   151de:	fed71f23          	sh	a3,-2(a4)
   151e2:	ff279ae3          	bne	a5,s2,151d6 <_ldtoa_r+0xd1a>
   151e6:	10011c23          	sh	zero,280(sp)
   151ea:	34fd                	addiw	s1,s1,-1
   151ec:	f78491e3          	bne	s1,s8,1514e <_ldtoa_r+0xc92>
   151f0:	110c                	addi	a1,sp,160
   151f2:	8522                	mv	a0,s0
   151f4:	a85fe0ef          	jal	ra,13c78 <emovo.isra.0>
   151f8:	1a010993          	addi	s3,sp,416
   151fc:	c3aff06f          	j	14636 <_ldtoa_r+0x17a>
   15200:	02d8                	addi	a4,sp,324
   15202:	125c                	addi	a5,sp,292
   15204:	0007d583          	lhu	a1,0(a5)
   15208:	00075603          	lhu	a2,0(a4)
   1520c:	0789                	addi	a5,a5,2
   1520e:	0709                	addi	a4,a4,2
   15210:	02c59463          	bne	a1,a2,15238 <_ldtoa_r+0xd7c>
   15214:	13a10613          	addi	a2,sp,314
   15218:	fec796e3          	bne	a5,a2,15204 <_ldtoa_r+0xd48>
   1521c:	12015703          	lhu	a4,288(sp)
   15220:	14015783          	lhu	a5,320(sp)
   15224:	04f70663          	beq	a4,a5,15270 <_ldtoa_r+0xdb4>
   15228:	87a2                	mv	a5,s0
   1522a:	0a58                	addi	a4,sp,276
   1522c:	0789                	addi	a5,a5,2
   1522e:	fe079f23          	sh	zero,-2(a5)
   15232:	fee79de3          	bne	a5,a4,1522c <_ldtoa_r+0xd70>
   15236:	bed9                	j	14e0c <_ldtoa_r+0x950>
   15238:	0ab66063          	bltu	a2,a1,152d8 <_ldtoa_r+0xe1c>
   1523c:	4581                	li	a1,0
   1523e:	0abc                	addi	a5,sp,344
   15240:	1a28                	addi	a0,sp,312
   15242:	bb65                	j	14ffa <_ldtoa_r+0xb3e>
   15244:	4e81                	li	t4,0
   15246:	862a                	mv	a2,a0
   15248:	12210f13          	addi	t5,sp,290
   1524c:	0007d503          	lhu	a0,0(a5)
   15250:	00065703          	lhu	a4,0(a2)
   15254:	17f9                	addi	a5,a5,-2
   15256:	1679                	addi	a2,a2,-2
   15258:	972a                	add	a4,a4,a0
   1525a:	9776                	add	a4,a4,t4
   1525c:	01075e93          	srli	t4,a4,0x10
   15260:	00e79123          	sh	a4,2(a5)
   15264:	001efe93          	andi	t4,t4,1
   15268:	ffe612e3          	bne	a2,t5,1524c <_ldtoa_r+0xd90>
   1526c:	4601                	li	a2,0
   1526e:	b3c1                	j	1502e <_ldtoa_r+0xb72>
   15270:	8736                	mv	a4,a3
   15272:	eab1                	bnez	a3,152c6 <_ldtoa_r+0xe0a>
   15274:	14611783          	lh	a5,326(sp)
   15278:	0407c763          	bltz	a5,152c6 <_ldtoa_r+0xe0a>
   1527c:	0ab4                	addi	a3,sp,344
   1527e:	a821                	j	15296 <_ldtoa_r+0xdda>
   15280:	00f69023          	sh	a5,0(a3)
   15284:	0017171b          	slliw	a4,a4,0x1
   15288:	1742                	slli	a4,a4,0x30
   1528a:	16f9                	addi	a3,a3,-2
   1528c:	14210793          	addi	a5,sp,322
   15290:	9341                	srli	a4,a4,0x30
   15292:	daf684e3          	beq	a3,a5,1503a <_ldtoa_r+0xb7e>
   15296:	0006d783          	lhu	a5,0(a3)
   1529a:	0107961b          	slliw	a2,a5,0x10
   1529e:	4106561b          	sraiw	a2,a2,0x10
   152a2:	02061593          	slli	a1,a2,0x20
   152a6:	0017979b          	slliw	a5,a5,0x1
   152aa:	0005d463          	bgez	a1,152b2 <_ldtoa_r+0xdf6>
   152ae:	00176713          	ori	a4,a4,1
   152b2:	17c2                	slli	a5,a5,0x30
   152b4:	93c1                	srli	a5,a5,0x30
   152b6:	00277613          	andi	a2,a4,2
   152ba:	0017e593          	ori	a1,a5,1
   152be:	d269                	beqz	a2,15280 <_ldtoa_r+0xdc4>
   152c0:	00b69023          	sh	a1,0(a3)
   152c4:	b7c1                	j	15284 <_ldtoa_r+0xdc8>
   152c6:	02d0                	addi	a2,sp,324
   152c8:	0abc                	addi	a5,sp,344
   152ca:	e325                	bnez	a4,1532a <_ldtoa_r+0xe6e>
   152cc:	06c78163          	beq	a5,a2,1532e <_ldtoa_r+0xe72>
   152d0:	00065703          	lhu	a4,0(a2)
   152d4:	0609                	addi	a2,a2,2
   152d6:	bfd5                	j	152ca <_ldtoa_r+0xe0e>
   152d8:	864a                	mv	a2,s2
   152da:	0298                	addi	a4,sp,320
   152dc:	0abc                	addi	a5,sp,344
   152de:	00075583          	lhu	a1,0(a4)
   152e2:	0709                	addi	a4,a4,2
   152e4:	0609                	addi	a2,a2,2
   152e6:	feb61f23          	sh	a1,-2(a2)
   152ea:	fef71ae3          	bne	a4,a5,152de <_ldtoa_r+0xe22>
   152ee:	16011c23          	sh	zero,376(sp)
   152f2:	0290                	addi	a2,sp,320
   152f4:	1218                	addi	a4,sp,288
   152f6:	1a28                	addi	a0,sp,312
   152f8:	00075583          	lhu	a1,0(a4)
   152fc:	0709                	addi	a4,a4,2
   152fe:	0609                	addi	a2,a2,2
   15300:	feb61f23          	sh	a1,-2(a2)
   15304:	fea71ae3          	bne	a4,a0,152f8 <_ldtoa_r+0xe3c>
   15308:	14011c23          	sh	zero,344(sp)
   1530c:	120c                	addi	a1,sp,288
   1530e:	874a                	mv	a4,s2
   15310:	1ab0                	addi	a2,sp,376
   15312:	00075e83          	lhu	t4,0(a4)
   15316:	0709                	addi	a4,a4,2
   15318:	0589                	addi	a1,a1,2
   1531a:	ffd59f23          	sh	t4,-2(a1)
   1531e:	fec71ae3          	bne	a4,a2,15312 <_ldtoa_r+0xe56>
   15322:	12011c23          	sh	zero,312(sp)
   15326:	4581                	li	a1,0
   15328:	b9c9                	j	14ffa <_ldtoa_r+0xb3e>
   1532a:	00168513          	addi	a0,a3,1
   1532e:	14a11123          	sh	a0,322(sp)
   15332:	b321                	j	1503a <_ldtoa_r+0xb7e>

0000000000015334 <_ldcheck>:
   15334:	6118                	ld	a4,0(a0)
   15336:	651c                	ld	a5,8(a0)
   15338:	7139                	addi	sp,sp,-64
   1533a:	850a                	mv	a0,sp
   1533c:	080c                	addi	a1,sp,16
   1533e:	e03a                	sd	a4,0(sp)
   15340:	e43e                	sd	a5,8(sp)
   15342:	fc06                	sd	ra,56(sp)
   15344:	87cff0ef          	jal	ra,143c0 <e113toe.isra.0>
   15348:	02215783          	lhu	a5,34(sp)
   1534c:	4501                	li	a0,0
   1534e:	fff7c793          	not	a5,a5
   15352:	03179713          	slli	a4,a5,0x31
   15356:	e719                	bnez	a4,15364 <_ldcheck+0x30>
   15358:	0808                	addi	a0,sp,16
   1535a:	880fe0ef          	jal	ra,133da <eisnan.part.0>
   1535e:	00153513          	seqz	a0,a0
   15362:	0505                	addi	a0,a0,1
   15364:	70e2                	ld	ra,56(sp)
   15366:	6121                	addi	sp,sp,64
   15368:	8082                	ret

000000000001536a <__localeconv_l>:
   1536a:	10050513          	addi	a0,a0,256
   1536e:	8082                	ret

0000000000015370 <_localeconv_r>:
   15370:	e5818513          	addi	a0,gp,-424 # 1eb08 <__global_locale+0x100>
   15374:	8082                	ret

0000000000015376 <localeconv>:
   15376:	e5818513          	addi	a0,gp,-424 # 1eb08 <__global_locale+0x100>
   1537a:	8082                	ret

000000000001537c <_setlocale_r>:
   1537c:	c60d                	beqz	a2,153a6 <_setlocale_r+0x2a>
   1537e:	1141                	addi	sp,sp,-16
   15380:	00007597          	auipc	a1,0x7
   15384:	69858593          	addi	a1,a1,1688 # 1ca18 <bmask+0x30>
   15388:	8532                	mv	a0,a2
   1538a:	e022                	sd	s0,0(sp)
   1538c:	e406                	sd	ra,8(sp)
   1538e:	8432                	mv	s0,a2
   15390:	3ff010ef          	jal	ra,16f8e <strcmp>
   15394:	ed11                	bnez	a0,153b0 <_setlocale_r+0x34>
   15396:	00007517          	auipc	a0,0x7
   1539a:	67a50513          	addi	a0,a0,1658 # 1ca10 <bmask+0x28>
   1539e:	60a2                	ld	ra,8(sp)
   153a0:	6402                	ld	s0,0(sp)
   153a2:	0141                	addi	sp,sp,16
   153a4:	8082                	ret
   153a6:	00007517          	auipc	a0,0x7
   153aa:	66a50513          	addi	a0,a0,1642 # 1ca10 <bmask+0x28>
   153ae:	8082                	ret
   153b0:	00007597          	auipc	a1,0x7
   153b4:	66058593          	addi	a1,a1,1632 # 1ca10 <bmask+0x28>
   153b8:	8522                	mv	a0,s0
   153ba:	3d5010ef          	jal	ra,16f8e <strcmp>
   153be:	dd61                	beqz	a0,15396 <_setlocale_r+0x1a>
   153c0:	00007597          	auipc	a1,0x7
   153c4:	1c058593          	addi	a1,a1,448 # 1c580 <__clzdi2+0x124>
   153c8:	8522                	mv	a0,s0
   153ca:	3c5010ef          	jal	ra,16f8e <strcmp>
   153ce:	d561                	beqz	a0,15396 <_setlocale_r+0x1a>
   153d0:	4501                	li	a0,0
   153d2:	b7f1                	j	1539e <_setlocale_r+0x22>

00000000000153d4 <__locale_mb_cur_max>:
   153d4:	eb81c503          	lbu	a0,-328(gp) # 1eb68 <__global_locale+0x160>
   153d8:	8082                	ret

00000000000153da <setlocale>:
   153da:	862e                	mv	a2,a1
   153dc:	85aa                	mv	a1,a0
   153de:	7581b503          	ld	a0,1880(gp) # 1f408 <_impure_ptr>
   153e2:	bf69                	j	1537c <_setlocale_r>

00000000000153e4 <__swhatbuf_r>:
   153e4:	7175                	addi	sp,sp,-144
   153e6:	e122                	sd	s0,128(sp)
   153e8:	842e                	mv	s0,a1
   153ea:	01259583          	lh	a1,18(a1)
   153ee:	fca6                	sd	s1,120(sp)
   153f0:	f8ca                	sd	s2,112(sp)
   153f2:	e506                	sd	ra,136(sp)
   153f4:	84b2                	mv	s1,a2
   153f6:	8936                	mv	s2,a3
   153f8:	0205cc63          	bltz	a1,15430 <__swhatbuf_r+0x4c>
   153fc:	0030                	addi	a2,sp,8
   153fe:	221040ef          	jal	ra,19e1e <_fstat_r>
   15402:	02054763          	bltz	a0,15430 <__swhatbuf_r+0x4c>
   15406:	47b2                	lw	a5,12(sp)
   15408:	673d                	lui	a4,0xf
   1540a:	60aa                	ld	ra,136(sp)
   1540c:	8ff9                	and	a5,a5,a4
   1540e:	6709                	lui	a4,0x2
   15410:	8f99                	sub	a5,a5,a4
   15412:	640a                	ld	s0,128(sp)
   15414:	0017b793          	seqz	a5,a5
   15418:	00f92023          	sw	a5,0(s2)
   1541c:	40000793          	li	a5,1024
   15420:	e09c                	sd	a5,0(s1)
   15422:	6505                	lui	a0,0x1
   15424:	74e6                	ld	s1,120(sp)
   15426:	7946                	ld	s2,112(sp)
   15428:	80050513          	addi	a0,a0,-2048 # 800 <main-0xf8b0>
   1542c:	6149                	addi	sp,sp,144
   1542e:	8082                	ret
   15430:	01045783          	lhu	a5,16(s0)
   15434:	00092023          	sw	zero,0(s2)
   15438:	0807f793          	andi	a5,a5,128
   1543c:	cb99                	beqz	a5,15452 <__swhatbuf_r+0x6e>
   1543e:	60aa                	ld	ra,136(sp)
   15440:	640a                	ld	s0,128(sp)
   15442:	04000793          	li	a5,64
   15446:	e09c                	sd	a5,0(s1)
   15448:	7946                	ld	s2,112(sp)
   1544a:	74e6                	ld	s1,120(sp)
   1544c:	4501                	li	a0,0
   1544e:	6149                	addi	sp,sp,144
   15450:	8082                	ret
   15452:	60aa                	ld	ra,136(sp)
   15454:	640a                	ld	s0,128(sp)
   15456:	40000793          	li	a5,1024
   1545a:	e09c                	sd	a5,0(s1)
   1545c:	7946                	ld	s2,112(sp)
   1545e:	74e6                	ld	s1,120(sp)
   15460:	4501                	li	a0,0
   15462:	6149                	addi	sp,sp,144
   15464:	8082                	ret

0000000000015466 <__smakebuf_r>:
   15466:	0105d783          	lhu	a5,16(a1)
   1546a:	7179                	addi	sp,sp,-48
   1546c:	f022                	sd	s0,32(sp)
   1546e:	f406                	sd	ra,40(sp)
   15470:	ec26                	sd	s1,24(sp)
   15472:	e84a                	sd	s2,16(sp)
   15474:	8b89                	andi	a5,a5,2
   15476:	842e                	mv	s0,a1
   15478:	cf89                	beqz	a5,15492 <__smakebuf_r+0x2c>
   1547a:	07758793          	addi	a5,a1,119
   1547e:	e19c                	sd	a5,0(a1)
   15480:	ed9c                	sd	a5,24(a1)
   15482:	4785                	li	a5,1
   15484:	d19c                	sw	a5,32(a1)
   15486:	70a2                	ld	ra,40(sp)
   15488:	7402                	ld	s0,32(sp)
   1548a:	64e2                	ld	s1,24(sp)
   1548c:	6942                	ld	s2,16(sp)
   1548e:	6145                	addi	sp,sp,48
   15490:	8082                	ret
   15492:	0054                	addi	a3,sp,4
   15494:	0030                	addi	a2,sp,8
   15496:	84aa                	mv	s1,a0
   15498:	f4dff0ef          	jal	ra,153e4 <__swhatbuf_r>
   1549c:	65a2                	ld	a1,8(sp)
   1549e:	892a                	mv	s2,a0
   154a0:	8526                	mv	a0,s1
   154a2:	080000ef          	jal	ra,15522 <_malloc_r>
   154a6:	01041783          	lh	a5,16(s0)
   154aa:	c915                	beqz	a0,154de <__smakebuf_r+0x78>
   154ac:	ffffd697          	auipc	a3,0xffffd
   154b0:	41268693          	addi	a3,a3,1042 # 128be <_cleanup_r>
   154b4:	ecb4                	sd	a3,88(s1)
   154b6:	66a2                	ld	a3,8(sp)
   154b8:	4712                	lw	a4,4(sp)
   154ba:	0807e793          	ori	a5,a5,128
   154be:	00f41823          	sh	a5,16(s0)
   154c2:	e008                	sd	a0,0(s0)
   154c4:	ec08                	sd	a0,24(s0)
   154c6:	d014                	sw	a3,32(s0)
   154c8:	eb15                	bnez	a4,154fc <__smakebuf_r+0x96>
   154ca:	0127e7b3          	or	a5,a5,s2
   154ce:	70a2                	ld	ra,40(sp)
   154d0:	00f41823          	sh	a5,16(s0)
   154d4:	7402                	ld	s0,32(sp)
   154d6:	64e2                	ld	s1,24(sp)
   154d8:	6942                	ld	s2,16(sp)
   154da:	6145                	addi	sp,sp,48
   154dc:	8082                	ret
   154de:	2007f713          	andi	a4,a5,512
   154e2:	f355                	bnez	a4,15486 <__smakebuf_r+0x20>
   154e4:	9bf1                	andi	a5,a5,-4
   154e6:	0027e793          	ori	a5,a5,2
   154ea:	07740713          	addi	a4,s0,119
   154ee:	00f41823          	sh	a5,16(s0)
   154f2:	4785                	li	a5,1
   154f4:	e018                	sd	a4,0(s0)
   154f6:	ec18                	sd	a4,24(s0)
   154f8:	d01c                	sw	a5,32(s0)
   154fa:	b771                	j	15486 <__smakebuf_r+0x20>
   154fc:	01241583          	lh	a1,18(s0)
   15500:	8526                	mv	a0,s1
   15502:	159040ef          	jal	ra,19e5a <_isatty_r>
   15506:	e501                	bnez	a0,1550e <__smakebuf_r+0xa8>
   15508:	01041783          	lh	a5,16(s0)
   1550c:	bf7d                	j	154ca <__smakebuf_r+0x64>
   1550e:	01045703          	lhu	a4,16(s0)
   15512:	9b71                	andi	a4,a4,-4
   15514:	00176713          	ori	a4,a4,1
   15518:	0107179b          	slliw	a5,a4,0x10
   1551c:	4107d79b          	sraiw	a5,a5,0x10
   15520:	b76d                	j	154ca <__smakebuf_r+0x64>

0000000000015522 <_malloc_r>:
   15522:	711d                	addi	sp,sp,-96
   15524:	e4a6                	sd	s1,72(sp)
   15526:	e0ca                	sd	s2,64(sp)
   15528:	ec86                	sd	ra,88(sp)
   1552a:	e8a2                	sd	s0,80(sp)
   1552c:	fc4e                	sd	s3,56(sp)
   1552e:	f852                	sd	s4,48(sp)
   15530:	f456                	sd	s5,40(sp)
   15532:	f05a                	sd	s6,32(sp)
   15534:	ec5e                	sd	s7,24(sp)
   15536:	e862                	sd	s8,16(sp)
   15538:	e466                	sd	s9,8(sp)
   1553a:	01758493          	addi	s1,a1,23
   1553e:	02e00793          	li	a5,46
   15542:	892a                	mv	s2,a0
   15544:	0497e863          	bltu	a5,s1,15594 <_malloc_r+0x72>
   15548:	02000793          	li	a5,32
   1554c:	1eb7e663          	bltu	a5,a1,15738 <_malloc_r+0x216>
   15550:	091000ef          	jal	ra,15de0 <__malloc_lock>
   15554:	02000493          	li	s1,32
   15558:	4611                	li	a2,4
   1555a:	05000793          	li	a5,80
   1555e:	00009997          	auipc	s3,0x9
   15562:	65298993          	addi	s3,s3,1618 # 1ebb0 <__malloc_av_>
   15566:	97ce                	add	a5,a5,s3
   15568:	6780                	ld	s0,8(a5)
   1556a:	ff078713          	addi	a4,a5,-16
   1556e:	1ee40663          	beq	s0,a4,1575a <_malloc_r+0x238>
   15572:	641c                	ld	a5,8(s0)
   15574:	6c14                	ld	a3,24(s0)
   15576:	6810                	ld	a2,16(s0)
   15578:	9bf1                	andi	a5,a5,-4
   1557a:	97a2                	add	a5,a5,s0
   1557c:	6798                	ld	a4,8(a5)
   1557e:	ee14                	sd	a3,24(a2)
   15580:	ea90                	sd	a2,16(a3)
   15582:	00176713          	ori	a4,a4,1
   15586:	854a                	mv	a0,s2
   15588:	e798                	sd	a4,8(a5)
   1558a:	059000ef          	jal	ra,15de2 <__malloc_unlock>
   1558e:	01040513          	addi	a0,s0,16
   15592:	a27d                	j	15740 <_malloc_r+0x21e>
   15594:	800007b7          	lui	a5,0x80000
   15598:	98c1                	andi	s1,s1,-16
   1559a:	fff7c793          	not	a5,a5
   1559e:	1897ed63          	bltu	a5,s1,15738 <_malloc_r+0x216>
   155a2:	18b4eb63          	bltu	s1,a1,15738 <_malloc_r+0x216>
   155a6:	03b000ef          	jal	ra,15de0 <__malloc_lock>
   155aa:	1f700793          	li	a5,503
   155ae:	3a97f563          	bgeu	a5,s1,15958 <_malloc_r+0x436>
   155b2:	0094d793          	srli	a5,s1,0x9
   155b6:	28078163          	beqz	a5,15838 <_malloc_r+0x316>
   155ba:	4711                	li	a4,4
   155bc:	30f76563          	bltu	a4,a5,158c6 <_malloc_r+0x3a4>
   155c0:	0064d793          	srli	a5,s1,0x6
   155c4:	0397861b          	addiw	a2,a5,57
   155c8:	0016169b          	slliw	a3,a2,0x1
   155cc:	0387851b          	addiw	a0,a5,56
   155d0:	068e                	slli	a3,a3,0x3
   155d2:	00009997          	auipc	s3,0x9
   155d6:	5de98993          	addi	s3,s3,1502 # 1ebb0 <__malloc_av_>
   155da:	96ce                	add	a3,a3,s3
   155dc:	6680                	ld	s0,8(a3)
   155de:	16c1                	addi	a3,a3,-16
   155e0:	18868163          	beq	a3,s0,15762 <_malloc_r+0x240>
   155e4:	45fd                	li	a1,31
   155e6:	a031                	j	155f2 <_malloc_r+0xd0>
   155e8:	28075963          	bgez	a4,1587a <_malloc_r+0x358>
   155ec:	6c00                	ld	s0,24(s0)
   155ee:	16868a63          	beq	a3,s0,15762 <_malloc_r+0x240>
   155f2:	641c                	ld	a5,8(s0)
   155f4:	9bf1                	andi	a5,a5,-4
   155f6:	40978733          	sub	a4,a5,s1
   155fa:	fee5d7e3          	bge	a1,a4,155e8 <_malloc_r+0xc6>
   155fe:	0209b403          	ld	s0,32(s3)
   15602:	00009897          	auipc	a7,0x9
   15606:	5be88893          	addi	a7,a7,1470 # 1ebc0 <__malloc_av_+0x10>
   1560a:	862a                	mv	a2,a0
   1560c:	17141363          	bne	s0,a7,15772 <_malloc_r+0x250>
   15610:	0089b783          	ld	a5,8(s3)
   15614:	4026571b          	sraiw	a4,a2,0x2
   15618:	4585                	li	a1,1
   1561a:	00e595b3          	sll	a1,a1,a4
   1561e:	1ab7fa63          	bgeu	a5,a1,157d2 <_malloc_r+0x2b0>
   15622:	0109b403          	ld	s0,16(s3)
   15626:	00843a03          	ld	s4,8(s0)
   1562a:	ffca7a93          	andi	s5,s4,-4
   1562e:	009ae763          	bltu	s5,s1,1563c <_malloc_r+0x11a>
   15632:	409a87b3          	sub	a5,s5,s1
   15636:	477d                	li	a4,31
   15638:	22f74263          	blt	a4,a5,1585c <_malloc_r+0x33a>
   1563c:	76018c93          	addi	s9,gp,1888 # 1f410 <__malloc_sbrk_base>
   15640:	000cb703          	ld	a4,0(s9)
   15644:	7881ba03          	ld	s4,1928(gp) # 1f438 <__malloc_top_pad>
   15648:	57fd                	li	a5,-1
   1564a:	01540bb3          	add	s7,s0,s5
   1564e:	9a26                	add	s4,s4,s1
   15650:	3af70263          	beq	a4,a5,159f4 <_malloc_r+0x4d2>
   15654:	6785                	lui	a5,0x1
   15656:	07fd                	addi	a5,a5,31
   15658:	9a3e                	add	s4,s4,a5
   1565a:	77fd                	lui	a5,0xfffff
   1565c:	00fa7a33          	and	s4,s4,a5
   15660:	85d2                	mv	a1,s4
   15662:	854a                	mv	a0,s2
   15664:	70c010ef          	jal	ra,16d70 <_sbrk_r>
   15668:	57fd                	li	a5,-1
   1566a:	8b2a                	mv	s6,a0
   1566c:	30f50b63          	beq	a0,a5,15982 <_malloc_r+0x460>
   15670:	31756763          	bltu	a0,s7,1597e <_malloc_r+0x45c>
   15674:	7d018c13          	addi	s8,gp,2000 # 1f480 <__malloc_current_mallinfo>
   15678:	000c2703          	lw	a4,0(s8) # 1000 <main-0xf0b0>
   1567c:	014707bb          	addw	a5,a4,s4
   15680:	00fc2023          	sw	a5,0(s8)
   15684:	86be                	mv	a3,a5
   15686:	40ab8063          	beq	s7,a0,15a86 <_malloc_r+0x564>
   1568a:	000cb703          	ld	a4,0(s9)
   1568e:	57fd                	li	a5,-1
   15690:	40f70763          	beq	a4,a5,15a9e <_malloc_r+0x57c>
   15694:	417b07b3          	sub	a5,s6,s7
   15698:	9fb5                	addw	a5,a5,a3
   1569a:	00fc2023          	sw	a5,0(s8)
   1569e:	00fb7b93          	andi	s7,s6,15
   156a2:	360b8763          	beqz	s7,15a10 <_malloc_r+0x4ee>
   156a6:	6705                	lui	a4,0x1
   156a8:	417b0b33          	sub	s6,s6,s7
   156ac:	01070793          	addi	a5,a4,16 # 1010 <main-0xf0a0>
   156b0:	0b41                	addi	s6,s6,16
   156b2:	417787b3          	sub	a5,a5,s7
   156b6:	014b0cb3          	add	s9,s6,s4
   156ba:	41978a33          	sub	s4,a5,s9
   156be:	177d                	addi	a4,a4,-1
   156c0:	00ea7a33          	and	s4,s4,a4
   156c4:	85d2                	mv	a1,s4
   156c6:	854a                	mv	a0,s2
   156c8:	6a8010ef          	jal	ra,16d70 <_sbrk_r>
   156cc:	57fd                	li	a5,-1
   156ce:	40f50d63          	beq	a0,a5,15ae8 <_malloc_r+0x5c6>
   156d2:	41650533          	sub	a0,a0,s6
   156d6:	000a071b          	sext.w	a4,s4
   156da:	9a2a                	add	s4,s4,a0
   156dc:	000c2783          	lw	a5,0(s8)
   156e0:	0169b823          	sd	s6,16(s3)
   156e4:	001a6a13          	ori	s4,s4,1
   156e8:	9fb9                	addw	a5,a5,a4
   156ea:	00fc2023          	sw	a5,0(s8)
   156ee:	014b3423          	sd	s4,8(s6) # 4008 <main-0xc0a8>
   156f2:	3b340963          	beq	s0,s3,15aa4 <_malloc_r+0x582>
   156f6:	467d                	li	a2,31
   156f8:	3b567863          	bgeu	a2,s5,15aa8 <_malloc_r+0x586>
   156fc:	6414                	ld	a3,8(s0)
   156fe:	fe8a8713          	addi	a4,s5,-24
   15702:	9b41                	andi	a4,a4,-16
   15704:	8a85                	andi	a3,a3,1
   15706:	8ed9                	or	a3,a3,a4
   15708:	e414                	sd	a3,8(s0)
   1570a:	45a5                	li	a1,9
   1570c:	00e406b3          	add	a3,s0,a4
   15710:	e68c                	sd	a1,8(a3)
   15712:	ea8c                	sd	a1,16(a3)
   15714:	3ee66163          	bltu	a2,a4,15af6 <_malloc_r+0x5d4>
   15718:	008b3a03          	ld	s4,8(s6)
   1571c:	845a                	mv	s0,s6
   1571e:	78018713          	addi	a4,gp,1920 # 1f430 <__malloc_max_sbrked_mem>
   15722:	6314                	ld	a3,0(a4)
   15724:	00f6f363          	bgeu	a3,a5,1572a <_malloc_r+0x208>
   15728:	e31c                	sd	a5,0(a4)
   1572a:	77818713          	addi	a4,gp,1912 # 1f428 <__malloc_max_total_mem>
   1572e:	6314                	ld	a3,0(a4)
   15730:	24f6fd63          	bgeu	a3,a5,1598a <_malloc_r+0x468>
   15734:	e31c                	sd	a5,0(a4)
   15736:	ac91                	j	1598a <_malloc_r+0x468>
   15738:	47b1                	li	a5,12
   1573a:	00f92023          	sw	a5,0(s2)
   1573e:	4501                	li	a0,0
   15740:	60e6                	ld	ra,88(sp)
   15742:	6446                	ld	s0,80(sp)
   15744:	64a6                	ld	s1,72(sp)
   15746:	6906                	ld	s2,64(sp)
   15748:	79e2                	ld	s3,56(sp)
   1574a:	7a42                	ld	s4,48(sp)
   1574c:	7aa2                	ld	s5,40(sp)
   1574e:	7b02                	ld	s6,32(sp)
   15750:	6be2                	ld	s7,24(sp)
   15752:	6c42                	ld	s8,16(sp)
   15754:	6ca2                	ld	s9,8(sp)
   15756:	6125                	addi	sp,sp,96
   15758:	8082                	ret
   1575a:	6f80                	ld	s0,24(a5)
   1575c:	2609                	addiw	a2,a2,2
   1575e:	e0879ae3          	bne	a5,s0,15572 <_malloc_r+0x50>
   15762:	0209b403          	ld	s0,32(s3)
   15766:	00009897          	auipc	a7,0x9
   1576a:	45a88893          	addi	a7,a7,1114 # 1ebc0 <__malloc_av_+0x10>
   1576e:	eb1401e3          	beq	s0,a7,15610 <_malloc_r+0xee>
   15772:	641c                	ld	a5,8(s0)
   15774:	46fd                	li	a3,31
   15776:	9bf1                	andi	a5,a5,-4
   15778:	40978733          	sub	a4,a5,s1
   1577c:	1ae6c763          	blt	a3,a4,1592a <_malloc_r+0x408>
   15780:	0319b423          	sd	a7,40(s3)
   15784:	0319b023          	sd	a7,32(s3)
   15788:	0a075f63          	bgez	a4,15846 <_malloc_r+0x324>
   1578c:	1ff00713          	li	a4,511
   15790:	0ef76863          	bltu	a4,a5,15880 <_malloc_r+0x35e>
   15794:	838d                	srli	a5,a5,0x3
   15796:	0017871b          	addiw	a4,a5,1
   1579a:	0017171b          	slliw	a4,a4,0x1
   1579e:	070e                	slli	a4,a4,0x3
   157a0:	0089b503          	ld	a0,8(s3)
   157a4:	974e                	add	a4,a4,s3
   157a6:	630c                	ld	a1,0(a4)
   157a8:	4027d69b          	sraiw	a3,a5,0x2
   157ac:	4785                	li	a5,1
   157ae:	00d797b3          	sll	a5,a5,a3
   157b2:	8fc9                	or	a5,a5,a0
   157b4:	ff070693          	addi	a3,a4,-16
   157b8:	ec14                	sd	a3,24(s0)
   157ba:	e80c                	sd	a1,16(s0)
   157bc:	00f9b423          	sd	a5,8(s3)
   157c0:	e300                	sd	s0,0(a4)
   157c2:	ed80                	sd	s0,24(a1)
   157c4:	4026571b          	sraiw	a4,a2,0x2
   157c8:	4585                	li	a1,1
   157ca:	00e595b3          	sll	a1,a1,a4
   157ce:	e4b7eae3          	bltu	a5,a1,15622 <_malloc_r+0x100>
   157d2:	00f5f733          	and	a4,a1,a5
   157d6:	ef01                	bnez	a4,157ee <_malloc_r+0x2cc>
   157d8:	0586                	slli	a1,a1,0x1
   157da:	9a71                	andi	a2,a2,-4
   157dc:	00f5f733          	and	a4,a1,a5
   157e0:	2611                	addiw	a2,a2,4
   157e2:	e711                	bnez	a4,157ee <_malloc_r+0x2cc>
   157e4:	0586                	slli	a1,a1,0x1
   157e6:	00f5f733          	and	a4,a1,a5
   157ea:	2611                	addiw	a2,a2,4
   157ec:	df65                	beqz	a4,157e4 <_malloc_r+0x2c2>
   157ee:	487d                	li	a6,31
   157f0:	0016031b          	addiw	t1,a2,1
   157f4:	0013131b          	slliw	t1,t1,0x1
   157f8:	030e                	slli	t1,t1,0x3
   157fa:	1341                	addi	t1,t1,-16
   157fc:	934e                	add	t1,t1,s3
   157fe:	851a                	mv	a0,t1
   15800:	6d1c                	ld	a5,24(a0)
   15802:	8e32                	mv	t3,a2
   15804:	0ef50263          	beq	a0,a5,158e8 <_malloc_r+0x3c6>
   15808:	6798                	ld	a4,8(a5)
   1580a:	843e                	mv	s0,a5
   1580c:	6f9c                	ld	a5,24(a5)
   1580e:	9b71                	andi	a4,a4,-4
   15810:	409706b3          	sub	a3,a4,s1
   15814:	0ed84163          	blt	a6,a3,158f6 <_malloc_r+0x3d4>
   15818:	fe06c6e3          	bltz	a3,15804 <_malloc_r+0x2e2>
   1581c:	9722                	add	a4,a4,s0
   1581e:	6714                	ld	a3,8(a4)
   15820:	6810                	ld	a2,16(s0)
   15822:	854a                	mv	a0,s2
   15824:	0016e693          	ori	a3,a3,1
   15828:	e714                	sd	a3,8(a4)
   1582a:	ee1c                	sd	a5,24(a2)
   1582c:	eb90                	sd	a2,16(a5)
   1582e:	5b4000ef          	jal	ra,15de2 <__malloc_unlock>
   15832:	01040513          	addi	a0,s0,16
   15836:	b729                	j	15740 <_malloc_r+0x21e>
   15838:	40000693          	li	a3,1024
   1583c:	04000613          	li	a2,64
   15840:	03f00513          	li	a0,63
   15844:	b379                	j	155d2 <_malloc_r+0xb0>
   15846:	97a2                	add	a5,a5,s0
   15848:	6798                	ld	a4,8(a5)
   1584a:	854a                	mv	a0,s2
   1584c:	00176713          	ori	a4,a4,1
   15850:	e798                	sd	a4,8(a5)
   15852:	590000ef          	jal	ra,15de2 <__malloc_unlock>
   15856:	01040513          	addi	a0,s0,16
   1585a:	b5dd                	j	15740 <_malloc_r+0x21e>
   1585c:	0014e713          	ori	a4,s1,1
   15860:	e418                	sd	a4,8(s0)
   15862:	94a2                	add	s1,s1,s0
   15864:	0099b823          	sd	s1,16(s3)
   15868:	0017e793          	ori	a5,a5,1
   1586c:	854a                	mv	a0,s2
   1586e:	e49c                	sd	a5,8(s1)
   15870:	572000ef          	jal	ra,15de2 <__malloc_unlock>
   15874:	01040513          	addi	a0,s0,16
   15878:	b5e1                	j	15740 <_malloc_r+0x21e>
   1587a:	6c14                	ld	a3,24(s0)
   1587c:	6810                	ld	a2,16(s0)
   1587e:	b9f5                	j	1557a <_malloc_r+0x58>
   15880:	0097d713          	srli	a4,a5,0x9
   15884:	4691                	li	a3,4
   15886:	0ee6f263          	bgeu	a3,a4,1596a <_malloc_r+0x448>
   1588a:	46d1                	li	a3,20
   1588c:	1ae6e863          	bltu	a3,a4,15a3c <_malloc_r+0x51a>
   15890:	05c7059b          	addiw	a1,a4,92
   15894:	0015959b          	slliw	a1,a1,0x1
   15898:	05b7069b          	addiw	a3,a4,91
   1589c:	058e                	slli	a1,a1,0x3
   1589e:	95ce                	add	a1,a1,s3
   158a0:	6198                	ld	a4,0(a1)
   158a2:	15c1                	addi	a1,a1,-16
   158a4:	14e58b63          	beq	a1,a4,159fa <_malloc_r+0x4d8>
   158a8:	6714                	ld	a3,8(a4)
   158aa:	9af1                	andi	a3,a3,-4
   158ac:	00d7f563          	bgeu	a5,a3,158b6 <_malloc_r+0x394>
   158b0:	6b18                	ld	a4,16(a4)
   158b2:	fee59be3          	bne	a1,a4,158a8 <_malloc_r+0x386>
   158b6:	6f0c                	ld	a1,24(a4)
   158b8:	0089b783          	ld	a5,8(s3)
   158bc:	ec0c                	sd	a1,24(s0)
   158be:	e818                	sd	a4,16(s0)
   158c0:	e980                	sd	s0,16(a1)
   158c2:	ef00                	sd	s0,24(a4)
   158c4:	b701                	j	157c4 <_malloc_r+0x2a2>
   158c6:	4751                	li	a4,20
   158c8:	0cf77f63          	bgeu	a4,a5,159a6 <_malloc_r+0x484>
   158cc:	05400713          	li	a4,84
   158d0:	18f76463          	bltu	a4,a5,15a58 <_malloc_r+0x536>
   158d4:	00c4d793          	srli	a5,s1,0xc
   158d8:	06f7861b          	addiw	a2,a5,111
   158dc:	0016169b          	slliw	a3,a2,0x1
   158e0:	06e7851b          	addiw	a0,a5,110
   158e4:	068e                	slli	a3,a3,0x3
   158e6:	b1f5                	j	155d2 <_malloc_r+0xb0>
   158e8:	2e05                	addiw	t3,t3,1
   158ea:	003e7793          	andi	a5,t3,3
   158ee:	0541                	addi	a0,a0,16
   158f0:	cbe1                	beqz	a5,159c0 <_malloc_r+0x49e>
   158f2:	6d1c                	ld	a5,24(a0)
   158f4:	bf01                	j	15804 <_malloc_r+0x2e2>
   158f6:	6810                	ld	a2,16(s0)
   158f8:	0014e593          	ori	a1,s1,1
   158fc:	e40c                	sd	a1,8(s0)
   158fe:	ee1c                	sd	a5,24(a2)
   15900:	eb90                	sd	a2,16(a5)
   15902:	94a2                	add	s1,s1,s0
   15904:	0299b423          	sd	s1,40(s3)
   15908:	0299b023          	sd	s1,32(s3)
   1590c:	0016e793          	ori	a5,a3,1
   15910:	0114bc23          	sd	a7,24(s1)
   15914:	0114b823          	sd	a7,16(s1)
   15918:	e49c                	sd	a5,8(s1)
   1591a:	9722                	add	a4,a4,s0
   1591c:	854a                	mv	a0,s2
   1591e:	e314                	sd	a3,0(a4)
   15920:	4c2000ef          	jal	ra,15de2 <__malloc_unlock>
   15924:	01040513          	addi	a0,s0,16
   15928:	bd21                	j	15740 <_malloc_r+0x21e>
   1592a:	0014e693          	ori	a3,s1,1
   1592e:	e414                	sd	a3,8(s0)
   15930:	94a2                	add	s1,s1,s0
   15932:	0299b423          	sd	s1,40(s3)
   15936:	0299b023          	sd	s1,32(s3)
   1593a:	00176693          	ori	a3,a4,1
   1593e:	0114bc23          	sd	a7,24(s1)
   15942:	0114b823          	sd	a7,16(s1)
   15946:	e494                	sd	a3,8(s1)
   15948:	97a2                	add	a5,a5,s0
   1594a:	854a                	mv	a0,s2
   1594c:	e398                	sd	a4,0(a5)
   1594e:	494000ef          	jal	ra,15de2 <__malloc_unlock>
   15952:	01040513          	addi	a0,s0,16
   15956:	b3ed                	j	15740 <_malloc_r+0x21e>
   15958:	0034d613          	srli	a2,s1,0x3
   1595c:	0016079b          	addiw	a5,a2,1
   15960:	0017979b          	slliw	a5,a5,0x1
   15964:	2601                	sext.w	a2,a2
   15966:	078e                	slli	a5,a5,0x3
   15968:	bedd                	j	1555e <_malloc_r+0x3c>
   1596a:	0067d713          	srli	a4,a5,0x6
   1596e:	0397059b          	addiw	a1,a4,57
   15972:	0015959b          	slliw	a1,a1,0x1
   15976:	0387069b          	addiw	a3,a4,56
   1597a:	058e                	slli	a1,a1,0x3
   1597c:	b70d                	j	1589e <_malloc_r+0x37c>
   1597e:	0f340b63          	beq	s0,s3,15a74 <_malloc_r+0x552>
   15982:	0109b403          	ld	s0,16(s3)
   15986:	00843a03          	ld	s4,8(s0)
   1598a:	ffca7a13          	andi	s4,s4,-4
   1598e:	409a07b3          	sub	a5,s4,s1
   15992:	009a6563          	bltu	s4,s1,1599c <_malloc_r+0x47a>
   15996:	477d                	li	a4,31
   15998:	ecf742e3          	blt	a4,a5,1585c <_malloc_r+0x33a>
   1599c:	854a                	mv	a0,s2
   1599e:	444000ef          	jal	ra,15de2 <__malloc_unlock>
   159a2:	4501                	li	a0,0
   159a4:	bb71                	j	15740 <_malloc_r+0x21e>
   159a6:	05c7861b          	addiw	a2,a5,92
   159aa:	0016169b          	slliw	a3,a2,0x1
   159ae:	05b7851b          	addiw	a0,a5,91
   159b2:	068e                	slli	a3,a3,0x3
   159b4:	b939                	j	155d2 <_malloc_r+0xb0>
   159b6:	01033783          	ld	a5,16(t1)
   159ba:	367d                	addiw	a2,a2,-1
   159bc:	18679363          	bne	a5,t1,15b42 <_malloc_r+0x620>
   159c0:	00367793          	andi	a5,a2,3
   159c4:	1341                	addi	t1,t1,-16
   159c6:	fbe5                	bnez	a5,159b6 <_malloc_r+0x494>
   159c8:	0089b703          	ld	a4,8(s3)
   159cc:	fff5c793          	not	a5,a1
   159d0:	8ff9                	and	a5,a5,a4
   159d2:	00f9b423          	sd	a5,8(s3)
   159d6:	0586                	slli	a1,a1,0x1
   159d8:	c4b7e5e3          	bltu	a5,a1,15622 <_malloc_r+0x100>
   159dc:	c40583e3          	beqz	a1,15622 <_malloc_r+0x100>
   159e0:	00f5f733          	and	a4,a1,a5
   159e4:	e711                	bnez	a4,159f0 <_malloc_r+0x4ce>
   159e6:	0586                	slli	a1,a1,0x1
   159e8:	00f5f733          	and	a4,a1,a5
   159ec:	2e11                	addiw	t3,t3,4
   159ee:	df65                	beqz	a4,159e6 <_malloc_r+0x4c4>
   159f0:	8672                	mv	a2,t3
   159f2:	bbfd                	j	157f0 <_malloc_r+0x2ce>
   159f4:	020a0a13          	addi	s4,s4,32
   159f8:	b1a5                	j	15660 <_malloc_r+0x13e>
   159fa:	0089b503          	ld	a0,8(s3)
   159fe:	4026d69b          	sraiw	a3,a3,0x2
   15a02:	4785                	li	a5,1
   15a04:	00d797b3          	sll	a5,a5,a3
   15a08:	8fc9                	or	a5,a5,a0
   15a0a:	00f9b423          	sd	a5,8(s3)
   15a0e:	b57d                	j	158bc <_malloc_r+0x39a>
   15a10:	014b0bb3          	add	s7,s6,s4
   15a14:	41700bb3          	neg	s7,s7
   15a18:	1bd2                	slli	s7,s7,0x34
   15a1a:	034bdb93          	srli	s7,s7,0x34
   15a1e:	85de                	mv	a1,s7
   15a20:	854a                	mv	a0,s2
   15a22:	34e010ef          	jal	ra,16d70 <_sbrk_r>
   15a26:	57fd                	li	a5,-1
   15a28:	4701                	li	a4,0
   15a2a:	caf509e3          	beq	a0,a5,156dc <_malloc_r+0x1ba>
   15a2e:	41650533          	sub	a0,a0,s6
   15a32:	000b871b          	sext.w	a4,s7
   15a36:	01750a33          	add	s4,a0,s7
   15a3a:	b14d                	j	156dc <_malloc_r+0x1ba>
   15a3c:	05400693          	li	a3,84
   15a40:	06e6e863          	bltu	a3,a4,15ab0 <_malloc_r+0x58e>
   15a44:	00c7d713          	srli	a4,a5,0xc
   15a48:	06f7059b          	addiw	a1,a4,111
   15a4c:	0015959b          	slliw	a1,a1,0x1
   15a50:	06e7069b          	addiw	a3,a4,110
   15a54:	058e                	slli	a1,a1,0x3
   15a56:	b5a1                	j	1589e <_malloc_r+0x37c>
   15a58:	15400713          	li	a4,340
   15a5c:	06f76863          	bltu	a4,a5,15acc <_malloc_r+0x5aa>
   15a60:	00f4d793          	srli	a5,s1,0xf
   15a64:	0787861b          	addiw	a2,a5,120
   15a68:	0016169b          	slliw	a3,a2,0x1
   15a6c:	0777851b          	addiw	a0,a5,119
   15a70:	068e                	slli	a3,a3,0x3
   15a72:	b685                	j	155d2 <_malloc_r+0xb0>
   15a74:	7d018c13          	addi	s8,gp,2000 # 1f480 <__malloc_current_mallinfo>
   15a78:	000c2783          	lw	a5,0(s8)
   15a7c:	014786bb          	addw	a3,a5,s4
   15a80:	00dc2023          	sw	a3,0(s8)
   15a84:	b119                	j	1568a <_malloc_r+0x168>
   15a86:	034b9713          	slli	a4,s7,0x34
   15a8a:	c00710e3          	bnez	a4,1568a <_malloc_r+0x168>
   15a8e:	0109b403          	ld	s0,16(s3)
   15a92:	9a56                	add	s4,s4,s5
   15a94:	001a6a13          	ori	s4,s4,1
   15a98:	01443423          	sd	s4,8(s0)
   15a9c:	b149                	j	1571e <_malloc_r+0x1fc>
   15a9e:	016cb023          	sd	s6,0(s9)
   15aa2:	bef5                	j	1569e <_malloc_r+0x17c>
   15aa4:	845a                	mv	s0,s6
   15aa6:	b9a5                	j	1571e <_malloc_r+0x1fc>
   15aa8:	4785                	li	a5,1
   15aaa:	00fb3423          	sd	a5,8(s6)
   15aae:	b5fd                	j	1599c <_malloc_r+0x47a>
   15ab0:	15400693          	li	a3,340
   15ab4:	04e6ed63          	bltu	a3,a4,15b0e <_malloc_r+0x5ec>
   15ab8:	00f7d713          	srli	a4,a5,0xf
   15abc:	0787059b          	addiw	a1,a4,120
   15ac0:	0015959b          	slliw	a1,a1,0x1
   15ac4:	0777069b          	addiw	a3,a4,119
   15ac8:	058e                	slli	a1,a1,0x3
   15aca:	bbd1                	j	1589e <_malloc_r+0x37c>
   15acc:	55400713          	li	a4,1364
   15ad0:	04f76d63          	bltu	a4,a5,15b2a <_malloc_r+0x608>
   15ad4:	0124d793          	srli	a5,s1,0x12
   15ad8:	07d7861b          	addiw	a2,a5,125
   15adc:	0016169b          	slliw	a3,a2,0x1
   15ae0:	07c7851b          	addiw	a0,a5,124
   15ae4:	068e                	slli	a3,a3,0x3
   15ae6:	b4f5                	j	155d2 <_malloc_r+0xb0>
   15ae8:	1bc1                	addi	s7,s7,-16
   15aea:	017c8a33          	add	s4,s9,s7
   15aee:	416a0a33          	sub	s4,s4,s6
   15af2:	4701                	li	a4,0
   15af4:	b6e5                	j	156dc <_malloc_r+0x1ba>
   15af6:	01040593          	addi	a1,s0,16
   15afa:	854a                	mv	a0,s2
   15afc:	93efd0ef          	jal	ra,12c3a <_free_r>
   15b00:	0109b403          	ld	s0,16(s3)
   15b04:	000c2783          	lw	a5,0(s8)
   15b08:	00843a03          	ld	s4,8(s0)
   15b0c:	b909                	j	1571e <_malloc_r+0x1fc>
   15b0e:	55400693          	li	a3,1364
   15b12:	02e6e363          	bltu	a3,a4,15b38 <_malloc_r+0x616>
   15b16:	0127d713          	srli	a4,a5,0x12
   15b1a:	07d7059b          	addiw	a1,a4,125
   15b1e:	0015959b          	slliw	a1,a1,0x1
   15b22:	07c7069b          	addiw	a3,a4,124
   15b26:	058e                	slli	a1,a1,0x3
   15b28:	bb9d                	j	1589e <_malloc_r+0x37c>
   15b2a:	7f000693          	li	a3,2032
   15b2e:	07f00613          	li	a2,127
   15b32:	07e00513          	li	a0,126
   15b36:	bc71                	j	155d2 <_malloc_r+0xb0>
   15b38:	7f000593          	li	a1,2032
   15b3c:	07e00693          	li	a3,126
   15b40:	bbb9                	j	1589e <_malloc_r+0x37c>
   15b42:	0089b783          	ld	a5,8(s3)
   15b46:	bd41                	j	159d6 <_malloc_r+0x4b4>

0000000000015b48 <_mbtowc_r>:
   15b48:	e401b303          	ld	t1,-448(gp) # 1eaf0 <__global_locale+0xe8>
   15b4c:	8302                	jr	t1

0000000000015b4e <__ascii_mbtowc>:
   15b4e:	c999                	beqz	a1,15b64 <__ascii_mbtowc+0x16>
   15b50:	c61d                	beqz	a2,15b7e <__ascii_mbtowc+0x30>
   15b52:	ca95                	beqz	a3,15b86 <__ascii_mbtowc+0x38>
   15b54:	00064783          	lbu	a5,0(a2)
   15b58:	c19c                	sw	a5,0(a1)
   15b5a:	00064503          	lbu	a0,0(a2)
   15b5e:	00a03533          	snez	a0,a0
   15b62:	8082                	ret
   15b64:	1141                	addi	sp,sp,-16
   15b66:	006c                	addi	a1,sp,12
   15b68:	ce09                	beqz	a2,15b82 <__ascii_mbtowc+0x34>
   15b6a:	c285                	beqz	a3,15b8a <__ascii_mbtowc+0x3c>
   15b6c:	00064783          	lbu	a5,0(a2)
   15b70:	c19c                	sw	a5,0(a1)
   15b72:	00064503          	lbu	a0,0(a2)
   15b76:	00a03533          	snez	a0,a0
   15b7a:	0141                	addi	sp,sp,16
   15b7c:	8082                	ret
   15b7e:	4501                	li	a0,0
   15b80:	8082                	ret
   15b82:	4501                	li	a0,0
   15b84:	bfdd                	j	15b7a <__ascii_mbtowc+0x2c>
   15b86:	5579                	li	a0,-2
   15b88:	8082                	ret
   15b8a:	5579                	li	a0,-2
   15b8c:	b7fd                	j	15b7a <__ascii_mbtowc+0x2c>

0000000000015b8e <memchr>:
   15b8e:	00757793          	andi	a5,a0,7
   15b92:	0ff5f693          	andi	a3,a1,255
   15b96:	c395                	beqz	a5,15bba <memchr+0x2c>
   15b98:	fff60793          	addi	a5,a2,-1
   15b9c:	c605                	beqz	a2,15bc4 <memchr+0x36>
   15b9e:	567d                	li	a2,-1
   15ba0:	a801                	j	15bb0 <memchr+0x22>
   15ba2:	0505                	addi	a0,a0,1
   15ba4:	00757713          	andi	a4,a0,7
   15ba8:	cb11                	beqz	a4,15bbc <memchr+0x2e>
   15baa:	17fd                	addi	a5,a5,-1
   15bac:	00c78c63          	beq	a5,a2,15bc4 <memchr+0x36>
   15bb0:	00054703          	lbu	a4,0(a0)
   15bb4:	fed717e3          	bne	a4,a3,15ba2 <memchr+0x14>
   15bb8:	8082                	ret
   15bba:	87b2                	mv	a5,a2
   15bbc:	471d                	li	a4,7
   15bbe:	00f76f63          	bltu	a4,a5,15bdc <memchr+0x4e>
   15bc2:	e399                	bnez	a5,15bc8 <memchr+0x3a>
   15bc4:	4501                	li	a0,0
   15bc6:	8082                	ret
   15bc8:	97aa                	add	a5,a5,a0
   15bca:	a021                	j	15bd2 <memchr+0x44>
   15bcc:	0505                	addi	a0,a0,1
   15bce:	fea78be3          	beq	a5,a0,15bc4 <memchr+0x36>
   15bd2:	00054703          	lbu	a4,0(a0)
   15bd6:	fed71be3          	bne	a4,a3,15bcc <memchr+0x3e>
   15bda:	8082                	ret
   15bdc:	6641                	lui	a2,0x10
   15bde:	0085971b          	slliw	a4,a1,0x8
   15be2:	167d                	addi	a2,a2,-1
   15be4:	8f71                	and	a4,a4,a2
   15be6:	0ff5f593          	andi	a1,a1,255
   15bea:	8dd9                	or	a1,a1,a4
   15bec:	2581                	sext.w	a1,a1
   15bee:	01059713          	slli	a4,a1,0x10
   15bf2:	8f4d                	or	a4,a4,a1
   15bf4:	02071593          	slli	a1,a4,0x20
   15bf8:	8dd9                	or	a1,a1,a4
   15bfa:	00009897          	auipc	a7,0x9
   15bfe:	7d68b883          	ld	a7,2006(a7) # 1f3d0 <mask+0x8>
   15c02:	00009817          	auipc	a6,0x9
   15c06:	7d683803          	ld	a6,2006(a6) # 1f3d8 <mask+0x10>
   15c0a:	431d                	li	t1,7
   15c0c:	6118                	ld	a4,0(a0)
   15c0e:	8f2d                	xor	a4,a4,a1
   15c10:	01170633          	add	a2,a4,a7
   15c14:	fff74713          	not	a4,a4
   15c18:	8f71                	and	a4,a4,a2
   15c1a:	01077733          	and	a4,a4,a6
   15c1e:	f74d                	bnez	a4,15bc8 <memchr+0x3a>
   15c20:	17e1                	addi	a5,a5,-8
   15c22:	0521                	addi	a0,a0,8
   15c24:	fef364e3          	bltu	t1,a5,15c0c <memchr+0x7e>
   15c28:	f3c5                	bnez	a5,15bc8 <memchr+0x3a>
   15c2a:	bf69                	j	15bc4 <memchr+0x36>

0000000000015c2c <memcpy>:
   15c2c:	00a5c7b3          	xor	a5,a1,a0
   15c30:	8b9d                	andi	a5,a5,7
   15c32:	00c508b3          	add	a7,a0,a2
   15c36:	e7a1                	bnez	a5,15c7e <memcpy+0x52>
   15c38:	479d                	li	a5,7
   15c3a:	04c7f263          	bgeu	a5,a2,15c7e <memcpy+0x52>
   15c3e:	00757793          	andi	a5,a0,7
   15c42:	872a                	mv	a4,a0
   15c44:	eba9                	bnez	a5,15c96 <memcpy+0x6a>
   15c46:	ff88f613          	andi	a2,a7,-8
   15c4a:	fc060793          	addi	a5,a2,-64 # ffc0 <main-0xf0>
   15c4e:	06f76763          	bltu	a4,a5,15cbc <memcpy+0x90>
   15c52:	02c77363          	bgeu	a4,a2,15c78 <memcpy+0x4c>
   15c56:	86ae                	mv	a3,a1
   15c58:	87ba                	mv	a5,a4
   15c5a:	0006b803          	ld	a6,0(a3)
   15c5e:	07a1                	addi	a5,a5,8
   15c60:	06a1                	addi	a3,a3,8
   15c62:	ff07bc23          	sd	a6,-8(a5) # ffffffffffffeff8 <__BSS_END__+0xfffffffffffdfb48>
   15c66:	fec7eae3          	bltu	a5,a2,15c5a <memcpy+0x2e>
   15c6a:	fff60793          	addi	a5,a2,-1
   15c6e:	8f99                	sub	a5,a5,a4
   15c70:	9be1                	andi	a5,a5,-8
   15c72:	07a1                	addi	a5,a5,8
   15c74:	973e                	add	a4,a4,a5
   15c76:	95be                	add	a1,a1,a5
   15c78:	01176663          	bltu	a4,a7,15c84 <memcpy+0x58>
   15c7c:	8082                	ret
   15c7e:	872a                	mv	a4,a0
   15c80:	ff157ee3          	bgeu	a0,a7,15c7c <memcpy+0x50>
   15c84:	0005c783          	lbu	a5,0(a1)
   15c88:	0705                	addi	a4,a4,1
   15c8a:	0585                	addi	a1,a1,1
   15c8c:	fef70fa3          	sb	a5,-1(a4)
   15c90:	ff176ae3          	bltu	a4,a7,15c84 <memcpy+0x58>
   15c94:	8082                	ret
   15c96:	0005c683          	lbu	a3,0(a1)
   15c9a:	0705                	addi	a4,a4,1
   15c9c:	00777793          	andi	a5,a4,7
   15ca0:	fed70fa3          	sb	a3,-1(a4)
   15ca4:	0585                	addi	a1,a1,1
   15ca6:	d3c5                	beqz	a5,15c46 <memcpy+0x1a>
   15ca8:	0005c683          	lbu	a3,0(a1)
   15cac:	0705                	addi	a4,a4,1
   15cae:	00777793          	andi	a5,a4,7
   15cb2:	fed70fa3          	sb	a3,-1(a4)
   15cb6:	0585                	addi	a1,a1,1
   15cb8:	fff9                	bnez	a5,15c96 <memcpy+0x6a>
   15cba:	b771                	j	15c46 <memcpy+0x1a>
   15cbc:	6594                	ld	a3,8(a1)
   15cbe:	0005b283          	ld	t0,0(a1)
   15cc2:	0105bf83          	ld	t6,16(a1)
   15cc6:	0185bf03          	ld	t5,24(a1)
   15cca:	0205be83          	ld	t4,32(a1)
   15cce:	0285be03          	ld	t3,40(a1)
   15cd2:	0305b303          	ld	t1,48(a1)
   15cd6:	0385b803          	ld	a6,56(a1)
   15cda:	e714                	sd	a3,8(a4)
   15cdc:	61b4                	ld	a3,64(a1)
   15cde:	00573023          	sd	t0,0(a4)
   15ce2:	01f73823          	sd	t6,16(a4)
   15ce6:	01e73c23          	sd	t5,24(a4)
   15cea:	03d73023          	sd	t4,32(a4)
   15cee:	03c73423          	sd	t3,40(a4)
   15cf2:	02673823          	sd	t1,48(a4)
   15cf6:	03073c23          	sd	a6,56(a4)
   15cfa:	e334                	sd	a3,64(a4)
   15cfc:	04870713          	addi	a4,a4,72
   15d00:	04858593          	addi	a1,a1,72
   15d04:	faf76ce3          	bltu	a4,a5,15cbc <memcpy+0x90>
   15d08:	b7a9                	j	15c52 <memcpy+0x26>

0000000000015d0a <memmove>:
   15d0a:	02a5f263          	bgeu	a1,a0,15d2e <memmove+0x24>
   15d0e:	00c587b3          	add	a5,a1,a2
   15d12:	00f57e63          	bgeu	a0,a5,15d2e <memmove+0x24>
   15d16:	00c50733          	add	a4,a0,a2
   15d1a:	ca5d                	beqz	a2,15dd0 <memmove+0xc6>
   15d1c:	fff7c683          	lbu	a3,-1(a5)
   15d20:	17fd                	addi	a5,a5,-1
   15d22:	177d                	addi	a4,a4,-1
   15d24:	00d70023          	sb	a3,0(a4)
   15d28:	fef59ae3          	bne	a1,a5,15d1c <memmove+0x12>
   15d2c:	8082                	ret
   15d2e:	47fd                	li	a5,31
   15d30:	02c7e163          	bltu	a5,a2,15d52 <memmove+0x48>
   15d34:	87aa                	mv	a5,a0
   15d36:	fff60693          	addi	a3,a2,-1
   15d3a:	c245                	beqz	a2,15dda <memmove+0xd0>
   15d3c:	0685                	addi	a3,a3,1
   15d3e:	96be                	add	a3,a3,a5
   15d40:	0005c703          	lbu	a4,0(a1)
   15d44:	0785                	addi	a5,a5,1
   15d46:	0585                	addi	a1,a1,1
   15d48:	fee78fa3          	sb	a4,-1(a5)
   15d4c:	fed79ae3          	bne	a5,a3,15d40 <memmove+0x36>
   15d50:	8082                	ret
   15d52:	00a5e7b3          	or	a5,a1,a0
   15d56:	8b9d                	andi	a5,a5,7
   15d58:	efad                	bnez	a5,15dd2 <memmove+0xc8>
   15d5a:	fe060893          	addi	a7,a2,-32
   15d5e:	fe08f893          	andi	a7,a7,-32
   15d62:	02088893          	addi	a7,a7,32
   15d66:	01150833          	add	a6,a0,a7
   15d6a:	872e                	mv	a4,a1
   15d6c:	87aa                	mv	a5,a0
   15d6e:	6314                	ld	a3,0(a4)
   15d70:	02070713          	addi	a4,a4,32
   15d74:	02078793          	addi	a5,a5,32
   15d78:	fed7b023          	sd	a3,-32(a5)
   15d7c:	fe873683          	ld	a3,-24(a4)
   15d80:	fed7b423          	sd	a3,-24(a5)
   15d84:	ff073683          	ld	a3,-16(a4)
   15d88:	fed7b823          	sd	a3,-16(a5)
   15d8c:	ff873683          	ld	a3,-8(a4)
   15d90:	fed7bc23          	sd	a3,-8(a5)
   15d94:	fcf81de3          	bne	a6,a5,15d6e <memmove+0x64>
   15d98:	01867713          	andi	a4,a2,24
   15d9c:	95c6                	add	a1,a1,a7
   15d9e:	01f67813          	andi	a6,a2,31
   15da2:	cf0d                	beqz	a4,15ddc <memmove+0xd2>
   15da4:	872e                	mv	a4,a1
   15da6:	88be                	mv	a7,a5
   15da8:	4e1d                	li	t3,7
   15daa:	00073303          	ld	t1,0(a4)
   15dae:	0721                	addi	a4,a4,8
   15db0:	40e806b3          	sub	a3,a6,a4
   15db4:	0068b023          	sd	t1,0(a7)
   15db8:	96ae                	add	a3,a3,a1
   15dba:	08a1                	addi	a7,a7,8
   15dbc:	fede67e3          	bltu	t3,a3,15daa <memmove+0xa0>
   15dc0:	ff880713          	addi	a4,a6,-8
   15dc4:	9b61                	andi	a4,a4,-8
   15dc6:	0721                	addi	a4,a4,8
   15dc8:	8a1d                	andi	a2,a2,7
   15dca:	97ba                	add	a5,a5,a4
   15dcc:	95ba                	add	a1,a1,a4
   15dce:	b7a5                	j	15d36 <memmove+0x2c>
   15dd0:	8082                	ret
   15dd2:	fff60693          	addi	a3,a2,-1
   15dd6:	87aa                	mv	a5,a0
   15dd8:	b795                	j	15d3c <memmove+0x32>
   15dda:	8082                	ret
   15ddc:	8642                	mv	a2,a6
   15dde:	bfa1                	j	15d36 <memmove+0x2c>

0000000000015de0 <__malloc_lock>:
   15de0:	8082                	ret

0000000000015de2 <__malloc_unlock>:
   15de2:	8082                	ret

0000000000015de4 <_Balloc>:
   15de4:	7d3c                	ld	a5,120(a0)
   15de6:	1101                	addi	sp,sp,-32
   15de8:	e822                	sd	s0,16(sp)
   15dea:	e426                	sd	s1,8(sp)
   15dec:	ec06                	sd	ra,24(sp)
   15dee:	e04a                	sd	s2,0(sp)
   15df0:	842a                	mv	s0,a0
   15df2:	84ae                	mv	s1,a1
   15df4:	c385                	beqz	a5,15e14 <_Balloc+0x30>
   15df6:	00349513          	slli	a0,s1,0x3
   15dfa:	97aa                	add	a5,a5,a0
   15dfc:	6388                	ld	a0,0(a5)
   15dfe:	c50d                	beqz	a0,15e28 <_Balloc+0x44>
   15e00:	6118                	ld	a4,0(a0)
   15e02:	e398                	sd	a4,0(a5)
   15e04:	00053823          	sd	zero,16(a0)
   15e08:	60e2                	ld	ra,24(sp)
   15e0a:	6442                	ld	s0,16(sp)
   15e0c:	64a2                	ld	s1,8(sp)
   15e0e:	6902                	ld	s2,0(sp)
   15e10:	6105                	addi	sp,sp,32
   15e12:	8082                	ret
   15e14:	04100613          	li	a2,65
   15e18:	45a1                	li	a1,8
   15e1a:	553030ef          	jal	ra,19b6c <_calloc_r>
   15e1e:	fc28                	sd	a0,120(s0)
   15e20:	87aa                	mv	a5,a0
   15e22:	f971                	bnez	a0,15df6 <_Balloc+0x12>
   15e24:	4501                	li	a0,0
   15e26:	b7cd                	j	15e08 <_Balloc+0x24>
   15e28:	4905                	li	s2,1
   15e2a:	0099193b          	sllw	s2,s2,s1
   15e2e:	fff9061b          	addiw	a2,s2,-1
   15e32:	0621                	addi	a2,a2,8
   15e34:	060a                	slli	a2,a2,0x2
   15e36:	4585                	li	a1,1
   15e38:	8522                	mv	a0,s0
   15e3a:	533030ef          	jal	ra,19b6c <_calloc_r>
   15e3e:	d17d                	beqz	a0,15e24 <_Balloc+0x40>
   15e40:	c504                	sw	s1,8(a0)
   15e42:	01252623          	sw	s2,12(a0)
   15e46:	bf7d                	j	15e04 <_Balloc+0x20>

0000000000015e48 <_Bfree>:
   15e48:	c981                	beqz	a1,15e58 <_Bfree+0x10>
   15e4a:	4598                	lw	a4,8(a1)
   15e4c:	7d3c                	ld	a5,120(a0)
   15e4e:	070e                	slli	a4,a4,0x3
   15e50:	97ba                	add	a5,a5,a4
   15e52:	6398                	ld	a4,0(a5)
   15e54:	e198                	sd	a4,0(a1)
   15e56:	e38c                	sd	a1,0(a5)
   15e58:	8082                	ret

0000000000015e5a <__multadd>:
   15e5a:	7179                	addi	sp,sp,-48
   15e5c:	ec26                	sd	s1,24(sp)
   15e5e:	49c4                	lw	s1,20(a1)
   15e60:	6341                	lui	t1,0x10
   15e62:	f022                	sd	s0,32(sp)
   15e64:	e84a                	sd	s2,16(sp)
   15e66:	e44e                	sd	s3,8(sp)
   15e68:	f406                	sd	ra,40(sp)
   15e6a:	e052                	sd	s4,0(sp)
   15e6c:	892e                	mv	s2,a1
   15e6e:	89aa                	mv	s3,a0
   15e70:	8436                	mv	s0,a3
   15e72:	01858813          	addi	a6,a1,24
   15e76:	4881                	li	a7,0
   15e78:	137d                	addi	t1,t1,-1
   15e7a:	00082783          	lw	a5,0(a6)
   15e7e:	0811                	addi	a6,a6,4
   15e80:	2885                	addiw	a7,a7,1
   15e82:	0067f6b3          	and	a3,a5,t1
   15e86:	02c686bb          	mulw	a3,a3,a2
   15e8a:	0107d79b          	srliw	a5,a5,0x10
   15e8e:	02c787bb          	mulw	a5,a5,a2
   15e92:	9ea1                	addw	a3,a3,s0
   15e94:	0106de1b          	srliw	t3,a3,0x10
   15e98:	00d37733          	and	a4,t1,a3
   15e9c:	01c786bb          	addw	a3,a5,t3
   15ea0:	0106979b          	slliw	a5,a3,0x10
   15ea4:	9f3d                	addw	a4,a4,a5
   15ea6:	fee82e23          	sw	a4,-4(a6)
   15eaa:	0106d41b          	srliw	s0,a3,0x10
   15eae:	fc98c6e3          	blt	a7,s1,15e7a <__multadd+0x20>
   15eb2:	cc09                	beqz	s0,15ecc <__multadd+0x72>
   15eb4:	00c92783          	lw	a5,12(s2)
   15eb8:	02f4d363          	bge	s1,a5,15ede <__multadd+0x84>
   15ebc:	00448793          	addi	a5,s1,4
   15ec0:	078a                	slli	a5,a5,0x2
   15ec2:	97ca                	add	a5,a5,s2
   15ec4:	c780                	sw	s0,8(a5)
   15ec6:	2485                	addiw	s1,s1,1
   15ec8:	00992a23          	sw	s1,20(s2)
   15ecc:	70a2                	ld	ra,40(sp)
   15ece:	7402                	ld	s0,32(sp)
   15ed0:	64e2                	ld	s1,24(sp)
   15ed2:	69a2                	ld	s3,8(sp)
   15ed4:	6a02                	ld	s4,0(sp)
   15ed6:	854a                	mv	a0,s2
   15ed8:	6942                	ld	s2,16(sp)
   15eda:	6145                	addi	sp,sp,48
   15edc:	8082                	ret
   15ede:	00892583          	lw	a1,8(s2)
   15ee2:	854e                	mv	a0,s3
   15ee4:	2585                	addiw	a1,a1,1
   15ee6:	effff0ef          	jal	ra,15de4 <_Balloc>
   15eea:	01492603          	lw	a2,20(s2)
   15eee:	8a2a                	mv	s4,a0
   15ef0:	01090593          	addi	a1,s2,16
   15ef4:	0609                	addi	a2,a2,2
   15ef6:	060a                	slli	a2,a2,0x2
   15ef8:	0541                	addi	a0,a0,16
   15efa:	d33ff0ef          	jal	ra,15c2c <memcpy>
   15efe:	00892703          	lw	a4,8(s2)
   15f02:	0789b783          	ld	a5,120(s3)
   15f06:	070e                	slli	a4,a4,0x3
   15f08:	97ba                	add	a5,a5,a4
   15f0a:	6398                	ld	a4,0(a5)
   15f0c:	00e93023          	sd	a4,0(s2)
   15f10:	0127b023          	sd	s2,0(a5)
   15f14:	8952                	mv	s2,s4
   15f16:	b75d                	j	15ebc <__multadd+0x62>

0000000000015f18 <__s2b>:
   15f18:	7139                	addi	sp,sp,-64
   15f1a:	f822                	sd	s0,48(sp)
   15f1c:	f426                	sd	s1,40(sp)
   15f1e:	f04a                	sd	s2,32(sp)
   15f20:	ec4e                	sd	s3,24(sp)
   15f22:	e852                	sd	s4,16(sp)
   15f24:	84b6                	mv	s1,a3
   15f26:	842e                	mv	s0,a1
   15f28:	26a1                	addiw	a3,a3,8
   15f2a:	45a5                	li	a1,9
   15f2c:	fc06                	sd	ra,56(sp)
   15f2e:	e456                	sd	s5,8(sp)
   15f30:	e05a                	sd	s6,0(sp)
   15f32:	47a5                	li	a5,9
   15f34:	02b6c6bb          	divw	a3,a3,a1
   15f38:	892a                	mv	s2,a0
   15f3a:	89b2                	mv	s3,a2
   15f3c:	8a3a                	mv	s4,a4
   15f3e:	0a97d163          	bge	a5,s1,15fe0 <__s2b+0xc8>
   15f42:	4785                	li	a5,1
   15f44:	4581                	li	a1,0
   15f46:	0017979b          	slliw	a5,a5,0x1
   15f4a:	2585                	addiw	a1,a1,1
   15f4c:	fed7cde3          	blt	a5,a3,15f46 <__s2b+0x2e>
   15f50:	854a                	mv	a0,s2
   15f52:	e93ff0ef          	jal	ra,15de4 <_Balloc>
   15f56:	4785                	li	a5,1
   15f58:	c95c                	sw	a5,20(a0)
   15f5a:	01452c23          	sw	s4,24(a0)
   15f5e:	47a5                	li	a5,9
   15f60:	85aa                	mv	a1,a0
   15f62:	0737dc63          	bge	a5,s3,15fda <__s2b+0xc2>
   15f66:	ff698a9b          	addiw	s5,s3,-10
   15f6a:	1a82                	slli	s5,s5,0x20
   15f6c:	020ada93          	srli	s5,s5,0x20
   15f70:	00940b13          	addi	s6,s0,9
   15f74:	00aa8793          	addi	a5,s5,10
   15f78:	943e                	add	s0,s0,a5
   15f7a:	8a5a                	mv	s4,s6
   15f7c:	000a4683          	lbu	a3,0(s4)
   15f80:	4629                	li	a2,10
   15f82:	854a                	mv	a0,s2
   15f84:	fd06869b          	addiw	a3,a3,-48
   15f88:	ed3ff0ef          	jal	ra,15e5a <__multadd>
   15f8c:	0a05                	addi	s4,s4,1
   15f8e:	85aa                	mv	a1,a0
   15f90:	fe8a16e3          	bne	s4,s0,15f7c <__s2b+0x64>
   15f94:	002a8413          	addi	s0,s5,2
   15f98:	945a                	add	s0,s0,s6
   15f9a:	0299d563          	bge	s3,s1,15fc4 <__s2b+0xac>
   15f9e:	34fd                	addiw	s1,s1,-1
   15fa0:	413484bb          	subw	s1,s1,s3
   15fa4:	1482                	slli	s1,s1,0x20
   15fa6:	9081                	srli	s1,s1,0x20
   15fa8:	0485                	addi	s1,s1,1
   15faa:	94a2                	add	s1,s1,s0
   15fac:	00044683          	lbu	a3,0(s0)
   15fb0:	4629                	li	a2,10
   15fb2:	854a                	mv	a0,s2
   15fb4:	fd06869b          	addiw	a3,a3,-48
   15fb8:	ea3ff0ef          	jal	ra,15e5a <__multadd>
   15fbc:	0405                	addi	s0,s0,1
   15fbe:	85aa                	mv	a1,a0
   15fc0:	fe9416e3          	bne	s0,s1,15fac <__s2b+0x94>
   15fc4:	70e2                	ld	ra,56(sp)
   15fc6:	7442                	ld	s0,48(sp)
   15fc8:	74a2                	ld	s1,40(sp)
   15fca:	7902                	ld	s2,32(sp)
   15fcc:	69e2                	ld	s3,24(sp)
   15fce:	6a42                	ld	s4,16(sp)
   15fd0:	6aa2                	ld	s5,8(sp)
   15fd2:	6b02                	ld	s6,0(sp)
   15fd4:	852e                	mv	a0,a1
   15fd6:	6121                	addi	sp,sp,64
   15fd8:	8082                	ret
   15fda:	0429                	addi	s0,s0,10
   15fdc:	49a5                	li	s3,9
   15fde:	bf75                	j	15f9a <__s2b+0x82>
   15fe0:	4581                	li	a1,0
   15fe2:	b7bd                	j	15f50 <__s2b+0x38>

0000000000015fe4 <__hi0bits>:
   15fe4:	7741                	lui	a4,0xffff0
   15fe6:	8f69                	and	a4,a4,a0
   15fe8:	87aa                	mv	a5,a0
   15fea:	4501                	li	a0,0
   15fec:	e701                	bnez	a4,15ff4 <__hi0bits+0x10>
   15fee:	0107979b          	slliw	a5,a5,0x10
   15ff2:	4541                	li	a0,16
   15ff4:	ff000737          	lui	a4,0xff000
   15ff8:	8f7d                	and	a4,a4,a5
   15ffa:	e701                	bnez	a4,16002 <__hi0bits+0x1e>
   15ffc:	0087979b          	slliw	a5,a5,0x8
   16000:	2521                	addiw	a0,a0,8
   16002:	f0000737          	lui	a4,0xf0000
   16006:	8f7d                	and	a4,a4,a5
   16008:	e701                	bnez	a4,16010 <__hi0bits+0x2c>
   1600a:	0047979b          	slliw	a5,a5,0x4
   1600e:	2511                	addiw	a0,a0,4
   16010:	c0000737          	lui	a4,0xc0000
   16014:	8f7d                	and	a4,a4,a5
   16016:	e701                	bnez	a4,1601e <__hi0bits+0x3a>
   16018:	0027979b          	slliw	a5,a5,0x2
   1601c:	2509                	addiw	a0,a0,2
   1601e:	0007c763          	bltz	a5,1602c <__hi0bits+0x48>
   16022:	02179713          	slli	a4,a5,0x21
   16026:	2505                	addiw	a0,a0,1
   16028:	00075363          	bgez	a4,1602e <__hi0bits+0x4a>
   1602c:	8082                	ret
   1602e:	02000513          	li	a0,32
   16032:	8082                	ret

0000000000016034 <__lo0bits>:
   16034:	411c                	lw	a5,0(a0)
   16036:	872a                	mv	a4,a0
   16038:	0077f693          	andi	a3,a5,7
   1603c:	863e                	mv	a2,a5
   1603e:	ce81                	beqz	a3,16056 <__lo0bits+0x22>
   16040:	0017f693          	andi	a3,a5,1
   16044:	4501                	li	a0,0
   16046:	eab9                	bnez	a3,1609c <__lo0bits+0x68>
   16048:	8a09                	andi	a2,a2,2
   1604a:	ce21                	beqz	a2,160a2 <__lo0bits+0x6e>
   1604c:	0017d79b          	srliw	a5,a5,0x1
   16050:	c31c                	sw	a5,0(a4)
   16052:	4505                	li	a0,1
   16054:	8082                	ret
   16056:	03079693          	slli	a3,a5,0x30
   1605a:	92c1                	srli	a3,a3,0x30
   1605c:	4501                	li	a0,0
   1605e:	e681                	bnez	a3,16066 <__lo0bits+0x32>
   16060:	0107d79b          	srliw	a5,a5,0x10
   16064:	4541                	li	a0,16
   16066:	0ff7f693          	andi	a3,a5,255
   1606a:	e681                	bnez	a3,16072 <__lo0bits+0x3e>
   1606c:	2521                	addiw	a0,a0,8
   1606e:	0087d79b          	srliw	a5,a5,0x8
   16072:	00f7f693          	andi	a3,a5,15
   16076:	e681                	bnez	a3,1607e <__lo0bits+0x4a>
   16078:	2511                	addiw	a0,a0,4
   1607a:	0047d79b          	srliw	a5,a5,0x4
   1607e:	0037f693          	andi	a3,a5,3
   16082:	e681                	bnez	a3,1608a <__lo0bits+0x56>
   16084:	2509                	addiw	a0,a0,2
   16086:	0027d79b          	srliw	a5,a5,0x2
   1608a:	0017f693          	andi	a3,a5,1
   1608e:	ea81                	bnez	a3,1609e <__lo0bits+0x6a>
   16090:	0017d79b          	srliw	a5,a5,0x1
   16094:	2505                	addiw	a0,a0,1
   16096:	e781                	bnez	a5,1609e <__lo0bits+0x6a>
   16098:	02000513          	li	a0,32
   1609c:	8082                	ret
   1609e:	c31c                	sw	a5,0(a4)
   160a0:	8082                	ret
   160a2:	0027d79b          	srliw	a5,a5,0x2
   160a6:	c31c                	sw	a5,0(a4)
   160a8:	4509                	li	a0,2
   160aa:	8082                	ret

00000000000160ac <__i2b>:
   160ac:	1141                	addi	sp,sp,-16
   160ae:	e022                	sd	s0,0(sp)
   160b0:	842e                	mv	s0,a1
   160b2:	4585                	li	a1,1
   160b4:	e406                	sd	ra,8(sp)
   160b6:	d2fff0ef          	jal	ra,15de4 <_Balloc>
   160ba:	60a2                	ld	ra,8(sp)
   160bc:	cd00                	sw	s0,24(a0)
   160be:	6402                	ld	s0,0(sp)
   160c0:	4705                	li	a4,1
   160c2:	c958                	sw	a4,20(a0)
   160c4:	0141                	addi	sp,sp,16
   160c6:	8082                	ret

00000000000160c8 <__multiply>:
   160c8:	7179                	addi	sp,sp,-48
   160ca:	e84a                	sd	s2,16(sp)
   160cc:	e44e                	sd	s3,8(sp)
   160ce:	01462903          	lw	s2,20(a2)
   160d2:	0145a983          	lw	s3,20(a1)
   160d6:	ec26                	sd	s1,24(sp)
   160d8:	e052                	sd	s4,0(sp)
   160da:	f406                	sd	ra,40(sp)
   160dc:	f022                	sd	s0,32(sp)
   160de:	8a2e                	mv	s4,a1
   160e0:	84b2                	mv	s1,a2
   160e2:	0129c763          	blt	s3,s2,160f0 <__multiply+0x28>
   160e6:	87ca                	mv	a5,s2
   160e8:	84ae                	mv	s1,a1
   160ea:	894e                	mv	s2,s3
   160ec:	8a32                	mv	s4,a2
   160ee:	89be                	mv	s3,a5
   160f0:	44dc                	lw	a5,12(s1)
   160f2:	0139043b          	addw	s0,s2,s3
   160f6:	448c                	lw	a1,8(s1)
   160f8:	0087d363          	bge	a5,s0,160fe <__multiply+0x36>
   160fc:	2585                	addiw	a1,a1,1
   160fe:	ce7ff0ef          	jal	ra,15de4 <_Balloc>
   16102:	01850313          	addi	t1,a0,24
   16106:	00241893          	slli	a7,s0,0x2
   1610a:	989a                	add	a7,a7,t1
   1610c:	879a                	mv	a5,t1
   1610e:	01137763          	bgeu	t1,a7,1611c <__multiply+0x54>
   16112:	0007a023          	sw	zero,0(a5)
   16116:	0791                	addi	a5,a5,4
   16118:	ff17ede3          	bltu	a5,a7,16112 <__multiply+0x4a>
   1611c:	018a0813          	addi	a6,s4,24
   16120:	00299e13          	slli	t3,s3,0x2
   16124:	01848e93          	addi	t4,s1,24
   16128:	00291593          	slli	a1,s2,0x2
   1612c:	9e42                	add	t3,t3,a6
   1612e:	95f6                	add	a1,a1,t4
   16130:	0fc87a63          	bgeu	a6,t3,16224 <__multiply+0x15c>
   16134:	01948793          	addi	a5,s1,25
   16138:	4f11                	li	t5,4
   1613a:	10f5f763          	bgeu	a1,a5,16248 <__multiply+0x180>
   1613e:	6641                	lui	a2,0x10
   16140:	167d                	addi	a2,a2,-1
   16142:	a809                	j	16154 <__multiply+0x8c>
   16144:	0102d29b          	srliw	t0,t0,0x10
   16148:	06029c63          	bnez	t0,161c0 <__multiply+0xf8>
   1614c:	0811                	addi	a6,a6,4
   1614e:	0311                	addi	t1,t1,4
   16150:	0dc87a63          	bgeu	a6,t3,16224 <__multiply+0x15c>
   16154:	00082283          	lw	t0,0(a6)
   16158:	00c2f4b3          	and	s1,t0,a2
   1615c:	d4e5                	beqz	s1,16144 <__multiply+0x7c>
   1615e:	839a                	mv	t2,t1
   16160:	82f6                	mv	t0,t4
   16162:	4901                	li	s2,0
   16164:	0002a683          	lw	a3,0(t0) # 106b6 <memset+0x90>
   16168:	0003af83          	lw	t6,0(t2)
   1616c:	0391                	addi	t2,t2,4
   1616e:	00c6f7b3          	and	a5,a3,a2
   16172:	029787bb          	mulw	a5,a5,s1
   16176:	0106d71b          	srliw	a4,a3,0x10
   1617a:	00cff6b3          	and	a3,t6,a2
   1617e:	010fdf9b          	srliw	t6,t6,0x10
   16182:	0291                	addi	t0,t0,4
   16184:	0297073b          	mulw	a4,a4,s1
   16188:	9fb5                	addw	a5,a5,a3
   1618a:	012787bb          	addw	a5,a5,s2
   1618e:	0107d69b          	srliw	a3,a5,0x10
   16192:	8ff1                	and	a5,a5,a2
   16194:	01f7073b          	addw	a4,a4,t6
   16198:	9f35                	addw	a4,a4,a3
   1619a:	0107169b          	slliw	a3,a4,0x10
   1619e:	8fd5                	or	a5,a5,a3
   161a0:	fef3ae23          	sw	a5,-4(t2)
   161a4:	0107591b          	srliw	s2,a4,0x10
   161a8:	fab2eee3          	bltu	t0,a1,16164 <__multiply+0x9c>
   161ac:	01e307b3          	add	a5,t1,t5
   161b0:	0127a023          	sw	s2,0(a5)
   161b4:	00082283          	lw	t0,0(a6)
   161b8:	0102d29b          	srliw	t0,t0,0x10
   161bc:	f80288e3          	beqz	t0,1614c <__multiply+0x84>
   161c0:	00032683          	lw	a3,0(t1) # 10000 <main-0xb0>
   161c4:	839a                	mv	t2,t1
   161c6:	8ff6                	mv	t6,t4
   161c8:	84b6                	mv	s1,a3
   161ca:	4701                	li	a4,0
   161cc:	000fa783          	lw	a5,0(t6)
   161d0:	0104d99b          	srliw	s3,s1,0x10
   161d4:	8ef1                	and	a3,a3,a2
   161d6:	8ff1                	and	a5,a5,a2
   161d8:	025787bb          	mulw	a5,a5,t0
   161dc:	0043a483          	lw	s1,4(t2)
   161e0:	0391                	addi	t2,t2,4
   161e2:	0f91                	addi	t6,t6,4
   161e4:	00c4f933          	and	s2,s1,a2
   161e8:	013787bb          	addw	a5,a5,s3
   161ec:	9fb9                	addw	a5,a5,a4
   161ee:	0107971b          	slliw	a4,a5,0x10
   161f2:	8ed9                	or	a3,a3,a4
   161f4:	fed3ae23          	sw	a3,-4(t2)
   161f8:	ffefd703          	lhu	a4,-2(t6)
   161fc:	0107d79b          	srliw	a5,a5,0x10
   16200:	0257073b          	mulw	a4,a4,t0
   16204:	0127073b          	addw	a4,a4,s2
   16208:	9fb9                	addw	a5,a5,a4
   1620a:	0007869b          	sext.w	a3,a5
   1620e:	0107d71b          	srliw	a4,a5,0x10
   16212:	fabfede3          	bltu	t6,a1,161cc <__multiply+0x104>
   16216:	01e307b3          	add	a5,t1,t5
   1621a:	c394                	sw	a3,0(a5)
   1621c:	0811                	addi	a6,a6,4
   1621e:	0311                	addi	t1,t1,4
   16220:	f3c86ae3          	bltu	a6,t3,16154 <__multiply+0x8c>
   16224:	00804563          	bgtz	s0,1622e <__multiply+0x166>
   16228:	a039                	j	16236 <__multiply+0x16e>
   1622a:	347d                	addiw	s0,s0,-1
   1622c:	c409                	beqz	s0,16236 <__multiply+0x16e>
   1622e:	ffc8a783          	lw	a5,-4(a7)
   16232:	18f1                	addi	a7,a7,-4
   16234:	dbfd                	beqz	a5,1622a <__multiply+0x162>
   16236:	70a2                	ld	ra,40(sp)
   16238:	c940                	sw	s0,20(a0)
   1623a:	7402                	ld	s0,32(sp)
   1623c:	64e2                	ld	s1,24(sp)
   1623e:	6942                	ld	s2,16(sp)
   16240:	69a2                	ld	s3,8(sp)
   16242:	6a02                	ld	s4,0(sp)
   16244:	6145                	addi	sp,sp,48
   16246:	8082                	ret
   16248:	40958f33          	sub	t5,a1,s1
   1624c:	1f1d                	addi	t5,t5,-25
   1624e:	ffcf7f13          	andi	t5,t5,-4
   16252:	0f11                	addi	t5,t5,4
   16254:	b5ed                	j	1613e <__multiply+0x76>

0000000000016256 <__pow5mult>:
   16256:	7179                	addi	sp,sp,-48
   16258:	f022                	sd	s0,32(sp)
   1625a:	e44e                	sd	s3,8(sp)
   1625c:	e052                	sd	s4,0(sp)
   1625e:	f406                	sd	ra,40(sp)
   16260:	ec26                	sd	s1,24(sp)
   16262:	e84a                	sd	s2,16(sp)
   16264:	00367793          	andi	a5,a2,3
   16268:	8432                	mv	s0,a2
   1626a:	89aa                	mv	s3,a0
   1626c:	8a2e                	mv	s4,a1
   1626e:	efad                	bnez	a5,162e8 <__pow5mult+0x92>
   16270:	8409                	srai	s0,s0,0x2
   16272:	8952                	mv	s2,s4
   16274:	c429                	beqz	s0,162be <__pow5mult+0x68>
   16276:	0709b483          	ld	s1,112(s3)
   1627a:	c4c1                	beqz	s1,16302 <__pow5mult+0xac>
   1627c:	00147793          	andi	a5,s0,1
   16280:	8952                	mv	s2,s4
   16282:	eb89                	bnez	a5,16294 <__pow5mult+0x3e>
   16284:	8405                	srai	s0,s0,0x1
   16286:	cc05                	beqz	s0,162be <__pow5mult+0x68>
   16288:	6088                	ld	a0,0(s1)
   1628a:	c139                	beqz	a0,162d0 <__pow5mult+0x7a>
   1628c:	84aa                	mv	s1,a0
   1628e:	00147793          	andi	a5,s0,1
   16292:	dbed                	beqz	a5,16284 <__pow5mult+0x2e>
   16294:	8626                	mv	a2,s1
   16296:	85ca                	mv	a1,s2
   16298:	854e                	mv	a0,s3
   1629a:	e2fff0ef          	jal	ra,160c8 <__multiply>
   1629e:	04090363          	beqz	s2,162e4 <__pow5mult+0x8e>
   162a2:	00892703          	lw	a4,8(s2)
   162a6:	0789b783          	ld	a5,120(s3)
   162aa:	8405                	srai	s0,s0,0x1
   162ac:	070e                	slli	a4,a4,0x3
   162ae:	97ba                	add	a5,a5,a4
   162b0:	6398                	ld	a4,0(a5)
   162b2:	00e93023          	sd	a4,0(s2)
   162b6:	0127b023          	sd	s2,0(a5)
   162ba:	892a                	mv	s2,a0
   162bc:	f471                	bnez	s0,16288 <__pow5mult+0x32>
   162be:	70a2                	ld	ra,40(sp)
   162c0:	7402                	ld	s0,32(sp)
   162c2:	64e2                	ld	s1,24(sp)
   162c4:	69a2                	ld	s3,8(sp)
   162c6:	6a02                	ld	s4,0(sp)
   162c8:	854a                	mv	a0,s2
   162ca:	6942                	ld	s2,16(sp)
   162cc:	6145                	addi	sp,sp,48
   162ce:	8082                	ret
   162d0:	8626                	mv	a2,s1
   162d2:	85a6                	mv	a1,s1
   162d4:	854e                	mv	a0,s3
   162d6:	df3ff0ef          	jal	ra,160c8 <__multiply>
   162da:	e088                	sd	a0,0(s1)
   162dc:	00053023          	sd	zero,0(a0)
   162e0:	84aa                	mv	s1,a0
   162e2:	b775                	j	1628e <__pow5mult+0x38>
   162e4:	892a                	mv	s2,a0
   162e6:	bf79                	j	16284 <__pow5mult+0x2e>
   162e8:	37fd                	addiw	a5,a5,-1
   162ea:	00006717          	auipc	a4,0x6
   162ee:	73e70713          	addi	a4,a4,1854 # 1ca28 <p05.3314>
   162f2:	078a                	slli	a5,a5,0x2
   162f4:	97ba                	add	a5,a5,a4
   162f6:	4390                	lw	a2,0(a5)
   162f8:	4681                	li	a3,0
   162fa:	b61ff0ef          	jal	ra,15e5a <__multadd>
   162fe:	8a2a                	mv	s4,a0
   16300:	bf85                	j	16270 <__pow5mult+0x1a>
   16302:	4585                	li	a1,1
   16304:	854e                	mv	a0,s3
   16306:	adfff0ef          	jal	ra,15de4 <_Balloc>
   1630a:	27100793          	li	a5,625
   1630e:	cd1c                	sw	a5,24(a0)
   16310:	4785                	li	a5,1
   16312:	c95c                	sw	a5,20(a0)
   16314:	06a9b823          	sd	a0,112(s3)
   16318:	84aa                	mv	s1,a0
   1631a:	00053023          	sd	zero,0(a0)
   1631e:	bfb9                	j	1627c <__pow5mult+0x26>

0000000000016320 <__lshift>:
   16320:	7139                	addi	sp,sp,-64
   16322:	f04a                	sd	s2,32(sp)
   16324:	0145a903          	lw	s2,20(a1)
   16328:	45dc                	lw	a5,12(a1)
   1632a:	e456                	sd	s5,8(sp)
   1632c:	40565a9b          	sraiw	s5,a2,0x5
   16330:	0159093b          	addw	s2,s2,s5
   16334:	f822                	sd	s0,48(sp)
   16336:	f426                	sd	s1,40(sp)
   16338:	ec4e                	sd	s3,24(sp)
   1633a:	e852                	sd	s4,16(sp)
   1633c:	e05a                	sd	s6,0(sp)
   1633e:	fc06                	sd	ra,56(sp)
   16340:	0019049b          	addiw	s1,s2,1
   16344:	842e                	mv	s0,a1
   16346:	8a32                	mv	s4,a2
   16348:	458c                	lw	a1,8(a1)
   1634a:	89aa                	mv	s3,a0
   1634c:	40565b13          	srai	s6,a2,0x5
   16350:	0097d763          	bge	a5,s1,1635e <__lshift+0x3e>
   16354:	0017979b          	slliw	a5,a5,0x1
   16358:	2585                	addiw	a1,a1,1
   1635a:	fe97cde3          	blt	a5,s1,16354 <__lshift+0x34>
   1635e:	854e                	mv	a0,s3
   16360:	a85ff0ef          	jal	ra,15de4 <_Balloc>
   16364:	01850693          	addi	a3,a0,24
   16368:	03605363          	blez	s6,1638e <__lshift+0x6e>
   1636c:	3afd                	addiw	s5,s5,-1
   1636e:	1a82                	slli	s5,s5,0x20
   16370:	020ada93          	srli	s5,s5,0x20
   16374:	007a8713          	addi	a4,s5,7
   16378:	070a                	slli	a4,a4,0x2
   1637a:	972a                	add	a4,a4,a0
   1637c:	87b6                	mv	a5,a3
   1637e:	0791                	addi	a5,a5,4
   16380:	fe07ae23          	sw	zero,-4(a5)
   16384:	fee79de3          	bne	a5,a4,1637e <__lshift+0x5e>
   16388:	0a85                	addi	s5,s5,1
   1638a:	0a8a                	slli	s5,s5,0x2
   1638c:	96d6                	add	a3,a3,s5
   1638e:	01442803          	lw	a6,20(s0)
   16392:	01840793          	addi	a5,s0,24
   16396:	01fa7593          	andi	a1,s4,31
   1639a:	080a                	slli	a6,a6,0x2
   1639c:	983e                	add	a6,a6,a5
   1639e:	c1b5                	beqz	a1,16402 <__lshift+0xe2>
   163a0:	02000313          	li	t1,32
   163a4:	40b3033b          	subw	t1,t1,a1
   163a8:	88b6                	mv	a7,a3
   163aa:	4701                	li	a4,0
   163ac:	4390                	lw	a2,0(a5)
   163ae:	0891                	addi	a7,a7,4
   163b0:	0791                	addi	a5,a5,4
   163b2:	00b6163b          	sllw	a2,a2,a1
   163b6:	8f51                	or	a4,a4,a2
   163b8:	fee8ae23          	sw	a4,-4(a7)
   163bc:	ffc7a703          	lw	a4,-4(a5)
   163c0:	0067573b          	srlw	a4,a4,t1
   163c4:	ff07e4e3          	bltu	a5,a6,163ac <__lshift+0x8c>
   163c8:	01940613          	addi	a2,s0,25
   163cc:	4791                	li	a5,4
   163ce:	04c87963          	bgeu	a6,a2,16420 <__lshift+0x100>
   163d2:	96be                	add	a3,a3,a5
   163d4:	c298                	sw	a4,0(a3)
   163d6:	c311                	beqz	a4,163da <__lshift+0xba>
   163d8:	8926                	mv	s2,s1
   163da:	4418                	lw	a4,8(s0)
   163dc:	0789b783          	ld	a5,120(s3)
   163e0:	01252a23          	sw	s2,20(a0)
   163e4:	070e                	slli	a4,a4,0x3
   163e6:	97ba                	add	a5,a5,a4
   163e8:	6398                	ld	a4,0(a5)
   163ea:	70e2                	ld	ra,56(sp)
   163ec:	74a2                	ld	s1,40(sp)
   163ee:	e018                	sd	a4,0(s0)
   163f0:	e380                	sd	s0,0(a5)
   163f2:	7442                	ld	s0,48(sp)
   163f4:	7902                	ld	s2,32(sp)
   163f6:	69e2                	ld	s3,24(sp)
   163f8:	6a42                	ld	s4,16(sp)
   163fa:	6aa2                	ld	s5,8(sp)
   163fc:	6b02                	ld	s6,0(sp)
   163fe:	6121                	addi	sp,sp,64
   16400:	8082                	ret
   16402:	4398                	lw	a4,0(a5)
   16404:	0791                	addi	a5,a5,4
   16406:	0691                	addi	a3,a3,4
   16408:	fee6ae23          	sw	a4,-4(a3)
   1640c:	fd07f7e3          	bgeu	a5,a6,163da <__lshift+0xba>
   16410:	4398                	lw	a4,0(a5)
   16412:	0791                	addi	a5,a5,4
   16414:	0691                	addi	a3,a3,4
   16416:	fee6ae23          	sw	a4,-4(a3)
   1641a:	ff07e4e3          	bltu	a5,a6,16402 <__lshift+0xe2>
   1641e:	bf75                	j	163da <__lshift+0xba>
   16420:	408807b3          	sub	a5,a6,s0
   16424:	179d                	addi	a5,a5,-25
   16426:	9bf1                	andi	a5,a5,-4
   16428:	0791                	addi	a5,a5,4
   1642a:	96be                	add	a3,a3,a5
   1642c:	c298                	sw	a4,0(a3)
   1642e:	d755                	beqz	a4,163da <__lshift+0xba>
   16430:	b765                	j	163d8 <__lshift+0xb8>

0000000000016432 <__mcmp>:
   16432:	49dc                	lw	a5,20(a1)
   16434:	882a                	mv	a6,a0
   16436:	4948                	lw	a0,20(a0)
   16438:	9d1d                	subw	a0,a0,a5
   1643a:	e50d                	bnez	a0,16464 <__mcmp+0x32>
   1643c:	078a                	slli	a5,a5,0x2
   1643e:	0861                	addi	a6,a6,24
   16440:	05e1                	addi	a1,a1,24
   16442:	00f80733          	add	a4,a6,a5
   16446:	97ae                	add	a5,a5,a1
   16448:	a019                	j	1644e <__mcmp+0x1c>
   1644a:	00e87d63          	bgeu	a6,a4,16464 <__mcmp+0x32>
   1644e:	ffc72603          	lw	a2,-4(a4)
   16452:	ffc7a683          	lw	a3,-4(a5)
   16456:	1771                	addi	a4,a4,-4
   16458:	17f1                	addi	a5,a5,-4
   1645a:	fed608e3          	beq	a2,a3,1644a <__mcmp+0x18>
   1645e:	557d                	li	a0,-1
   16460:	00d67363          	bgeu	a2,a3,16466 <__mcmp+0x34>
   16464:	8082                	ret
   16466:	4505                	li	a0,1
   16468:	8082                	ret

000000000001646a <__mdiff>:
   1646a:	7179                	addi	sp,sp,-48
   1646c:	4a58                	lw	a4,20(a2)
   1646e:	e052                	sd	s4,0(sp)
   16470:	0145aa03          	lw	s4,20(a1)
   16474:	f022                	sd	s0,32(sp)
   16476:	ec26                	sd	s1,24(sp)
   16478:	e84a                	sd	s2,16(sp)
   1647a:	e44e                	sd	s3,8(sp)
   1647c:	f406                	sd	ra,40(sp)
   1647e:	40ea0a3b          	subw	s4,s4,a4
   16482:	892e                	mv	s2,a1
   16484:	89b2                	mv	s3,a2
   16486:	01858413          	addi	s0,a1,24
   1648a:	01860493          	addi	s1,a2,24 # 10018 <main-0x98>
   1648e:	020a1b63          	bnez	s4,164c4 <__mdiff+0x5a>
   16492:	070a                	slli	a4,a4,0x2
   16494:	00e407b3          	add	a5,s0,a4
   16498:	9726                	add	a4,a4,s1
   1649a:	a019                	j	164a0 <__mdiff+0x36>
   1649c:	12f47563          	bgeu	s0,a5,165c6 <__mdiff+0x15c>
   164a0:	ffc7a803          	lw	a6,-4(a5)
   164a4:	ffc72683          	lw	a3,-4(a4)
   164a8:	17f1                	addi	a5,a5,-4
   164aa:	1771                	addi	a4,a4,-4
   164ac:	fed808e3          	beq	a6,a3,1649c <__mdiff+0x32>
   164b0:	00d87d63          	bgeu	a6,a3,164ca <__mdiff+0x60>
   164b4:	8722                	mv	a4,s0
   164b6:	87ca                	mv	a5,s2
   164b8:	8426                	mv	s0,s1
   164ba:	894e                	mv	s2,s3
   164bc:	84ba                	mv	s1,a4
   164be:	89be                	mv	s3,a5
   164c0:	4a05                	li	s4,1
   164c2:	a021                	j	164ca <__mdiff+0x60>
   164c4:	fe0a48e3          	bltz	s4,164b4 <__mdiff+0x4a>
   164c8:	4a01                	li	s4,0
   164ca:	00892583          	lw	a1,8(s2)
   164ce:	917ff0ef          	jal	ra,15de4 <_Balloc>
   164d2:	01492803          	lw	a6,20(s2)
   164d6:	0149af03          	lw	t5,20(s3)
   164da:	01850f93          	addi	t6,a0,24
   164de:	00281893          	slli	a7,a6,0x2
   164e2:	0f0a                	slli	t5,t5,0x2
   164e4:	6341                	lui	t1,0x10
   164e6:	01452823          	sw	s4,16(a0)
   164ea:	98a2                	add	a7,a7,s0
   164ec:	9f26                	add	t5,t5,s1
   164ee:	8efe                	mv	t4,t6
   164f0:	85a6                	mv	a1,s1
   164f2:	8e22                	mv	t3,s0
   164f4:	4701                	li	a4,0
   164f6:	137d                	addi	t1,t1,-1
   164f8:	000e2683          	lw	a3,0(t3)
   164fc:	4190                	lw	a2,0(a1)
   164fe:	0e91                	addi	t4,t4,4
   16500:	0066f7b3          	and	a5,a3,t1
   16504:	9fb9                	addw	a5,a5,a4
   16506:	00667733          	and	a4,a2,t1
   1650a:	9f99                	subw	a5,a5,a4
   1650c:	0106561b          	srliw	a2,a2,0x10
   16510:	0106d71b          	srliw	a4,a3,0x10
   16514:	9f11                	subw	a4,a4,a2
   16516:	4107d69b          	sraiw	a3,a5,0x10
   1651a:	9f35                	addw	a4,a4,a3
   1651c:	0107169b          	slliw	a3,a4,0x10
   16520:	0067f7b3          	and	a5,a5,t1
   16524:	8fd5                	or	a5,a5,a3
   16526:	2781                	sext.w	a5,a5
   16528:	0591                	addi	a1,a1,4
   1652a:	fefeae23          	sw	a5,-4(t4)
   1652e:	0e11                	addi	t3,t3,4
   16530:	4107571b          	sraiw	a4,a4,0x10
   16534:	fde5e2e3          	bltu	a1,t5,164f8 <__mdiff+0x8e>
   16538:	fff4c613          	not	a2,s1
   1653c:	967a                	add	a2,a2,t5
   1653e:	0485                	addi	s1,s1,1
   16540:	8209                	srli	a2,a2,0x2
   16542:	4681                	li	a3,0
   16544:	009f6463          	bltu	t5,s1,1654c <__mdiff+0xe2>
   16548:	00261693          	slli	a3,a2,0x2
   1654c:	96fe                	add	a3,a3,t6
   1654e:	4591                	li	a1,4
   16550:	009f6563          	bltu	t5,s1,1655a <__mdiff+0xf0>
   16554:	0605                	addi	a2,a2,1
   16556:	00261593          	slli	a1,a2,0x2
   1655a:	942e                	add	s0,s0,a1
   1655c:	9fae                	add	t6,t6,a1
   1655e:	05147463          	bgeu	s0,a7,165a6 <__mdiff+0x13c>
   16562:	6341                	lui	t1,0x10
   16564:	85fe                	mv	a1,t6
   16566:	8622                	mv	a2,s0
   16568:	137d                	addi	t1,t1,-1
   1656a:	4214                	lw	a3,0(a2)
   1656c:	0591                	addi	a1,a1,4
   1656e:	0611                	addi	a2,a2,4
   16570:	0066f7b3          	and	a5,a3,t1
   16574:	9fb9                	addw	a5,a5,a4
   16576:	4107de1b          	sraiw	t3,a5,0x10
   1657a:	0106d71b          	srliw	a4,a3,0x10
   1657e:	01c7073b          	addw	a4,a4,t3
   16582:	01071e1b          	slliw	t3,a4,0x10
   16586:	0067f7b3          	and	a5,a5,t1
   1658a:	01c7e7b3          	or	a5,a5,t3
   1658e:	2781                	sext.w	a5,a5
   16590:	fef5ae23          	sw	a5,-4(a1)
   16594:	4107571b          	sraiw	a4,a4,0x10
   16598:	fd1669e3          	bltu	a2,a7,1656a <__mdiff+0x100>
   1659c:	fff88693          	addi	a3,a7,-1
   165a0:	8e81                	sub	a3,a3,s0
   165a2:	9af1                	andi	a3,a3,-4
   165a4:	96fe                	add	a3,a3,t6
   165a6:	e791                	bnez	a5,165b2 <__mdiff+0x148>
   165a8:	ffc6a783          	lw	a5,-4(a3)
   165ac:	387d                	addiw	a6,a6,-1
   165ae:	16f1                	addi	a3,a3,-4
   165b0:	dfe5                	beqz	a5,165a8 <__mdiff+0x13e>
   165b2:	70a2                	ld	ra,40(sp)
   165b4:	7402                	ld	s0,32(sp)
   165b6:	01052a23          	sw	a6,20(a0)
   165ba:	64e2                	ld	s1,24(sp)
   165bc:	6942                	ld	s2,16(sp)
   165be:	69a2                	ld	s3,8(sp)
   165c0:	6a02                	ld	s4,0(sp)
   165c2:	6145                	addi	sp,sp,48
   165c4:	8082                	ret
   165c6:	4581                	li	a1,0
   165c8:	81dff0ef          	jal	ra,15de4 <_Balloc>
   165cc:	70a2                	ld	ra,40(sp)
   165ce:	7402                	ld	s0,32(sp)
   165d0:	4785                	li	a5,1
   165d2:	c95c                	sw	a5,20(a0)
   165d4:	00052c23          	sw	zero,24(a0)
   165d8:	64e2                	ld	s1,24(sp)
   165da:	6942                	ld	s2,16(sp)
   165dc:	69a2                	ld	s3,8(sp)
   165de:	6a02                	ld	s4,0(sp)
   165e0:	6145                	addi	sp,sp,48
   165e2:	8082                	ret

00000000000165e4 <__ulp>:
   165e4:	e20507d3          	fmv.x.d	a5,fa0
   165e8:	7ff00737          	lui	a4,0x7ff00
   165ec:	9381                	srli	a5,a5,0x20
   165ee:	8f7d                	and	a4,a4,a5
   165f0:	fcc007b7          	lui	a5,0xfcc00
   165f4:	9fb9                	addw	a5,a5,a4
   165f6:	0007871b          	sext.w	a4,a5
   165fa:	00e05663          	blez	a4,16606 <__ulp+0x22>
   165fe:	1782                	slli	a5,a5,0x20
   16600:	f2078553          	fmv.d.x	fa0,a5
   16604:	8082                	ret
   16606:	40f007bb          	negw	a5,a5
   1660a:	4147d71b          	sraiw	a4,a5,0x14
   1660e:	46cd                	li	a3,19
   16610:	00e6c763          	blt	a3,a4,1661e <__ulp+0x3a>
   16614:	000807b7          	lui	a5,0x80
   16618:	40e7d7bb          	sraw	a5,a5,a4
   1661c:	b7cd                	j	165fe <__ulp+0x1a>
   1661e:	fec7069b          	addiw	a3,a4,-20
   16622:	4679                	li	a2,30
   16624:	4781                	li	a5,0
   16626:	4705                	li	a4,1
   16628:	00d64663          	blt	a2,a3,16634 <__ulp+0x50>
   1662c:	80000737          	lui	a4,0x80000
   16630:	00d7573b          	srlw	a4,a4,a3
   16634:	9381                	srli	a5,a5,0x20
   16636:	1702                	slli	a4,a4,0x20
   16638:	9301                	srli	a4,a4,0x20
   1663a:	1782                	slli	a5,a5,0x20
   1663c:	8fd9                	or	a5,a5,a4
   1663e:	f2078553          	fmv.d.x	fa0,a5
   16642:	8082                	ret

0000000000016644 <__b2d>:
   16644:	7179                	addi	sp,sp,-48
   16646:	ec26                	sd	s1,24(sp)
   16648:	4944                	lw	s1,20(a0)
   1664a:	f022                	sd	s0,32(sp)
   1664c:	01850413          	addi	s0,a0,24
   16650:	048a                	slli	s1,s1,0x2
   16652:	94a2                	add	s1,s1,s0
   16654:	e84a                	sd	s2,16(sp)
   16656:	ffc4a903          	lw	s2,-4(s1)
   1665a:	e44e                	sd	s3,8(sp)
   1665c:	e052                	sd	s4,0(sp)
   1665e:	854a                	mv	a0,s2
   16660:	89ae                	mv	s3,a1
   16662:	f406                	sd	ra,40(sp)
   16664:	981ff0ef          	jal	ra,15fe4 <__hi0bits>
   16668:	02000693          	li	a3,32
   1666c:	40a687bb          	subw	a5,a3,a0
   16670:	00f9a023          	sw	a5,0(s3)
   16674:	47a9                	li	a5,10
   16676:	ffc48a13          	addi	s4,s1,-4
   1667a:	08a7d063          	bge	a5,a0,166fa <__b2d+0xb6>
   1667e:	ff55079b          	addiw	a5,a0,-11
   16682:	05447863          	bgeu	s0,s4,166d2 <__b2d+0x8e>
   16686:	ff84a703          	lw	a4,-8(s1)
   1668a:	c7b1                	beqz	a5,166d6 <__b2d+0x92>
   1668c:	40f6853b          	subw	a0,a3,a5
   16690:	00f916bb          	sllw	a3,s2,a5
   16694:	00a7593b          	srlw	s2,a4,a0
   16698:	0126e6b3          	or	a3,a3,s2
   1669c:	3ff00937          	lui	s2,0x3ff00
   166a0:	0126e6b3          	or	a3,a3,s2
   166a4:	00f7173b          	sllw	a4,a4,a5
   166a8:	ff848613          	addi	a2,s1,-8
   166ac:	02069793          	slli	a5,a3,0x20
   166b0:	0007069b          	sext.w	a3,a4
   166b4:	00c47963          	bgeu	s0,a2,166c6 <__b2d+0x82>
   166b8:	ff44a683          	lw	a3,-12(s1)
   166bc:	00a6d53b          	srlw	a0,a3,a0
   166c0:	00e566b3          	or	a3,a0,a4
   166c4:	2681                	sext.w	a3,a3
   166c6:	9381                	srli	a5,a5,0x20
   166c8:	1682                	slli	a3,a3,0x20
   166ca:	9281                	srli	a3,a3,0x20
   166cc:	1782                	slli	a5,a5,0x20
   166ce:	8fd5                	or	a5,a5,a3
   166d0:	a819                	j	166e6 <__b2d+0xa2>
   166d2:	4701                	li	a4,0
   166d4:	efa1                	bnez	a5,1672c <__b2d+0xe8>
   166d6:	3ff007b7          	lui	a5,0x3ff00
   166da:	00f967b3          	or	a5,s2,a5
   166de:	1702                	slli	a4,a4,0x20
   166e0:	9301                	srli	a4,a4,0x20
   166e2:	1782                	slli	a5,a5,0x20
   166e4:	8fd9                	or	a5,a5,a4
   166e6:	70a2                	ld	ra,40(sp)
   166e8:	7402                	ld	s0,32(sp)
   166ea:	64e2                	ld	s1,24(sp)
   166ec:	6942                	ld	s2,16(sp)
   166ee:	69a2                	ld	s3,8(sp)
   166f0:	6a02                	ld	s4,0(sp)
   166f2:	f2078553          	fmv.d.x	fa0,a5
   166f6:	6145                	addi	sp,sp,48
   166f8:	8082                	ret
   166fa:	46ad                	li	a3,11
   166fc:	9e89                	subw	a3,a3,a0
   166fe:	3ff00737          	lui	a4,0x3ff00
   16702:	00d957bb          	srlw	a5,s2,a3
   16706:	8fd9                	or	a5,a5,a4
   16708:	1782                	slli	a5,a5,0x20
   1670a:	4701                	li	a4,0
   1670c:	01447663          	bgeu	s0,s4,16718 <__b2d+0xd4>
   16710:	ff84a703          	lw	a4,-8(s1)
   16714:	00d7573b          	srlw	a4,a4,a3
   16718:	2555                	addiw	a0,a0,21
   1671a:	00a9153b          	sllw	a0,s2,a0
   1671e:	8d59                	or	a0,a0,a4
   16720:	9381                	srli	a5,a5,0x20
   16722:	1502                	slli	a0,a0,0x20
   16724:	9101                	srli	a0,a0,0x20
   16726:	1782                	slli	a5,a5,0x20
   16728:	8fc9                	or	a5,a5,a0
   1672a:	bf75                	j	166e6 <__b2d+0xa2>
   1672c:	00f917bb          	sllw	a5,s2,a5
   16730:	3ff00937          	lui	s2,0x3ff00
   16734:	0127e7b3          	or	a5,a5,s2
   16738:	1782                	slli	a5,a5,0x20
   1673a:	4681                	li	a3,0
   1673c:	b769                	j	166c6 <__b2d+0x82>

000000000001673e <__d2b>:
   1673e:	7139                	addi	sp,sp,-64
   16740:	f822                	sd	s0,48(sp)
   16742:	e2050453          	fmv.x.d	s0,fa0
   16746:	ec4e                	sd	s3,24(sp)
   16748:	89ae                	mv	s3,a1
   1674a:	4585                	li	a1,1
   1674c:	f426                	sd	s1,40(sp)
   1674e:	f04a                	sd	s2,32(sp)
   16750:	e852                	sd	s4,16(sp)
   16752:	fc06                	sd	ra,56(sp)
   16754:	8932                	mv	s2,a2
   16756:	e8eff0ef          	jal	ra,15de4 <_Balloc>
   1675a:	42045793          	srai	a5,s0,0x20
   1675e:	02c79713          	slli	a4,a5,0x2c
   16762:	0147d79b          	srliw	a5,a5,0x14
   16766:	03579693          	slli	a3,a5,0x35
   1676a:	84aa                	mv	s1,a0
   1676c:	9331                	srli	a4,a4,0x2c
   1676e:	7ff7fa13          	andi	s4,a5,2047
   16772:	c681                	beqz	a3,1677a <__d2b+0x3c>
   16774:	001007b7          	lui	a5,0x100
   16778:	8f5d                	or	a4,a4,a5
   1677a:	c63a                	sw	a4,12(sp)
   1677c:	2401                	sext.w	s0,s0
   1677e:	c429                	beqz	s0,167c8 <__d2b+0x8a>
   16780:	0028                	addi	a0,sp,8
   16782:	c422                	sw	s0,8(sp)
   16784:	8b1ff0ef          	jal	ra,16034 <__lo0bits>
   16788:	ed25                	bnez	a0,16800 <__d2b+0xc2>
   1678a:	4722                	lw	a4,8(sp)
   1678c:	47b2                	lw	a5,12(sp)
   1678e:	cc98                	sw	a4,24(s1)
   16790:	00f03433          	snez	s0,a5
   16794:	0405                	addi	s0,s0,1
   16796:	ccdc                	sw	a5,28(s1)
   16798:	c8c0                	sw	s0,20(s1)
   1679a:	040a0363          	beqz	s4,167e0 <__d2b+0xa2>
   1679e:	bcda0a1b          	addiw	s4,s4,-1075
   167a2:	00aa0a3b          	addw	s4,s4,a0
   167a6:	03500793          	li	a5,53
   167aa:	0149a023          	sw	s4,0(s3)
   167ae:	40a7853b          	subw	a0,a5,a0
   167b2:	00a92023          	sw	a0,0(s2) # 3ff00000 <__BSS_END__+0x3fee0b50>
   167b6:	70e2                	ld	ra,56(sp)
   167b8:	7442                	ld	s0,48(sp)
   167ba:	7902                	ld	s2,32(sp)
   167bc:	69e2                	ld	s3,24(sp)
   167be:	6a42                	ld	s4,16(sp)
   167c0:	8526                	mv	a0,s1
   167c2:	74a2                	ld	s1,40(sp)
   167c4:	6121                	addi	sp,sp,64
   167c6:	8082                	ret
   167c8:	0068                	addi	a0,sp,12
   167ca:	86bff0ef          	jal	ra,16034 <__lo0bits>
   167ce:	4785                	li	a5,1
   167d0:	c8dc                	sw	a5,20(s1)
   167d2:	47b2                	lw	a5,12(sp)
   167d4:	0205051b          	addiw	a0,a0,32
   167d8:	4405                	li	s0,1
   167da:	cc9c                	sw	a5,24(s1)
   167dc:	fc0a11e3          	bnez	s4,1679e <__d2b+0x60>
   167e0:	bce5051b          	addiw	a0,a0,-1074
   167e4:	00241793          	slli	a5,s0,0x2
   167e8:	00a9a023          	sw	a0,0(s3)
   167ec:	97a6                	add	a5,a5,s1
   167ee:	4bc8                	lw	a0,20(a5)
   167f0:	0054141b          	slliw	s0,s0,0x5
   167f4:	ff0ff0ef          	jal	ra,15fe4 <__hi0bits>
   167f8:	9c09                	subw	s0,s0,a0
   167fa:	00892023          	sw	s0,0(s2)
   167fe:	bf65                	j	167b6 <__d2b+0x78>
   16800:	4732                	lw	a4,12(sp)
   16802:	46a2                	lw	a3,8(sp)
   16804:	02000793          	li	a5,32
   16808:	9f89                	subw	a5,a5,a0
   1680a:	00f717bb          	sllw	a5,a4,a5
   1680e:	8fd5                	or	a5,a5,a3
   16810:	00a7573b          	srlw	a4,a4,a0
   16814:	cc9c                	sw	a5,24(s1)
   16816:	c63a                	sw	a4,12(sp)
   16818:	0007079b          	sext.w	a5,a4
   1681c:	bf95                	j	16790 <__d2b+0x52>

000000000001681e <__ratio>:
   1681e:	7179                	addi	sp,sp,-48
   16820:	ec26                	sd	s1,24(sp)
   16822:	84ae                	mv	s1,a1
   16824:	002c                	addi	a1,sp,8
   16826:	f406                	sd	ra,40(sp)
   16828:	f022                	sd	s0,32(sp)
   1682a:	e84a                	sd	s2,16(sp)
   1682c:	892a                	mv	s2,a0
   1682e:	e17ff0ef          	jal	ra,16644 <__b2d>
   16832:	006c                	addi	a1,sp,12
   16834:	8526                	mv	a0,s1
   16836:	e2050453          	fmv.x.d	s0,fa0
   1683a:	e0bff0ef          	jal	ra,16644 <__b2d>
   1683e:	48d8                	lw	a4,20(s1)
   16840:	01492783          	lw	a5,20(s2)
   16844:	46b2                	lw	a3,12(sp)
   16846:	9f99                	subw	a5,a5,a4
   16848:	4722                	lw	a4,8(sp)
   1684a:	0057979b          	slliw	a5,a5,0x5
   1684e:	9f15                	subw	a4,a4,a3
   16850:	00e786bb          	addw	a3,a5,a4
   16854:	87b6                	mv	a5,a3
   16856:	e2050753          	fmv.x.d	a4,fa0
   1685a:	02d05863          	blez	a3,1688a <__ratio+0x6c>
   1685e:	02045693          	srli	a3,s0,0x20
   16862:	0147979b          	slliw	a5,a5,0x14
   16866:	9fb5                	addw	a5,a5,a3
   16868:	56fd                	li	a3,-1
   1686a:	9281                	srli	a3,a3,0x20
   1686c:	1782                	slli	a5,a5,0x20
   1686e:	8c75                	and	s0,s0,a3
   16870:	8c5d                	or	s0,s0,a5
   16872:	f20407d3          	fmv.d.x	fa5,s0
   16876:	70a2                	ld	ra,40(sp)
   16878:	7402                	ld	s0,32(sp)
   1687a:	f2070753          	fmv.d.x	fa4,a4
   1687e:	64e2                	ld	s1,24(sp)
   16880:	6942                	ld	s2,16(sp)
   16882:	1ae7f553          	fdiv.d	fa0,fa5,fa4
   16886:	6145                	addi	sp,sp,48
   16888:	8082                	ret
   1688a:	02075693          	srli	a3,a4,0x20
   1688e:	0147979b          	slliw	a5,a5,0x14
   16892:	40f687bb          	subw	a5,a3,a5
   16896:	56fd                	li	a3,-1
   16898:	9281                	srli	a3,a3,0x20
   1689a:	1782                	slli	a5,a5,0x20
   1689c:	8f75                	and	a4,a4,a3
   1689e:	8f5d                	or	a4,a4,a5
   168a0:	bfc9                	j	16872 <__ratio+0x54>

00000000000168a2 <_mprec_log10>:
   168a2:	47dd                	li	a5,23
   168a4:	00a7df63          	bge	a5,a0,168c2 <_mprec_log10+0x20>
   168a8:	00009797          	auipc	a5,0x9
   168ac:	b387b507          	fld	fa0,-1224(a5) # 1f3e0 <mask+0x18>
   168b0:	00009797          	auipc	a5,0x9
   168b4:	b387b787          	fld	fa5,-1224(a5) # 1f3e8 <mask+0x20>
   168b8:	357d                	addiw	a0,a0,-1
   168ba:	12f57553          	fmul.d	fa0,fa0,fa5
   168be:	fd6d                	bnez	a0,168b8 <_mprec_log10+0x16>
   168c0:	8082                	ret
   168c2:	00006797          	auipc	a5,0x6
   168c6:	16678793          	addi	a5,a5,358 # 1ca28 <p05.3314>
   168ca:	050e                	slli	a0,a0,0x3
   168cc:	953e                	add	a0,a0,a5
   168ce:	2908                	fld	fa0,16(a0)
   168d0:	8082                	ret

00000000000168d2 <__copybits>:
   168d2:	4a54                	lw	a3,20(a2)
   168d4:	35fd                	addiw	a1,a1,-1
   168d6:	4055d59b          	sraiw	a1,a1,0x5
   168da:	0585                	addi	a1,a1,1
   168dc:	01860793          	addi	a5,a2,24
   168e0:	068a                	slli	a3,a3,0x2
   168e2:	058a                	slli	a1,a1,0x2
   168e4:	96be                	add	a3,a3,a5
   168e6:	95aa                	add	a1,a1,a0
   168e8:	02d7f163          	bgeu	a5,a3,1690a <__copybits+0x38>
   168ec:	872a                	mv	a4,a0
   168ee:	0007a803          	lw	a6,0(a5)
   168f2:	0791                	addi	a5,a5,4
   168f4:	0711                	addi	a4,a4,4
   168f6:	ff072e23          	sw	a6,-4(a4) # 3feffffc <__BSS_END__+0x3fee0b4c>
   168fa:	fed7eae3          	bltu	a5,a3,168ee <__copybits+0x1c>
   168fe:	40c687b3          	sub	a5,a3,a2
   16902:	179d                	addi	a5,a5,-25
   16904:	9bf1                	andi	a5,a5,-4
   16906:	0791                	addi	a5,a5,4
   16908:	953e                	add	a0,a0,a5
   1690a:	00b57763          	bgeu	a0,a1,16918 <__copybits+0x46>
   1690e:	0511                	addi	a0,a0,4
   16910:	fe052e23          	sw	zero,-4(a0)
   16914:	feb56de3          	bltu	a0,a1,1690e <__copybits+0x3c>
   16918:	8082                	ret

000000000001691a <__any_on>:
   1691a:	4958                	lw	a4,20(a0)
   1691c:	4055d613          	srai	a2,a1,0x5
   16920:	01850693          	addi	a3,a0,24
   16924:	00c75d63          	bge	a4,a2,1693e <__any_on+0x24>
   16928:	00271793          	slli	a5,a4,0x2
   1692c:	97b6                	add	a5,a5,a3
   1692e:	02f6f863          	bgeu	a3,a5,1695e <__any_on+0x44>
   16932:	ffc7a703          	lw	a4,-4(a5)
   16936:	17f1                	addi	a5,a5,-4
   16938:	db7d                	beqz	a4,1692e <__any_on+0x14>
   1693a:	4505                	li	a0,1
   1693c:	8082                	ret
   1693e:	00261793          	slli	a5,a2,0x2
   16942:	97b6                	add	a5,a5,a3
   16944:	fee655e3          	bge	a2,a4,1692e <__any_on+0x14>
   16948:	89fd                	andi	a1,a1,31
   1694a:	d1f5                	beqz	a1,1692e <__any_on+0x14>
   1694c:	4390                	lw	a2,0(a5)
   1694e:	4505                	li	a0,1
   16950:	00b6573b          	srlw	a4,a2,a1
   16954:	00b715bb          	sllw	a1,a4,a1
   16958:	fcc58be3          	beq	a1,a2,1692e <__any_on+0x14>
   1695c:	8082                	ret
   1695e:	4501                	li	a0,0
   16960:	8082                	ret

0000000000016962 <_realloc_r>:
   16962:	715d                	addi	sp,sp,-80
   16964:	f84a                	sd	s2,48(sp)
   16966:	e486                	sd	ra,72(sp)
   16968:	e0a2                	sd	s0,64(sp)
   1696a:	fc26                	sd	s1,56(sp)
   1696c:	f44e                	sd	s3,40(sp)
   1696e:	f052                	sd	s4,32(sp)
   16970:	ec56                	sd	s5,24(sp)
   16972:	e85a                	sd	s6,16(sp)
   16974:	e45e                	sd	s7,8(sp)
   16976:	e062                	sd	s8,0(sp)
   16978:	8932                	mv	s2,a2
   1697a:	1a058163          	beqz	a1,16b1c <_realloc_r+0x1ba>
   1697e:	842e                	mv	s0,a1
   16980:	8aaa                	mv	s5,a0
   16982:	c5eff0ef          	jal	ra,15de0 <__malloc_lock>
   16986:	ff843703          	ld	a4,-8(s0)
   1698a:	01790493          	addi	s1,s2,23
   1698e:	02e00793          	li	a5,46
   16992:	ff040b13          	addi	s6,s0,-16
   16996:	ffc77a13          	andi	s4,a4,-4
   1699a:	0a97ff63          	bgeu	a5,s1,16a58 <_realloc_r+0xf6>
   1699e:	800007b7          	lui	a5,0x80000
   169a2:	98c1                	andi	s1,s1,-16
   169a4:	fff7c793          	not	a5,a5
   169a8:	0a97ec63          	bltu	a5,s1,16a60 <_realloc_r+0xfe>
   169ac:	0b24ea63          	bltu	s1,s2,16a60 <_realloc_r+0xfe>
   169b0:	014b09b3          	add	s3,s6,s4
   169b4:	129a5263          	bge	s4,s1,16ad8 <_realloc_r+0x176>
   169b8:	00008b97          	auipc	s7,0x8
   169bc:	1f8b8b93          	addi	s7,s7,504 # 1ebb0 <__malloc_av_>
   169c0:	010bb683          	ld	a3,16(s7)
   169c4:	0089b783          	ld	a5,8(s3)
   169c8:	19368b63          	beq	a3,s3,16b5e <_realloc_r+0x1fc>
   169cc:	ffe7f693          	andi	a3,a5,-2
   169d0:	96ce                	add	a3,a3,s3
   169d2:	6694                	ld	a3,8(a3)
   169d4:	8a85                	andi	a3,a3,1
   169d6:	12069863          	bnez	a3,16b06 <_realloc_r+0x1a4>
   169da:	9bf1                	andi	a5,a5,-4
   169dc:	00fa06b3          	add	a3,s4,a5
   169e0:	2496df63          	bge	a3,s1,16c3e <_realloc_r+0x2dc>
   169e4:	8b05                	andi	a4,a4,1
   169e6:	e30d                	bnez	a4,16a08 <_realloc_r+0xa6>
   169e8:	ff043c03          	ld	s8,-16(s0)
   169ec:	418b0c33          	sub	s8,s6,s8
   169f0:	008c3703          	ld	a4,8(s8)
   169f4:	9b71                	andi	a4,a4,-4
   169f6:	97ba                	add	a5,a5,a4
   169f8:	01478bb3          	add	s7,a5,s4
   169fc:	269bd663          	bge	s7,s1,16c68 <_realloc_r+0x306>
   16a00:	00ea0bb3          	add	s7,s4,a4
   16a04:	069bdf63          	bge	s7,s1,16a82 <_realloc_r+0x120>
   16a08:	85ca                	mv	a1,s2
   16a0a:	8556                	mv	a0,s5
   16a0c:	b17fe0ef          	jal	ra,15522 <_malloc_r>
   16a10:	892a                	mv	s2,a0
   16a12:	cd1d                	beqz	a0,16a50 <_realloc_r+0xee>
   16a14:	ff843783          	ld	a5,-8(s0)
   16a18:	ff050713          	addi	a4,a0,-16
   16a1c:	9bf9                	andi	a5,a5,-2
   16a1e:	97da                	add	a5,a5,s6
   16a20:	22e78963          	beq	a5,a4,16c52 <_realloc_r+0x2f0>
   16a24:	ff8a0613          	addi	a2,s4,-8
   16a28:	04800793          	li	a5,72
   16a2c:	22c7ea63          	bltu	a5,a2,16c60 <_realloc_r+0x2fe>
   16a30:	02700713          	li	a4,39
   16a34:	6014                	ld	a3,0(s0)
   16a36:	1cc76363          	bltu	a4,a2,16bfc <_realloc_r+0x29a>
   16a3a:	87aa                	mv	a5,a0
   16a3c:	8722                	mv	a4,s0
   16a3e:	e394                	sd	a3,0(a5)
   16a40:	6714                	ld	a3,8(a4)
   16a42:	e794                	sd	a3,8(a5)
   16a44:	6b18                	ld	a4,16(a4)
   16a46:	eb98                	sd	a4,16(a5)
   16a48:	85a2                	mv	a1,s0
   16a4a:	8556                	mv	a0,s5
   16a4c:	9eefc0ef          	jal	ra,12c3a <_free_r>
   16a50:	8556                	mv	a0,s5
   16a52:	b90ff0ef          	jal	ra,15de2 <__malloc_unlock>
   16a56:	a809                	j	16a68 <_realloc_r+0x106>
   16a58:	02000493          	li	s1,32
   16a5c:	f524fae3          	bgeu	s1,s2,169b0 <_realloc_r+0x4e>
   16a60:	47b1                	li	a5,12
   16a62:	00faa023          	sw	a5,0(s5)
   16a66:	4901                	li	s2,0
   16a68:	60a6                	ld	ra,72(sp)
   16a6a:	6406                	ld	s0,64(sp)
   16a6c:	74e2                	ld	s1,56(sp)
   16a6e:	79a2                	ld	s3,40(sp)
   16a70:	7a02                	ld	s4,32(sp)
   16a72:	6ae2                	ld	s5,24(sp)
   16a74:	6b42                	ld	s6,16(sp)
   16a76:	6ba2                	ld	s7,8(sp)
   16a78:	6c02                	ld	s8,0(sp)
   16a7a:	854a                	mv	a0,s2
   16a7c:	7942                	ld	s2,48(sp)
   16a7e:	6161                	addi	sp,sp,80
   16a80:	8082                	ret
   16a82:	018c3783          	ld	a5,24(s8)
   16a86:	010c3703          	ld	a4,16(s8)
   16a8a:	ff8a0613          	addi	a2,s4,-8
   16a8e:	04800693          	li	a3,72
   16a92:	ef1c                	sd	a5,24(a4)
   16a94:	eb98                	sd	a4,16(a5)
   16a96:	010c0913          	addi	s2,s8,16
   16a9a:	017c09b3          	add	s3,s8,s7
   16a9e:	22c6ea63          	bltu	a3,a2,16cd2 <_realloc_r+0x370>
   16aa2:	02700593          	li	a1,39
   16aa6:	6018                	ld	a4,0(s0)
   16aa8:	87ca                	mv	a5,s2
   16aaa:	00c5ff63          	bgeu	a1,a2,16ac8 <_realloc_r+0x166>
   16aae:	00ec3823          	sd	a4,16(s8)
   16ab2:	6418                	ld	a4,8(s0)
   16ab4:	03700793          	li	a5,55
   16ab8:	00ec3c23          	sd	a4,24(s8)
   16abc:	22c7ef63          	bltu	a5,a2,16cfa <_realloc_r+0x398>
   16ac0:	6818                	ld	a4,16(s0)
   16ac2:	020c0793          	addi	a5,s8,32
   16ac6:	0441                	addi	s0,s0,16
   16ac8:	e398                	sd	a4,0(a5)
   16aca:	6418                	ld	a4,8(s0)
   16acc:	8a5e                	mv	s4,s7
   16ace:	8b62                	mv	s6,s8
   16ad0:	e798                	sd	a4,8(a5)
   16ad2:	6818                	ld	a4,16(s0)
   16ad4:	844a                	mv	s0,s2
   16ad6:	eb98                	sd	a4,16(a5)
   16ad8:	008b3783          	ld	a5,8(s6)
   16adc:	409a0733          	sub	a4,s4,s1
   16ae0:	46fd                	li	a3,31
   16ae2:	8b85                	andi	a5,a5,1
   16ae4:	04e6ea63          	bltu	a3,a4,16b38 <_realloc_r+0x1d6>
   16ae8:	00fa67b3          	or	a5,s4,a5
   16aec:	00fb3423          	sd	a5,8(s6)
   16af0:	0089b783          	ld	a5,8(s3)
   16af4:	0017e793          	ori	a5,a5,1
   16af8:	00f9b423          	sd	a5,8(s3)
   16afc:	8556                	mv	a0,s5
   16afe:	ae4ff0ef          	jal	ra,15de2 <__malloc_unlock>
   16b02:	8922                	mv	s2,s0
   16b04:	b795                	j	16a68 <_realloc_r+0x106>
   16b06:	8b05                	andi	a4,a4,1
   16b08:	f00710e3          	bnez	a4,16a08 <_realloc_r+0xa6>
   16b0c:	ff043c03          	ld	s8,-16(s0)
   16b10:	418b0c33          	sub	s8,s6,s8
   16b14:	008c3703          	ld	a4,8(s8)
   16b18:	9b71                	andi	a4,a4,-4
   16b1a:	b5dd                	j	16a00 <_realloc_r+0x9e>
   16b1c:	6406                	ld	s0,64(sp)
   16b1e:	60a6                	ld	ra,72(sp)
   16b20:	74e2                	ld	s1,56(sp)
   16b22:	7942                	ld	s2,48(sp)
   16b24:	79a2                	ld	s3,40(sp)
   16b26:	7a02                	ld	s4,32(sp)
   16b28:	6ae2                	ld	s5,24(sp)
   16b2a:	6b42                	ld	s6,16(sp)
   16b2c:	6ba2                	ld	s7,8(sp)
   16b2e:	6c02                	ld	s8,0(sp)
   16b30:	85b2                	mv	a1,a2
   16b32:	6161                	addi	sp,sp,80
   16b34:	9effe06f          	j	15522 <_malloc_r>
   16b38:	8fc5                	or	a5,a5,s1
   16b3a:	00fb3423          	sd	a5,8(s6)
   16b3e:	009b05b3          	add	a1,s6,s1
   16b42:	00176713          	ori	a4,a4,1
   16b46:	e598                	sd	a4,8(a1)
   16b48:	0089b783          	ld	a5,8(s3)
   16b4c:	05c1                	addi	a1,a1,16
   16b4e:	8556                	mv	a0,s5
   16b50:	0017e793          	ori	a5,a5,1
   16b54:	00f9b423          	sd	a5,8(s3)
   16b58:	8e2fc0ef          	jal	ra,12c3a <_free_r>
   16b5c:	b745                	j	16afc <_realloc_r+0x19a>
   16b5e:	9bf1                	andi	a5,a5,-4
   16b60:	00fa06b3          	add	a3,s4,a5
   16b64:	02048613          	addi	a2,s1,32
   16b68:	0ac6d763          	bge	a3,a2,16c16 <_realloc_r+0x2b4>
   16b6c:	8b05                	andi	a4,a4,1
   16b6e:	e8071de3          	bnez	a4,16a08 <_realloc_r+0xa6>
   16b72:	ff043c03          	ld	s8,-16(s0)
   16b76:	418b0c33          	sub	s8,s6,s8
   16b7a:	008c3703          	ld	a4,8(s8)
   16b7e:	9b71                	andi	a4,a4,-4
   16b80:	97ba                	add	a5,a5,a4
   16b82:	014789b3          	add	s3,a5,s4
   16b86:	e6c9cde3          	blt	s3,a2,16a00 <_realloc_r+0x9e>
   16b8a:	018c3783          	ld	a5,24(s8)
   16b8e:	010c3703          	ld	a4,16(s8)
   16b92:	ff8a0613          	addi	a2,s4,-8
   16b96:	04800693          	li	a3,72
   16b9a:	ef1c                	sd	a5,24(a4)
   16b9c:	eb98                	sd	a4,16(a5)
   16b9e:	010c0913          	addi	s2,s8,16
   16ba2:	18c6e963          	bltu	a3,a2,16d34 <_realloc_r+0x3d2>
   16ba6:	02700593          	li	a1,39
   16baa:	6018                	ld	a4,0(s0)
   16bac:	87ca                	mv	a5,s2
   16bae:	00c5ff63          	bgeu	a1,a2,16bcc <_realloc_r+0x26a>
   16bb2:	00ec3823          	sd	a4,16(s8)
   16bb6:	6418                	ld	a4,8(s0)
   16bb8:	03700793          	li	a5,55
   16bbc:	00ec3c23          	sd	a4,24(s8)
   16bc0:	16c7ef63          	bltu	a5,a2,16d3e <_realloc_r+0x3dc>
   16bc4:	6818                	ld	a4,16(s0)
   16bc6:	020c0793          	addi	a5,s8,32
   16bca:	0441                	addi	s0,s0,16
   16bcc:	e398                	sd	a4,0(a5)
   16bce:	6418                	ld	a4,8(s0)
   16bd0:	e798                	sd	a4,8(a5)
   16bd2:	6818                	ld	a4,16(s0)
   16bd4:	eb98                	sd	a4,16(a5)
   16bd6:	009c0733          	add	a4,s8,s1
   16bda:	409987b3          	sub	a5,s3,s1
   16bde:	00ebb823          	sd	a4,16(s7)
   16be2:	0017e793          	ori	a5,a5,1
   16be6:	e71c                	sd	a5,8(a4)
   16be8:	008c3783          	ld	a5,8(s8)
   16bec:	8556                	mv	a0,s5
   16bee:	8b85                	andi	a5,a5,1
   16bf0:	8cdd                	or	s1,s1,a5
   16bf2:	009c3423          	sd	s1,8(s8)
   16bf6:	9ecff0ef          	jal	ra,15de2 <__malloc_unlock>
   16bfa:	b5bd                	j	16a68 <_realloc_r+0x106>
   16bfc:	e114                	sd	a3,0(a0)
   16bfe:	6414                	ld	a3,8(s0)
   16c00:	03700713          	li	a4,55
   16c04:	e514                	sd	a3,8(a0)
   16c06:	0cc76e63          	bltu	a4,a2,16ce2 <_realloc_r+0x380>
   16c0a:	6814                	ld	a3,16(s0)
   16c0c:	01040713          	addi	a4,s0,16
   16c10:	01050793          	addi	a5,a0,16
   16c14:	b52d                	j	16a3e <_realloc_r+0xdc>
   16c16:	9b26                	add	s6,s6,s1
   16c18:	409687b3          	sub	a5,a3,s1
   16c1c:	016bb823          	sd	s6,16(s7)
   16c20:	0017e793          	ori	a5,a5,1
   16c24:	00fb3423          	sd	a5,8(s6)
   16c28:	ff843783          	ld	a5,-8(s0)
   16c2c:	8556                	mv	a0,s5
   16c2e:	8922                	mv	s2,s0
   16c30:	8b85                	andi	a5,a5,1
   16c32:	8cdd                	or	s1,s1,a5
   16c34:	fe943c23          	sd	s1,-8(s0)
   16c38:	9aaff0ef          	jal	ra,15de2 <__malloc_unlock>
   16c3c:	b535                	j	16a68 <_realloc_r+0x106>
   16c3e:	0189b783          	ld	a5,24(s3)
   16c42:	0109b703          	ld	a4,16(s3)
   16c46:	8a36                	mv	s4,a3
   16c48:	00db09b3          	add	s3,s6,a3
   16c4c:	ef1c                	sd	a5,24(a4)
   16c4e:	eb98                	sd	a4,16(a5)
   16c50:	b561                	j	16ad8 <_realloc_r+0x176>
   16c52:	ff853783          	ld	a5,-8(a0)
   16c56:	9bf1                	andi	a5,a5,-4
   16c58:	9a3e                	add	s4,s4,a5
   16c5a:	014b09b3          	add	s3,s6,s4
   16c5e:	bdad                	j	16ad8 <_realloc_r+0x176>
   16c60:	85a2                	mv	a1,s0
   16c62:	8a8ff0ef          	jal	ra,15d0a <memmove>
   16c66:	b3cd                	j	16a48 <_realloc_r+0xe6>
   16c68:	0189b783          	ld	a5,24(s3)
   16c6c:	0109b703          	ld	a4,16(s3)
   16c70:	ff8a0613          	addi	a2,s4,-8
   16c74:	04800693          	li	a3,72
   16c78:	ef1c                	sd	a5,24(a4)
   16c7a:	eb98                	sd	a4,16(a5)
   16c7c:	010c3703          	ld	a4,16(s8)
   16c80:	018c3783          	ld	a5,24(s8)
   16c84:	010c0913          	addi	s2,s8,16
   16c88:	017c09b3          	add	s3,s8,s7
   16c8c:	ef1c                	sd	a5,24(a4)
   16c8e:	eb98                	sd	a4,16(a5)
   16c90:	04c6e163          	bltu	a3,a2,16cd2 <_realloc_r+0x370>
   16c94:	02700693          	li	a3,39
   16c98:	6018                	ld	a4,0(s0)
   16c9a:	87ca                	mv	a5,s2
   16c9c:	e2c6f6e3          	bgeu	a3,a2,16ac8 <_realloc_r+0x166>
   16ca0:	00ec3823          	sd	a4,16(s8)
   16ca4:	6418                	ld	a4,8(s0)
   16ca6:	03700793          	li	a5,55
   16caa:	00ec3c23          	sd	a4,24(s8)
   16cae:	6818                	ld	a4,16(s0)
   16cb0:	e0c7f9e3          	bgeu	a5,a2,16ac2 <_realloc_r+0x160>
   16cb4:	02ec3023          	sd	a4,32(s8)
   16cb8:	6c18                	ld	a4,24(s0)
   16cba:	04800793          	li	a5,72
   16cbe:	02ec3423          	sd	a4,40(s8)
   16cc2:	7018                	ld	a4,32(s0)
   16cc4:	04f60463          	beq	a2,a5,16d0c <_realloc_r+0x3aa>
   16cc8:	030c0793          	addi	a5,s8,48
   16ccc:	02040413          	addi	s0,s0,32
   16cd0:	bbe5                	j	16ac8 <_realloc_r+0x166>
   16cd2:	85a2                	mv	a1,s0
   16cd4:	854a                	mv	a0,s2
   16cd6:	834ff0ef          	jal	ra,15d0a <memmove>
   16cda:	844a                	mv	s0,s2
   16cdc:	8a5e                	mv	s4,s7
   16cde:	8b62                	mv	s6,s8
   16ce0:	bbe5                	j	16ad8 <_realloc_r+0x176>
   16ce2:	6818                	ld	a4,16(s0)
   16ce4:	e918                	sd	a4,16(a0)
   16ce6:	6c18                	ld	a4,24(s0)
   16ce8:	ed18                	sd	a4,24(a0)
   16cea:	7014                	ld	a3,32(s0)
   16cec:	02f60b63          	beq	a2,a5,16d22 <_realloc_r+0x3c0>
   16cf0:	02040713          	addi	a4,s0,32
   16cf4:	02050793          	addi	a5,a0,32
   16cf8:	b399                	j	16a3e <_realloc_r+0xdc>
   16cfa:	681c                	ld	a5,16(s0)
   16cfc:	02fc3023          	sd	a5,32(s8)
   16d00:	6c1c                	ld	a5,24(s0)
   16d02:	02fc3423          	sd	a5,40(s8)
   16d06:	7018                	ld	a4,32(s0)
   16d08:	fcd610e3          	bne	a2,a3,16cc8 <_realloc_r+0x366>
   16d0c:	02ec3823          	sd	a4,48(s8)
   16d10:	7418                	ld	a4,40(s0)
   16d12:	040c0793          	addi	a5,s8,64
   16d16:	03040413          	addi	s0,s0,48
   16d1a:	02ec3c23          	sd	a4,56(s8)
   16d1e:	6018                	ld	a4,0(s0)
   16d20:	b365                	j	16ac8 <_realloc_r+0x166>
   16d22:	f114                	sd	a3,32(a0)
   16d24:	7414                	ld	a3,40(s0)
   16d26:	03040713          	addi	a4,s0,48
   16d2a:	03050793          	addi	a5,a0,48
   16d2e:	f514                	sd	a3,40(a0)
   16d30:	7814                	ld	a3,48(s0)
   16d32:	b331                	j	16a3e <_realloc_r+0xdc>
   16d34:	85a2                	mv	a1,s0
   16d36:	854a                	mv	a0,s2
   16d38:	fd3fe0ef          	jal	ra,15d0a <memmove>
   16d3c:	bd69                	j	16bd6 <_realloc_r+0x274>
   16d3e:	681c                	ld	a5,16(s0)
   16d40:	02fc3023          	sd	a5,32(s8)
   16d44:	6c1c                	ld	a5,24(s0)
   16d46:	02fc3423          	sd	a5,40(s8)
   16d4a:	7018                	ld	a4,32(s0)
   16d4c:	00d60763          	beq	a2,a3,16d5a <_realloc_r+0x3f8>
   16d50:	030c0793          	addi	a5,s8,48
   16d54:	02040413          	addi	s0,s0,32
   16d58:	bd95                	j	16bcc <_realloc_r+0x26a>
   16d5a:	02ec3823          	sd	a4,48(s8)
   16d5e:	7418                	ld	a4,40(s0)
   16d60:	040c0793          	addi	a5,s8,64
   16d64:	03040413          	addi	s0,s0,48
   16d68:	02ec3c23          	sd	a4,56(s8)
   16d6c:	6018                	ld	a4,0(s0)
   16d6e:	bdb9                	j	16bcc <_realloc_r+0x26a>

0000000000016d70 <_sbrk_r>:
   16d70:	1141                	addi	sp,sp,-16
   16d72:	e022                	sd	s0,0(sp)
   16d74:	842a                	mv	s0,a0
   16d76:	852e                	mv	a0,a1
   16d78:	00008797          	auipc	a5,0x8
   16d7c:	7207a823          	sw	zero,1840(a5) # 1f4a8 <errno>
   16d80:	e406                	sd	ra,8(sp)
   16d82:	208040ef          	jal	ra,1af8a <_sbrk>
   16d86:	57fd                	li	a5,-1
   16d88:	00f50663          	beq	a0,a5,16d94 <_sbrk_r+0x24>
   16d8c:	60a2                	ld	ra,8(sp)
   16d8e:	6402                	ld	s0,0(sp)
   16d90:	0141                	addi	sp,sp,16
   16d92:	8082                	ret
   16d94:	00008797          	auipc	a5,0x8
   16d98:	7147a783          	lw	a5,1812(a5) # 1f4a8 <errno>
   16d9c:	dbe5                	beqz	a5,16d8c <_sbrk_r+0x1c>
   16d9e:	60a2                	ld	ra,8(sp)
   16da0:	c01c                	sw	a5,0(s0)
   16da2:	6402                	ld	s0,0(sp)
   16da4:	0141                	addi	sp,sp,16
   16da6:	8082                	ret

0000000000016da8 <frexp>:
   16da8:	e20507d3          	fmv.x.d	a5,fa0
   16dac:	80000637          	lui	a2,0x80000
   16db0:	fff64613          	not	a2,a2
   16db4:	4207d593          	srai	a1,a5,0x20
   16db8:	00c5f733          	and	a4,a1,a2
   16dbc:	00052023          	sw	zero,0(a0)
   16dc0:	7ff00837          	lui	a6,0x7ff00
   16dc4:	86ae                	mv	a3,a1
   16dc6:	05075e63          	bge	a4,a6,16e22 <frexp+0x7a>
   16dca:	00f76833          	or	a6,a4,a5
   16dce:	2801                	sext.w	a6,a6
   16dd0:	04080963          	beqz	a6,16e22 <frexp+0x7a>
   16dd4:	7ff00837          	lui	a6,0x7ff00
   16dd8:	0105f5b3          	and	a1,a1,a6
   16ddc:	4801                	li	a6,0
   16dde:	ed99                	bnez	a1,16dfc <frexp+0x54>
   16de0:	00008717          	auipc	a4,0x8
   16de4:	61073787          	fld	fa5,1552(a4) # 1f3f0 <mask+0x28>
   16de8:	12f577d3          	fmul.d	fa5,fa0,fa5
   16dec:	fca00813          	li	a6,-54
   16df0:	e20787d3          	fmv.x.d	a5,fa5
   16df4:	4207d693          	srai	a3,a5,0x20
   16df8:	00c6f733          	and	a4,a3,a2
   16dfc:	80100637          	lui	a2,0x80100
   16e00:	167d                	addi	a2,a2,-1
   16e02:	8ef1                	and	a3,a3,a2
   16e04:	3fe00637          	lui	a2,0x3fe00
   16e08:	8ed1                	or	a3,a3,a2
   16e0a:	4147571b          	sraiw	a4,a4,0x14
   16e0e:	567d                	li	a2,-1
   16e10:	c027071b          	addiw	a4,a4,-1022
   16e14:	9201                	srli	a2,a2,0x20
   16e16:	0107073b          	addw	a4,a4,a6
   16e1a:	1682                	slli	a3,a3,0x20
   16e1c:	8ff1                	and	a5,a5,a2
   16e1e:	c118                	sw	a4,0(a0)
   16e20:	8fd5                	or	a5,a5,a3
   16e22:	f2078553          	fmv.d.x	fa0,a5
   16e26:	8082                	ret

0000000000016e28 <_sprintf_r>:
   16e28:	7111                	addi	sp,sp,-256
   16e2a:	0d810e93          	addi	t4,sp,216
   16e2e:	f5be                	sd	a5,232(sp)
   16e30:	80000337          	lui	t1,0x80000
   16e34:	77c1                	lui	a5,0xffff0
   16e36:	8e2e                	mv	t3,a1
   16e38:	fff34313          	not	t1,t1
   16e3c:	edb6                	sd	a3,216(sp)
   16e3e:	20878793          	addi	a5,a5,520 # ffffffffffff0208 <__BSS_END__+0xfffffffffffd0d58>
   16e42:	080c                	addi	a1,sp,16
   16e44:	86f6                	mv	a3,t4
   16e46:	e586                	sd	ra,200(sp)
   16e48:	d03e                	sw	a5,32(sp)
   16e4a:	f1ba                	sd	a4,224(sp)
   16e4c:	f9c2                	sd	a6,240(sp)
   16e4e:	fdc6                	sd	a7,248(sp)
   16e50:	e872                	sd	t3,16(sp)
   16e52:	f472                	sd	t3,40(sp)
   16e54:	d81a                	sw	t1,48(sp)
   16e56:	ce1a                	sw	t1,28(sp)
   16e58:	e476                	sd	t4,8(sp)
   16e5a:	338000ef          	jal	ra,17192 <_svfprintf_r>
   16e5e:	67c2                	ld	a5,16(sp)
   16e60:	00078023          	sb	zero,0(a5)
   16e64:	60ae                	ld	ra,200(sp)
   16e66:	6111                	addi	sp,sp,256
   16e68:	8082                	ret

0000000000016e6a <sprintf>:
   16e6a:	7111                	addi	sp,sp,-256
   16e6c:	0d010e93          	addi	t4,sp,208
   16e70:	f5be                	sd	a5,232(sp)
   16e72:	80000337          	lui	t1,0x80000
   16e76:	77c1                	lui	a5,0xffff0
   16e78:	8e2a                	mv	t3,a0
   16e7a:	fff34313          	not	t1,t1
   16e7e:	e9b2                	sd	a2,208(sp)
   16e80:	edb6                	sd	a3,216(sp)
   16e82:	20878793          	addi	a5,a5,520 # ffffffffffff0208 <__BSS_END__+0xfffffffffffd0d58>
   16e86:	862e                	mv	a2,a1
   16e88:	86f6                	mv	a3,t4
   16e8a:	080c                	addi	a1,sp,16
   16e8c:	7581b503          	ld	a0,1880(gp) # 1f408 <_impure_ptr>
   16e90:	e586                	sd	ra,200(sp)
   16e92:	d03e                	sw	a5,32(sp)
   16e94:	f1ba                	sd	a4,224(sp)
   16e96:	f9c2                	sd	a6,240(sp)
   16e98:	fdc6                	sd	a7,248(sp)
   16e9a:	e872                	sd	t3,16(sp)
   16e9c:	f472                	sd	t3,40(sp)
   16e9e:	d81a                	sw	t1,48(sp)
   16ea0:	ce1a                	sw	t1,28(sp)
   16ea2:	e476                	sd	t4,8(sp)
   16ea4:	2ee000ef          	jal	ra,17192 <_svfprintf_r>
   16ea8:	67c2                	ld	a5,16(sp)
   16eaa:	00078023          	sb	zero,0(a5)
   16eae:	60ae                	ld	ra,200(sp)
   16eb0:	6111                	addi	sp,sp,256
   16eb2:	8082                	ret

0000000000016eb4 <__sread>:
   16eb4:	1141                	addi	sp,sp,-16
   16eb6:	e022                	sd	s0,0(sp)
   16eb8:	842e                	mv	s0,a1
   16eba:	01259583          	lh	a1,18(a1)
   16ebe:	e406                	sd	ra,8(sp)
   16ec0:	010030ef          	jal	ra,19ed0 <_read_r>
   16ec4:	00054963          	bltz	a0,16ed6 <__sread+0x22>
   16ec8:	685c                	ld	a5,144(s0)
   16eca:	60a2                	ld	ra,8(sp)
   16ecc:	97aa                	add	a5,a5,a0
   16ece:	e85c                	sd	a5,144(s0)
   16ed0:	6402                	ld	s0,0(sp)
   16ed2:	0141                	addi	sp,sp,16
   16ed4:	8082                	ret
   16ed6:	01045783          	lhu	a5,16(s0)
   16eda:	777d                	lui	a4,0xfffff
   16edc:	177d                	addi	a4,a4,-1
   16ede:	8ff9                	and	a5,a5,a4
   16ee0:	60a2                	ld	ra,8(sp)
   16ee2:	00f41823          	sh	a5,16(s0)
   16ee6:	6402                	ld	s0,0(sp)
   16ee8:	0141                	addi	sp,sp,16
   16eea:	8082                	ret

0000000000016eec <__seofread>:
   16eec:	4501                	li	a0,0
   16eee:	8082                	ret

0000000000016ef0 <__swrite>:
   16ef0:	01059783          	lh	a5,16(a1)
   16ef4:	7179                	addi	sp,sp,-48
   16ef6:	f022                	sd	s0,32(sp)
   16ef8:	ec26                	sd	s1,24(sp)
   16efa:	e84a                	sd	s2,16(sp)
   16efc:	e44e                	sd	s3,8(sp)
   16efe:	f406                	sd	ra,40(sp)
   16f00:	1007f713          	andi	a4,a5,256
   16f04:	842e                	mv	s0,a1
   16f06:	84aa                	mv	s1,a0
   16f08:	01259583          	lh	a1,18(a1)
   16f0c:	8932                	mv	s2,a2
   16f0e:	89b6                	mv	s3,a3
   16f10:	e30d                	bnez	a4,16f32 <__swrite+0x42>
   16f12:	777d                	lui	a4,0xfffff
   16f14:	177d                	addi	a4,a4,-1
   16f16:	8ff9                	and	a5,a5,a4
   16f18:	00f41823          	sh	a5,16(s0)
   16f1c:	7402                	ld	s0,32(sp)
   16f1e:	70a2                	ld	ra,40(sp)
   16f20:	86ce                	mv	a3,s3
   16f22:	864a                	mv	a2,s2
   16f24:	69a2                	ld	s3,8(sp)
   16f26:	6942                	ld	s2,16(sp)
   16f28:	8526                	mv	a0,s1
   16f2a:	64e2                	ld	s1,24(sp)
   16f2c:	6145                	addi	sp,sp,48
   16f2e:	3f50206f          	j	19b22 <_write_r>
   16f32:	4689                	li	a3,2
   16f34:	4601                	li	a2,0
   16f36:	75d020ef          	jal	ra,19e92 <_lseek_r>
   16f3a:	01041783          	lh	a5,16(s0)
   16f3e:	01241583          	lh	a1,18(s0)
   16f42:	bfc1                	j	16f12 <__swrite+0x22>

0000000000016f44 <__sseek>:
   16f44:	1141                	addi	sp,sp,-16
   16f46:	e022                	sd	s0,0(sp)
   16f48:	842e                	mv	s0,a1
   16f4a:	01259583          	lh	a1,18(a1)
   16f4e:	e406                	sd	ra,8(sp)
   16f50:	743020ef          	jal	ra,19e92 <_lseek_r>
   16f54:	57fd                	li	a5,-1
   16f56:	00f50d63          	beq	a0,a5,16f70 <__sseek+0x2c>
   16f5a:	01045783          	lhu	a5,16(s0)
   16f5e:	6705                	lui	a4,0x1
   16f60:	60a2                	ld	ra,8(sp)
   16f62:	8fd9                	or	a5,a5,a4
   16f64:	e848                	sd	a0,144(s0)
   16f66:	00f41823          	sh	a5,16(s0)
   16f6a:	6402                	ld	s0,0(sp)
   16f6c:	0141                	addi	sp,sp,16
   16f6e:	8082                	ret
   16f70:	01045783          	lhu	a5,16(s0)
   16f74:	777d                	lui	a4,0xfffff
   16f76:	177d                	addi	a4,a4,-1
   16f78:	8ff9                	and	a5,a5,a4
   16f7a:	60a2                	ld	ra,8(sp)
   16f7c:	00f41823          	sh	a5,16(s0)
   16f80:	6402                	ld	s0,0(sp)
   16f82:	0141                	addi	sp,sp,16
   16f84:	8082                	ret

0000000000016f86 <__sclose>:
   16f86:	01259583          	lh	a1,18(a1)
   16f8a:	4690206f          	j	19bf2 <_close_r>

0000000000016f8e <strcmp>:
   16f8e:	00b56733          	or	a4,a0,a1
   16f92:	53fd                	li	t2,-1
   16f94:	8b1d                	andi	a4,a4,7
   16f96:	eb4d                	bnez	a4,17048 <strcmp+0xba>
   16f98:	00008797          	auipc	a5,0x8
   16f9c:	4307b783          	ld	a5,1072(a5) # 1f3c8 <mask>
   16fa0:	6110                	ld	a2,0(a0)
   16fa2:	6194                	ld	a3,0(a1)
   16fa4:	00f672b3          	and	t0,a2,a5
   16fa8:	00f66333          	or	t1,a2,a5
   16fac:	92be                	add	t0,t0,a5
   16fae:	0062e2b3          	or	t0,t0,t1
   16fb2:	0a729963          	bne	t0,t2,17064 <strcmp+0xd6>
   16fb6:	02d61e63          	bne	a2,a3,16ff2 <strcmp+0x64>
   16fba:	6510                	ld	a2,8(a0)
   16fbc:	6594                	ld	a3,8(a1)
   16fbe:	00f672b3          	and	t0,a2,a5
   16fc2:	00f66333          	or	t1,a2,a5
   16fc6:	92be                	add	t0,t0,a5
   16fc8:	0062e2b3          	or	t0,t0,t1
   16fcc:	08729a63          	bne	t0,t2,17060 <strcmp+0xd2>
   16fd0:	02d61163          	bne	a2,a3,16ff2 <strcmp+0x64>
   16fd4:	6910                	ld	a2,16(a0)
   16fd6:	6994                	ld	a3,16(a1)
   16fd8:	00f672b3          	and	t0,a2,a5
   16fdc:	00f66333          	or	t1,a2,a5
   16fe0:	92be                	add	t0,t0,a5
   16fe2:	0062e2b3          	or	t0,t0,t1
   16fe6:	08729363          	bne	t0,t2,1706c <strcmp+0xde>
   16fea:	0561                	addi	a0,a0,24
   16fec:	05e1                	addi	a1,a1,24
   16fee:	fad609e3          	beq	a2,a3,16fa0 <strcmp+0x12>
   16ff2:	03061713          	slli	a4,a2,0x30
   16ff6:	03069793          	slli	a5,a3,0x30
   16ffa:	02f71863          	bne	a4,a5,1702a <strcmp+0x9c>
   16ffe:	02061713          	slli	a4,a2,0x20
   17002:	02069793          	slli	a5,a3,0x20
   17006:	02f71263          	bne	a4,a5,1702a <strcmp+0x9c>
   1700a:	01061713          	slli	a4,a2,0x10
   1700e:	01069793          	slli	a5,a3,0x10
   17012:	00f71c63          	bne	a4,a5,1702a <strcmp+0x9c>
   17016:	03065713          	srli	a4,a2,0x30
   1701a:	0306d793          	srli	a5,a3,0x30
   1701e:	40f70533          	sub	a0,a4,a5
   17022:	0ff57593          	andi	a1,a0,255
   17026:	e991                	bnez	a1,1703a <strcmp+0xac>
   17028:	8082                	ret
   1702a:	9341                	srli	a4,a4,0x30
   1702c:	93c1                	srli	a5,a5,0x30
   1702e:	40f70533          	sub	a0,a4,a5
   17032:	0ff57593          	andi	a1,a0,255
   17036:	e191                	bnez	a1,1703a <strcmp+0xac>
   17038:	8082                	ret
   1703a:	0ff77713          	andi	a4,a4,255
   1703e:	0ff7f793          	andi	a5,a5,255
   17042:	40f70533          	sub	a0,a4,a5
   17046:	8082                	ret
   17048:	00054603          	lbu	a2,0(a0)
   1704c:	0005c683          	lbu	a3,0(a1)
   17050:	0505                	addi	a0,a0,1
   17052:	0585                	addi	a1,a1,1
   17054:	00d61363          	bne	a2,a3,1705a <strcmp+0xcc>
   17058:	fa65                	bnez	a2,17048 <strcmp+0xba>
   1705a:	40d60533          	sub	a0,a2,a3
   1705e:	8082                	ret
   17060:	0521                	addi	a0,a0,8
   17062:	05a1                	addi	a1,a1,8
   17064:	fed612e3          	bne	a2,a3,17048 <strcmp+0xba>
   17068:	4501                	li	a0,0
   1706a:	8082                	ret
   1706c:	0541                	addi	a0,a0,16
   1706e:	05c1                	addi	a1,a1,16
   17070:	fcd61ce3          	bne	a2,a3,17048 <strcmp+0xba>
   17074:	4501                	li	a0,0
   17076:	8082                	ret

0000000000017078 <strcpy>:
   17078:	00b567b3          	or	a5,a0,a1
   1707c:	8b9d                	andi	a5,a5,7
   1707e:	efbd                	bnez	a5,170fc <strcpy+0x84>
   17080:	6198                	ld	a4,0(a1)
   17082:	00008697          	auipc	a3,0x8
   17086:	3466b683          	ld	a3,838(a3) # 1f3c8 <mask>
   1708a:	567d                	li	a2,-1
   1708c:	00d777b3          	and	a5,a4,a3
   17090:	97b6                	add	a5,a5,a3
   17092:	8fd9                	or	a5,a5,a4
   17094:	8fd5                	or	a5,a5,a3
   17096:	06c79c63          	bne	a5,a2,1710e <strcpy+0x96>
   1709a:	862a                	mv	a2,a0
   1709c:	587d                	li	a6,-1
   1709e:	e218                	sd	a4,0(a2)
   170a0:	6598                	ld	a4,8(a1)
   170a2:	05a1                	addi	a1,a1,8
   170a4:	0621                	addi	a2,a2,8
   170a6:	00d777b3          	and	a5,a4,a3
   170aa:	97b6                	add	a5,a5,a3
   170ac:	8fd9                	or	a5,a5,a4
   170ae:	8fd5                	or	a5,a5,a3
   170b0:	ff0787e3          	beq	a5,a6,1709e <strcpy+0x26>
   170b4:	0005c783          	lbu	a5,0(a1)
   170b8:	0015c703          	lbu	a4,1(a1)
   170bc:	0025c683          	lbu	a3,2(a1)
   170c0:	00f60023          	sb	a5,0(a2) # 3fe00000 <__BSS_END__+0x3fde0b50>
   170c4:	cb9d                	beqz	a5,170fa <strcpy+0x82>
   170c6:	00e600a3          	sb	a4,1(a2)
   170ca:	cb05                	beqz	a4,170fa <strcpy+0x82>
   170cc:	0035c783          	lbu	a5,3(a1)
   170d0:	00d60123          	sb	a3,2(a2)
   170d4:	c29d                	beqz	a3,170fa <strcpy+0x82>
   170d6:	0045c703          	lbu	a4,4(a1)
   170da:	00f601a3          	sb	a5,3(a2)
   170de:	cf91                	beqz	a5,170fa <strcpy+0x82>
   170e0:	0055c783          	lbu	a5,5(a1)
   170e4:	00e60223          	sb	a4,4(a2)
   170e8:	cb09                	beqz	a4,170fa <strcpy+0x82>
   170ea:	0065c703          	lbu	a4,6(a1)
   170ee:	00f602a3          	sb	a5,5(a2)
   170f2:	c781                	beqz	a5,170fa <strcpy+0x82>
   170f4:	00e60323          	sb	a4,6(a2)
   170f8:	ef09                	bnez	a4,17112 <strcpy+0x9a>
   170fa:	8082                	ret
   170fc:	87aa                	mv	a5,a0
   170fe:	0005c703          	lbu	a4,0(a1)
   17102:	0785                	addi	a5,a5,1
   17104:	0585                	addi	a1,a1,1
   17106:	fee78fa3          	sb	a4,-1(a5)
   1710a:	fb75                	bnez	a4,170fe <strcpy+0x86>
   1710c:	8082                	ret
   1710e:	862a                	mv	a2,a0
   17110:	b755                	j	170b4 <strcpy+0x3c>
   17112:	000603a3          	sb	zero,7(a2)
   17116:	8082                	ret

0000000000017118 <strncpy>:
   17118:	00a5e7b3          	or	a5,a1,a0
   1711c:	8b9d                	andi	a5,a5,7
   1711e:	872a                	mv	a4,a0
   17120:	ebb1                	bnez	a5,17174 <strncpy+0x5c>
   17122:	479d                	li	a5,7
   17124:	04c7f863          	bgeu	a5,a2,17174 <strncpy+0x5c>
   17128:	00008317          	auipc	t1,0x8
   1712c:	2a833303          	ld	t1,680(t1) # 1f3d0 <mask+0x8>
   17130:	00008897          	auipc	a7,0x8
   17134:	2a88b883          	ld	a7,680(a7) # 1f3d8 <mask+0x10>
   17138:	4e1d                	li	t3,7
   1713a:	6194                	ld	a3,0(a1)
   1713c:	006687b3          	add	a5,a3,t1
   17140:	fff6c813          	not	a6,a3
   17144:	0107f7b3          	and	a5,a5,a6
   17148:	0117f7b3          	and	a5,a5,a7
   1714c:	e785                	bnez	a5,17174 <strncpy+0x5c>
   1714e:	e314                	sd	a3,0(a4)
   17150:	1661                	addi	a2,a2,-8
   17152:	0721                	addi	a4,a4,8
   17154:	05a1                	addi	a1,a1,8
   17156:	fece62e3          	bltu	t3,a2,1713a <strncpy+0x22>
   1715a:	0585                	addi	a1,a1,1
   1715c:	00170793          	addi	a5,a4,1 # fffffffffffff001 <__BSS_END__+0xfffffffffffdfb51>
   17160:	ce11                	beqz	a2,1717c <strncpy+0x64>
   17162:	fff5c683          	lbu	a3,-1(a1)
   17166:	fff60813          	addi	a6,a2,-1
   1716a:	fed78fa3          	sb	a3,-1(a5)
   1716e:	ca81                	beqz	a3,1717e <strncpy+0x66>
   17170:	873e                	mv	a4,a5
   17172:	8642                	mv	a2,a6
   17174:	0585                	addi	a1,a1,1
   17176:	00170793          	addi	a5,a4,1
   1717a:	f665                	bnez	a2,17162 <strncpy+0x4a>
   1717c:	8082                	ret
   1717e:	963a                	add	a2,a2,a4
   17180:	00080863          	beqz	a6,17190 <strncpy+0x78>
   17184:	0785                	addi	a5,a5,1
   17186:	fe078fa3          	sb	zero,-1(a5)
   1718a:	fec79de3          	bne	a5,a2,17184 <strncpy+0x6c>
   1718e:	8082                	ret
   17190:	8082                	ret

0000000000017192 <_svfprintf_r>:
   17192:	d8010113          	addi	sp,sp,-640
   17196:	26113c23          	sd	ra,632(sp)
   1719a:	25413823          	sd	s4,592(sp)
   1719e:	25513423          	sd	s5,584(sp)
   171a2:	23913423          	sd	s9,552(sp)
   171a6:	8aae                	mv	s5,a1
   171a8:	8cb2                	mv	s9,a2
   171aa:	ec36                	sd	a3,24(sp)
   171ac:	26813823          	sd	s0,624(sp)
   171b0:	26913423          	sd	s1,616(sp)
   171b4:	27213023          	sd	s2,608(sp)
   171b8:	25313c23          	sd	s3,600(sp)
   171bc:	25613023          	sd	s6,576(sp)
   171c0:	23713c23          	sd	s7,568(sp)
   171c4:	23813823          	sd	s8,560(sp)
   171c8:	23a13023          	sd	s10,544(sp)
   171cc:	21b13c23          	sd	s11,536(sp)
   171d0:	8a2a                	mv	s4,a0
   171d2:	99efe0ef          	jal	ra,15370 <_localeconv_r>
   171d6:	611c                	ld	a5,0(a0)
   171d8:	853e                	mv	a0,a5
   171da:	fcbe                	sd	a5,120(sp)
   171dc:	df4f90ef          	jal	ra,107d0 <strlen>
   171e0:	010ad783          	lhu	a5,16(s5)
   171e4:	e202                	sd	zero,256(sp)
   171e6:	e602                	sd	zero,264(sp)
   171e8:	0807f793          	andi	a5,a5,128
   171ec:	f8aa                	sd	a0,112(sp)
   171ee:	c791                	beqz	a5,171fa <_svfprintf_r+0x68>
   171f0:	018ab783          	ld	a5,24(s5)
   171f4:	e399                	bnez	a5,171fa <_svfprintf_r+0x68>
   171f6:	7f30006f          	j	181e8 <_svfprintf_r+0x1056>
   171fa:	000cc783          	lbu	a5,0(s9)
   171fe:	19010b93          	addi	s7,sp,400
   17202:	ea5e                	sd	s7,272(sp)
   17204:	f202                	sd	zero,288(sp)
   17206:	10012c23          	sw	zero,280(sp)
   1720a:	f002                	sd	zero,32(sp)
   1720c:	f402                	sd	zero,40(sp)
   1720e:	e102                	sd	zero,128(sp)
   17210:	f482                	sd	zero,104(sp)
   17212:	e502                	sd	zero,136(sp)
   17214:	e902                	sd	zero,144(sp)
   17216:	e002                	sd	zero,0(sp)
   17218:	835e                	mv	t1,s7
   1721a:	4d41                	li	s10,16
   1721c:	00006917          	auipc	s2,0x6
   17220:	ab490913          	addi	s2,s2,-1356 # 1ccd0 <zeroes.4506>
   17224:	1c078663          	beqz	a5,173f0 <_svfprintf_r+0x25e>
   17228:	8466                	mv	s0,s9
   1722a:	02500713          	li	a4,37
   1722e:	2ce78b63          	beq	a5,a4,17504 <_svfprintf_r+0x372>
   17232:	00144783          	lbu	a5,1(s0)
   17236:	0405                	addi	s0,s0,1
   17238:	fbfd                	bnez	a5,1722e <_svfprintf_r+0x9c>
   1723a:	419404bb          	subw	s1,s0,s9
   1723e:	1a048963          	beqz	s1,173f0 <_svfprintf_r+0x25e>
   17242:	7712                	ld	a4,288(sp)
   17244:	11812783          	lw	a5,280(sp)
   17248:	01933023          	sd	s9,0(t1)
   1724c:	9726                	add	a4,a4,s1
   1724e:	2785                	addiw	a5,a5,1
   17250:	00933423          	sd	s1,8(t1)
   17254:	f23a                	sd	a4,288(sp)
   17256:	10f12c23          	sw	a5,280(sp)
   1725a:	0007871b          	sext.w	a4,a5
   1725e:	479d                	li	a5,7
   17260:	0341                	addi	t1,t1,16
   17262:	2ae7c863          	blt	a5,a4,17512 <_svfprintf_r+0x380>
   17266:	6702                	ld	a4,0(sp)
   17268:	00044783          	lbu	a5,0(s0)
   1726c:	9f25                	addw	a4,a4,s1
   1726e:	e03a                	sd	a4,0(sp)
   17270:	18078063          	beqz	a5,173f0 <_svfprintf_r+0x25e>
   17274:	00144f03          	lbu	t5,1(s0)
   17278:	0c010fa3          	sb	zero,223(sp)
   1727c:	0405                	addi	s0,s0,1
   1727e:	5efd                	li	t4,-1
   17280:	4b01                	li	s6,0
   17282:	4481                	li	s1,0
   17284:	49a5                	li	s3,9
   17286:	02a00c13          	li	s8,42
   1728a:	0405                	addi	s0,s0,1
   1728c:	000f0d9b          	sext.w	s11,t5
   17290:	05a00693          	li	a3,90
   17294:	fe0d879b          	addiw	a5,s11,-32
   17298:	0007871b          	sext.w	a4,a5
   1729c:	04e6e663          	bltu	a3,a4,172e8 <_svfprintf_r+0x156>
   172a0:	1782                	slli	a5,a5,0x20
   172a2:	00006717          	auipc	a4,0x6
   172a6:	8ae70713          	addi	a4,a4,-1874 # 1cb50 <__mprec_bigtens+0x28>
   172aa:	83f9                	srli	a5,a5,0x1e
   172ac:	97ba                	add	a5,a5,a4
   172ae:	439c                	lw	a5,0(a5)
   172b0:	97ba                	add	a5,a5,a4
   172b2:	8782                	jr	a5
   172b4:	4b01                	li	s6,0
   172b6:	00044703          	lbu	a4,0(s0)
   172ba:	002b179b          	slliw	a5,s6,0x2
   172be:	01678b3b          	addw	s6,a5,s6
   172c2:	fd0d8f1b          	addiw	t5,s11,-48
   172c6:	001b1b1b          	slliw	s6,s6,0x1
   172ca:	fd07079b          	addiw	a5,a4,-48
   172ce:	0405                	addi	s0,s0,1
   172d0:	016f0b3b          	addw	s6,t5,s6
   172d4:	00070d9b          	sext.w	s11,a4
   172d8:	fcf9ffe3          	bgeu	s3,a5,172b6 <_svfprintf_r+0x124>
   172dc:	fe0d879b          	addiw	a5,s11,-32
   172e0:	0007871b          	sext.w	a4,a5
   172e4:	fae6fee3          	bgeu	a3,a4,172a0 <_svfprintf_r+0x10e>
   172e8:	100d8463          	beqz	s11,173f0 <_svfprintf_r+0x25e>
   172ec:	13b10423          	sb	s11,296(sp)
   172f0:	0c010fa3          	sb	zero,223(sp)
   172f4:	4985                	li	s3,1
   172f6:	4c05                	li	s8,1
   172f8:	12810c93          	addi	s9,sp,296
   172fc:	e802                	sd	zero,16(sp)
   172fe:	4e81                	li	t4,0
   17300:	e882                	sd	zero,80(sp)
   17302:	f082                	sd	zero,96(sp)
   17304:	ec82                	sd	zero,88(sp)
   17306:	0024f793          	andi	a5,s1,2
   1730a:	0007829b          	sext.w	t0,a5
   1730e:	c391                	beqz	a5,17312 <_svfprintf_r+0x180>
   17310:	2989                	addiw	s3,s3,2
   17312:	0844ff93          	andi	t6,s1,132
   17316:	7792                	ld	a5,288(sp)
   17318:	000f9663          	bnez	t6,17324 <_svfprintf_r+0x192>
   1731c:	413b06bb          	subw	a3,s6,s3
   17320:	22d04ce3          	bgtz	a3,17d58 <_svfprintf_r+0xbc6>
   17324:	0df14703          	lbu	a4,223(sp)
   17328:	c70d                	beqz	a4,17352 <_svfprintf_r+0x1c0>
   1732a:	11812703          	lw	a4,280(sp)
   1732e:	0df10693          	addi	a3,sp,223
   17332:	00d33023          	sd	a3,0(t1)
   17336:	2705                	addiw	a4,a4,1
   17338:	4685                	li	a3,1
   1733a:	0785                	addi	a5,a5,1
   1733c:	00d33423          	sd	a3,8(t1)
   17340:	10e12c23          	sw	a4,280(sp)
   17344:	0007069b          	sext.w	a3,a4
   17348:	f23e                	sd	a5,288(sp)
   1734a:	471d                	li	a4,7
   1734c:	0341                	addi	t1,t1,16
   1734e:	40d74163          	blt	a4,a3,17750 <_svfprintf_r+0x5be>
   17352:	02028563          	beqz	t0,1737c <_svfprintf_r+0x1ea>
   17356:	11812703          	lw	a4,280(sp)
   1735a:	1194                	addi	a3,sp,224
   1735c:	00d33023          	sd	a3,0(t1)
   17360:	2705                	addiw	a4,a4,1
   17362:	4689                	li	a3,2
   17364:	0789                	addi	a5,a5,2
   17366:	00d33423          	sd	a3,8(t1)
   1736a:	10e12c23          	sw	a4,280(sp)
   1736e:	0007069b          	sext.w	a3,a4
   17372:	f23e                	sd	a5,288(sp)
   17374:	471d                	li	a4,7
   17376:	0341                	addi	t1,t1,16
   17378:	28d740e3          	blt	a4,a3,17df8 <_svfprintf_r+0xc66>
   1737c:	08000713          	li	a4,128
   17380:	08ef86e3          	beq	t6,a4,17c0c <_svfprintf_r+0xa7a>
   17384:	418e8ebb          	subw	t4,t4,s8
   17388:	11d04ae3          	bgtz	t4,17c9c <_svfprintf_r+0xb0a>
   1738c:	1004f713          	andi	a4,s1,256
   17390:	76071e63          	bnez	a4,17b0c <_svfprintf_r+0x97a>
   17394:	11812703          	lw	a4,280(sp)
   17398:	97e2                	add	a5,a5,s8
   1739a:	01933023          	sd	s9,0(t1)
   1739e:	0017069b          	addiw	a3,a4,1
   173a2:	8736                	mv	a4,a3
   173a4:	01833423          	sd	s8,8(t1)
   173a8:	10e12c23          	sw	a4,280(sp)
   173ac:	f23e                	sd	a5,288(sp)
   173ae:	471d                	li	a4,7
   173b0:	48d74063          	blt	a4,a3,17830 <_svfprintf_r+0x69e>
   173b4:	0341                	addi	t1,t1,16
   173b6:	8891                	andi	s1,s1,4
   173b8:	c489                	beqz	s1,173c2 <_svfprintf_r+0x230>
   173ba:	413b04bb          	subw	s1,s6,s3
   173be:	24904be3          	bgtz	s1,17e14 <_svfprintf_r+0xc82>
   173c2:	875a                	mv	a4,s6
   173c4:	013b5363          	bge	s6,s3,173ca <_svfprintf_r+0x238>
   173c8:	874e                	mv	a4,s3
   173ca:	6682                	ld	a3,0(sp)
   173cc:	9f35                	addw	a4,a4,a3
   173ce:	e03a                	sd	a4,0(sp)
   173d0:	140793e3          	bnez	a5,17d16 <_svfprintf_r+0xb84>
   173d4:	67c2                	ld	a5,16(sp)
   173d6:	10012c23          	sw	zero,280(sp)
   173da:	c789                	beqz	a5,173e4 <_svfprintf_r+0x252>
   173dc:	65c2                	ld	a1,16(sp)
   173de:	8552                	mv	a0,s4
   173e0:	85bfb0ef          	jal	ra,12c3a <_free_r>
   173e4:	835e                	mv	t1,s7
   173e6:	8ca2                	mv	s9,s0
   173e8:	000cc783          	lbu	a5,0(s9)
   173ec:	e2079ee3          	bnez	a5,17228 <_svfprintf_r+0x96>
   173f0:	7792                	ld	a5,288(sp)
   173f2:	c399                	beqz	a5,173f8 <_svfprintf_r+0x266>
   173f4:	2f00106f          	j	186e4 <_svfprintf_r+0x1552>
   173f8:	010ad783          	lhu	a5,16(s5)
   173fc:	0407f793          	andi	a5,a5,64
   17400:	c399                	beqz	a5,17406 <_svfprintf_r+0x274>
   17402:	7840106f          	j	18b86 <_svfprintf_r+0x19f4>
   17406:	27813083          	ld	ra,632(sp)
   1740a:	27013403          	ld	s0,624(sp)
   1740e:	6502                	ld	a0,0(sp)
   17410:	26813483          	ld	s1,616(sp)
   17414:	26013903          	ld	s2,608(sp)
   17418:	25813983          	ld	s3,600(sp)
   1741c:	25013a03          	ld	s4,592(sp)
   17420:	24813a83          	ld	s5,584(sp)
   17424:	24013b03          	ld	s6,576(sp)
   17428:	23813b83          	ld	s7,568(sp)
   1742c:	23013c03          	ld	s8,560(sp)
   17430:	22813c83          	ld	s9,552(sp)
   17434:	22013d03          	ld	s10,544(sp)
   17438:	21813d83          	ld	s11,536(sp)
   1743c:	28010113          	addi	sp,sp,640
   17440:	8082                	ret
   17442:	0104e493          	ori	s1,s1,16
   17446:	00044f03          	lbu	t5,0(s0)
   1744a:	2481                	sext.w	s1,s1
   1744c:	bd3d                	j	1728a <_svfprintf_r+0xf8>
   1744e:	0104e493          	ori	s1,s1,16
   17452:	2481                	sext.w	s1,s1
   17454:	66e2                	ld	a3,24(sp)
   17456:	0204f793          	andi	a5,s1,32
   1745a:	00868713          	addi	a4,a3,8
   1745e:	40078263          	beqz	a5,17862 <_svfprintf_r+0x6d0>
   17462:	629c                	ld	a5,0(a3)
   17464:	89be                	mv	s3,a5
   17466:	4007cc63          	bltz	a5,1787e <_svfprintf_r+0x6ec>
   1746a:	57fd                	li	a5,-1
   1746c:	44fe89e3          	beq	t4,a5,180be <_svfprintf_r+0xf2c>
   17470:	f7f4f493          	andi	s1,s1,-129
   17474:	ec3a                	sd	a4,24(sp)
   17476:	0004881b          	sext.w	a6,s1
   1747a:	0c0992e3          	bnez	s3,17d3e <_svfprintf_r+0xbac>
   1747e:	0c0e93e3          	bnez	t4,17d44 <_svfprintf_r+0xbb2>
   17482:	84c2                	mv	s1,a6
   17484:	4e81                	li	t4,0
   17486:	4c01                	li	s8,0
   17488:	18c10c93          	addi	s9,sp,396
   1748c:	000c099b          	sext.w	s3,s8
   17490:	01dc5463          	bge	s8,t4,17498 <_svfprintf_r+0x306>
   17494:	000e899b          	sext.w	s3,t4
   17498:	0df14783          	lbu	a5,223(sp)
   1749c:	e802                	sd	zero,16(sp)
   1749e:	e882                	sd	zero,80(sp)
   174a0:	f082                	sd	zero,96(sp)
   174a2:	ec82                	sd	zero,88(sp)
   174a4:	e60781e3          	beqz	a5,17306 <_svfprintf_r+0x174>
   174a8:	2985                	addiw	s3,s3,1
   174aa:	bdb1                	j	17306 <_svfprintf_r+0x174>
   174ac:	0104e493          	ori	s1,s1,16
   174b0:	2481                	sext.w	s1,s1
   174b2:	66e2                	ld	a3,24(sp)
   174b4:	0204f793          	andi	a5,s1,32
   174b8:	00868713          	addi	a4,a3,8
   174bc:	38078463          	beqz	a5,17844 <_svfprintf_r+0x6b2>
   174c0:	0006b983          	ld	s3,0(a3)
   174c4:	bff4f493          	andi	s1,s1,-1025
   174c8:	0004881b          	sext.w	a6,s1
   174cc:	ec3a                	sd	a4,24(sp)
   174ce:	4781                	li	a5,0
   174d0:	0c010fa3          	sb	zero,223(sp)
   174d4:	577d                	li	a4,-1
   174d6:	3cee8063          	beq	t4,a4,17896 <_svfprintf_r+0x704>
   174da:	f7f87493          	andi	s1,a6,-129
   174de:	2481                	sext.w	s1,s1
   174e0:	04099be3          	bnez	s3,17d36 <_svfprintf_r+0xba4>
   174e4:	6e0e9763          	bnez	t4,17bd2 <_svfprintf_r+0xa40>
   174e8:	ffd1                	bnez	a5,17484 <_svfprintf_r+0x2f2>
   174ea:	00187c13          	andi	s8,a6,1
   174ee:	18c10c93          	addi	s9,sp,396
   174f2:	f80c0de3          	beqz	s8,1748c <_svfprintf_r+0x2fa>
   174f6:	03000793          	li	a5,48
   174fa:	18f105a3          	sb	a5,395(sp)
   174fe:	18b10c93          	addi	s9,sp,395
   17502:	b769                	j	1748c <_svfprintf_r+0x2fa>
   17504:	419404bb          	subw	s1,s0,s9
   17508:	d2049de3          	bnez	s1,17242 <_svfprintf_r+0xb0>
   1750c:	00044783          	lbu	a5,0(s0)
   17510:	b385                	j	17270 <_svfprintf_r+0xde>
   17512:	0a10                	addi	a2,sp,272
   17514:	85d6                	mv	a1,s5
   17516:	8552                	mv	a0,s4
   17518:	2bd020ef          	jal	ra,19fd4 <__ssprint_r>
   1751c:	ec051ee3          	bnez	a0,173f8 <_svfprintf_r+0x266>
   17520:	835e                	mv	t1,s7
   17522:	b391                	j	17266 <_svfprintf_r+0xd4>
   17524:	0084f793          	andi	a5,s1,8
   17528:	36079be3          	bnez	a5,1809e <_svfprintf_r+0xf0c>
   1752c:	67e2                	ld	a5,24(sp)
   1752e:	e81a                	sd	t1,16(sp)
   17530:	e476                	sd	t4,8(sp)
   17532:	2388                	fld	fa0,0(a5)
   17534:	00878693          	addi	a3,a5,8
   17538:	ec36                	sd	a3,24(sp)
   1753a:	431040ef          	jal	ra,1c16a <__extenddftf2>
   1753e:	6342                	ld	t1,16(sp)
   17540:	6ea2                	ld	t4,8(sp)
   17542:	e22a                	sd	a0,256(sp)
   17544:	e62e                	sd	a1,264(sp)
   17546:	0208                	addi	a0,sp,256
   17548:	e81a                	sd	t1,16(sp)
   1754a:	e476                	sd	t4,8(sp)
   1754c:	de9fd0ef          	jal	ra,15334 <_ldcheck>
   17550:	d5aa                	sw	a0,232(sp)
   17552:	4789                	li	a5,2
   17554:	6ea2                	ld	t4,8(sp)
   17556:	6342                	ld	t1,16(sp)
   17558:	76f503e3          	beq	a0,a5,184be <_svfprintf_r+0x132c>
   1755c:	4785                	li	a5,1
   1755e:	00f51463          	bne	a0,a5,17566 <_svfprintf_r+0x3d4>
   17562:	0b40106f          	j	18616 <_svfprintf_r+0x1484>
   17566:	06100793          	li	a5,97
   1756a:	00fd9463          	bne	s11,a5,17572 <_svfprintf_r+0x3e0>
   1756e:	5c40106f          	j	18b32 <_svfprintf_r+0x19a0>
   17572:	04100793          	li	a5,65
   17576:	00fd9463          	bne	s11,a5,1757e <_svfprintf_r+0x3ec>
   1757a:	38c0106f          	j	18906 <_svfprintf_r+0x1774>
   1757e:	fdfdf713          	andi	a4,s11,-33
   17582:	57fd                	li	a5,-1
   17584:	f0ba                	sd	a4,96(sp)
   17586:	00fe9463          	bne	t4,a5,1758e <_svfprintf_r+0x3fc>
   1758a:	1940106f          	j	1871e <_svfprintf_r+0x158c>
   1758e:	04700793          	li	a5,71
   17592:	00f71463          	bne	a4,a5,1759a <_svfprintf_r+0x408>
   17596:	5f80106f          	j	18b8e <_svfprintf_r+0x19fc>
   1759a:	69b2                	ld	s3,264(sp)
   1759c:	1004e793          	ori	a5,s1,256
   175a0:	ed26                	sd	s1,152(sp)
   175a2:	6c12                	ld	s8,256(sp)
   175a4:	2781                	sext.w	a5,a5
   175a6:	0009d463          	bgez	s3,175ae <_svfprintf_r+0x41c>
   175aa:	6520106f          	j	18bfc <_svfprintf_r+0x1a6a>
   175ae:	e582                	sd	zero,200(sp)
   175b0:	84be                	mv	s1,a5
   175b2:	e802                	sd	zero,16(sp)
   175b4:	2701                	sext.w	a4,a4
   175b6:	04600793          	li	a5,70
   175ba:	00f71463          	bne	a4,a5,175c2 <_svfprintf_r+0x430>
   175be:	2580106f          	j	18816 <_svfprintf_r+0x1684>
   175c2:	7706                	ld	a4,96(sp)
   175c4:	04500793          	li	a5,69
   175c8:	00f70463          	beq	a4,a5,175d0 <_svfprintf_r+0x43e>
   175cc:	20a0106f          	j	187d6 <_svfprintf_r+0x1644>
   175d0:	001e871b          	addiw	a4,t4,1
   175d4:	0f810893          	addi	a7,sp,248
   175d8:	0ec10813          	addi	a6,sp,236
   175dc:	11bc                	addi	a5,sp,232
   175de:	4689                	li	a3,2
   175e0:	85e2                	mv	a1,s8
   175e2:	864e                	mv	a2,s3
   175e4:	8552                	mv	a0,s4
   175e6:	f81a                	sd	t1,48(sp)
   175e8:	f076                	sd	t4,32(sp)
   175ea:	e43a                	sd	a4,8(sp)
   175ec:	ed1fc0ef          	jal	ra,144bc <_ldtoa_r>
   175f0:	6722                	ld	a4,8(sp)
   175f2:	7e82                	ld	t4,32(sp)
   175f4:	7342                	ld	t1,48(sp)
   175f6:	8caa                	mv	s9,a0
   175f8:	00e508b3          	add	a7,a0,a4
   175fc:	4601                	li	a2,0
   175fe:	4681                	li	a3,0
   17600:	8562                	mv	a0,s8
   17602:	85ce                	mv	a1,s3
   17604:	f846                	sd	a7,48(sp)
   17606:	f01a                	sd	t1,32(sp)
   17608:	e476                	sd	t4,8(sp)
   1760a:	27d030ef          	jal	ra,1b086 <__eqtf2>
   1760e:	78c2                	ld	a7,48(sp)
   17610:	6ea2                	ld	t4,8(sp)
   17612:	7302                	ld	t1,32(sp)
   17614:	87c6                	mv	a5,a7
   17616:	cd11                	beqz	a0,17632 <_svfprintf_r+0x4a0>
   17618:	77ee                	ld	a5,248(sp)
   1761a:	0117fc63          	bgeu	a5,a7,17632 <_svfprintf_r+0x4a0>
   1761e:	03000693          	li	a3,48
   17622:	00178713          	addi	a4,a5,1
   17626:	fdba                	sd	a4,248(sp)
   17628:	00d78023          	sb	a3,0(a5)
   1762c:	77ee                	ld	a5,248(sp)
   1762e:	ff17eae3          	bltu	a5,a7,17622 <_svfprintf_r+0x490>
   17632:	419787bb          	subw	a5,a5,s9
   17636:	f03e                	sd	a5,32(sp)
   17638:	572e                	lw	a4,232(sp)
   1763a:	04700793          	li	a5,71
   1763e:	ecba                	sd	a4,88(sp)
   17640:	7706                	ld	a4,96(sp)
   17642:	00f71463          	bne	a4,a5,1764a <_svfprintf_r+0x4b8>
   17646:	0ec0106f          	j	18732 <_svfprintf_r+0x15a0>
   1764a:	7706                	ld	a4,96(sp)
   1764c:	04600793          	li	a5,70
   17650:	00f71463          	bne	a4,a5,17658 <_svfprintf_r+0x4c6>
   17654:	2980106f          	j	188ec <_svfprintf_r+0x175a>
   17658:	67e6                	ld	a5,88(sp)
   1765a:	7586                	ld	a1,96(sp)
   1765c:	04100613          	li	a2,65
   17660:	37fd                	addiw	a5,a5,-1
   17662:	d5be                	sw	a5,232(sp)
   17664:	0ffdf713          	andi	a4,s11,255
   17668:	4681                	li	a3,0
   1766a:	00c59663          	bne	a1,a2,17676 <_svfprintf_r+0x4e4>
   1766e:	273d                	addiw	a4,a4,15
   17670:	0ff77713          	andi	a4,a4,255
   17674:	4685                	li	a3,1
   17676:	0ee10823          	sb	a4,240(sp)
   1767a:	02b00713          	li	a4,43
   1767e:	0007d763          	bgez	a5,1768c <_svfprintf_r+0x4fa>
   17682:	6766                	ld	a4,88(sp)
   17684:	4785                	li	a5,1
   17686:	9f99                	subw	a5,a5,a4
   17688:	02d00713          	li	a4,45
   1768c:	0ee108a3          	sb	a4,241(sp)
   17690:	4725                	li	a4,9
   17692:	00f74463          	blt	a4,a5,1769a <_svfprintf_r+0x508>
   17696:	53c0106f          	j	18bd2 <_svfprintf_r+0x1a40>
   1769a:	0ff10513          	addi	a0,sp,255
   1769e:	85aa                	mv	a1,a0
   176a0:	46a9                	li	a3,10
   176a2:	06300e93          	li	t4,99
   176a6:	02d7e73b          	remw	a4,a5,a3
   176aa:	862e                	mv	a2,a1
   176ac:	88be                	mv	a7,a5
   176ae:	15fd                	addi	a1,a1,-1
   176b0:	0307071b          	addiw	a4,a4,48
   176b4:	fee60fa3          	sb	a4,-1(a2)
   176b8:	02d7c7bb          	divw	a5,a5,a3
   176bc:	ff1ec5e3          	blt	t4,a7,176a6 <_svfprintf_r+0x514>
   176c0:	0307879b          	addiw	a5,a5,48
   176c4:	0ff7f693          	andi	a3,a5,255
   176c8:	fed58fa3          	sb	a3,-1(a1)
   176cc:	ffe60793          	addi	a5,a2,-2
   176d0:	00a7e463          	bltu	a5,a0,176d8 <_svfprintf_r+0x546>
   176d4:	6880106f          	j	18d5c <_svfprintf_r+0x1bca>
   176d8:	0f210713          	addi	a4,sp,242
   176dc:	a019                	j	176e2 <_svfprintf_r+0x550>
   176de:	0007c683          	lbu	a3,0(a5)
   176e2:	00d70023          	sb	a3,0(a4)
   176e6:	0785                	addi	a5,a5,1
   176e8:	0705                	addi	a4,a4,1
   176ea:	fea79ae3          	bne	a5,a0,176de <_svfprintf_r+0x54c>
   176ee:	10110793          	addi	a5,sp,257
   176f2:	0f210713          	addi	a4,sp,242
   176f6:	8f91                	sub	a5,a5,a2
   176f8:	97ba                	add	a5,a5,a4
   176fa:	1998                	addi	a4,sp,240
   176fc:	9f99                	subw	a5,a5,a4
   176fe:	e13e                	sd	a5,128(sp)
   17700:	678a                	ld	a5,128(sp)
   17702:	7682                	ld	a3,32(sp)
   17704:	4705                	li	a4,1
   17706:	00f68c3b          	addw	s8,a3,a5
   1770a:	87e2                	mv	a5,s8
   1770c:	00d74463          	blt	a4,a3,17714 <_svfprintf_r+0x582>
   17710:	5e20106f          	j	18cf2 <_svfprintf_r+0x1b60>
   17714:	7746                	ld	a4,112(sp)
   17716:	00e78c3b          	addw	s8,a5,a4
   1771a:	67ea                	ld	a5,152(sp)
   1771c:	fffc4993          	not	s3,s8
   17720:	43f9d993          	srai	s3,s3,0x3f
   17724:	bff7f493          	andi	s1,a5,-1025
   17728:	2481                	sext.w	s1,s1
   1772a:	013c79b3          	and	s3,s8,s3
   1772e:	1004e493          	ori	s1,s1,256
   17732:	2981                	sext.w	s3,s3
   17734:	e882                	sd	zero,80(sp)
   17736:	f082                	sd	zero,96(sp)
   17738:	ec82                	sd	zero,88(sp)
   1773a:	67ae                	ld	a5,200(sp)
   1773c:	e399                	bnez	a5,17742 <_svfprintf_r+0x5b0>
   1773e:	04a0106f          	j	18788 <_svfprintf_r+0x15f6>
   17742:	02d00793          	li	a5,45
   17746:	0cf10fa3          	sb	a5,223(sp)
   1774a:	4e81                	li	t4,0
   1774c:	2985                	addiw	s3,s3,1
   1774e:	be65                	j	17306 <_svfprintf_r+0x174>
   17750:	0a10                	addi	a2,sp,272
   17752:	85d6                	mv	a1,s5
   17754:	8552                	mv	a0,s4
   17756:	fc76                	sd	t4,56(sp)
   17758:	f87e                	sd	t6,48(sp)
   1775a:	e416                	sd	t0,8(sp)
   1775c:	079020ef          	jal	ra,19fd4 <__ssprint_r>
   17760:	5c051263          	bnez	a0,17d24 <_svfprintf_r+0xb92>
   17764:	7792                	ld	a5,288(sp)
   17766:	7ee2                	ld	t4,56(sp)
   17768:	7fc2                	ld	t6,48(sp)
   1776a:	62a2                	ld	t0,8(sp)
   1776c:	835e                	mv	t1,s7
   1776e:	b6d5                	j	17352 <_svfprintf_r+0x1c0>
   17770:	11812603          	lw	a2,280(sp)
   17774:	00178d93          	addi	s11,a5,1
   17778:	7782                	ld	a5,32(sp)
   1777a:	0016071b          	addiw	a4,a2,1
   1777e:	4585                	li	a1,1
   17780:	01933023          	sd	s9,0(t1)
   17784:	86ba                	mv	a3,a4
   17786:	01030c13          	addi	s8,t1,16
   1778a:	02f5d7e3          	bge	a1,a5,17fb8 <_svfprintf_r+0xe26>
   1778e:	4605                	li	a2,1
   17790:	10d12c23          	sw	a3,280(sp)
   17794:	00c33423          	sd	a2,8(t1)
   17798:	f26e                	sd	s11,288(sp)
   1779a:	469d                	li	a3,7
   1779c:	0ae6c6e3          	blt	a3,a4,18048 <_svfprintf_r+0xeb6>
   177a0:	77c6                	ld	a5,112(sp)
   177a2:	0017069b          	addiw	a3,a4,1
   177a6:	7766                	ld	a4,120(sp)
   177a8:	9dbe                	add	s11,s11,a5
   177aa:	00fc3423          	sd	a5,8(s8)
   177ae:	00ec3023          	sd	a4,0(s8)
   177b2:	10d12c23          	sw	a3,280(sp)
   177b6:	0006871b          	sext.w	a4,a3
   177ba:	f26e                	sd	s11,288(sp)
   177bc:	469d                	li	a3,7
   177be:	0c41                	addi	s8,s8,16
   177c0:	0ae6c1e3          	blt	a3,a4,18062 <_svfprintf_r+0xed0>
   177c4:	6512                	ld	a0,256(sp)
   177c6:	65b2                	ld	a1,264(sp)
   177c8:	0017089b          	addiw	a7,a4,1
   177cc:	4601                	li	a2,0
   177ce:	4681                	li	a3,0
   177d0:	e446                	sd	a7,8(sp)
   177d2:	f83a                	sd	a4,48(sp)
   177d4:	0b3030ef          	jal	ra,1b086 <__eqtf2>
   177d8:	68a2                	ld	a7,8(sp)
   177da:	7782                	ld	a5,32(sp)
   177dc:	010c0313          	addi	t1,s8,16
   177e0:	0008861b          	sext.w	a2,a7
   177e4:	fff7869b          	addiw	a3,a5,-1
   177e8:	7e050963          	beqz	a0,17fda <_svfprintf_r+0xe48>
   177ec:	9db6                	add	s11,s11,a3
   177ee:	001c8813          	addi	a6,s9,1
   177f2:	00dc3423          	sd	a3,8(s8)
   177f6:	010c3023          	sd	a6,0(s8)
   177fa:	f26e                	sd	s11,288(sp)
   177fc:	11112c23          	sw	a7,280(sp)
   17800:	469d                	li	a3,7
   17802:	38c6c5e3          	blt	a3,a2,1838c <_svfprintf_r+0x11fa>
   17806:	7742                	ld	a4,48(sp)
   17808:	020c0693          	addi	a3,s8,32
   1780c:	8c1a                	mv	s8,t1
   1780e:	0027061b          	addiw	a2,a4,2
   17812:	8336                	mv	t1,a3
   17814:	668a                	ld	a3,128(sp)
   17816:	1998                	addi	a4,sp,240
   17818:	00ec3023          	sd	a4,0(s8)
   1781c:	01b687b3          	add	a5,a3,s11
   17820:	00dc3423          	sd	a3,8(s8)
   17824:	f23e                	sd	a5,288(sp)
   17826:	10c12c23          	sw	a2,280(sp)
   1782a:	471d                	li	a4,7
   1782c:	b8c755e3          	bge	a4,a2,173b6 <_svfprintf_r+0x224>
   17830:	0a10                	addi	a2,sp,272
   17832:	85d6                	mv	a1,s5
   17834:	8552                	mv	a0,s4
   17836:	79e020ef          	jal	ra,19fd4 <__ssprint_r>
   1783a:	4e051563          	bnez	a0,17d24 <_svfprintf_r+0xb92>
   1783e:	7792                	ld	a5,288(sp)
   17840:	835e                	mv	t1,s7
   17842:	be95                	j	173b6 <_svfprintf_r+0x224>
   17844:	0104f793          	andi	a5,s1,16
   17848:	060796e3          	bnez	a5,180b4 <_svfprintf_r+0xf22>
   1784c:	66e2                	ld	a3,24(sp)
   1784e:	0404f793          	andi	a5,s1,64
   17852:	0006a983          	lw	s3,0(a3)
   17856:	580780e3          	beqz	a5,185d6 <_svfprintf_r+0x1444>
   1785a:	19c2                	slli	s3,s3,0x30
   1785c:	0309d993          	srli	s3,s3,0x30
   17860:	b195                	j	174c4 <_svfprintf_r+0x332>
   17862:	0104f793          	andi	a5,s1,16
   17866:	020790e3          	bnez	a5,18086 <_svfprintf_r+0xef4>
   1786a:	0404f793          	andi	a5,s1,64
   1786e:	580785e3          	beqz	a5,185f8 <_svfprintf_r+0x1466>
   17872:	67e2                	ld	a5,24(sp)
   17874:	00079983          	lh	s3,0(a5)
   17878:	87ce                	mv	a5,s3
   1787a:	be07d8e3          	bgez	a5,1746a <_svfprintf_r+0x2d8>
   1787e:	02d00793          	li	a5,45
   17882:	0cf10fa3          	sb	a5,223(sp)
   17886:	ec3a                	sd	a4,24(sp)
   17888:	577d                	li	a4,-1
   1788a:	413009b3          	neg	s3,s3
   1788e:	8826                	mv	a6,s1
   17890:	4785                	li	a5,1
   17892:	c4ee94e3          	bne	t4,a4,174da <_svfprintf_r+0x348>
   17896:	4705                	li	a4,1
   17898:	4ae78363          	beq	a5,a4,17d3e <_svfprintf_r+0xbac>
   1789c:	4709                	li	a4,2
   1789e:	34e78363          	beq	a5,a4,17be4 <_svfprintf_r+0xa52>
   178a2:	18c10c13          	addi	s8,sp,396
   178a6:	8ce2                	mv	s9,s8
   178a8:	0079f793          	andi	a5,s3,7
   178ac:	03078793          	addi	a5,a5,48
   178b0:	fefc8fa3          	sb	a5,-1(s9)
   178b4:	0039d993          	srli	s3,s3,0x3
   178b8:	8766                	mv	a4,s9
   178ba:	1cfd                	addi	s9,s9,-1
   178bc:	fe0996e3          	bnez	s3,178a8 <_svfprintf_r+0x716>
   178c0:	00187693          	andi	a3,a6,1
   178c4:	34068063          	beqz	a3,17c04 <_svfprintf_r+0xa72>
   178c8:	03000693          	li	a3,48
   178cc:	32d78c63          	beq	a5,a3,17c04 <_svfprintf_r+0xa72>
   178d0:	1779                	addi	a4,a4,-2
   178d2:	fedc8fa3          	sb	a3,-1(s9)
   178d6:	40ec0c3b          	subw	s8,s8,a4
   178da:	84c2                	mv	s1,a6
   178dc:	8cba                	mv	s9,a4
   178de:	b67d                	j	1748c <_svfprintf_r+0x2fa>
   178e0:	6762                	ld	a4,24(sp)
   178e2:	0c010fa3          	sb	zero,223(sp)
   178e6:	4985                	li	s3,1
   178e8:	431c                	lw	a5,0(a4)
   178ea:	0721                	addi	a4,a4,8
   178ec:	ec3a                	sd	a4,24(sp)
   178ee:	12f10423          	sb	a5,296(sp)
   178f2:	4c05                	li	s8,1
   178f4:	12810c93          	addi	s9,sp,296
   178f8:	b411                	j	172fc <_svfprintf_r+0x16a>
   178fa:	67e2                	ld	a5,24(sp)
   178fc:	0c010fa3          	sb	zero,223(sp)
   17900:	0007bc83          	ld	s9,0(a5)
   17904:	00878693          	addi	a3,a5,8
   17908:	100c81e3          	beqz	s9,1820a <_svfprintf_r+0x1078>
   1790c:	57fd                	li	a5,-1
   1790e:	46fe82e3          	beq	t4,a5,18572 <_svfprintf_r+0x13e0>
   17912:	8676                	mv	a2,t4
   17914:	4581                	li	a1,0
   17916:	8566                	mv	a0,s9
   17918:	f836                	sd	a3,48(sp)
   1791a:	ec1a                	sd	t1,24(sp)
   1791c:	e476                	sd	t4,8(sp)
   1791e:	a70fe0ef          	jal	ra,15b8e <memchr>
   17922:	e82a                	sd	a0,16(sp)
   17924:	6ea2                	ld	t4,8(sp)
   17926:	6362                	ld	t1,24(sp)
   17928:	76c2                	ld	a3,48(sp)
   1792a:	e119                	bnez	a0,17930 <_svfprintf_r+0x79e>
   1792c:	75b0006f          	j	18886 <_svfprintf_r+0x16f4>
   17930:	67c2                	ld	a5,16(sp)
   17932:	ec36                	sd	a3,24(sp)
   17934:	e802                	sd	zero,16(sp)
   17936:	41978c3b          	subw	s8,a5,s9
   1793a:	fffc4993          	not	s3,s8
   1793e:	0df14783          	lbu	a5,223(sp)
   17942:	43f9d993          	srai	s3,s3,0x3f
   17946:	013c79b3          	and	s3,s8,s3
   1794a:	e882                	sd	zero,80(sp)
   1794c:	f082                	sd	zero,96(sp)
   1794e:	ec82                	sd	zero,88(sp)
   17950:	2981                	sext.w	s3,s3
   17952:	4e81                	li	t4,0
   17954:	b4079ae3          	bnez	a5,174a8 <_svfprintf_r+0x316>
   17958:	b27d                	j	17306 <_svfprintf_r+0x174>
   1795a:	00044f03          	lbu	t5,0(s0)
   1795e:	0044e493          	ori	s1,s1,4
   17962:	2481                	sext.w	s1,s1
   17964:	b21d                	j	1728a <_svfprintf_r+0xf8>
   17966:	0084e493          	ori	s1,s1,8
   1796a:	00044f03          	lbu	t5,0(s0)
   1796e:	2481                	sext.w	s1,s1
   17970:	ba29                	j	1728a <_svfprintf_r+0xf8>
   17972:	02b00793          	li	a5,43
   17976:	00044f03          	lbu	t5,0(s0)
   1797a:	0cf10fa3          	sb	a5,223(sp)
   1797e:	b231                	j	1728a <_svfprintf_r+0xf8>
   17980:	0804e493          	ori	s1,s1,128
   17984:	00044f03          	lbu	t5,0(s0)
   17988:	2481                	sext.w	s1,s1
   1798a:	b201                	j	1728a <_svfprintf_r+0xf8>
   1798c:	00044703          	lbu	a4,0(s0)
   17990:	00140793          	addi	a5,s0,1
   17994:	00070d9b          	sext.w	s11,a4
   17998:	00ec1463          	bne	s8,a4,179a0 <_svfprintf_r+0x80e>
   1799c:	3960106f          	j	18d32 <_svfprintf_r+0x1ba0>
   179a0:	fd07071b          	addiw	a4,a4,-48
   179a4:	843e                	mv	s0,a5
   179a6:	4e81                	li	t4,0
   179a8:	8ee9e6e3          	bltu	s3,a4,17294 <_svfprintf_r+0x102>
   179ac:	00044d83          	lbu	s11,0(s0)
   179b0:	002e979b          	slliw	a5,t4,0x2
   179b4:	01d78ebb          	addw	t4,a5,t4
   179b8:	001e9e9b          	slliw	t4,t4,0x1
   179bc:	00ee8ebb          	addw	t4,t4,a4
   179c0:	fd0d871b          	addiw	a4,s11,-48
   179c4:	0405                	addi	s0,s0,1
   179c6:	fee9f3e3          	bgeu	s3,a4,179ac <_svfprintf_r+0x81a>
   179ca:	b0e9                	j	17294 <_svfprintf_r+0x102>
   179cc:	67e2                	ld	a5,24(sp)
   179ce:	00044f03          	lbu	t5,0(s0)
   179d2:	0007ab03          	lw	s6,0(a5)
   179d6:	07a1                	addi	a5,a5,8
   179d8:	ec3e                	sd	a5,24(sp)
   179da:	8a0b58e3          	bgez	s6,1728a <_svfprintf_r+0xf8>
   179de:	41600b3b          	negw	s6,s6
   179e2:	bfb5                	j	1795e <_svfprintf_r+0x7cc>
   179e4:	8552                	mv	a0,s4
   179e6:	e81a                	sd	t1,16(sp)
   179e8:	e476                	sd	t4,8(sp)
   179ea:	987fd0ef          	jal	ra,15370 <_localeconv_r>
   179ee:	651c                	ld	a5,8(a0)
   179f0:	853e                	mv	a0,a5
   179f2:	e93e                	sd	a5,144(sp)
   179f4:	dddf80ef          	jal	ra,107d0 <strlen>
   179f8:	87aa                	mv	a5,a0
   179fa:	8552                	mv	a0,s4
   179fc:	8dbe                	mv	s11,a5
   179fe:	e53e                	sd	a5,136(sp)
   17a00:	971fd0ef          	jal	ra,15370 <_localeconv_r>
   17a04:	6918                	ld	a4,16(a0)
   17a06:	6ea2                	ld	t4,8(sp)
   17a08:	6342                	ld	t1,16(sp)
   17a0a:	f4ba                	sd	a4,104(sp)
   17a0c:	00044f03          	lbu	t5,0(s0)
   17a10:	860d8de3          	beqz	s11,1728a <_svfprintf_r+0xf8>
   17a14:	86070be3          	beqz	a4,1728a <_svfprintf_r+0xf8>
   17a18:	00074783          	lbu	a5,0(a4)
   17a1c:	860787e3          	beqz	a5,1728a <_svfprintf_r+0xf8>
   17a20:	4004e493          	ori	s1,s1,1024
   17a24:	2481                	sext.w	s1,s1
   17a26:	b095                	j	1728a <_svfprintf_r+0xf8>
   17a28:	0014e493          	ori	s1,s1,1
   17a2c:	00044f03          	lbu	t5,0(s0)
   17a30:	2481                	sext.w	s1,s1
   17a32:	b8a1                	j	1728a <_svfprintf_r+0xf8>
   17a34:	0df14783          	lbu	a5,223(sp)
   17a38:	00044f03          	lbu	t5,0(s0)
   17a3c:	840797e3          	bnez	a5,1728a <_svfprintf_r+0xf8>
   17a40:	02000793          	li	a5,32
   17a44:	0cf10fa3          	sb	a5,223(sp)
   17a48:	b089                	j	1728a <_svfprintf_r+0xf8>
   17a4a:	0104e493          	ori	s1,s1,16
   17a4e:	0004881b          	sext.w	a6,s1
   17a52:	66e2                	ld	a3,24(sp)
   17a54:	02087793          	andi	a5,a6,32
   17a58:	00868713          	addi	a4,a3,8
   17a5c:	5c078563          	beqz	a5,18026 <_svfprintf_r+0xe94>
   17a60:	0006b983          	ld	s3,0(a3)
   17a64:	4785                	li	a5,1
   17a66:	ec3a                	sd	a4,24(sp)
   17a68:	b4a5                	j	174d0 <_svfprintf_r+0x33e>
   17a6a:	0204e493          	ori	s1,s1,32
   17a6e:	00044f03          	lbu	t5,0(s0)
   17a72:	2481                	sext.w	s1,s1
   17a74:	817ff06f          	j	1728a <_svfprintf_r+0xf8>
   17a78:	6762                	ld	a4,24(sp)
   17a7a:	77e1                	lui	a5,0xffff8
   17a7c:	8307c793          	xori	a5,a5,-2000
   17a80:	0ef11023          	sh	a5,224(sp)
   17a84:	00870793          	addi	a5,a4,8
   17a88:	0024e493          	ori	s1,s1,2
   17a8c:	ec3e                	sd	a5,24(sp)
   17a8e:	00005797          	auipc	a5,0x5
   17a92:	afa78793          	addi	a5,a5,-1286 # 1c588 <__clzdi2+0x12c>
   17a96:	f43e                	sd	a5,40(sp)
   17a98:	00073983          	ld	s3,0(a4)
   17a9c:	0004881b          	sext.w	a6,s1
   17aa0:	4789                	li	a5,2
   17aa2:	07800d93          	li	s11,120
   17aa6:	b42d                	j	174d0 <_svfprintf_r+0x33e>
   17aa8:	66e2                	ld	a3,24(sp)
   17aaa:	0204f793          	andi	a5,s1,32
   17aae:	6298                	ld	a4,0(a3)
   17ab0:	06a1                	addi	a3,a3,8
   17ab2:	ec36                	sd	a3,24(sp)
   17ab4:	e395                	bnez	a5,17ad8 <_svfprintf_r+0x946>
   17ab6:	0104f793          	andi	a5,s1,16
   17aba:	ef99                	bnez	a5,17ad8 <_svfprintf_r+0x946>
   17abc:	0404f793          	andi	a5,s1,64
   17ac0:	3e0796e3          	bnez	a5,186ac <_svfprintf_r+0x151a>
   17ac4:	2004f493          	andi	s1,s1,512
   17ac8:	6782                	ld	a5,0(sp)
   17aca:	e099                	bnez	s1,17ad0 <_svfprintf_r+0x93e>
   17acc:	0b20106f          	j	18b7e <_svfprintf_r+0x19ec>
   17ad0:	00f70023          	sb	a5,0(a4)
   17ad4:	8ca2                	mv	s9,s0
   17ad6:	ba09                	j	173e8 <_svfprintf_r+0x256>
   17ad8:	6782                	ld	a5,0(sp)
   17ada:	8ca2                	mv	s9,s0
   17adc:	e31c                	sd	a5,0(a4)
   17ade:	b229                	j	173e8 <_svfprintf_r+0x256>
   17ae0:	00044f03          	lbu	t5,0(s0)
   17ae4:	06c00793          	li	a5,108
   17ae8:	6cff0863          	beq	t5,a5,181b8 <_svfprintf_r+0x1026>
   17aec:	0104e493          	ori	s1,s1,16
   17af0:	2481                	sext.w	s1,s1
   17af2:	f98ff06f          	j	1728a <_svfprintf_r+0xf8>
   17af6:	00044f03          	lbu	t5,0(s0)
   17afa:	06800793          	li	a5,104
   17afe:	6aff0563          	beq	t5,a5,181a8 <_svfprintf_r+0x1016>
   17b02:	0404e493          	ori	s1,s1,64
   17b06:	2481                	sext.w	s1,s1
   17b08:	f82ff06f          	j	1728a <_svfprintf_r+0xf8>
   17b0c:	06500713          	li	a4,101
   17b10:	c7b750e3          	bge	a4,s11,17770 <_svfprintf_r+0x5de>
   17b14:	6512                	ld	a0,256(sp)
   17b16:	65b2                	ld	a1,264(sp)
   17b18:	4601                	li	a2,0
   17b1a:	4681                	li	a3,0
   17b1c:	f83e                	sd	a5,48(sp)
   17b1e:	e41a                	sd	t1,8(sp)
   17b20:	566030ef          	jal	ra,1b086 <__eqtf2>
   17b24:	6322                	ld	t1,8(sp)
   17b26:	77c2                	ld	a5,48(sp)
   17b28:	36051663          	bnez	a0,17e94 <_svfprintf_r+0xd02>
   17b2c:	11812703          	lw	a4,280(sp)
   17b30:	00005697          	auipc	a3,0x5
   17b34:	a7868693          	addi	a3,a3,-1416 # 1c5a8 <__clzdi2+0x14c>
   17b38:	00d33023          	sd	a3,0(t1)
   17b3c:	2705                	addiw	a4,a4,1
   17b3e:	4685                	li	a3,1
   17b40:	0785                	addi	a5,a5,1
   17b42:	00d33423          	sd	a3,8(t1)
   17b46:	10e12c23          	sw	a4,280(sp)
   17b4a:	0007069b          	sext.w	a3,a4
   17b4e:	f23e                	sd	a5,288(sp)
   17b50:	471d                	li	a4,7
   17b52:	0341                	addi	t1,t1,16
   17b54:	12d741e3          	blt	a4,a3,18476 <_svfprintf_r+0x12e4>
   17b58:	572e                	lw	a4,232(sp)
   17b5a:	7682                	ld	a3,32(sp)
   17b5c:	52d75063          	bge	a4,a3,1807c <_svfprintf_r+0xeea>
   17b60:	7766                	ld	a4,120(sp)
   17b62:	76c6                	ld	a3,112(sp)
   17b64:	0341                	addi	t1,t1,16
   17b66:	fee33823          	sd	a4,-16(t1)
   17b6a:	11812703          	lw	a4,280(sp)
   17b6e:	97b6                	add	a5,a5,a3
   17b70:	fed33c23          	sd	a3,-8(t1)
   17b74:	2705                	addiw	a4,a4,1
   17b76:	0007069b          	sext.w	a3,a4
   17b7a:	10e12c23          	sw	a4,280(sp)
   17b7e:	f23e                	sd	a5,288(sp)
   17b80:	471d                	li	a4,7
   17b82:	64d74963          	blt	a4,a3,181d4 <_svfprintf_r+0x1042>
   17b86:	7702                	ld	a4,32(sp)
   17b88:	fff70c1b          	addiw	s8,a4,-1
   17b8c:	838055e3          	blez	s8,173b6 <_svfprintf_r+0x224>
   17b90:	11812703          	lw	a4,280(sp)
   17b94:	0f8d5ce3          	bge	s10,s8,1848c <_svfprintf_r+0x12fa>
   17b98:	4c9d                	li	s9,7
   17b9a:	a021                	j	17ba2 <_svfprintf_r+0xa10>
   17b9c:	3c41                	addiw	s8,s8,-16
   17b9e:	0f8d57e3          	bge	s10,s8,1848c <_svfprintf_r+0x12fa>
   17ba2:	2705                	addiw	a4,a4,1
   17ba4:	07c1                	addi	a5,a5,16
   17ba6:	01233023          	sd	s2,0(t1)
   17baa:	01a33423          	sd	s10,8(t1)
   17bae:	f23e                	sd	a5,288(sp)
   17bb0:	10e12c23          	sw	a4,280(sp)
   17bb4:	0341                	addi	t1,t1,16
   17bb6:	feecd3e3          	bge	s9,a4,17b9c <_svfprintf_r+0xa0a>
   17bba:	0a10                	addi	a2,sp,272
   17bbc:	85d6                	mv	a1,s5
   17bbe:	8552                	mv	a0,s4
   17bc0:	414020ef          	jal	ra,19fd4 <__ssprint_r>
   17bc4:	16051063          	bnez	a0,17d24 <_svfprintf_r+0xb92>
   17bc8:	7792                	ld	a5,288(sp)
   17bca:	11812703          	lw	a4,280(sp)
   17bce:	835e                	mv	t1,s7
   17bd0:	b7f1                	j	17b9c <_svfprintf_r+0xa0a>
   17bd2:	4705                	li	a4,1
   17bd4:	00e79463          	bne	a5,a4,17bdc <_svfprintf_r+0xa4a>
   17bd8:	7550006f          	j	18b2c <_svfprintf_r+0x199a>
   17bdc:	4709                	li	a4,2
   17bde:	8826                	mv	a6,s1
   17be0:	cce791e3          	bne	a5,a4,178a2 <_svfprintf_r+0x710>
   17be4:	18c10c13          	addi	s8,sp,396
   17be8:	8ce2                	mv	s9,s8
   17bea:	7722                	ld	a4,40(sp)
   17bec:	00f9f793          	andi	a5,s3,15
   17bf0:	1cfd                	addi	s9,s9,-1
   17bf2:	97ba                	add	a5,a5,a4
   17bf4:	0007c783          	lbu	a5,0(a5)
   17bf8:	0049d993          	srli	s3,s3,0x4
   17bfc:	00fc8023          	sb	a5,0(s9)
   17c00:	fe0995e3          	bnez	s3,17bea <_svfprintf_r+0xa58>
   17c04:	419c0c3b          	subw	s8,s8,s9
   17c08:	84c2                	mv	s1,a6
   17c0a:	b049                	j	1748c <_svfprintf_r+0x2fa>
   17c0c:	413b06bb          	subw	a3,s6,s3
   17c10:	f6d05a63          	blez	a3,17384 <_svfprintf_r+0x1f2>
   17c14:	11812703          	lw	a4,280(sp)
   17c18:	04dd5563          	bge	s10,a3,17c62 <_svfprintf_r+0xad0>
   17c1c:	489d                	li	a7,7
   17c1e:	a021                	j	17c26 <_svfprintf_r+0xa94>
   17c20:	36c1                	addiw	a3,a3,-16
   17c22:	04dd5063          	bge	s10,a3,17c62 <_svfprintf_r+0xad0>
   17c26:	2705                	addiw	a4,a4,1
   17c28:	07c1                	addi	a5,a5,16
   17c2a:	01233023          	sd	s2,0(t1)
   17c2e:	01a33423          	sd	s10,8(t1)
   17c32:	f23e                	sd	a5,288(sp)
   17c34:	10e12c23          	sw	a4,280(sp)
   17c38:	0341                	addi	t1,t1,16
   17c3a:	fee8d3e3          	bge	a7,a4,17c20 <_svfprintf_r+0xa8e>
   17c3e:	0a10                	addi	a2,sp,272
   17c40:	85d6                	mv	a1,s5
   17c42:	8552                	mv	a0,s4
   17c44:	f836                	sd	a3,48(sp)
   17c46:	e476                	sd	t4,8(sp)
   17c48:	38c020ef          	jal	ra,19fd4 <__ssprint_r>
   17c4c:	ed61                	bnez	a0,17d24 <_svfprintf_r+0xb92>
   17c4e:	76c2                	ld	a3,48(sp)
   17c50:	7792                	ld	a5,288(sp)
   17c52:	11812703          	lw	a4,280(sp)
   17c56:	36c1                	addiw	a3,a3,-16
   17c58:	6ea2                	ld	t4,8(sp)
   17c5a:	835e                	mv	t1,s7
   17c5c:	489d                	li	a7,7
   17c5e:	fcdd44e3          	blt	s10,a3,17c26 <_svfprintf_r+0xa94>
   17c62:	2705                	addiw	a4,a4,1
   17c64:	97b6                	add	a5,a5,a3
   17c66:	00d33423          	sd	a3,8(t1)
   17c6a:	01233023          	sd	s2,0(t1)
   17c6e:	0007069b          	sext.w	a3,a4
   17c72:	10e12c23          	sw	a4,280(sp)
   17c76:	f23e                	sd	a5,288(sp)
   17c78:	471d                	li	a4,7
   17c7a:	0341                	addi	t1,t1,16
   17c7c:	f0d75463          	bge	a4,a3,17384 <_svfprintf_r+0x1f2>
   17c80:	0a10                	addi	a2,sp,272
   17c82:	85d6                	mv	a1,s5
   17c84:	8552                	mv	a0,s4
   17c86:	e476                	sd	t4,8(sp)
   17c88:	34c020ef          	jal	ra,19fd4 <__ssprint_r>
   17c8c:	ed41                	bnez	a0,17d24 <_svfprintf_r+0xb92>
   17c8e:	6ea2                	ld	t4,8(sp)
   17c90:	7792                	ld	a5,288(sp)
   17c92:	835e                	mv	t1,s7
   17c94:	418e8ebb          	subw	t4,t4,s8
   17c98:	efd05a63          	blez	t4,1738c <_svfprintf_r+0x1fa>
   17c9c:	11812703          	lw	a4,280(sp)
   17ca0:	05dd5363          	bge	s10,t4,17ce6 <_svfprintf_r+0xb54>
   17ca4:	489d                	li	a7,7
   17ca6:	a021                	j	17cae <_svfprintf_r+0xb1c>
   17ca8:	3ec1                	addiw	t4,t4,-16
   17caa:	03dd5e63          	bge	s10,t4,17ce6 <_svfprintf_r+0xb54>
   17cae:	2705                	addiw	a4,a4,1
   17cb0:	07c1                	addi	a5,a5,16
   17cb2:	01233023          	sd	s2,0(t1)
   17cb6:	01a33423          	sd	s10,8(t1)
   17cba:	f23e                	sd	a5,288(sp)
   17cbc:	10e12c23          	sw	a4,280(sp)
   17cc0:	0341                	addi	t1,t1,16
   17cc2:	fee8d3e3          	bge	a7,a4,17ca8 <_svfprintf_r+0xb16>
   17cc6:	0a10                	addi	a2,sp,272
   17cc8:	85d6                	mv	a1,s5
   17cca:	8552                	mv	a0,s4
   17ccc:	e476                	sd	t4,8(sp)
   17cce:	306020ef          	jal	ra,19fd4 <__ssprint_r>
   17cd2:	e929                	bnez	a0,17d24 <_svfprintf_r+0xb92>
   17cd4:	6ea2                	ld	t4,8(sp)
   17cd6:	7792                	ld	a5,288(sp)
   17cd8:	11812703          	lw	a4,280(sp)
   17cdc:	3ec1                	addiw	t4,t4,-16
   17cde:	835e                	mv	t1,s7
   17ce0:	489d                	li	a7,7
   17ce2:	fddd46e3          	blt	s10,t4,17cae <_svfprintf_r+0xb1c>
   17ce6:	0017069b          	addiw	a3,a4,1
   17cea:	97f6                	add	a5,a5,t4
   17cec:	01233023          	sd	s2,0(t1)
   17cf0:	01d33423          	sd	t4,8(t1)
   17cf4:	f23e                	sd	a5,288(sp)
   17cf6:	10d12c23          	sw	a3,280(sp)
   17cfa:	471d                	li	a4,7
   17cfc:	0341                	addi	t1,t1,16
   17cfe:	e8d75763          	bge	a4,a3,1738c <_svfprintf_r+0x1fa>
   17d02:	0a10                	addi	a2,sp,272
   17d04:	85d6                	mv	a1,s5
   17d06:	8552                	mv	a0,s4
   17d08:	2cc020ef          	jal	ra,19fd4 <__ssprint_r>
   17d0c:	ed01                	bnez	a0,17d24 <_svfprintf_r+0xb92>
   17d0e:	7792                	ld	a5,288(sp)
   17d10:	835e                	mv	t1,s7
   17d12:	e7aff06f          	j	1738c <_svfprintf_r+0x1fa>
   17d16:	0a10                	addi	a2,sp,272
   17d18:	85d6                	mv	a1,s5
   17d1a:	8552                	mv	a0,s4
   17d1c:	2b8020ef          	jal	ra,19fd4 <__ssprint_r>
   17d20:	ea050a63          	beqz	a0,173d4 <_svfprintf_r+0x242>
   17d24:	67c2                	ld	a5,16(sp)
   17d26:	ec078963          	beqz	a5,173f8 <_svfprintf_r+0x266>
   17d2a:	65c2                	ld	a1,16(sp)
   17d2c:	8552                	mv	a0,s4
   17d2e:	f0dfa0ef          	jal	ra,12c3a <_free_r>
   17d32:	ec6ff06f          	j	173f8 <_svfprintf_r+0x266>
   17d36:	4705                	li	a4,1
   17d38:	8826                	mv	a6,s1
   17d3a:	b6e791e3          	bne	a5,a4,1789c <_svfprintf_r+0x70a>
   17d3e:	47a5                	li	a5,9
   17d40:	3937e463          	bltu	a5,s3,180c8 <_svfprintf_r+0xf36>
   17d44:	0309899b          	addiw	s3,s3,48
   17d48:	193105a3          	sb	s3,395(sp)
   17d4c:	84c2                	mv	s1,a6
   17d4e:	4c05                	li	s8,1
   17d50:	18b10c93          	addi	s9,sp,395
   17d54:	f38ff06f          	j	1748c <_svfprintf_r+0x2fa>
   17d58:	11812703          	lw	a4,280(sp)
   17d5c:	00005897          	auipc	a7,0x5
   17d60:	f6488893          	addi	a7,a7,-156 # 1ccc0 <blanks.4505>
   17d64:	439d                	li	t2,7
   17d66:	00dd4663          	blt	s10,a3,17d72 <_svfprintf_r+0xbe0>
   17d6a:	a881                	j	17dba <_svfprintf_r+0xc28>
   17d6c:	36c1                	addiw	a3,a3,-16
   17d6e:	04dd5663          	bge	s10,a3,17dba <_svfprintf_r+0xc28>
   17d72:	2705                	addiw	a4,a4,1
   17d74:	07c1                	addi	a5,a5,16
   17d76:	01133023          	sd	a7,0(t1)
   17d7a:	01a33423          	sd	s10,8(t1)
   17d7e:	f23e                	sd	a5,288(sp)
   17d80:	10e12c23          	sw	a4,280(sp)
   17d84:	0341                	addi	t1,t1,16
   17d86:	fee3d3e3          	bge	t2,a4,17d6c <_svfprintf_r+0xbda>
   17d8a:	0a10                	addi	a2,sp,272
   17d8c:	85d6                	mv	a1,s5
   17d8e:	8552                	mv	a0,s4
   17d90:	e4c6                	sd	a7,72(sp)
   17d92:	e0f6                	sd	t4,64(sp)
   17d94:	fc7e                	sd	t6,56(sp)
   17d96:	f816                	sd	t0,48(sp)
   17d98:	e436                	sd	a3,8(sp)
   17d9a:	23a020ef          	jal	ra,19fd4 <__ssprint_r>
   17d9e:	f159                	bnez	a0,17d24 <_svfprintf_r+0xb92>
   17da0:	66a2                	ld	a3,8(sp)
   17da2:	7792                	ld	a5,288(sp)
   17da4:	11812703          	lw	a4,280(sp)
   17da8:	36c1                	addiw	a3,a3,-16
   17daa:	68a6                	ld	a7,72(sp)
   17dac:	6e86                	ld	t4,64(sp)
   17dae:	7fe2                	ld	t6,56(sp)
   17db0:	72c2                	ld	t0,48(sp)
   17db2:	835e                	mv	t1,s7
   17db4:	439d                	li	t2,7
   17db6:	fadd4ee3          	blt	s10,a3,17d72 <_svfprintf_r+0xbe0>
   17dba:	2705                	addiw	a4,a4,1
   17dbc:	97b6                	add	a5,a5,a3
   17dbe:	00d33423          	sd	a3,8(t1)
   17dc2:	01133023          	sd	a7,0(t1)
   17dc6:	0007069b          	sext.w	a3,a4
   17dca:	10e12c23          	sw	a4,280(sp)
   17dce:	f23e                	sd	a5,288(sp)
   17dd0:	471d                	li	a4,7
   17dd2:	0341                	addi	t1,t1,16
   17dd4:	d4d75863          	bge	a4,a3,17324 <_svfprintf_r+0x192>
   17dd8:	0a10                	addi	a2,sp,272
   17dda:	85d6                	mv	a1,s5
   17ddc:	8552                	mv	a0,s4
   17dde:	fc76                	sd	t4,56(sp)
   17de0:	f87e                	sd	t6,48(sp)
   17de2:	e416                	sd	t0,8(sp)
   17de4:	1f0020ef          	jal	ra,19fd4 <__ssprint_r>
   17de8:	fd15                	bnez	a0,17d24 <_svfprintf_r+0xb92>
   17dea:	7792                	ld	a5,288(sp)
   17dec:	7ee2                	ld	t4,56(sp)
   17dee:	7fc2                	ld	t6,48(sp)
   17df0:	62a2                	ld	t0,8(sp)
   17df2:	835e                	mv	t1,s7
   17df4:	d30ff06f          	j	17324 <_svfprintf_r+0x192>
   17df8:	0a10                	addi	a2,sp,272
   17dfa:	85d6                	mv	a1,s5
   17dfc:	8552                	mv	a0,s4
   17dfe:	f876                	sd	t4,48(sp)
   17e00:	e47e                	sd	t6,8(sp)
   17e02:	1d2020ef          	jal	ra,19fd4 <__ssprint_r>
   17e06:	fd19                	bnez	a0,17d24 <_svfprintf_r+0xb92>
   17e08:	7792                	ld	a5,288(sp)
   17e0a:	7ec2                	ld	t4,48(sp)
   17e0c:	6fa2                	ld	t6,8(sp)
   17e0e:	835e                	mv	t1,s7
   17e10:	d6cff06f          	j	1737c <_svfprintf_r+0x1ea>
   17e14:	11812703          	lw	a4,280(sp)
   17e18:	00005897          	auipc	a7,0x5
   17e1c:	ea888893          	addi	a7,a7,-344 # 1ccc0 <blanks.4505>
   17e20:	4c1d                	li	s8,7
   17e22:	009d4663          	blt	s10,s1,17e2e <_svfprintf_r+0xc9c>
   17e26:	a081                	j	17e66 <_svfprintf_r+0xcd4>
   17e28:	34c1                	addiw	s1,s1,-16
   17e2a:	029d5e63          	bge	s10,s1,17e66 <_svfprintf_r+0xcd4>
   17e2e:	2705                	addiw	a4,a4,1
   17e30:	07c1                	addi	a5,a5,16
   17e32:	01133023          	sd	a7,0(t1)
   17e36:	01a33423          	sd	s10,8(t1)
   17e3a:	f23e                	sd	a5,288(sp)
   17e3c:	10e12c23          	sw	a4,280(sp)
   17e40:	0341                	addi	t1,t1,16
   17e42:	feec53e3          	bge	s8,a4,17e28 <_svfprintf_r+0xc96>
   17e46:	0a10                	addi	a2,sp,272
   17e48:	85d6                	mv	a1,s5
   17e4a:	8552                	mv	a0,s4
   17e4c:	e446                	sd	a7,8(sp)
   17e4e:	186020ef          	jal	ra,19fd4 <__ssprint_r>
   17e52:	ec0519e3          	bnez	a0,17d24 <_svfprintf_r+0xb92>
   17e56:	34c1                	addiw	s1,s1,-16
   17e58:	7792                	ld	a5,288(sp)
   17e5a:	11812703          	lw	a4,280(sp)
   17e5e:	68a2                	ld	a7,8(sp)
   17e60:	835e                	mv	t1,s7
   17e62:	fc9d46e3          	blt	s10,s1,17e2e <_svfprintf_r+0xc9c>
   17e66:	0017069b          	addiw	a3,a4,1
   17e6a:	97a6                	add	a5,a5,s1
   17e6c:	01133023          	sd	a7,0(t1)
   17e70:	00933423          	sd	s1,8(t1)
   17e74:	f23e                	sd	a5,288(sp)
   17e76:	10d12c23          	sw	a3,280(sp)
   17e7a:	471d                	li	a4,7
   17e7c:	d4d75363          	bge	a4,a3,173c2 <_svfprintf_r+0x230>
   17e80:	0a10                	addi	a2,sp,272
   17e82:	85d6                	mv	a1,s5
   17e84:	8552                	mv	a0,s4
   17e86:	14e020ef          	jal	ra,19fd4 <__ssprint_r>
   17e8a:	e8051de3          	bnez	a0,17d24 <_svfprintf_r+0xb92>
   17e8e:	7792                	ld	a5,288(sp)
   17e90:	d32ff06f          	j	173c2 <_svfprintf_r+0x230>
   17e94:	562e                	lw	a2,232(sp)
   17e96:	52c05563          	blez	a2,183c0 <_svfprintf_r+0x122e>
   17e9a:	6766                	ld	a4,88(sp)
   17e9c:	7682                	ld	a3,32(sp)
   17e9e:	00070c1b          	sext.w	s8,a4
   17ea2:	2ae6c863          	blt	a3,a4,18152 <_svfprintf_r+0xfc0>
   17ea6:	03805263          	blez	s8,17eca <_svfprintf_r+0xd38>
   17eaa:	11812703          	lw	a4,280(sp)
   17eae:	97e2                	add	a5,a5,s8
   17eb0:	01933023          	sd	s9,0(t1)
   17eb4:	0017069b          	addiw	a3,a4,1
   17eb8:	01833423          	sd	s8,8(t1)
   17ebc:	f23e                	sd	a5,288(sp)
   17ebe:	10d12c23          	sw	a3,280(sp)
   17ec2:	471d                	li	a4,7
   17ec4:	0341                	addi	t1,t1,16
   17ec6:	7ad74763          	blt	a4,a3,18674 <_svfprintf_r+0x14e2>
   17eca:	fffc4713          	not	a4,s8
   17ece:	977d                	srai	a4,a4,0x3f
   17ed0:	00ec7c33          	and	s8,s8,a4
   17ed4:	6766                	ld	a4,88(sp)
   17ed6:	41870c3b          	subw	s8,a4,s8
   17eda:	35804563          	bgtz	s8,18224 <_svfprintf_r+0x1092>
   17ede:	66e6                	ld	a3,88(sp)
   17ee0:	4004f713          	andi	a4,s1,1024
   17ee4:	00dc8db3          	add	s11,s9,a3
   17ee8:	36071f63          	bnez	a4,18266 <_svfprintf_r+0x10d4>
   17eec:	572e                	lw	a4,232(sp)
   17eee:	7682                	ld	a3,32(sp)
   17ef0:	00d74663          	blt	a4,a3,17efc <_svfprintf_r+0xd6a>
   17ef4:	0014f693          	andi	a3,s1,1
   17ef8:	78068b63          	beqz	a3,1868e <_svfprintf_r+0x14fc>
   17efc:	76e6                	ld	a3,120(sp)
   17efe:	7646                	ld	a2,112(sp)
   17f00:	0341                	addi	t1,t1,16
   17f02:	fed33823          	sd	a3,-16(t1)
   17f06:	11812683          	lw	a3,280(sp)
   17f0a:	97b2                	add	a5,a5,a2
   17f0c:	fec33c23          	sd	a2,-8(t1)
   17f10:	2685                	addiw	a3,a3,1
   17f12:	0006861b          	sext.w	a2,a3
   17f16:	10d12c23          	sw	a3,280(sp)
   17f1a:	f23e                	sd	a5,288(sp)
   17f1c:	469d                	li	a3,7
   17f1e:	0ac6c0e3          	blt	a3,a2,187be <_svfprintf_r+0x162c>
   17f22:	7682                	ld	a3,32(sp)
   17f24:	00dc8633          	add	a2,s9,a3
   17f28:	40e6873b          	subw	a4,a3,a4
   17f2c:	41b6063b          	subw	a2,a2,s11
   17f30:	0007069b          	sext.w	a3,a4
   17f34:	00d65363          	bge	a2,a3,17f3a <_svfprintf_r+0xda8>
   17f38:	8732                	mv	a4,a2
   17f3a:	00070c9b          	sext.w	s9,a4
   17f3e:	03905263          	blez	s9,17f62 <_svfprintf_r+0xdd0>
   17f42:	11812603          	lw	a2,280(sp)
   17f46:	97e6                	add	a5,a5,s9
   17f48:	01b33023          	sd	s11,0(t1)
   17f4c:	0016059b          	addiw	a1,a2,1
   17f50:	01933423          	sd	s9,8(t1)
   17f54:	f23e                	sd	a5,288(sp)
   17f56:	10b12c23          	sw	a1,280(sp)
   17f5a:	461d                	li	a2,7
   17f5c:	0341                	addi	t1,t1,16
   17f5e:	14b642e3          	blt	a2,a1,188a2 <_svfprintf_r+0x1710>
   17f62:	fffccc13          	not	s8,s9
   17f66:	43fc5c13          	srai	s8,s8,0x3f
   17f6a:	018cfc33          	and	s8,s9,s8
   17f6e:	41868c3b          	subw	s8,a3,s8
   17f72:	c5805263          	blez	s8,173b6 <_svfprintf_r+0x224>
   17f76:	11812703          	lw	a4,280(sp)
   17f7a:	518d5963          	bge	s10,s8,1848c <_svfprintf_r+0x12fa>
   17f7e:	4c9d                	li	s9,7
   17f80:	a021                	j	17f88 <_svfprintf_r+0xdf6>
   17f82:	3c41                	addiw	s8,s8,-16
   17f84:	518d5463          	bge	s10,s8,1848c <_svfprintf_r+0x12fa>
   17f88:	2705                	addiw	a4,a4,1
   17f8a:	07c1                	addi	a5,a5,16
   17f8c:	01233023          	sd	s2,0(t1)
   17f90:	01a33423          	sd	s10,8(t1)
   17f94:	f23e                	sd	a5,288(sp)
   17f96:	10e12c23          	sw	a4,280(sp)
   17f9a:	0341                	addi	t1,t1,16
   17f9c:	feecd3e3          	bge	s9,a4,17f82 <_svfprintf_r+0xdf0>
   17fa0:	0a10                	addi	a2,sp,272
   17fa2:	85d6                	mv	a1,s5
   17fa4:	8552                	mv	a0,s4
   17fa6:	02e020ef          	jal	ra,19fd4 <__ssprint_r>
   17faa:	d6051de3          	bnez	a0,17d24 <_svfprintf_r+0xb92>
   17fae:	7792                	ld	a5,288(sp)
   17fb0:	11812703          	lw	a4,280(sp)
   17fb4:	835e                	mv	t1,s7
   17fb6:	b7f1                	j	17f82 <_svfprintf_r+0xdf0>
   17fb8:	0014f513          	andi	a0,s1,1
   17fbc:	fc051963          	bnez	a0,1778e <_svfprintf_r+0x5fc>
   17fc0:	00b33423          	sd	a1,8(t1)
   17fc4:	f26e                	sd	s11,288(sp)
   17fc6:	10e12c23          	sw	a4,280(sp)
   17fca:	469d                	li	a3,7
   17fcc:	3ce6c063          	blt	a3,a4,1838c <_svfprintf_r+0x11fa>
   17fd0:	2609                	addiw	a2,a2,2
   17fd2:	02030313          	addi	t1,t1,32
   17fd6:	83fff06f          	j	17814 <_svfprintf_r+0x682>
   17fda:	82d05de3          	blez	a3,17814 <_svfprintf_r+0x682>
   17fde:	54dd58e3          	bge	s10,a3,18d2e <_svfprintf_r+0x1b9c>
   17fe2:	4c9d                	li	s9,7
   17fe4:	a031                	j	17ff0 <_svfprintf_r+0xe5e>
   17fe6:	36c1                	addiw	a3,a3,-16
   17fe8:	5cdd5263          	bge	s10,a3,185ac <_svfprintf_r+0x141a>
   17fec:	0017089b          	addiw	a7,a4,1
   17ff0:	0dc1                	addi	s11,s11,16
   17ff2:	012c3023          	sd	s2,0(s8)
   17ff6:	01ac3423          	sd	s10,8(s8)
   17ffa:	f26e                	sd	s11,288(sp)
   17ffc:	0008871b          	sext.w	a4,a7
   18000:	11112c23          	sw	a7,280(sp)
   18004:	0c41                	addi	s8,s8,16
   18006:	feecd0e3          	bge	s9,a4,17fe6 <_svfprintf_r+0xe54>
   1800a:	0a10                	addi	a2,sp,272
   1800c:	85d6                	mv	a1,s5
   1800e:	8552                	mv	a0,s4
   18010:	e436                	sd	a3,8(sp)
   18012:	7c3010ef          	jal	ra,19fd4 <__ssprint_r>
   18016:	d00517e3          	bnez	a0,17d24 <_svfprintf_r+0xb92>
   1801a:	7d92                	ld	s11,288(sp)
   1801c:	11812703          	lw	a4,280(sp)
   18020:	66a2                	ld	a3,8(sp)
   18022:	8c5e                	mv	s8,s7
   18024:	b7c9                	j	17fe6 <_svfprintf_r+0xe54>
   18026:	01087793          	andi	a5,a6,16
   1802a:	e3bd                	bnez	a5,18090 <_svfprintf_r+0xefe>
   1802c:	66e2                	ld	a3,24(sp)
   1802e:	04087793          	andi	a5,a6,64
   18032:	0006a983          	lw	s3,0(a3)
   18036:	5a078863          	beqz	a5,185e6 <_svfprintf_r+0x1454>
   1803a:	19c2                	slli	s3,s3,0x30
   1803c:	0309d993          	srli	s3,s3,0x30
   18040:	ec3a                	sd	a4,24(sp)
   18042:	4785                	li	a5,1
   18044:	c8cff06f          	j	174d0 <_svfprintf_r+0x33e>
   18048:	0a10                	addi	a2,sp,272
   1804a:	85d6                	mv	a1,s5
   1804c:	8552                	mv	a0,s4
   1804e:	787010ef          	jal	ra,19fd4 <__ssprint_r>
   18052:	cc0519e3          	bnez	a0,17d24 <_svfprintf_r+0xb92>
   18056:	7d92                	ld	s11,288(sp)
   18058:	11812703          	lw	a4,280(sp)
   1805c:	8c5e                	mv	s8,s7
   1805e:	f42ff06f          	j	177a0 <_svfprintf_r+0x60e>
   18062:	0a10                	addi	a2,sp,272
   18064:	85d6                	mv	a1,s5
   18066:	8552                	mv	a0,s4
   18068:	76d010ef          	jal	ra,19fd4 <__ssprint_r>
   1806c:	ca051ce3          	bnez	a0,17d24 <_svfprintf_r+0xb92>
   18070:	7d92                	ld	s11,288(sp)
   18072:	11812703          	lw	a4,280(sp)
   18076:	8c5e                	mv	s8,s7
   18078:	f4cff06f          	j	177c4 <_svfprintf_r+0x632>
   1807c:	0014f713          	andi	a4,s1,1
   18080:	b2070b63          	beqz	a4,173b6 <_svfprintf_r+0x224>
   18084:	bcf1                	j	17b60 <_svfprintf_r+0x9ce>
   18086:	67e2                	ld	a5,24(sp)
   18088:	639c                	ld	a5,0(a5)
   1808a:	89be                	mv	s3,a5
   1808c:	bdaff06f          	j	17466 <_svfprintf_r+0x2d4>
   18090:	67e2                	ld	a5,24(sp)
   18092:	ec3a                	sd	a4,24(sp)
   18094:	0007b983          	ld	s3,0(a5)
   18098:	4785                	li	a5,1
   1809a:	c36ff06f          	j	174d0 <_svfprintf_r+0x33e>
   1809e:	67e2                	ld	a5,24(sp)
   180a0:	07bd                	addi	a5,a5,15
   180a2:	9bc1                	andi	a5,a5,-16
   180a4:	6394                	ld	a3,0(a5)
   180a6:	6798                	ld	a4,8(a5)
   180a8:	07c1                	addi	a5,a5,16
   180aa:	ec3e                	sd	a5,24(sp)
   180ac:	e236                	sd	a3,256(sp)
   180ae:	e63a                	sd	a4,264(sp)
   180b0:	c96ff06f          	j	17546 <_svfprintf_r+0x3b4>
   180b4:	67e2                	ld	a5,24(sp)
   180b6:	0007b983          	ld	s3,0(a5)
   180ba:	c0aff06f          	j	174c4 <_svfprintf_r+0x332>
   180be:	ec3a                	sd	a4,24(sp)
   180c0:	47a5                	li	a5,9
   180c2:	8826                	mv	a6,s1
   180c4:	c937f0e3          	bgeu	a5,s3,17d44 <_svfprintf_r+0xbb2>
   180c8:	40087793          	andi	a5,a6,1024
   180cc:	18c10c13          	addi	s8,sp,396
   180d0:	2781                	sext.w	a5,a5
   180d2:	f002                	sd	zero,32(sp)
   180d4:	85e2                	mv	a1,s8
   180d6:	44a9                	li	s1,10
   180d8:	4725                	li	a4,9
   180da:	0ff00693          	li	a3,255
   180de:	a039                	j	180ec <_svfprintf_r+0xf5a>
   180e0:	0299d633          	divu	a2,s3,s1
   180e4:	b33770e3          	bgeu	a4,s3,17c04 <_svfprintf_r+0xa72>
   180e8:	89b2                	mv	s3,a2
   180ea:	85e6                	mv	a1,s9
   180ec:	7502                	ld	a0,32(sp)
   180ee:	fff58c93          	addi	s9,a1,-1
   180f2:	2505                	addiw	a0,a0,1
   180f4:	f02a                	sd	a0,32(sp)
   180f6:	0299f633          	remu	a2,s3,s1
   180fa:	0306061b          	addiw	a2,a2,48
   180fe:	fec58fa3          	sb	a2,-1(a1)
   18102:	dff9                	beqz	a5,180e0 <_svfprintf_r+0xf4e>
   18104:	7626                	ld	a2,104(sp)
   18106:	00064603          	lbu	a2,0(a2)
   1810a:	fcc51be3          	bne	a0,a2,180e0 <_svfprintf_r+0xf4e>
   1810e:	fcd609e3          	beq	a2,a3,180e0 <_svfprintf_r+0xf4e>
   18112:	af3779e3          	bgeu	a4,s3,17c04 <_svfprintf_r+0xa72>
   18116:	fc3e                	sd	a5,56(sp)
   18118:	67aa                	ld	a5,136(sp)
   1811a:	65ca                	ld	a1,144(sp)
   1811c:	f81a                	sd	t1,48(sp)
   1811e:	40fc8cb3          	sub	s9,s9,a5
   18122:	863e                	mv	a2,a5
   18124:	8566                	mv	a0,s9
   18126:	e876                	sd	t4,16(sp)
   18128:	e442                	sd	a6,8(sp)
   1812a:	feffe0ef          	jal	ra,17118 <strncpy>
   1812e:	77a6                	ld	a5,104(sp)
   18130:	0299d633          	divu	a2,s3,s1
   18134:	6822                	ld	a6,8(sp)
   18136:	0017c583          	lbu	a1,1(a5)
   1813a:	6ec2                	ld	t4,16(sp)
   1813c:	7342                	ld	t1,48(sp)
   1813e:	00b035b3          	snez	a1,a1
   18142:	97ae                	add	a5,a5,a1
   18144:	f4be                	sd	a5,104(sp)
   18146:	f002                	sd	zero,32(sp)
   18148:	77e2                	ld	a5,56(sp)
   1814a:	4725                	li	a4,9
   1814c:	0ff00693          	li	a3,255
   18150:	bf61                	j	180e8 <_svfprintf_r+0xf56>
   18152:	00068c1b          	sext.w	s8,a3
   18156:	d5804ae3          	bgtz	s8,17eaa <_svfprintf_r+0xd18>
   1815a:	bb85                	j	17eca <_svfprintf_r+0xd38>
   1815c:	8826                	mv	a6,s1
   1815e:	b8d5                	j	17a52 <_svfprintf_r+0x8c0>
   18160:	00004797          	auipc	a5,0x4
   18164:	42878793          	addi	a5,a5,1064 # 1c588 <__clzdi2+0x12c>
   18168:	f43e                	sd	a5,40(sp)
   1816a:	66e2                	ld	a3,24(sp)
   1816c:	0204f793          	andi	a5,s1,32
   18170:	00868713          	addi	a4,a3,8
   18174:	20078563          	beqz	a5,1837e <_svfprintf_r+0x11ec>
   18178:	0006b983          	ld	s3,0(a3)
   1817c:	0014f793          	andi	a5,s1,1
   18180:	cf81                	beqz	a5,18198 <_svfprintf_r+0x1006>
   18182:	00098b63          	beqz	s3,18198 <_svfprintf_r+0x1006>
   18186:	0024e493          	ori	s1,s1,2
   1818a:	03000793          	li	a5,48
   1818e:	0ef10023          	sb	a5,224(sp)
   18192:	0fb100a3          	sb	s11,225(sp)
   18196:	2481                	sext.w	s1,s1
   18198:	bff4f493          	andi	s1,s1,-1025
   1819c:	0004881b          	sext.w	a6,s1
   181a0:	ec3a                	sd	a4,24(sp)
   181a2:	4789                	li	a5,2
   181a4:	b2cff06f          	j	174d0 <_svfprintf_r+0x33e>
   181a8:	2004e493          	ori	s1,s1,512
   181ac:	00144f03          	lbu	t5,1(s0)
   181b0:	2481                	sext.w	s1,s1
   181b2:	0405                	addi	s0,s0,1
   181b4:	8d6ff06f          	j	1728a <_svfprintf_r+0xf8>
   181b8:	0204e493          	ori	s1,s1,32
   181bc:	00144f03          	lbu	t5,1(s0)
   181c0:	2481                	sext.w	s1,s1
   181c2:	0405                	addi	s0,s0,1
   181c4:	8c6ff06f          	j	1728a <_svfprintf_r+0xf8>
   181c8:	00004797          	auipc	a5,0x4
   181cc:	3a878793          	addi	a5,a5,936 # 1c570 <__clzdi2+0x114>
   181d0:	f43e                	sd	a5,40(sp)
   181d2:	bf61                	j	1816a <_svfprintf_r+0xfd8>
   181d4:	0a10                	addi	a2,sp,272
   181d6:	85d6                	mv	a1,s5
   181d8:	8552                	mv	a0,s4
   181da:	5fb010ef          	jal	ra,19fd4 <__ssprint_r>
   181de:	b40513e3          	bnez	a0,17d24 <_svfprintf_r+0xb92>
   181e2:	7792                	ld	a5,288(sp)
   181e4:	835e                	mv	t1,s7
   181e6:	b245                	j	17b86 <_svfprintf_r+0x9f4>
   181e8:	04000593          	li	a1,64
   181ec:	8552                	mv	a0,s4
   181ee:	b34fd0ef          	jal	ra,15522 <_malloc_r>
   181f2:	00aab023          	sd	a0,0(s5)
   181f6:	00aabc23          	sd	a0,24(s5)
   181fa:	34050ae3          	beqz	a0,18d4e <_svfprintf_r+0x1bbc>
   181fe:	04000793          	li	a5,64
   18202:	02faa023          	sw	a5,32(s5)
   18206:	ff5fe06f          	j	171fa <_svfprintf_r+0x68>
   1820a:	4799                	li	a5,6
   1820c:	000e8c1b          	sext.w	s8,t4
   18210:	47d7ed63          	bltu	a5,t4,1868a <_svfprintf_r+0x14f8>
   18214:	89e2                	mv	s3,s8
   18216:	ec36                	sd	a3,24(sp)
   18218:	00004c97          	auipc	s9,0x4
   1821c:	388c8c93          	addi	s9,s9,904 # 1c5a0 <__clzdi2+0x144>
   18220:	8dcff06f          	j	172fc <_svfprintf_r+0x16a>
   18224:	11812703          	lw	a4,280(sp)
   18228:	418d5963          	bge	s10,s8,1863a <_svfprintf_r+0x14a8>
   1822c:	4d9d                	li	s11,7
   1822e:	a021                	j	18236 <_svfprintf_r+0x10a4>
   18230:	3c41                	addiw	s8,s8,-16
   18232:	418d5463          	bge	s10,s8,1863a <_svfprintf_r+0x14a8>
   18236:	2705                	addiw	a4,a4,1
   18238:	07c1                	addi	a5,a5,16
   1823a:	01233023          	sd	s2,0(t1)
   1823e:	01a33423          	sd	s10,8(t1)
   18242:	f23e                	sd	a5,288(sp)
   18244:	10e12c23          	sw	a4,280(sp)
   18248:	0341                	addi	t1,t1,16
   1824a:	feedd3e3          	bge	s11,a4,18230 <_svfprintf_r+0x109e>
   1824e:	0a10                	addi	a2,sp,272
   18250:	85d6                	mv	a1,s5
   18252:	8552                	mv	a0,s4
   18254:	581010ef          	jal	ra,19fd4 <__ssprint_r>
   18258:	ac0516e3          	bnez	a0,17d24 <_svfprintf_r+0xb92>
   1825c:	7792                	ld	a5,288(sp)
   1825e:	11812703          	lw	a4,280(sp)
   18262:	835e                	mv	t1,s7
   18264:	b7f1                	j	18230 <_svfprintf_r+0x109e>
   18266:	7702                	ld	a4,32(sp)
   18268:	4c1d                	li	s8,7
   1826a:	9766                	add	a4,a4,s9
   1826c:	f83a                	sd	a4,48(sp)
   1826e:	7706                	ld	a4,96(sp)
   18270:	cb49                	beqz	a4,18302 <_svfprintf_r+0x1170>
   18272:	6746                	ld	a4,80(sp)
   18274:	eb51                	bnez	a4,18308 <_svfprintf_r+0x1176>
   18276:	7726                	ld	a4,104(sp)
   18278:	177d                	addi	a4,a4,-1
   1827a:	f4ba                	sd	a4,104(sp)
   1827c:	7706                	ld	a4,96(sp)
   1827e:	377d                	addiw	a4,a4,-1
   18280:	f0ba                	sd	a4,96(sp)
   18282:	674a                	ld	a4,144(sp)
   18284:	66aa                	ld	a3,136(sp)
   18286:	0341                	addi	t1,t1,16
   18288:	fee33823          	sd	a4,-16(t1)
   1828c:	11812703          	lw	a4,280(sp)
   18290:	97b6                	add	a5,a5,a3
   18292:	fed33c23          	sd	a3,-8(t1)
   18296:	2705                	addiw	a4,a4,1
   18298:	f23e                	sd	a5,288(sp)
   1829a:	0007069b          	sext.w	a3,a4
   1829e:	10e12c23          	sw	a4,280(sp)
   182a2:	10dc4563          	blt	s8,a3,183ac <_svfprintf_r+0x121a>
   182a6:	7726                	ld	a4,104(sp)
   182a8:	00074603          	lbu	a2,0(a4)
   182ac:	7742                	ld	a4,48(sp)
   182ae:	41b705bb          	subw	a1,a4,s11
   182b2:	0006071b          	sext.w	a4,a2
   182b6:	0007069b          	sext.w	a3,a4
   182ba:	00e5d463          	bge	a1,a4,182c2 <_svfprintf_r+0x1130>
   182be:	0005869b          	sext.w	a3,a1
   182c2:	02d05663          	blez	a3,182ee <_svfprintf_r+0x115c>
   182c6:	11812703          	lw	a4,280(sp)
   182ca:	97b6                	add	a5,a5,a3
   182cc:	01b33023          	sd	s11,0(t1)
   182d0:	0017061b          	addiw	a2,a4,1
   182d4:	00d33423          	sd	a3,8(t1)
   182d8:	f23e                	sd	a5,288(sp)
   182da:	10c12c23          	sw	a2,280(sp)
   182de:	1acc4f63          	blt	s8,a2,1849c <_svfprintf_r+0x130a>
   182e2:	7726                	ld	a4,104(sp)
   182e4:	0341                	addi	t1,t1,16
   182e6:	00074603          	lbu	a2,0(a4)
   182ea:	0006071b          	sext.w	a4,a2
   182ee:	fff6c593          	not	a1,a3
   182f2:	95fd                	srai	a1,a1,0x3f
   182f4:	8eed                	and	a3,a3,a1
   182f6:	9f15                	subw	a4,a4,a3
   182f8:	00e04c63          	bgtz	a4,18310 <_svfprintf_r+0x117e>
   182fc:	9db2                	add	s11,s11,a2
   182fe:	7706                	ld	a4,96(sp)
   18300:	fb2d                	bnez	a4,18272 <_svfprintf_r+0x10e0>
   18302:	6746                	ld	a4,80(sp)
   18304:	42070063          	beqz	a4,18724 <_svfprintf_r+0x1592>
   18308:	6746                	ld	a4,80(sp)
   1830a:	377d                	addiw	a4,a4,-1
   1830c:	e8ba                	sd	a4,80(sp)
   1830e:	bf95                	j	18282 <_svfprintf_r+0x10f0>
   18310:	11812683          	lw	a3,280(sp)
   18314:	00ed4663          	blt	s10,a4,18320 <_svfprintf_r+0x118e>
   18318:	a081                	j	18358 <_svfprintf_r+0x11c6>
   1831a:	3741                	addiw	a4,a4,-16
   1831c:	02ed5e63          	bge	s10,a4,18358 <_svfprintf_r+0x11c6>
   18320:	2685                	addiw	a3,a3,1
   18322:	07c1                	addi	a5,a5,16
   18324:	01233023          	sd	s2,0(t1)
   18328:	01a33423          	sd	s10,8(t1)
   1832c:	f23e                	sd	a5,288(sp)
   1832e:	10d12c23          	sw	a3,280(sp)
   18332:	0341                	addi	t1,t1,16
   18334:	fedc53e3          	bge	s8,a3,1831a <_svfprintf_r+0x1188>
   18338:	0a10                	addi	a2,sp,272
   1833a:	85d6                	mv	a1,s5
   1833c:	8552                	mv	a0,s4
   1833e:	e43a                	sd	a4,8(sp)
   18340:	495010ef          	jal	ra,19fd4 <__ssprint_r>
   18344:	9e0510e3          	bnez	a0,17d24 <_svfprintf_r+0xb92>
   18348:	6722                	ld	a4,8(sp)
   1834a:	7792                	ld	a5,288(sp)
   1834c:	11812683          	lw	a3,280(sp)
   18350:	3741                	addiw	a4,a4,-16
   18352:	835e                	mv	t1,s7
   18354:	fced46e3          	blt	s10,a4,18320 <_svfprintf_r+0x118e>
   18358:	2685                	addiw	a3,a3,1
   1835a:	97ba                	add	a5,a5,a4
   1835c:	00e33423          	sd	a4,8(t1)
   18360:	01233023          	sd	s2,0(t1)
   18364:	f23e                	sd	a5,288(sp)
   18366:	0006871b          	sext.w	a4,a3
   1836a:	10d12c23          	sw	a3,280(sp)
   1836e:	42ec4563          	blt	s8,a4,18798 <_svfprintf_r+0x1606>
   18372:	7726                	ld	a4,104(sp)
   18374:	0341                	addi	t1,t1,16
   18376:	00074603          	lbu	a2,0(a4)
   1837a:	9db2                	add	s11,s11,a2
   1837c:	b749                	j	182fe <_svfprintf_r+0x116c>
   1837e:	0104f793          	andi	a5,s1,16
   18382:	cff9                	beqz	a5,18460 <_svfprintf_r+0x12ce>
   18384:	67e2                	ld	a5,24(sp)
   18386:	0007b983          	ld	s3,0(a5)
   1838a:	bbcd                	j	1817c <_svfprintf_r+0xfea>
   1838c:	0a10                	addi	a2,sp,272
   1838e:	85d6                	mv	a1,s5
   18390:	8552                	mv	a0,s4
   18392:	443010ef          	jal	ra,19fd4 <__ssprint_r>
   18396:	980517e3          	bnez	a0,17d24 <_svfprintf_r+0xb92>
   1839a:	11812603          	lw	a2,280(sp)
   1839e:	7d92                	ld	s11,288(sp)
   183a0:	1a010313          	addi	t1,sp,416
   183a4:	2605                	addiw	a2,a2,1
   183a6:	8c5e                	mv	s8,s7
   183a8:	c6cff06f          	j	17814 <_svfprintf_r+0x682>
   183ac:	0a10                	addi	a2,sp,272
   183ae:	85d6                	mv	a1,s5
   183b0:	8552                	mv	a0,s4
   183b2:	423010ef          	jal	ra,19fd4 <__ssprint_r>
   183b6:	960517e3          	bnez	a0,17d24 <_svfprintf_r+0xb92>
   183ba:	7792                	ld	a5,288(sp)
   183bc:	835e                	mv	t1,s7
   183be:	b5e5                	j	182a6 <_svfprintf_r+0x1114>
   183c0:	11812703          	lw	a4,280(sp)
   183c4:	00004697          	auipc	a3,0x4
   183c8:	1e468693          	addi	a3,a3,484 # 1c5a8 <__clzdi2+0x14c>
   183cc:	00d33023          	sd	a3,0(t1)
   183d0:	2705                	addiw	a4,a4,1
   183d2:	4685                	li	a3,1
   183d4:	0785                	addi	a5,a5,1
   183d6:	00d33423          	sd	a3,8(t1)
   183da:	10e12c23          	sw	a4,280(sp)
   183de:	0007069b          	sext.w	a3,a4
   183e2:	f23e                	sd	a5,288(sp)
   183e4:	471d                	li	a4,7
   183e6:	0341                	addi	t1,t1,16
   183e8:	06d74163          	blt	a4,a3,1844a <_svfprintf_r+0x12b8>
   183ec:	10061c63          	bnez	a2,18504 <_svfprintf_r+0x1372>
   183f0:	7682                	ld	a3,32(sp)
   183f2:	0014f713          	andi	a4,s1,1
   183f6:	8f55                	or	a4,a4,a3
   183f8:	e319                	bnez	a4,183fe <_svfprintf_r+0x126c>
   183fa:	fbdfe06f          	j	173b6 <_svfprintf_r+0x224>
   183fe:	76e6                	ld	a3,120(sp)
   18400:	7746                	ld	a4,112(sp)
   18402:	00d33023          	sd	a3,0(t1)
   18406:	11812683          	lw	a3,280(sp)
   1840a:	97ba                	add	a5,a5,a4
   1840c:	00e33423          	sd	a4,8(t1)
   18410:	2685                	addiw	a3,a3,1
   18412:	0006871b          	sext.w	a4,a3
   18416:	10d12c23          	sw	a3,280(sp)
   1841a:	f23e                	sd	a5,288(sp)
   1841c:	469d                	li	a3,7
   1841e:	2ee6c163          	blt	a3,a4,18700 <_svfprintf_r+0x156e>
   18422:	0341                	addi	t1,t1,16
   18424:	7682                	ld	a3,32(sp)
   18426:	2705                	addiw	a4,a4,1
   18428:	10e12c23          	sw	a4,280(sp)
   1842c:	97b6                	add	a5,a5,a3
   1842e:	00d33423          	sd	a3,8(t1)
   18432:	01933023          	sd	s9,0(t1)
   18436:	0007069b          	sext.w	a3,a4
   1843a:	f23e                	sd	a5,288(sp)
   1843c:	471d                	li	a4,7
   1843e:	00d74463          	blt	a4,a3,18446 <_svfprintf_r+0x12b4>
   18442:	f73fe06f          	j	173b4 <_svfprintf_r+0x222>
   18446:	beaff06f          	j	17830 <_svfprintf_r+0x69e>
   1844a:	0a10                	addi	a2,sp,272
   1844c:	85d6                	mv	a1,s5
   1844e:	8552                	mv	a0,s4
   18450:	385010ef          	jal	ra,19fd4 <__ssprint_r>
   18454:	8c0518e3          	bnez	a0,17d24 <_svfprintf_r+0xb92>
   18458:	562e                	lw	a2,232(sp)
   1845a:	7792                	ld	a5,288(sp)
   1845c:	835e                	mv	t1,s7
   1845e:	b779                	j	183ec <_svfprintf_r+0x125a>
   18460:	66e2                	ld	a3,24(sp)
   18462:	0404f793          	andi	a5,s1,64
   18466:	0006a983          	lw	s3,0(a3)
   1846a:	1a078063          	beqz	a5,1860a <_svfprintf_r+0x1478>
   1846e:	19c2                	slli	s3,s3,0x30
   18470:	0309d993          	srli	s3,s3,0x30
   18474:	b321                	j	1817c <_svfprintf_r+0xfea>
   18476:	0a10                	addi	a2,sp,272
   18478:	85d6                	mv	a1,s5
   1847a:	8552                	mv	a0,s4
   1847c:	359010ef          	jal	ra,19fd4 <__ssprint_r>
   18480:	8a0512e3          	bnez	a0,17d24 <_svfprintf_r+0xb92>
   18484:	7792                	ld	a5,288(sp)
   18486:	835e                	mv	t1,s7
   18488:	ed0ff06f          	j	17b58 <_svfprintf_r+0x9c6>
   1848c:	0017069b          	addiw	a3,a4,1
   18490:	8736                	mv	a4,a3
   18492:	97e2                	add	a5,a5,s8
   18494:	01233023          	sd	s2,0(t1)
   18498:	f0dfe06f          	j	173a4 <_svfprintf_r+0x212>
   1849c:	0a10                	addi	a2,sp,272
   1849e:	85d6                	mv	a1,s5
   184a0:	8552                	mv	a0,s4
   184a2:	e436                	sd	a3,8(sp)
   184a4:	331010ef          	jal	ra,19fd4 <__ssprint_r>
   184a8:	86051ee3          	bnez	a0,17d24 <_svfprintf_r+0xb92>
   184ac:	77a6                	ld	a5,104(sp)
   184ae:	66a2                	ld	a3,8(sp)
   184b0:	835e                	mv	t1,s7
   184b2:	0007c603          	lbu	a2,0(a5)
   184b6:	7792                	ld	a5,288(sp)
   184b8:	0006071b          	sext.w	a4,a2
   184bc:	bd0d                	j	182ee <_svfprintf_r+0x115c>
   184be:	6512                	ld	a0,256(sp)
   184c0:	65b2                	ld	a1,264(sp)
   184c2:	4601                	li	a2,0
   184c4:	4681                	li	a3,0
   184c6:	e41a                	sd	t1,8(sp)
   184c8:	4fb020ef          	jal	ra,1b1c2 <__letf2>
   184cc:	6322                	ld	t1,8(sp)
   184ce:	2e054363          	bltz	a0,187b4 <_svfprintf_r+0x1622>
   184d2:	0df14783          	lbu	a5,223(sp)
   184d6:	04700713          	li	a4,71
   184da:	00004c97          	auipc	s9,0x4
   184de:	076c8c93          	addi	s9,s9,118 # 1c550 <__clzdi2+0xf4>
   184e2:	19b74463          	blt	a4,s11,1866a <_svfprintf_r+0x14d8>
   184e6:	f7f4f493          	andi	s1,s1,-129
   184ea:	e802                	sd	zero,16(sp)
   184ec:	e882                	sd	zero,80(sp)
   184ee:	f082                	sd	zero,96(sp)
   184f0:	ec82                	sd	zero,88(sp)
   184f2:	2481                	sext.w	s1,s1
   184f4:	498d                	li	s3,3
   184f6:	4c0d                	li	s8,3
   184f8:	4e81                	li	t4,0
   184fa:	c399                	beqz	a5,18500 <_svfprintf_r+0x136e>
   184fc:	fadfe06f          	j	174a8 <_svfprintf_r+0x316>
   18500:	e07fe06f          	j	17306 <_svfprintf_r+0x174>
   18504:	76e6                	ld	a3,120(sp)
   18506:	7746                	ld	a4,112(sp)
   18508:	0341                	addi	t1,t1,16
   1850a:	fed33823          	sd	a3,-16(t1)
   1850e:	11812683          	lw	a3,280(sp)
   18512:	97ba                	add	a5,a5,a4
   18514:	fee33c23          	sd	a4,-8(t1)
   18518:	2685                	addiw	a3,a3,1
   1851a:	0006871b          	sext.w	a4,a3
   1851e:	10d12c23          	sw	a3,280(sp)
   18522:	f23e                	sd	a5,288(sp)
   18524:	469d                	li	a3,7
   18526:	1ce6cd63          	blt	a3,a4,18700 <_svfprintf_r+0x156e>
   1852a:	ee065de3          	bgez	a2,18424 <_svfprintf_r+0x1292>
   1852e:	56c1                	li	a3,-16
   18530:	40c00c3b          	negw	s8,a2
   18534:	60d65d63          	bge	a2,a3,18b4e <_svfprintf_r+0x19bc>
   18538:	4d9d                	li	s11,7
   1853a:	a021                	j	18542 <_svfprintf_r+0x13b0>
   1853c:	3c41                	addiw	s8,s8,-16
   1853e:	618d5863          	bge	s10,s8,18b4e <_svfprintf_r+0x19bc>
   18542:	2705                	addiw	a4,a4,1
   18544:	07c1                	addi	a5,a5,16
   18546:	01233023          	sd	s2,0(t1)
   1854a:	01a33423          	sd	s10,8(t1)
   1854e:	f23e                	sd	a5,288(sp)
   18550:	10e12c23          	sw	a4,280(sp)
   18554:	0341                	addi	t1,t1,16
   18556:	feedd3e3          	bge	s11,a4,1853c <_svfprintf_r+0x13aa>
   1855a:	0a10                	addi	a2,sp,272
   1855c:	85d6                	mv	a1,s5
   1855e:	8552                	mv	a0,s4
   18560:	275010ef          	jal	ra,19fd4 <__ssprint_r>
   18564:	fc051063          	bnez	a0,17d24 <_svfprintf_r+0xb92>
   18568:	7792                	ld	a5,288(sp)
   1856a:	11812703          	lw	a4,280(sp)
   1856e:	835e                	mv	t1,s7
   18570:	b7f1                	j	1853c <_svfprintf_r+0x13aa>
   18572:	8566                	mv	a0,s9
   18574:	e836                	sd	a3,16(sp)
   18576:	e41a                	sd	t1,8(sp)
   18578:	a58f80ef          	jal	ra,107d0 <strlen>
   1857c:	66c2                	ld	a3,16(sp)
   1857e:	00050c1b          	sext.w	s8,a0
   18582:	fffc4993          	not	s3,s8
   18586:	0df14783          	lbu	a5,223(sp)
   1858a:	43f9d993          	srai	s3,s3,0x3f
   1858e:	013c79b3          	and	s3,s8,s3
   18592:	ec36                	sd	a3,24(sp)
   18594:	e802                	sd	zero,16(sp)
   18596:	e882                	sd	zero,80(sp)
   18598:	f082                	sd	zero,96(sp)
   1859a:	ec82                	sd	zero,88(sp)
   1859c:	6322                	ld	t1,8(sp)
   1859e:	2981                	sext.w	s3,s3
   185a0:	4e81                	li	t4,0
   185a2:	c399                	beqz	a5,185a8 <_svfprintf_r+0x1416>
   185a4:	f05fe06f          	j	174a8 <_svfprintf_r+0x316>
   185a8:	d5ffe06f          	j	17306 <_svfprintf_r+0x174>
   185ac:	0017061b          	addiw	a2,a4,1
   185b0:	010c0713          	addi	a4,s8,16
   185b4:	9db6                	add	s11,s11,a3
   185b6:	00dc3423          	sd	a3,8(s8)
   185ba:	012c3023          	sd	s2,0(s8)
   185be:	f26e                	sd	s11,288(sp)
   185c0:	10c12c23          	sw	a2,280(sp)
   185c4:	469d                	li	a3,7
   185c6:	dcc6c3e3          	blt	a3,a2,1838c <_svfprintf_r+0x11fa>
   185ca:	2605                	addiw	a2,a2,1
   185cc:	01070313          	addi	t1,a4,16
   185d0:	8c3a                	mv	s8,a4
   185d2:	a42ff06f          	j	17814 <_svfprintf_r+0x682>
   185d6:	2004f793          	andi	a5,s1,512
   185da:	10078063          	beqz	a5,186da <_svfprintf_r+0x1548>
   185de:	0ff9f993          	andi	s3,s3,255
   185e2:	ee3fe06f          	j	174c4 <_svfprintf_r+0x332>
   185e6:	20087793          	andi	a5,a6,512
   185ea:	c3ed                	beqz	a5,186cc <_svfprintf_r+0x153a>
   185ec:	0ff9f993          	andi	s3,s3,255
   185f0:	ec3a                	sd	a4,24(sp)
   185f2:	4785                	li	a5,1
   185f4:	eddfe06f          	j	174d0 <_svfprintf_r+0x33e>
   185f8:	2004f793          	andi	a5,s1,512
   185fc:	c3f1                	beqz	a5,186c0 <_svfprintf_r+0x152e>
   185fe:	67e2                	ld	a5,24(sp)
   18600:	00078983          	lb	s3,0(a5)
   18604:	87ce                	mv	a5,s3
   18606:	e61fe06f          	j	17466 <_svfprintf_r+0x2d4>
   1860a:	2004f793          	andi	a5,s1,512
   1860e:	c7cd                	beqz	a5,186b8 <_svfprintf_r+0x1526>
   18610:	0ff9f993          	andi	s3,s3,255
   18614:	b6a5                	j	1817c <_svfprintf_r+0xfea>
   18616:	67b2                	ld	a5,264(sp)
   18618:	0c07cf63          	bltz	a5,186f6 <_svfprintf_r+0x1564>
   1861c:	0df14783          	lbu	a5,223(sp)
   18620:	04700713          	li	a4,71
   18624:	00004c97          	auipc	s9,0x4
   18628:	f3cc8c93          	addi	s9,s9,-196 # 1c560 <__clzdi2+0x104>
   1862c:	ebb75de3          	bge	a4,s11,184e6 <_svfprintf_r+0x1354>
   18630:	00004c97          	auipc	s9,0x4
   18634:	f38c8c93          	addi	s9,s9,-200 # 1c568 <__clzdi2+0x10c>
   18638:	b57d                	j	184e6 <_svfprintf_r+0x1354>
   1863a:	0017069b          	addiw	a3,a4,1
   1863e:	97e2                	add	a5,a5,s8
   18640:	01233023          	sd	s2,0(t1)
   18644:	01833423          	sd	s8,8(t1)
   18648:	f23e                	sd	a5,288(sp)
   1864a:	10d12c23          	sw	a3,280(sp)
   1864e:	471d                	li	a4,7
   18650:	0341                	addi	t1,t1,16
   18652:	88d756e3          	bge	a4,a3,17ede <_svfprintf_r+0xd4c>
   18656:	0a10                	addi	a2,sp,272
   18658:	85d6                	mv	a1,s5
   1865a:	8552                	mv	a0,s4
   1865c:	179010ef          	jal	ra,19fd4 <__ssprint_r>
   18660:	ec051263          	bnez	a0,17d24 <_svfprintf_r+0xb92>
   18664:	7792                	ld	a5,288(sp)
   18666:	835e                	mv	t1,s7
   18668:	b89d                	j	17ede <_svfprintf_r+0xd4c>
   1866a:	00004c97          	auipc	s9,0x4
   1866e:	eeec8c93          	addi	s9,s9,-274 # 1c558 <__clzdi2+0xfc>
   18672:	bd95                	j	184e6 <_svfprintf_r+0x1354>
   18674:	0a10                	addi	a2,sp,272
   18676:	85d6                	mv	a1,s5
   18678:	8552                	mv	a0,s4
   1867a:	15b010ef          	jal	ra,19fd4 <__ssprint_r>
   1867e:	ea051363          	bnez	a0,17d24 <_svfprintf_r+0xb92>
   18682:	7792                	ld	a5,288(sp)
   18684:	835e                	mv	t1,s7
   18686:	845ff06f          	j	17eca <_svfprintf_r+0xd38>
   1868a:	4c19                	li	s8,6
   1868c:	b661                	j	18214 <_svfprintf_r+0x1082>
   1868e:	7682                	ld	a3,32(sp)
   18690:	00dc8833          	add	a6,s9,a3
   18694:	40e6873b          	subw	a4,a3,a4
   18698:	41b80ebb          	subw	t4,a6,s11
   1869c:	0007069b          	sext.w	a3,a4
   186a0:	00ded363          	bge	t4,a3,186a6 <_svfprintf_r+0x1514>
   186a4:	8776                	mv	a4,t4
   186a6:	00070c9b          	sext.w	s9,a4
   186aa:	b865                	j	17f62 <_svfprintf_r+0xdd0>
   186ac:	6782                	ld	a5,0(sp)
   186ae:	8ca2                	mv	s9,s0
   186b0:	00f71023          	sh	a5,0(a4)
   186b4:	d35fe06f          	j	173e8 <_svfprintf_r+0x256>
   186b8:	1982                	slli	s3,s3,0x20
   186ba:	0209d993          	srli	s3,s3,0x20
   186be:	bc7d                	j	1817c <_svfprintf_r+0xfea>
   186c0:	67e2                	ld	a5,24(sp)
   186c2:	0007a983          	lw	s3,0(a5)
   186c6:	87ce                	mv	a5,s3
   186c8:	d9ffe06f          	j	17466 <_svfprintf_r+0x2d4>
   186cc:	1982                	slli	s3,s3,0x20
   186ce:	0209d993          	srli	s3,s3,0x20
   186d2:	ec3a                	sd	a4,24(sp)
   186d4:	4785                	li	a5,1
   186d6:	dfbfe06f          	j	174d0 <_svfprintf_r+0x33e>
   186da:	1982                	slli	s3,s3,0x20
   186dc:	0209d993          	srli	s3,s3,0x20
   186e0:	de5fe06f          	j	174c4 <_svfprintf_r+0x332>
   186e4:	0a10                	addi	a2,sp,272
   186e6:	85d6                	mv	a1,s5
   186e8:	8552                	mv	a0,s4
   186ea:	0eb010ef          	jal	ra,19fd4 <__ssprint_r>
   186ee:	010ad783          	lhu	a5,16(s5)
   186f2:	d0bfe06f          	j	173fc <_svfprintf_r+0x26a>
   186f6:	02d00793          	li	a5,45
   186fa:	0cf10fa3          	sb	a5,223(sp)
   186fe:	b70d                	j	18620 <_svfprintf_r+0x148e>
   18700:	0a10                	addi	a2,sp,272
   18702:	85d6                	mv	a1,s5
   18704:	8552                	mv	a0,s4
   18706:	0cf010ef          	jal	ra,19fd4 <__ssprint_r>
   1870a:	e0051d63          	bnez	a0,17d24 <_svfprintf_r+0xb92>
   1870e:	562e                	lw	a2,232(sp)
   18710:	7792                	ld	a5,288(sp)
   18712:	11812703          	lw	a4,280(sp)
   18716:	835e                	mv	t1,s7
   18718:	d00656e3          	bgez	a2,18424 <_svfprintf_r+0x1292>
   1871c:	bd09                	j	1852e <_svfprintf_r+0x139c>
   1871e:	4e99                	li	t4,6
   18720:	e7bfe06f          	j	1759a <_svfprintf_r+0x408>
   18724:	7702                	ld	a4,32(sp)
   18726:	9766                	add	a4,a4,s9
   18728:	fdb77263          	bgeu	a4,s11,17eec <_svfprintf_r+0xd5a>
   1872c:	8dba                	mv	s11,a4
   1872e:	fbeff06f          	j	17eec <_svfprintf_r+0xd5a>
   18732:	6766                	ld	a4,88(sp)
   18734:	57f5                	li	a5,-3
   18736:	00f74463          	blt	a4,a5,1873e <_svfprintf_r+0x15ac>
   1873a:	00eed863          	bge	t4,a4,1874a <_svfprintf_r+0x15b8>
   1873e:	3df9                	addiw	s11,s11,-2
   18740:	fdfdf793          	andi	a5,s11,-33
   18744:	f0be                	sd	a5,96(sp)
   18746:	f13fe06f          	j	17658 <_svfprintf_r+0x4c6>
   1874a:	7782                	ld	a5,32(sp)
   1874c:	6766                	ld	a4,88(sp)
   1874e:	16f74963          	blt	a4,a5,188c0 <_svfprintf_r+0x172e>
   18752:	67ea                	ld	a5,152(sp)
   18754:	8c3a                	mv	s8,a4
   18756:	8b85                	andi	a5,a5,1
   18758:	c781                	beqz	a5,18760 <_svfprintf_r+0x15ce>
   1875a:	77c6                	ld	a5,112(sp)
   1875c:	00e78c3b          	addw	s8,a5,a4
   18760:	67ea                	ld	a5,152(sp)
   18762:	4007f793          	andi	a5,a5,1024
   18766:	c781                	beqz	a5,1876e <_svfprintf_r+0x15dc>
   18768:	67e6                	ld	a5,88(sp)
   1876a:	48f04c63          	bgtz	a5,18c02 <_svfprintf_r+0x1a70>
   1876e:	fffc4993          	not	s3,s8
   18772:	43f9d993          	srai	s3,s3,0x3f
   18776:	013c79b3          	and	s3,s8,s3
   1877a:	2981                	sext.w	s3,s3
   1877c:	06700d93          	li	s11,103
   18780:	e882                	sd	zero,80(sp)
   18782:	f082                	sd	zero,96(sp)
   18784:	fb7fe06f          	j	1773a <_svfprintf_r+0x5a8>
   18788:	0df14783          	lbu	a5,223(sp)
   1878c:	4e81                	li	t4,0
   1878e:	c399                	beqz	a5,18794 <_svfprintf_r+0x1602>
   18790:	d19fe06f          	j	174a8 <_svfprintf_r+0x316>
   18794:	b73fe06f          	j	17306 <_svfprintf_r+0x174>
   18798:	0a10                	addi	a2,sp,272
   1879a:	85d6                	mv	a1,s5
   1879c:	8552                	mv	a0,s4
   1879e:	037010ef          	jal	ra,19fd4 <__ssprint_r>
   187a2:	d8051163          	bnez	a0,17d24 <_svfprintf_r+0xb92>
   187a6:	77a6                	ld	a5,104(sp)
   187a8:	835e                	mv	t1,s7
   187aa:	0007c603          	lbu	a2,0(a5)
   187ae:	7792                	ld	a5,288(sp)
   187b0:	9db2                	add	s11,s11,a2
   187b2:	b6b1                	j	182fe <_svfprintf_r+0x116c>
   187b4:	02d00793          	li	a5,45
   187b8:	0cf10fa3          	sb	a5,223(sp)
   187bc:	bb29                	j	184d6 <_svfprintf_r+0x1344>
   187be:	0a10                	addi	a2,sp,272
   187c0:	85d6                	mv	a1,s5
   187c2:	8552                	mv	a0,s4
   187c4:	011010ef          	jal	ra,19fd4 <__ssprint_r>
   187c8:	d4051e63          	bnez	a0,17d24 <_svfprintf_r+0xb92>
   187cc:	572e                	lw	a4,232(sp)
   187ce:	7792                	ld	a5,288(sp)
   187d0:	835e                	mv	t1,s7
   187d2:	f50ff06f          	j	17f22 <_svfprintf_r+0xd90>
   187d6:	8776                	mv	a4,t4
   187d8:	11bc                	addi	a5,sp,232
   187da:	0f810893          	addi	a7,sp,248
   187de:	0ec10813          	addi	a6,sp,236
   187e2:	4689                	li	a3,2
   187e4:	85e2                	mv	a1,s8
   187e6:	864e                	mv	a2,s3
   187e8:	8552                	mv	a0,s4
   187ea:	f01a                	sd	t1,32(sp)
   187ec:	e476                	sd	t4,8(sp)
   187ee:	ccffb0ef          	jal	ra,144bc <_ldtoa_r>
   187f2:	7706                	ld	a4,96(sp)
   187f4:	04700793          	li	a5,71
   187f8:	6ea2                	ld	t4,8(sp)
   187fa:	7302                	ld	t1,32(sp)
   187fc:	8caa                	mv	s9,a0
   187fe:	02f71d63          	bne	a4,a5,18838 <_svfprintf_r+0x16a6>
   18802:	67ea                	ld	a5,152(sp)
   18804:	8b85                	andi	a5,a5,1
   18806:	32079d63          	bnez	a5,18b40 <_svfprintf_r+0x19ae>
   1880a:	04700713          	li	a4,71
   1880e:	77ee                	ld	a5,248(sp)
   18810:	f0ba                	sd	a4,96(sp)
   18812:	e21fe06f          	j	17632 <_svfprintf_r+0x4a0>
   18816:	8776                	mv	a4,t4
   18818:	0f810893          	addi	a7,sp,248
   1881c:	0ec10813          	addi	a6,sp,236
   18820:	11bc                	addi	a5,sp,232
   18822:	468d                	li	a3,3
   18824:	85e2                	mv	a1,s8
   18826:	864e                	mv	a2,s3
   18828:	8552                	mv	a0,s4
   1882a:	f01a                	sd	t1,32(sp)
   1882c:	e476                	sd	t4,8(sp)
   1882e:	c8ffb0ef          	jal	ra,144bc <_ldtoa_r>
   18832:	6ea2                	ld	t4,8(sp)
   18834:	7302                	ld	t1,32(sp)
   18836:	8caa                	mv	s9,a0
   18838:	7706                	ld	a4,96(sp)
   1883a:	04600793          	li	a5,70
   1883e:	01dc88b3          	add	a7,s9,t4
   18842:	00f70463          	beq	a4,a5,1884a <_svfprintf_r+0x16b8>
   18846:	db7fe06f          	j	175fc <_svfprintf_r+0x46a>
   1884a:	000cc703          	lbu	a4,0(s9)
   1884e:	03000793          	li	a5,48
   18852:	00f70663          	beq	a4,a5,1885e <_svfprintf_r+0x16cc>
   18856:	572e                	lw	a4,232(sp)
   18858:	98ba                	add	a7,a7,a4
   1885a:	da3fe06f          	j	175fc <_svfprintf_r+0x46a>
   1885e:	4601                	li	a2,0
   18860:	4681                	li	a3,0
   18862:	8562                	mv	a0,s8
   18864:	85ce                	mv	a1,s3
   18866:	f846                	sd	a7,48(sp)
   18868:	f01a                	sd	t1,32(sp)
   1886a:	e476                	sd	t4,8(sp)
   1886c:	01b020ef          	jal	ra,1b086 <__eqtf2>
   18870:	6ea2                	ld	t4,8(sp)
   18872:	7302                	ld	t1,32(sp)
   18874:	78c2                	ld	a7,48(sp)
   18876:	d165                	beqz	a0,18856 <_svfprintf_r+0x16c4>
   18878:	4785                	li	a5,1
   1887a:	41d7873b          	subw	a4,a5,t4
   1887e:	d5ba                	sw	a4,232(sp)
   18880:	98ba                	add	a7,a7,a4
   18882:	d7bfe06f          	j	175fc <_svfprintf_r+0x46a>
   18886:	0df14783          	lbu	a5,223(sp)
   1888a:	ec36                	sd	a3,24(sp)
   1888c:	e882                	sd	zero,80(sp)
   1888e:	f082                	sd	zero,96(sp)
   18890:	ec82                	sd	zero,88(sp)
   18892:	89f6                	mv	s3,t4
   18894:	8c76                	mv	s8,t4
   18896:	4e81                	li	t4,0
   18898:	c399                	beqz	a5,1889e <_svfprintf_r+0x170c>
   1889a:	c0ffe06f          	j	174a8 <_svfprintf_r+0x316>
   1889e:	a69fe06f          	j	17306 <_svfprintf_r+0x174>
   188a2:	0a10                	addi	a2,sp,272
   188a4:	85d6                	mv	a1,s5
   188a6:	8552                	mv	a0,s4
   188a8:	72c010ef          	jal	ra,19fd4 <__ssprint_r>
   188ac:	c6051c63          	bnez	a0,17d24 <_svfprintf_r+0xb92>
   188b0:	56ae                	lw	a3,232(sp)
   188b2:	7702                	ld	a4,32(sp)
   188b4:	7792                	ld	a5,288(sp)
   188b6:	835e                	mv	t1,s7
   188b8:	40d706bb          	subw	a3,a4,a3
   188bc:	ea6ff06f          	j	17f62 <_svfprintf_r+0xdd0>
   188c0:	7702                	ld	a4,32(sp)
   188c2:	77c6                	ld	a5,112(sp)
   188c4:	06700d93          	li	s11,103
   188c8:	00e78c3b          	addw	s8,a5,a4
   188cc:	6766                	ld	a4,88(sp)
   188ce:	40e05463          	blez	a4,18cd6 <_svfprintf_r+0x1b44>
   188d2:	67ea                	ld	a5,152(sp)
   188d4:	4007f793          	andi	a5,a5,1024
   188d8:	32079763          	bnez	a5,18c06 <_svfprintf_r+0x1a74>
   188dc:	fffc4993          	not	s3,s8
   188e0:	43f9d993          	srai	s3,s3,0x3f
   188e4:	013c79b3          	and	s3,s8,s3
   188e8:	2981                	sext.w	s3,s3
   188ea:	bd59                	j	18780 <_svfprintf_r+0x15ee>
   188ec:	67ea                	ld	a5,152(sp)
   188ee:	6766                	ld	a4,88(sp)
   188f0:	8b85                	andi	a5,a5,1
   188f2:	00fee7b3          	or	a5,t4,a5
   188f6:	40e05563          	blez	a4,18d00 <_svfprintf_r+0x1b6e>
   188fa:	3c079663          	bnez	a5,18cc6 <_svfprintf_r+0x1b34>
   188fe:	6c66                	ld	s8,88(sp)
   18900:	06600d93          	li	s11,102
   18904:	b7f9                	j	188d2 <_svfprintf_r+0x1740>
   18906:	03000793          	li	a5,48
   1890a:	0ef10023          	sb	a5,224(sp)
   1890e:	05800713          	li	a4,88
   18912:	0024e793          	ori	a5,s1,2
   18916:	2781                	sext.w	a5,a5
   18918:	0ee100a3          	sb	a4,225(sp)
   1891c:	ed3e                	sd	a5,152(sp)
   1891e:	06300713          	li	a4,99
   18922:	e802                	sd	zero,16(sp)
   18924:	12810c93          	addi	s9,sp,296
   18928:	1fd74463          	blt	a4,t4,18b10 <_svfprintf_r+0x197e>
   1892c:	69b2                	ld	s3,264(sp)
   1892e:	fdfdf713          	andi	a4,s11,-33
   18932:	1024e493          	ori	s1,s1,258
   18936:	f0ba                	sd	a4,96(sp)
   18938:	e582                	sd	zero,200(sp)
   1893a:	6c12                	ld	s8,256(sp)
   1893c:	2481                	sext.w	s1,s1
   1893e:	1609ca63          	bltz	s3,18ab2 <_svfprintf_r+0x1920>
   18942:	06100793          	li	a5,97
   18946:	32fd8a63          	beq	s11,a5,18c7a <_svfprintf_r+0x1ae8>
   1894a:	04100793          	li	a5,65
   1894e:	00fd8463          	beq	s11,a5,18956 <_svfprintf_r+0x17c4>
   18952:	c63fe06f          	j	175b4 <_svfprintf_r+0x422>
   18956:	85ce                	mv	a1,s3
   18958:	8562                	mv	a0,s8
   1895a:	fc1a                	sd	t1,56(sp)
   1895c:	f876                	sd	t4,48(sp)
   1895e:	0cd030ef          	jal	ra,1c22a <__trunctfdf2>
   18962:	11a8                	addi	a0,sp,232
   18964:	c44fe0ef          	jal	ra,16da8 <frexp>
   18968:	003030ef          	jal	ra,1c16a <__extenddftf2>
   1896c:	00004797          	auipc	a5,0x4
   18970:	df478793          	addi	a5,a5,-524 # 1c760 <zeroes.4521+0x30>
   18974:	6390                	ld	a2,0(a5)
   18976:	6794                	ld	a3,8(a5)
   18978:	0f3020ef          	jal	ra,1b26a <__multf3>
   1897c:	4601                	li	a2,0
   1897e:	4681                	li	a3,0
   18980:	f02a                	sd	a0,32(sp)
   18982:	e42e                	sd	a1,8(sp)
   18984:	702020ef          	jal	ra,1b086 <__eqtf2>
   18988:	62a2                	ld	t0,8(sp)
   1898a:	7702                	ld	a4,32(sp)
   1898c:	7ec2                	ld	t4,48(sp)
   1898e:	7362                	ld	t1,56(sp)
   18990:	e119                	bnez	a0,18996 <_svfprintf_r+0x1804>
   18992:	4785                	li	a5,1
   18994:	d5be                	sw	a5,232(sp)
   18996:	00004797          	auipc	a5,0x4
   1899a:	bda78793          	addi	a5,a5,-1062 # 1c570 <__clzdi2+0x114>
   1899e:	e8be                	sd	a5,80(sp)
   189a0:	020e9793          	slli	a5,t4,0x20
   189a4:	00004697          	auipc	a3,0x4
   189a8:	d9c68693          	addi	a3,a3,-612 # 1c740 <zeroes.4521+0x10>
   189ac:	9381                	srli	a5,a5,0x20
   189ae:	6290                	ld	a2,0(a3)
   189b0:	0785                	addi	a5,a5,1
   189b2:	6694                	ld	a3,8(a3)
   189b4:	97e6                	add	a5,a5,s9
   189b6:	f13e                	sd	a5,160(sp)
   189b8:	01dc87bb          	addw	a5,s9,t4
   189bc:	fd32                	sd	a2,184(sp)
   189be:	e1b6                	sd	a3,192(sp)
   189c0:	8c66                	mv	s8,s9
   189c2:	db3e                	sw	a5,180(sp)
   189c4:	a831                	j	189e0 <_svfprintf_r+0x184e>
   189c6:	4601                	li	a2,0
   189c8:	4681                	li	a3,0
   189ca:	e4ae                	sd	a1,72(sp)
   189cc:	e0aa                	sd	a0,64(sp)
   189ce:	6b8020ef          	jal	ra,1b086 <__eqtf2>
   189d2:	7ec2                	ld	t4,48(sp)
   189d4:	7362                	ld	t1,56(sp)
   189d6:	6f86                	ld	t6,64(sp)
   189d8:	68a6                	ld	a7,72(sp)
   189da:	62a2                	ld	t0,8(sp)
   189dc:	7702                	ld	a4,32(sp)
   189de:	c135                	beqz	a0,18a42 <_svfprintf_r+0x18b0>
   189e0:	766a                	ld	a2,184(sp)
   189e2:	668e                	ld	a3,192(sp)
   189e4:	853a                	mv	a0,a4
   189e6:	8596                	mv	a1,t0
   189e8:	fc1a                	sd	t1,56(sp)
   189ea:	f876                	sd	t4,48(sp)
   189ec:	07f020ef          	jal	ra,1b26a <__multf3>
   189f0:	e42e                	sd	a1,8(sp)
   189f2:	f02a                	sd	a0,32(sp)
   189f4:	684030ef          	jal	ra,1c078 <__fixtfsi>
   189f8:	0005099b          	sext.w	s3,a0
   189fc:	854e                	mv	a0,s3
   189fe:	710030ef          	jal	ra,1c10e <__floatsitf>
   18a02:	7882                	ld	a7,32(sp)
   18a04:	6722                	ld	a4,8(sp)
   18a06:	862a                	mv	a2,a0
   18a08:	86ae                	mv	a3,a1
   18a0a:	8546                	mv	a0,a7
   18a0c:	85ba                	mv	a1,a4
   18a0e:	66f020ef          	jal	ra,1b87c <__subtf3>
   18a12:	67c6                	ld	a5,80(sp)
   18a14:	f562                	sd	s8,168(sp)
   18a16:	0c05                	addi	s8,s8,1
   18a18:	01378733          	add	a4,a5,s3
   18a1c:	57da                	lw	a5,180(sp)
   18a1e:	00074703          	lbu	a4,0(a4)
   18a22:	f02a                	sd	a0,32(sp)
   18a24:	418787bb          	subw	a5,a5,s8
   18a28:	ecbe                	sd	a5,88(sp)
   18a2a:	778a                	ld	a5,160(sp)
   18a2c:	feec0fa3          	sb	a4,-1(s8)
   18a30:	e42e                	sd	a1,8(sp)
   18a32:	7ec2                	ld	t4,48(sp)
   18a34:	7362                	ld	t1,56(sp)
   18a36:	8faa                	mv	t6,a0
   18a38:	88ae                	mv	a7,a1
   18a3a:	f98796e3          	bne	a5,s8,189c6 <_svfprintf_r+0x1834>
   18a3e:	57fd                	li	a5,-1
   18a40:	ecbe                	sd	a5,88(sp)
   18a42:	00004717          	auipc	a4,0x4
   18a46:	d0e70713          	addi	a4,a4,-754 # 1c750 <zeroes.4521+0x20>
   18a4a:	6310                	ld	a2,0(a4)
   18a4c:	6714                	ld	a3,8(a4)
   18a4e:	857e                	mv	a0,t6
   18a50:	85c6                	mv	a1,a7
   18a52:	f01a                	sd	t1,32(sp)
   18a54:	e476                	sd	t4,8(sp)
   18a56:	e4fe                	sd	t6,72(sp)
   18a58:	e0b2                	sd	a2,64(sp)
   18a5a:	fc36                	sd	a3,56(sp)
   18a5c:	f846                	sd	a7,48(sp)
   18a5e:	6bc020ef          	jal	ra,1b11a <__getf2>
   18a62:	6ea2                	ld	t4,8(sp)
   18a64:	7302                	ld	t1,32(sp)
   18a66:	04a04e63          	bgtz	a0,18ac2 <_svfprintf_r+0x1930>
   18a6a:	6fa6                	ld	t6,72(sp)
   18a6c:	78c2                	ld	a7,48(sp)
   18a6e:	6606                	ld	a2,64(sp)
   18a70:	76e2                	ld	a3,56(sp)
   18a72:	857e                	mv	a0,t6
   18a74:	85c6                	mv	a1,a7
   18a76:	610020ef          	jal	ra,1b086 <__eqtf2>
   18a7a:	6ea2                	ld	t4,8(sp)
   18a7c:	7302                	ld	t1,32(sp)
   18a7e:	e509                	bnez	a0,18a88 <_svfprintf_r+0x18f6>
   18a80:	0019f993          	andi	s3,s3,1
   18a84:	02099f63          	bnez	s3,18ac2 <_svfprintf_r+0x1930>
   18a88:	67e6                	ld	a5,88(sp)
   18a8a:	03000693          	li	a3,48
   18a8e:	00178713          	addi	a4,a5,1
   18a92:	9762                	add	a4,a4,s8
   18a94:	0007c763          	bltz	a5,18aa2 <_svfprintf_r+0x1910>
   18a98:	0c05                	addi	s8,s8,1
   18a9a:	fedc0fa3          	sb	a3,-1(s8)
   18a9e:	ff871de3          	bne	a4,s8,18a98 <_svfprintf_r+0x1906>
   18aa2:	419c07bb          	subw	a5,s8,s9
   18aa6:	f03e                	sd	a5,32(sp)
   18aa8:	b91fe06f          	j	17638 <_svfprintf_r+0x4a6>
   18aac:	ed26                	sd	s1,152(sp)
   18aae:	e802                	sd	zero,16(sp)
   18ab0:	84fe                	mv	s1,t6
   18ab2:	57fd                	li	a5,-1
   18ab4:	17fe                	slli	a5,a5,0x3f
   18ab6:	00f9c9b3          	xor	s3,s3,a5
   18aba:	02d00793          	li	a5,45
   18abe:	e5be                	sd	a5,200(sp)
   18ac0:	b549                	j	18942 <_svfprintf_r+0x17b0>
   18ac2:	77aa                	ld	a5,168(sp)
   18ac4:	8762                	mv	a4,s8
   18ac6:	fdbe                	sd	a5,248(sp)
   18ac8:	67c6                	ld	a5,80(sp)
   18aca:	fffc4683          	lbu	a3,-1(s8)
   18ace:	00f7c603          	lbu	a2,15(a5)
   18ad2:	00d61e63          	bne	a2,a3,18aee <_svfprintf_r+0x195c>
   18ad6:	03000593          	li	a1,48
   18ada:	feb70fa3          	sb	a1,-1(a4)
   18ade:	776e                	ld	a4,248(sp)
   18ae0:	fff70693          	addi	a3,a4,-1
   18ae4:	fdb6                	sd	a3,248(sp)
   18ae6:	fff74683          	lbu	a3,-1(a4)
   18aea:	fed608e3          	beq	a2,a3,18ada <_svfprintf_r+0x1948>
   18aee:	0016861b          	addiw	a2,a3,1
   18af2:	03900593          	li	a1,57
   18af6:	0ff67613          	andi	a2,a2,255
   18afa:	00b68563          	beq	a3,a1,18b04 <_svfprintf_r+0x1972>
   18afe:	fec70fa3          	sb	a2,-1(a4)
   18b02:	b745                	j	18aa2 <_svfprintf_r+0x1910>
   18b04:	67c6                	ld	a5,80(sp)
   18b06:	00a7c603          	lbu	a2,10(a5)
   18b0a:	fec70fa3          	sb	a2,-1(a4)
   18b0e:	bf51                	j	18aa2 <_svfprintf_r+0x1910>
   18b10:	001e859b          	addiw	a1,t4,1
   18b14:	8552                	mv	a0,s4
   18b16:	e81a                	sd	t1,16(sp)
   18b18:	e476                	sd	t4,8(sp)
   18b1a:	a09fc0ef          	jal	ra,15522 <_malloc_r>
   18b1e:	6ea2                	ld	t4,8(sp)
   18b20:	6342                	ld	t1,16(sp)
   18b22:	8caa                	mv	s9,a0
   18b24:	24050063          	beqz	a0,18d64 <_svfprintf_r+0x1bd2>
   18b28:	e82a                	sd	a0,16(sp)
   18b2a:	b509                	j	1892c <_svfprintf_r+0x179a>
   18b2c:	8826                	mv	a6,s1
   18b2e:	a16ff06f          	j	17d44 <_svfprintf_r+0xbb2>
   18b32:	03000793          	li	a5,48
   18b36:	0ef10023          	sb	a5,224(sp)
   18b3a:	07800713          	li	a4,120
   18b3e:	bbd1                	j	18912 <_svfprintf_r+0x1780>
   18b40:	04700793          	li	a5,71
   18b44:	01dc88b3          	add	a7,s9,t4
   18b48:	f0be                	sd	a5,96(sp)
   18b4a:	ab3fe06f          	j	175fc <_svfprintf_r+0x46a>
   18b4e:	2705                	addiw	a4,a4,1
   18b50:	97e2                	add	a5,a5,s8
   18b52:	01233023          	sd	s2,0(t1)
   18b56:	01833423          	sd	s8,8(t1)
   18b5a:	f23e                	sd	a5,288(sp)
   18b5c:	10e12c23          	sw	a4,280(sp)
   18b60:	469d                	li	a3,7
   18b62:	8ce6d0e3          	bge	a3,a4,18422 <_svfprintf_r+0x1290>
   18b66:	0a10                	addi	a2,sp,272
   18b68:	85d6                	mv	a1,s5
   18b6a:	8552                	mv	a0,s4
   18b6c:	468010ef          	jal	ra,19fd4 <__ssprint_r>
   18b70:	9a051a63          	bnez	a0,17d24 <_svfprintf_r+0xb92>
   18b74:	7792                	ld	a5,288(sp)
   18b76:	11812703          	lw	a4,280(sp)
   18b7a:	835e                	mv	t1,s7
   18b7c:	b065                	j	18424 <_svfprintf_r+0x1292>
   18b7e:	c31c                	sw	a5,0(a4)
   18b80:	8ca2                	mv	s9,s0
   18b82:	867fe06f          	j	173e8 <_svfprintf_r+0x256>
   18b86:	57fd                	li	a5,-1
   18b88:	e03e                	sd	a5,0(sp)
   18b8a:	87dfe06f          	j	17406 <_svfprintf_r+0x274>
   18b8e:	000e9363          	bnez	t4,18b94 <_svfprintf_r+0x1a02>
   18b92:	4e85                	li	t4,1
   18b94:	69b2                	ld	s3,264(sp)
   18b96:	1004ef93          	ori	t6,s1,256
   18b9a:	6c12                	ld	s8,256(sp)
   18b9c:	2f81                	sext.w	t6,t6
   18b9e:	f009c7e3          	bltz	s3,18aac <_svfprintf_r+0x191a>
   18ba2:	8776                	mv	a4,t4
   18ba4:	0f810893          	addi	a7,sp,248
   18ba8:	0ec10813          	addi	a6,sp,236
   18bac:	11bc                	addi	a5,sp,232
   18bae:	4689                	li	a3,2
   18bb0:	85e2                	mv	a1,s8
   18bb2:	864e                	mv	a2,s3
   18bb4:	8552                	mv	a0,s4
   18bb6:	e87e                	sd	t6,16(sp)
   18bb8:	f01a                	sd	t1,32(sp)
   18bba:	e476                	sd	t4,8(sp)
   18bbc:	901fb0ef          	jal	ra,144bc <_ldtoa_r>
   18bc0:	6fc2                	ld	t6,16(sp)
   18bc2:	ed26                	sd	s1,152(sp)
   18bc4:	6ea2                	ld	t4,8(sp)
   18bc6:	7302                	ld	t1,32(sp)
   18bc8:	8caa                	mv	s9,a0
   18bca:	84fe                	mv	s1,t6
   18bcc:	e802                	sd	zero,16(sp)
   18bce:	e582                	sd	zero,200(sp)
   18bd0:	b90d                	j	18802 <_svfprintf_r+0x1670>
   18bd2:	0f210713          	addi	a4,sp,242
   18bd6:	e699                	bnez	a3,18be4 <_svfprintf_r+0x1a52>
   18bd8:	03000713          	li	a4,48
   18bdc:	0ee10923          	sb	a4,242(sp)
   18be0:	0f310713          	addi	a4,sp,243
   18be4:	0c14                	addi	a3,sp,528
   18be6:	0307879b          	addiw	a5,a5,48
   18bea:	40d706b3          	sub	a3,a4,a3
   18bee:	00f70023          	sb	a5,0(a4)
   18bf2:	1216879b          	addiw	a5,a3,289
   18bf6:	e13e                	sd	a5,128(sp)
   18bf8:	b09fe06f          	j	17700 <_svfprintf_r+0x56e>
   18bfc:	e802                	sd	zero,16(sp)
   18bfe:	84be                	mv	s1,a5
   18c00:	bd4d                	j	18ab2 <_svfprintf_r+0x1920>
   18c02:	06700d93          	li	s11,103
   18c06:	77a6                	ld	a5,104(sp)
   18c08:	0ff00713          	li	a4,255
   18c0c:	e882                	sd	zero,80(sp)
   18c0e:	0007c783          	lbu	a5,0(a5)
   18c12:	f082                	sd	zero,96(sp)
   18c14:	02e78863          	beq	a5,a4,18c44 <_svfprintf_r+0x1ab2>
   18c18:	0ff00693          	li	a3,255
   18c1c:	6666                	ld	a2,88(sp)
   18c1e:	0007871b          	sext.w	a4,a5
   18c22:	02c7d163          	bge	a5,a2,18c44 <_svfprintf_r+0x1ab2>
   18c26:	75a6                	ld	a1,104(sp)
   18c28:	40e6073b          	subw	a4,a2,a4
   18c2c:	ecba                	sd	a4,88(sp)
   18c2e:	0015c783          	lbu	a5,1(a1)
   18c32:	cf8d                	beqz	a5,18c6c <_svfprintf_r+0x1ada>
   18c34:	7706                	ld	a4,96(sp)
   18c36:	2705                	addiw	a4,a4,1
   18c38:	f0ba                	sd	a4,96(sp)
   18c3a:	00158713          	addi	a4,a1,1
   18c3e:	f4ba                	sd	a4,104(sp)
   18c40:	fcd79ee3          	bne	a5,a3,18c1c <_svfprintf_r+0x1a8a>
   18c44:	7706                	ld	a4,96(sp)
   18c46:	67c6                	ld	a5,80(sp)
   18c48:	9fb9                	addw	a5,a5,a4
   18c4a:	672a                	ld	a4,136(sp)
   18c4c:	02e787bb          	mulw	a5,a5,a4
   18c50:	018787bb          	addw	a5,a5,s8
   18c54:	00078c1b          	sext.w	s8,a5
   18c58:	fffc4993          	not	s3,s8
   18c5c:	43f9d993          	srai	s3,s3,0x3f
   18c60:	0137f7b3          	and	a5,a5,s3
   18c64:	0007899b          	sext.w	s3,a5
   18c68:	ad3fe06f          	j	1773a <_svfprintf_r+0x5a8>
   18c6c:	6746                	ld	a4,80(sp)
   18c6e:	77a6                	ld	a5,104(sp)
   18c70:	2705                	addiw	a4,a4,1
   18c72:	0007c783          	lbu	a5,0(a5)
   18c76:	e8ba                	sd	a4,80(sp)
   18c78:	b7e1                	j	18c40 <_svfprintf_r+0x1aae>
   18c7a:	85ce                	mv	a1,s3
   18c7c:	8562                	mv	a0,s8
   18c7e:	fc1a                	sd	t1,56(sp)
   18c80:	f876                	sd	t4,48(sp)
   18c82:	5a8030ef          	jal	ra,1c22a <__trunctfdf2>
   18c86:	11a8                	addi	a0,sp,232
   18c88:	920fe0ef          	jal	ra,16da8 <frexp>
   18c8c:	4de030ef          	jal	ra,1c16a <__extenddftf2>
   18c90:	00004797          	auipc	a5,0x4
   18c94:	ad078793          	addi	a5,a5,-1328 # 1c760 <zeroes.4521+0x30>
   18c98:	6390                	ld	a2,0(a5)
   18c9a:	6794                	ld	a3,8(a5)
   18c9c:	5ce020ef          	jal	ra,1b26a <__multf3>
   18ca0:	4601                	li	a2,0
   18ca2:	4681                	li	a3,0
   18ca4:	f02a                	sd	a0,32(sp)
   18ca6:	e42e                	sd	a1,8(sp)
   18ca8:	3de020ef          	jal	ra,1b086 <__eqtf2>
   18cac:	62a2                	ld	t0,8(sp)
   18cae:	7702                	ld	a4,32(sp)
   18cb0:	7ec2                	ld	t4,48(sp)
   18cb2:	7362                	ld	t1,56(sp)
   18cb4:	e119                	bnez	a0,18cba <_svfprintf_r+0x1b28>
   18cb6:	4785                	li	a5,1
   18cb8:	d5be                	sw	a5,232(sp)
   18cba:	00004797          	auipc	a5,0x4
   18cbe:	8ce78793          	addi	a5,a5,-1842 # 1c588 <__clzdi2+0x12c>
   18cc2:	e8be                	sd	a5,80(sp)
   18cc4:	b9f1                	j	189a0 <_svfprintf_r+0x180e>
   18cc6:	77c6                	ld	a5,112(sp)
   18cc8:	06600d93          	li	s11,102
   18ccc:	00e78c3b          	addw	s8,a5,a4
   18cd0:	01dc0c3b          	addw	s8,s8,t4
   18cd4:	befd                	j	188d2 <_svfprintf_r+0x1740>
   18cd6:	40ec07bb          	subw	a5,s8,a4
   18cda:	2785                	addiw	a5,a5,1
   18cdc:	00078c1b          	sext.w	s8,a5
   18ce0:	fffc4993          	not	s3,s8
   18ce4:	43f9d993          	srai	s3,s3,0x3f
   18ce8:	0137f7b3          	and	a5,a5,s3
   18cec:	0007899b          	sext.w	s3,a5
   18cf0:	bc41                	j	18780 <_svfprintf_r+0x15ee>
   18cf2:	676a                	ld	a4,152(sp)
   18cf4:	8b05                	andi	a4,a4,1
   18cf6:	e319                	bnez	a4,18cfc <_svfprintf_r+0x1b6a>
   18cf8:	a23fe06f          	j	1771a <_svfprintf_r+0x588>
   18cfc:	a19fe06f          	j	17714 <_svfprintf_r+0x582>
   18d00:	e791                	bnez	a5,18d0c <_svfprintf_r+0x1b7a>
   18d02:	4985                	li	s3,1
   18d04:	06600d93          	li	s11,102
   18d08:	4c05                	li	s8,1
   18d0a:	bc9d                	j	18780 <_svfprintf_r+0x15ee>
   18d0c:	77c6                	ld	a5,112(sp)
   18d0e:	06600d93          	li	s11,102
   18d12:	2785                	addiw	a5,a5,1
   18d14:	01d78ebb          	addw	t4,a5,t4
   18d18:	000e8c1b          	sext.w	s8,t4
   18d1c:	fffc4993          	not	s3,s8
   18d20:	43f9d993          	srai	s3,s3,0x3f
   18d24:	013efeb3          	and	t4,t4,s3
   18d28:	000e899b          	sext.w	s3,t4
   18d2c:	bc91                	j	18780 <_svfprintf_r+0x15ee>
   18d2e:	871a                	mv	a4,t1
   18d30:	b051                	j	185b4 <_svfprintf_r+0x1422>
   18d32:	66e2                	ld	a3,24(sp)
   18d34:	4298                	lw	a4,0(a3)
   18d36:	06a1                	addi	a3,a3,8
   18d38:	00070e9b          	sext.w	t4,a4
   18d3c:	00075363          	bgez	a4,18d42 <_svfprintf_r+0x1bb0>
   18d40:	5efd                	li	t4,-1
   18d42:	00144f03          	lbu	t5,1(s0)
   18d46:	ec36                	sd	a3,24(sp)
   18d48:	843e                	mv	s0,a5
   18d4a:	d40fe06f          	j	1728a <_svfprintf_r+0xf8>
   18d4e:	47b1                	li	a5,12
   18d50:	00fa2023          	sw	a5,0(s4)
   18d54:	57fd                	li	a5,-1
   18d56:	e03e                	sd	a5,0(sp)
   18d58:	eaefe06f          	j	17406 <_svfprintf_r+0x274>
   18d5c:	4789                	li	a5,2
   18d5e:	e13e                	sd	a5,128(sp)
   18d60:	9a1fe06f          	j	17700 <_svfprintf_r+0x56e>
   18d64:	010ad783          	lhu	a5,16(s5)
   18d68:	0407e713          	ori	a4,a5,64
   18d6c:	87ba                	mv	a5,a4
   18d6e:	00ea9823          	sh	a4,16(s5)
   18d72:	e8afe06f          	j	173fc <_svfprintf_r+0x26a>

0000000000018d76 <__sprint_r.part.0>:
   18d76:	0ac5a783          	lw	a5,172(a1)
   18d7a:	715d                	addi	sp,sp,-80
   18d7c:	ec56                	sd	s5,24(sp)
   18d7e:	e486                	sd	ra,72(sp)
   18d80:	e0a2                	sd	s0,64(sp)
   18d82:	fc26                	sd	s1,56(sp)
   18d84:	f84a                	sd	s2,48(sp)
   18d86:	f44e                	sd	s3,40(sp)
   18d88:	f052                	sd	s4,32(sp)
   18d8a:	e85a                	sd	s6,16(sp)
   18d8c:	e45e                	sd	s7,8(sp)
   18d8e:	03279713          	slli	a4,a5,0x32
   18d92:	8ab2                	mv	s5,a2
   18d94:	08075063          	bgez	a4,18e14 <__sprint_r.part.0+0x9e>
   18d98:	6a18                	ld	a4,16(a2)
   18d9a:	00063b03          	ld	s6,0(a2)
   18d9e:	892e                	mv	s2,a1
   18da0:	89aa                	mv	s3,a0
   18da2:	5a7d                	li	s4,-1
   18da4:	c735                	beqz	a4,18e10 <__sprint_r.part.0+0x9a>
   18da6:	008b3783          	ld	a5,8(s6)
   18daa:	000b3403          	ld	s0,0(s6)
   18dae:	8389                	srli	a5,a5,0x2
   18db0:	00078b9b          	sext.w	s7,a5
   18db4:	05705763          	blez	s7,18e02 <__sprint_r.part.0+0x8c>
   18db8:	fff7849b          	addiw	s1,a5,-1
   18dbc:	1482                	slli	s1,s1,0x20
   18dbe:	80f9                	srli	s1,s1,0x1e
   18dc0:	00440793          	addi	a5,s0,4
   18dc4:	94be                	add	s1,s1,a5
   18dc6:	a019                	j	18dcc <__sprint_r.part.0+0x56>
   18dc8:	02848b63          	beq	s1,s0,18dfe <__sprint_r.part.0+0x88>
   18dcc:	400c                	lw	a1,0(s0)
   18dce:	864a                	mv	a2,s2
   18dd0:	854e                	mv	a0,s3
   18dd2:	7dd000ef          	jal	ra,19dae <_fputwc_r>
   18dd6:	2501                	sext.w	a0,a0
   18dd8:	0411                	addi	s0,s0,4
   18dda:	ff4517e3          	bne	a0,s4,18dc8 <__sprint_r.part.0+0x52>
   18dde:	557d                	li	a0,-1
   18de0:	60a6                	ld	ra,72(sp)
   18de2:	6406                	ld	s0,64(sp)
   18de4:	000ab823          	sd	zero,16(s5)
   18de8:	000aa423          	sw	zero,8(s5)
   18dec:	74e2                	ld	s1,56(sp)
   18dee:	7942                	ld	s2,48(sp)
   18df0:	79a2                	ld	s3,40(sp)
   18df2:	7a02                	ld	s4,32(sp)
   18df4:	6ae2                	ld	s5,24(sp)
   18df6:	6b42                	ld	s6,16(sp)
   18df8:	6ba2                	ld	s7,8(sp)
   18dfa:	6161                	addi	sp,sp,80
   18dfc:	8082                	ret
   18dfe:	010ab703          	ld	a4,16(s5)
   18e02:	0b8a                	slli	s7,s7,0x2
   18e04:	41770733          	sub	a4,a4,s7
   18e08:	00eab823          	sd	a4,16(s5)
   18e0c:	0b41                	addi	s6,s6,16
   18e0e:	ff41                	bnez	a4,18da6 <__sprint_r.part.0+0x30>
   18e10:	4501                	li	a0,0
   18e12:	b7f9                	j	18de0 <__sprint_r.part.0+0x6a>
   18e14:	876fa0ef          	jal	ra,12e8a <__sfvwrite_r>
   18e18:	b7e1                	j	18de0 <__sprint_r.part.0+0x6a>

0000000000018e1a <__sprint_r>:
   18e1a:	6a18                	ld	a4,16(a2)
   18e1c:	c311                	beqz	a4,18e20 <__sprint_r+0x6>
   18e1e:	bfa1                	j	18d76 <__sprint_r.part.0>
   18e20:	00062423          	sw	zero,8(a2)
   18e24:	4501                	li	a0,0
   18e26:	8082                	ret

0000000000018e28 <_vfiprintf_r>:
   18e28:	7145                	addi	sp,sp,-464
   18e2a:	fb4a                	sd	s2,432(sp)
   18e2c:	f74e                	sd	s3,424(sp)
   18e2e:	eb5a                	sd	s6,400(sp)
   18e30:	f6ee                	sd	s11,360(sp)
   18e32:	e786                	sd	ra,456(sp)
   18e34:	e3a2                	sd	s0,448(sp)
   18e36:	ff26                	sd	s1,440(sp)
   18e38:	f352                	sd	s4,416(sp)
   18e3a:	ef56                	sd	s5,408(sp)
   18e3c:	e75e                	sd	s7,392(sp)
   18e3e:	e362                	sd	s8,384(sp)
   18e40:	fee6                	sd	s9,376(sp)
   18e42:	faea                	sd	s10,368(sp)
   18e44:	89aa                	mv	s3,a0
   18e46:	892e                	mv	s2,a1
   18e48:	8db2                	mv	s11,a2
   18e4a:	8b36                	mv	s6,a3
   18e4c:	c501                	beqz	a0,18e54 <_vfiprintf_r+0x2c>
   18e4e:	493c                	lw	a5,80(a0)
   18e50:	3e078f63          	beqz	a5,1924e <_vfiprintf_r+0x426>
   18e54:	01091703          	lh	a4,16(s2)
   18e58:	03071793          	slli	a5,a4,0x30
   18e5c:	03271693          	slli	a3,a4,0x32
   18e60:	93c1                	srli	a5,a5,0x30
   18e62:	0006cf63          	bltz	a3,18e80 <_vfiprintf_r+0x58>
   18e66:	0ac92683          	lw	a3,172(s2)
   18e6a:	6789                	lui	a5,0x2
   18e6c:	8fd9                	or	a5,a5,a4
   18e6e:	7779                	lui	a4,0xffffe
   18e70:	177d                	addi	a4,a4,-1
   18e72:	8f75                	and	a4,a4,a3
   18e74:	00f91823          	sh	a5,16(s2)
   18e78:	17c2                	slli	a5,a5,0x30
   18e7a:	0ae92623          	sw	a4,172(s2)
   18e7e:	93c1                	srli	a5,a5,0x30
   18e80:	0087f713          	andi	a4,a5,8
   18e84:	28070f63          	beqz	a4,19122 <_vfiprintf_r+0x2fa>
   18e88:	01893703          	ld	a4,24(s2)
   18e8c:	28070b63          	beqz	a4,19122 <_vfiprintf_r+0x2fa>
   18e90:	8be9                	andi	a5,a5,26
   18e92:	4729                	li	a4,10
   18e94:	2ae78363          	beq	a5,a4,1913a <_vfiprintf_r+0x312>
   18e98:	77e1                	lui	a5,0xffff8
   18e9a:	1180                	addi	s0,sp,224
   18e9c:	8307c793          	xori	a5,a5,-2000
   18ea0:	f0a2                	sd	s0,96(sp)
   18ea2:	f882                	sd	zero,112(sp)
   18ea4:	d482                	sw	zero,104(sp)
   18ea6:	8722                	mv	a4,s0
   18ea8:	e802                	sd	zero,16(sp)
   18eaa:	f802                	sd	zero,48(sp)
   18eac:	e082                	sd	zero,64(sp)
   18eae:	fc02                	sd	zero,56(sp)
   18eb0:	e402                	sd	zero,8(sp)
   18eb2:	e4be                	sd	a5,72(sp)
   18eb4:	000dc783          	lbu	a5,0(s11)
   18eb8:	1c078763          	beqz	a5,19086 <_vfiprintf_r+0x25e>
   18ebc:	8a6e                	mv	s4,s11
   18ebe:	02500693          	li	a3,37
   18ec2:	2ed78463          	beq	a5,a3,191aa <_vfiprintf_r+0x382>
   18ec6:	001a4783          	lbu	a5,1(s4)
   18eca:	0a05                	addi	s4,s4,1
   18ecc:	fbfd                	bnez	a5,18ec2 <_vfiprintf_r+0x9a>
   18ece:	41ba04bb          	subw	s1,s4,s11
   18ed2:	1a048a63          	beqz	s1,19086 <_vfiprintf_r+0x25e>
   18ed6:	57a6                	lw	a5,104(sp)
   18ed8:	76c6                	ld	a3,112(sp)
   18eda:	01b73023          	sd	s11,0(a4) # ffffffffffffe000 <__BSS_END__+0xfffffffffffdeb50>
   18ede:	0017861b          	addiw	a2,a5,1
   18ee2:	96a6                	add	a3,a3,s1
   18ee4:	e704                	sd	s1,8(a4)
   18ee6:	f8b6                	sd	a3,112(sp)
   18ee8:	d4b2                	sw	a2,104(sp)
   18eea:	479d                	li	a5,7
   18eec:	0741                	addi	a4,a4,16
   18eee:	00c7dc63          	bge	a5,a2,18f06 <_vfiprintf_r+0xde>
   18ef2:	080687e3          	beqz	a3,19780 <_vfiprintf_r+0x958>
   18ef6:	1090                	addi	a2,sp,96
   18ef8:	85ca                	mv	a1,s2
   18efa:	854e                	mv	a0,s3
   18efc:	e7bff0ef          	jal	ra,18d76 <__sprint_r.part.0>
   18f00:	18051663          	bnez	a0,1908c <_vfiprintf_r+0x264>
   18f04:	8722                	mv	a4,s0
   18f06:	66a2                	ld	a3,8(sp)
   18f08:	000a4783          	lbu	a5,0(s4)
   18f0c:	9ea5                	addw	a3,a3,s1
   18f0e:	e436                	sd	a3,8(sp)
   18f10:	16078b63          	beqz	a5,19086 <_vfiprintf_r+0x25e>
   18f14:	001a4683          	lbu	a3,1(s4)
   18f18:	001a0d93          	addi	s11,s4,1
   18f1c:	04010ba3          	sb	zero,87(sp)
   18f20:	5cfd                	li	s9,-1
   18f22:	4481                	li	s1,0
   18f24:	4d01                	li	s10,0
   18f26:	4a25                	li	s4,9
   18f28:	02a00a93          	li	s5,42
   18f2c:	0d85                	addi	s11,s11,1
   18f2e:	2681                	sext.w	a3,a3
   18f30:	05a00593          	li	a1,90
   18f34:	fe06879b          	addiw	a5,a3,-32
   18f38:	0007861b          	sext.w	a2,a5
   18f3c:	04c5e463          	bltu	a1,a2,18f84 <_vfiprintf_r+0x15c>
   18f40:	1782                	slli	a5,a5,0x20
   18f42:	00004617          	auipc	a2,0x4
   18f46:	d9e60613          	addi	a2,a2,-610 # 1cce0 <zeroes.4506+0x10>
   18f4a:	83f9                	srli	a5,a5,0x1e
   18f4c:	97b2                	add	a5,a5,a2
   18f4e:	439c                	lw	a5,0(a5)
   18f50:	97b2                	add	a5,a5,a2
   18f52:	8782                	jr	a5
   18f54:	4481                	li	s1,0
   18f56:	000dc603          	lbu	a2,0(s11)
   18f5a:	0024979b          	slliw	a5,s1,0x2
   18f5e:	9cbd                	addw	s1,s1,a5
   18f60:	fd06869b          	addiw	a3,a3,-48
   18f64:	0014949b          	slliw	s1,s1,0x1
   18f68:	fd06079b          	addiw	a5,a2,-48
   18f6c:	9cb5                	addw	s1,s1,a3
   18f6e:	0d85                	addi	s11,s11,1
   18f70:	0006069b          	sext.w	a3,a2
   18f74:	fefa71e3          	bgeu	s4,a5,18f56 <_vfiprintf_r+0x12e>
   18f78:	fe06879b          	addiw	a5,a3,-32
   18f7c:	0007861b          	sext.w	a2,a5
   18f80:	fcc5f0e3          	bgeu	a1,a2,18f40 <_vfiprintf_r+0x118>
   18f84:	10068163          	beqz	a3,19086 <_vfiprintf_r+0x25e>
   18f88:	06d10c23          	sb	a3,120(sp)
   18f8c:	04010ba3          	sb	zero,87(sp)
   18f90:	4a85                	li	s5,1
   18f92:	4a05                	li	s4,1
   18f94:	07810c13          	addi	s8,sp,120
   18f98:	4c81                	li	s9,0
   18f9a:	002d7793          	andi	a5,s10,2
   18f9e:	0007839b          	sext.w	t2,a5
   18fa2:	c391                	beqz	a5,18fa6 <_vfiprintf_r+0x17e>
   18fa4:	2a89                	addiw	s5,s5,2
   18fa6:	5626                	lw	a2,104(sp)
   18fa8:	084d7f93          	andi	t6,s10,132
   18fac:	77c6                	ld	a5,112(sp)
   18fae:	0016051b          	addiw	a0,a2,1
   18fb2:	85aa                	mv	a1,a0
   18fb4:	000f9663          	bnez	t6,18fc0 <_vfiprintf_r+0x198>
   18fb8:	41548bbb          	subw	s7,s1,s5
   18fbc:	67704163          	bgtz	s7,1961e <_vfiprintf_r+0x7f6>
   18fc0:	05714583          	lbu	a1,87(sp)
   18fc4:	01070693          	addi	a3,a4,16
   18fc8:	c185                	beqz	a1,18fe8 <_vfiprintf_r+0x1c0>
   18fca:	05710613          	addi	a2,sp,87
   18fce:	e310                	sd	a2,0(a4)
   18fd0:	0785                	addi	a5,a5,1
   18fd2:	4605                	li	a2,1
   18fd4:	e710                	sd	a2,8(a4)
   18fd6:	f8be                	sd	a5,112(sp)
   18fd8:	d4aa                	sw	a0,104(sp)
   18fda:	471d                	li	a4,7
   18fdc:	5ea74063          	blt	a4,a0,195bc <_vfiprintf_r+0x794>
   18fe0:	862a                	mv	a2,a0
   18fe2:	8736                	mv	a4,a3
   18fe4:	2505                	addiw	a0,a0,1
   18fe6:	06c1                	addi	a3,a3,16
   18fe8:	02038c63          	beqz	t2,19020 <_vfiprintf_r+0x1f8>
   18fec:	08b0                	addi	a2,sp,88
   18fee:	e310                	sd	a2,0(a4)
   18ff0:	0789                	addi	a5,a5,2
   18ff2:	4609                	li	a2,2
   18ff4:	e710                	sd	a2,8(a4)
   18ff6:	f8be                	sd	a5,112(sp)
   18ff8:	d4aa                	sw	a0,104(sp)
   18ffa:	471d                	li	a4,7
   18ffc:	5ea75a63          	bge	a4,a0,195f0 <_vfiprintf_r+0x7c8>
   19000:	78078d63          	beqz	a5,1979a <_vfiprintf_r+0x972>
   19004:	1090                	addi	a2,sp,96
   19006:	85ca                	mv	a1,s2
   19008:	854e                	mv	a0,s3
   1900a:	ec7e                	sd	t6,24(sp)
   1900c:	d6bff0ef          	jal	ra,18d76 <__sprint_r.part.0>
   19010:	ed35                	bnez	a0,1908c <_vfiprintf_r+0x264>
   19012:	5626                	lw	a2,104(sp)
   19014:	77c6                	ld	a5,112(sp)
   19016:	6fe2                	ld	t6,24(sp)
   19018:	1994                	addi	a3,sp,240
   1901a:	0016051b          	addiw	a0,a2,1
   1901e:	8722                	mv	a4,s0
   19020:	08000593          	li	a1,128
   19024:	44bf8963          	beq	t6,a1,19476 <_vfiprintf_r+0x64e>
   19028:	414c8cbb          	subw	s9,s9,s4
   1902c:	4f904963          	bgtz	s9,1951e <_vfiprintf_r+0x6f6>
   19030:	97d2                	add	a5,a5,s4
   19032:	01873023          	sd	s8,0(a4)
   19036:	01473423          	sd	s4,8(a4)
   1903a:	f8be                	sd	a5,112(sp)
   1903c:	d4aa                	sw	a0,104(sp)
   1903e:	471d                	li	a4,7
   19040:	00a75c63          	bge	a4,a0,19058 <_vfiprintf_r+0x230>
   19044:	66078663          	beqz	a5,196b0 <_vfiprintf_r+0x888>
   19048:	1090                	addi	a2,sp,96
   1904a:	85ca                	mv	a1,s2
   1904c:	854e                	mv	a0,s3
   1904e:	d29ff0ef          	jal	ra,18d76 <__sprint_r.part.0>
   19052:	ed0d                	bnez	a0,1908c <_vfiprintf_r+0x264>
   19054:	77c6                	ld	a5,112(sp)
   19056:	86a2                	mv	a3,s0
   19058:	004d7e13          	andi	t3,s10,4
   1905c:	000e0663          	beqz	t3,19068 <_vfiprintf_r+0x240>
   19060:	41548a3b          	subw	s4,s1,s5
   19064:	67404063          	bgtz	s4,196c4 <_vfiprintf_r+0x89c>
   19068:	8726                	mv	a4,s1
   1906a:	0154d363          	bge	s1,s5,19070 <_vfiprintf_r+0x248>
   1906e:	8756                	mv	a4,s5
   19070:	66a2                	ld	a3,8(sp)
   19072:	9f35                	addw	a4,a4,a3
   19074:	e43a                	sd	a4,8(sp)
   19076:	52079763          	bnez	a5,195a4 <_vfiprintf_r+0x77c>
   1907a:	000dc783          	lbu	a5,0(s11)
   1907e:	d482                	sw	zero,104(sp)
   19080:	8722                	mv	a4,s0
   19082:	e2079de3          	bnez	a5,18ebc <_vfiprintf_r+0x94>
   19086:	77c6                	ld	a5,112(sp)
   19088:	160792e3          	bnez	a5,199ec <_vfiprintf_r+0xbc4>
   1908c:	01095783          	lhu	a5,16(s2)
   19090:	0407f793          	andi	a5,a5,64
   19094:	180795e3          	bnez	a5,19a1e <_vfiprintf_r+0xbf6>
   19098:	60be                	ld	ra,456(sp)
   1909a:	641e                	ld	s0,448(sp)
   1909c:	6522                	ld	a0,8(sp)
   1909e:	74fa                	ld	s1,440(sp)
   190a0:	795a                	ld	s2,432(sp)
   190a2:	79ba                	ld	s3,424(sp)
   190a4:	7a1a                	ld	s4,416(sp)
   190a6:	6afa                	ld	s5,408(sp)
   190a8:	6b5a                	ld	s6,400(sp)
   190aa:	6bba                	ld	s7,392(sp)
   190ac:	6c1a                	ld	s8,384(sp)
   190ae:	7cf6                	ld	s9,376(sp)
   190b0:	7d56                	ld	s10,368(sp)
   190b2:	7db6                	ld	s11,360(sp)
   190b4:	6179                	addi	sp,sp,464
   190b6:	8082                	ret
   190b8:	010d6e13          	ori	t3,s10,16
   190bc:	000dc683          	lbu	a3,0(s11)
   190c0:	000e0d1b          	sext.w	s10,t3
   190c4:	b5a5                	j	18f2c <_vfiprintf_r+0x104>
   190c6:	010d6e13          	ori	t3,s10,16
   190ca:	000e0d1b          	sext.w	s10,t3
   190ce:	020d7793          	andi	a5,s10,32
   190d2:	008b0693          	addi	a3,s6,8
   190d6:	0e078e63          	beqz	a5,191d2 <_vfiprintf_r+0x3aa>
   190da:	000b3783          	ld	a5,0(s6)
   190de:	8a3e                	mv	s4,a5
   190e0:	1007c663          	bltz	a5,191ec <_vfiprintf_r+0x3c4>
   190e4:	57fd                	li	a5,-1
   190e6:	8aea                	mv	s5,s10
   190e8:	8b36                	mv	s6,a3
   190ea:	50fc8e63          	beq	s9,a5,19606 <_vfiprintf_r+0x7de>
   190ee:	f7fd7e13          	andi	t3,s10,-129
   190f2:	000e0a9b          	sext.w	s5,t3
   190f6:	760a1563          	bnez	s4,19860 <_vfiprintf_r+0xa38>
   190fa:	500c9963          	bnez	s9,1960c <_vfiprintf_r+0x7e4>
   190fe:	8d56                	mv	s10,s5
   19100:	4c81                	li	s9,0
   19102:	4a01                	li	s4,0
   19104:	0dc10c13          	addi	s8,sp,220
   19108:	87e6                	mv	a5,s9
   1910a:	014cd363          	bge	s9,s4,19110 <_vfiprintf_r+0x2e8>
   1910e:	87d2                	mv	a5,s4
   19110:	05714683          	lbu	a3,87(sp)
   19114:	00078a9b          	sext.w	s5,a5
   19118:	e80681e3          	beqz	a3,18f9a <_vfiprintf_r+0x172>
   1911c:	00178a9b          	addiw	s5,a5,1
   19120:	bdad                	j	18f9a <_vfiprintf_r+0x172>
   19122:	85ca                	mv	a1,s2
   19124:	854e                	mv	a0,s3
   19126:	bfaf90ef          	jal	ra,12520 <__swsetup_r>
   1912a:	0e051ae3          	bnez	a0,19a1e <_vfiprintf_r+0xbf6>
   1912e:	01095783          	lhu	a5,16(s2)
   19132:	4729                	li	a4,10
   19134:	8be9                	andi	a5,a5,26
   19136:	d6e791e3          	bne	a5,a4,18e98 <_vfiprintf_r+0x70>
   1913a:	01291783          	lh	a5,18(s2)
   1913e:	d407cde3          	bltz	a5,18e98 <_vfiprintf_r+0x70>
   19142:	86da                	mv	a3,s6
   19144:	866e                	mv	a2,s11
   19146:	85ca                	mv	a1,s2
   19148:	854e                	mv	a0,s3
   1914a:	11b000ef          	jal	ra,19a64 <__sbprintf>
   1914e:	e42a                	sd	a0,8(sp)
   19150:	b7a1                	j	19098 <_vfiprintf_r+0x270>
   19152:	010d6e13          	ori	t3,s10,16
   19156:	000e0d1b          	sext.w	s10,t3
   1915a:	020d7793          	andi	a5,s10,32
   1915e:	008b0693          	addi	a3,s6,8
   19162:	cbb9                	beqz	a5,191b8 <_vfiprintf_r+0x390>
   19164:	000b3a03          	ld	s4,0(s6)
   19168:	bffd7e13          	andi	t3,s10,-1025
   1916c:	000e0a9b          	sext.w	s5,t3
   19170:	8b36                	mv	s6,a3
   19172:	4781                	li	a5,0
   19174:	04010ba3          	sb	zero,87(sp)
   19178:	56fd                	li	a3,-1
   1917a:	08dc8563          	beq	s9,a3,19204 <_vfiprintf_r+0x3dc>
   1917e:	f7fafe13          	andi	t3,s5,-129
   19182:	000e0d1b          	sext.w	s10,t3
   19186:	460a1c63          	bnez	s4,195fe <_vfiprintf_r+0x7d6>
   1918a:	2a0c9b63          	bnez	s9,19440 <_vfiprintf_r+0x618>
   1918e:	fbad                	bnez	a5,19100 <_vfiprintf_r+0x2d8>
   19190:	001afa13          	andi	s4,s5,1
   19194:	0dc10c13          	addi	s8,sp,220
   19198:	f60a08e3          	beqz	s4,19108 <_vfiprintf_r+0x2e0>
   1919c:	03000793          	li	a5,48
   191a0:	0cf10da3          	sb	a5,219(sp)
   191a4:	0db10c13          	addi	s8,sp,219
   191a8:	b785                	j	19108 <_vfiprintf_r+0x2e0>
   191aa:	41ba04bb          	subw	s1,s4,s11
   191ae:	d20494e3          	bnez	s1,18ed6 <_vfiprintf_r+0xae>
   191b2:	000a4783          	lbu	a5,0(s4)
   191b6:	bba9                	j	18f10 <_vfiprintf_r+0xe8>
   191b8:	010d7793          	andi	a5,s10,16
   191bc:	f7c5                	bnez	a5,19164 <_vfiprintf_r+0x33c>
   191be:	040d7793          	andi	a5,s10,64
   191c2:	000b2a03          	lw	s4,0(s6)
   191c6:	78078c63          	beqz	a5,1995e <_vfiprintf_r+0xb36>
   191ca:	1a42                	slli	s4,s4,0x30
   191cc:	030a5a13          	srli	s4,s4,0x30
   191d0:	bf61                	j	19168 <_vfiprintf_r+0x340>
   191d2:	010d7793          	andi	a5,s10,16
   191d6:	f00792e3          	bnez	a5,190da <_vfiprintf_r+0x2b2>
   191da:	040d7793          	andi	a5,s10,64
   191de:	76078863          	beqz	a5,1994e <_vfiprintf_r+0xb26>
   191e2:	000b1a03          	lh	s4,0(s6)
   191e6:	87d2                	mv	a5,s4
   191e8:	ee07dee3          	bgez	a5,190e4 <_vfiprintf_r+0x2bc>
   191ec:	02d00793          	li	a5,45
   191f0:	04f10ba3          	sb	a5,87(sp)
   191f4:	8b36                	mv	s6,a3
   191f6:	56fd                	li	a3,-1
   191f8:	41400a33          	neg	s4,s4
   191fc:	8aea                	mv	s5,s10
   191fe:	4785                	li	a5,1
   19200:	f6dc9fe3          	bne	s9,a3,1917e <_vfiprintf_r+0x356>
   19204:	4685                	li	a3,1
   19206:	40d78063          	beq	a5,a3,19606 <_vfiprintf_r+0x7de>
   1920a:	4689                	li	a3,2
   1920c:	24d78163          	beq	a5,a3,1944e <_vfiprintf_r+0x626>
   19210:	0dc10c13          	addi	s8,sp,220
   19214:	007a7793          	andi	a5,s4,7
   19218:	03078793          	addi	a5,a5,48 # ffffffffffff8030 <__BSS_END__+0xfffffffffffd8b80>
   1921c:	fefc0fa3          	sb	a5,-1(s8)
   19220:	003a5a13          	srli	s4,s4,0x3
   19224:	86e2                	mv	a3,s8
   19226:	1c7d                	addi	s8,s8,-1
   19228:	fe0a16e3          	bnez	s4,19214 <_vfiprintf_r+0x3ec>
   1922c:	001af613          	andi	a2,s5,1
   19230:	22060e63          	beqz	a2,1946c <_vfiprintf_r+0x644>
   19234:	03000613          	li	a2,48
   19238:	22c78a63          	beq	a5,a2,1946c <_vfiprintf_r+0x644>
   1923c:	16f9                	addi	a3,a3,-2
   1923e:	09fc                	addi	a5,sp,220
   19240:	fecc0fa3          	sb	a2,-1(s8)
   19244:	40d78a3b          	subw	s4,a5,a3
   19248:	8d56                	mv	s10,s5
   1924a:	8c36                	mv	s8,a3
   1924c:	bd75                	j	19108 <_vfiprintf_r+0x2e0>
   1924e:	8b3f90ef          	jal	ra,12b00 <__sinit>
   19252:	b109                	j	18e54 <_vfiprintf_r+0x2c>
   19254:	000b3c03          	ld	s8,0(s6)
   19258:	04010ba3          	sb	zero,87(sp)
   1925c:	0b21                	addi	s6,s6,8
   1925e:	6c0c0c63          	beqz	s8,19936 <_vfiprintf_r+0xb0e>
   19262:	57fd                	li	a5,-1
   19264:	ec3a                	sd	a4,24(sp)
   19266:	66fc8963          	beq	s9,a5,198d8 <_vfiprintf_r+0xab0>
   1926a:	8666                	mv	a2,s9
   1926c:	4581                	li	a1,0
   1926e:	8562                	mv	a0,s8
   19270:	91ffc0ef          	jal	ra,15b8e <memchr>
   19274:	6762                	ld	a4,24(sp)
   19276:	78050263          	beqz	a0,199fa <_vfiprintf_r+0xbd2>
   1927a:	41850a3b          	subw	s4,a0,s8
   1927e:	4c81                	li	s9,0
   19280:	b561                	j	19108 <_vfiprintf_r+0x2e0>
   19282:	000b2783          	lw	a5,0(s6)
   19286:	04010ba3          	sb	zero,87(sp)
   1928a:	0b21                	addi	s6,s6,8
   1928c:	06f10c23          	sb	a5,120(sp)
   19290:	4a85                	li	s5,1
   19292:	4a05                	li	s4,1
   19294:	07810c13          	addi	s8,sp,120
   19298:	b301                	j	18f98 <_vfiprintf_r+0x170>
   1929a:	020d6e13          	ori	t3,s10,32
   1929e:	000dc683          	lbu	a3,0(s11)
   192a2:	000e0d1b          	sext.w	s10,t3
   192a6:	b159                	j	18f2c <_vfiprintf_r+0x104>
   192a8:	67a6                	ld	a5,72(sp)
   192aa:	002d6e13          	ori	t3,s10,2
   192ae:	000b3a03          	ld	s4,0(s6)
   192b2:	04f11c23          	sh	a5,88(sp)
   192b6:	00003797          	auipc	a5,0x3
   192ba:	2d278793          	addi	a5,a5,722 # 1c588 <__clzdi2+0x12c>
   192be:	e83e                	sd	a5,16(sp)
   192c0:	000e0a9b          	sext.w	s5,t3
   192c4:	0b21                	addi	s6,s6,8
   192c6:	4789                	li	a5,2
   192c8:	b575                	j	19174 <_vfiprintf_r+0x34c>
   192ca:	020d7793          	andi	a5,s10,32
   192ce:	000b3683          	ld	a3,0(s6)
   192d2:	0b21                	addi	s6,s6,8
   192d4:	e385                	bnez	a5,192f4 <_vfiprintf_r+0x4cc>
   192d6:	010d7793          	andi	a5,s10,16
   192da:	ef89                	bnez	a5,192f4 <_vfiprintf_r+0x4cc>
   192dc:	040d7793          	andi	a5,s10,64
   192e0:	6c079c63          	bnez	a5,199b8 <_vfiprintf_r+0xb90>
   192e4:	200d7e13          	andi	t3,s10,512
   192e8:	67a2                	ld	a5,8(sp)
   192ea:	740e0563          	beqz	t3,19a34 <_vfiprintf_r+0xc0c>
   192ee:	00f68023          	sb	a5,0(a3)
   192f2:	b6c9                	j	18eb4 <_vfiprintf_r+0x8c>
   192f4:	67a2                	ld	a5,8(sp)
   192f6:	e29c                	sd	a5,0(a3)
   192f8:	be75                	j	18eb4 <_vfiprintf_r+0x8c>
   192fa:	000dc683          	lbu	a3,0(s11)
   192fe:	06c00793          	li	a5,108
   19302:	62f68163          	beq	a3,a5,19924 <_vfiprintf_r+0xafc>
   19306:	010d6e13          	ori	t3,s10,16
   1930a:	000e0d1b          	sext.w	s10,t3
   1930e:	b939                	j	18f2c <_vfiprintf_r+0x104>
   19310:	000dc683          	lbu	a3,0(s11)
   19314:	06800793          	li	a5,104
   19318:	5ef68d63          	beq	a3,a5,19912 <_vfiprintf_r+0xaea>
   1931c:	040d6e13          	ori	t3,s10,64
   19320:	000e0d1b          	sext.w	s10,t3
   19324:	b121                	j	18f2c <_vfiprintf_r+0x104>
   19326:	010d6e13          	ori	t3,s10,16
   1932a:	000e0a9b          	sext.w	s5,t3
   1932e:	020af793          	andi	a5,s5,32
   19332:	008b0693          	addi	a3,s6,8
   19336:	e385                	bnez	a5,19356 <_vfiprintf_r+0x52e>
   19338:	010af793          	andi	a5,s5,16
   1933c:	ef89                	bnez	a5,19356 <_vfiprintf_r+0x52e>
   1933e:	040af793          	andi	a5,s5,64
   19342:	000b2a03          	lw	s4,0(s6)
   19346:	62078963          	beqz	a5,19978 <_vfiprintf_r+0xb50>
   1934a:	1a42                	slli	s4,s4,0x30
   1934c:	030a5a13          	srli	s4,s4,0x30
   19350:	8b36                	mv	s6,a3
   19352:	4785                	li	a5,1
   19354:	b505                	j	19174 <_vfiprintf_r+0x34c>
   19356:	000b3a03          	ld	s4,0(s6)
   1935a:	4785                	li	a5,1
   1935c:	8b36                	mv	s6,a3
   1935e:	bd19                	j	19174 <_vfiprintf_r+0x34c>
   19360:	080d6e13          	ori	t3,s10,128
   19364:	000dc683          	lbu	a3,0(s11)
   19368:	000e0d1b          	sext.w	s10,t3
   1936c:	b6c1                	j	18f2c <_vfiprintf_r+0x104>
   1936e:	000dc603          	lbu	a2,0(s11)
   19372:	001d8793          	addi	a5,s11,1
   19376:	0006069b          	sext.w	a3,a2
   1937a:	6cca8063          	beq	s5,a2,19a3a <_vfiprintf_r+0xc12>
   1937e:	fd06061b          	addiw	a2,a2,-48
   19382:	8dbe                	mv	s11,a5
   19384:	4c81                	li	s9,0
   19386:	baca67e3          	bltu	s4,a2,18f34 <_vfiprintf_r+0x10c>
   1938a:	000dc683          	lbu	a3,0(s11)
   1938e:	002c979b          	slliw	a5,s9,0x2
   19392:	0197883b          	addw	a6,a5,s9
   19396:	0018181b          	slliw	a6,a6,0x1
   1939a:	00c80cbb          	addw	s9,a6,a2
   1939e:	fd06861b          	addiw	a2,a3,-48
   193a2:	0d85                	addi	s11,s11,1
   193a4:	feca73e3          	bgeu	s4,a2,1938a <_vfiprintf_r+0x562>
   193a8:	b671                	j	18f34 <_vfiprintf_r+0x10c>
   193aa:	000dc683          	lbu	a3,0(s11)
   193ae:	004d6e13          	ori	t3,s10,4
   193b2:	000e0d1b          	sext.w	s10,t3
   193b6:	be9d                	j	18f2c <_vfiprintf_r+0x104>
   193b8:	02b00793          	li	a5,43
   193bc:	000dc683          	lbu	a3,0(s11)
   193c0:	04f10ba3          	sb	a5,87(sp)
   193c4:	b6a5                	j	18f2c <_vfiprintf_r+0x104>
   193c6:	000b2483          	lw	s1,0(s6)
   193ca:	000dc683          	lbu	a3,0(s11)
   193ce:	0b21                	addi	s6,s6,8
   193d0:	b404dee3          	bgez	s1,18f2c <_vfiprintf_r+0x104>
   193d4:	409004bb          	negw	s1,s1
   193d8:	bfd9                	j	193ae <_vfiprintf_r+0x586>
   193da:	854e                	mv	a0,s3
   193dc:	ec3a                	sd	a4,24(sp)
   193de:	f93fb0ef          	jal	ra,15370 <_localeconv_r>
   193e2:	651c                	ld	a5,8(a0)
   193e4:	853e                	mv	a0,a5
   193e6:	fc3e                	sd	a5,56(sp)
   193e8:	be8f70ef          	jal	ra,107d0 <strlen>
   193ec:	87aa                	mv	a5,a0
   193ee:	854e                	mv	a0,s3
   193f0:	8bbe                	mv	s7,a5
   193f2:	e0be                	sd	a5,64(sp)
   193f4:	f7dfb0ef          	jal	ra,15370 <_localeconv_r>
   193f8:	691c                	ld	a5,16(a0)
   193fa:	6762                	ld	a4,24(sp)
   193fc:	000dc683          	lbu	a3,0(s11)
   19400:	f83e                	sd	a5,48(sp)
   19402:	b20b85e3          	beqz	s7,18f2c <_vfiprintf_r+0x104>
   19406:	b20783e3          	beqz	a5,18f2c <_vfiprintf_r+0x104>
   1940a:	0007c783          	lbu	a5,0(a5)
   1940e:	b0078fe3          	beqz	a5,18f2c <_vfiprintf_r+0x104>
   19412:	400d6e13          	ori	t3,s10,1024
   19416:	000e0d1b          	sext.w	s10,t3
   1941a:	be09                	j	18f2c <_vfiprintf_r+0x104>
   1941c:	001d6e13          	ori	t3,s10,1
   19420:	000dc683          	lbu	a3,0(s11)
   19424:	000e0d1b          	sext.w	s10,t3
   19428:	b611                	j	18f2c <_vfiprintf_r+0x104>
   1942a:	05714783          	lbu	a5,87(sp)
   1942e:	000dc683          	lbu	a3,0(s11)
   19432:	ae079de3          	bnez	a5,18f2c <_vfiprintf_r+0x104>
   19436:	02000793          	li	a5,32
   1943a:	04f10ba3          	sb	a5,87(sp)
   1943e:	b4fd                	j	18f2c <_vfiprintf_r+0x104>
   19440:	4685                	li	a3,1
   19442:	5cd78c63          	beq	a5,a3,19a1a <_vfiprintf_r+0xbf2>
   19446:	4689                	li	a3,2
   19448:	8aea                	mv	s5,s10
   1944a:	dcd793e3          	bne	a5,a3,19210 <_vfiprintf_r+0x3e8>
   1944e:	0dc10c13          	addi	s8,sp,220
   19452:	66c2                	ld	a3,16(sp)
   19454:	00fa7793          	andi	a5,s4,15
   19458:	1c7d                	addi	s8,s8,-1
   1945a:	97b6                	add	a5,a5,a3
   1945c:	0007c783          	lbu	a5,0(a5)
   19460:	004a5a13          	srli	s4,s4,0x4
   19464:	00fc0023          	sb	a5,0(s8)
   19468:	fe0a15e3          	bnez	s4,19452 <_vfiprintf_r+0x62a>
   1946c:	09fc                	addi	a5,sp,220
   1946e:	41878a3b          	subw	s4,a5,s8
   19472:	8d56                	mv	s10,s5
   19474:	b951                	j	19108 <_vfiprintf_r+0x2e0>
   19476:	41548ebb          	subw	t4,s1,s5
   1947a:	bbd057e3          	blez	t4,19028 <_vfiprintf_r+0x200>
   1947e:	45c1                	li	a1,16
   19480:	5bd5d363          	bge	a1,t4,19a26 <_vfiprintf_r+0xbfe>
   19484:	00004b97          	auipc	s7,0x4
   19488:	9dcb8b93          	addi	s7,s7,-1572 # 1ce60 <zeroes.4497>
   1948c:	4fc1                	li	t6,16
   1948e:	429d                	li	t0,7
   19490:	a801                	j	194a0 <_vfiprintf_r+0x678>
   19492:	0026039b          	addiw	t2,a2,2
   19496:	0741                	addi	a4,a4,16
   19498:	862e                	mv	a2,a1
   1949a:	3ec1                	addiw	t4,t4,-16
   1949c:	05dfd263          	bge	t6,t4,194e0 <_vfiprintf_r+0x6b8>
   194a0:	0016059b          	addiw	a1,a2,1
   194a4:	07c1                	addi	a5,a5,16
   194a6:	01773023          	sd	s7,0(a4)
   194aa:	01f73423          	sd	t6,8(a4)
   194ae:	f8be                	sd	a5,112(sp)
   194b0:	d4ae                	sw	a1,104(sp)
   194b2:	feb2d0e3          	bge	t0,a1,19492 <_vfiprintf_r+0x66a>
   194b6:	0e078f63          	beqz	a5,195b4 <_vfiprintf_r+0x78c>
   194ba:	1090                	addi	a2,sp,96
   194bc:	85ca                	mv	a1,s2
   194be:	854e                	mv	a0,s3
   194c0:	ec76                	sd	t4,24(sp)
   194c2:	8b5ff0ef          	jal	ra,18d76 <__sprint_r.part.0>
   194c6:	bc0513e3          	bnez	a0,1908c <_vfiprintf_r+0x264>
   194ca:	6ee2                	ld	t4,24(sp)
   194cc:	5626                	lw	a2,104(sp)
   194ce:	4fc1                	li	t6,16
   194d0:	3ec1                	addiw	t4,t4,-16
   194d2:	77c6                	ld	a5,112(sp)
   194d4:	8722                	mv	a4,s0
   194d6:	0016039b          	addiw	t2,a2,1
   194da:	429d                	li	t0,7
   194dc:	fddfc2e3          	blt	t6,t4,194a0 <_vfiprintf_r+0x678>
   194e0:	01070593          	addi	a1,a4,16
   194e4:	97f6                	add	a5,a5,t4
   194e6:	01773023          	sd	s7,0(a4)
   194ea:	01d73423          	sd	t4,8(a4)
   194ee:	f8be                	sd	a5,112(sp)
   194f0:	d49e                	sw	t2,104(sp)
   194f2:	471d                	li	a4,7
   194f4:	34775863          	bge	a4,t2,19844 <_vfiprintf_r+0xa1c>
   194f8:	48078f63          	beqz	a5,19996 <_vfiprintf_r+0xb6e>
   194fc:	1090                	addi	a2,sp,96
   194fe:	85ca                	mv	a1,s2
   19500:	854e                	mv	a0,s3
   19502:	875ff0ef          	jal	ra,18d76 <__sprint_r.part.0>
   19506:	b80513e3          	bnez	a0,1908c <_vfiprintf_r+0x264>
   1950a:	5626                	lw	a2,104(sp)
   1950c:	414c8cbb          	subw	s9,s9,s4
   19510:	77c6                	ld	a5,112(sp)
   19512:	1994                	addi	a3,sp,240
   19514:	0016051b          	addiw	a0,a2,1
   19518:	8722                	mv	a4,s0
   1951a:	b1905be3          	blez	s9,19030 <_vfiprintf_r+0x208>
   1951e:	45c1                	li	a1,16
   19520:	4795d563          	bge	a1,s9,1998a <_vfiprintf_r+0xb62>
   19524:	00004b97          	auipc	s7,0x4
   19528:	93cb8b93          	addi	s7,s7,-1732 # 1ce60 <zeroes.4497>
   1952c:	4ec1                	li	t4,16
   1952e:	4f9d                	li	t6,7
   19530:	a801                	j	19540 <_vfiprintf_r+0x718>
   19532:	0026051b          	addiw	a0,a2,2
   19536:	0741                	addi	a4,a4,16
   19538:	862e                	mv	a2,a1
   1953a:	3cc1                	addiw	s9,s9,-16
   1953c:	039edf63          	bge	t4,s9,1957a <_vfiprintf_r+0x752>
   19540:	0016059b          	addiw	a1,a2,1
   19544:	07c1                	addi	a5,a5,16
   19546:	01773023          	sd	s7,0(a4)
   1954a:	01d73423          	sd	t4,8(a4)
   1954e:	f8be                	sd	a5,112(sp)
   19550:	d4ae                	sw	a1,104(sp)
   19552:	febfd0e3          	bge	t6,a1,19532 <_vfiprintf_r+0x70a>
   19556:	c3b9                	beqz	a5,1959c <_vfiprintf_r+0x774>
   19558:	1090                	addi	a2,sp,96
   1955a:	85ca                	mv	a1,s2
   1955c:	854e                	mv	a0,s3
   1955e:	819ff0ef          	jal	ra,18d76 <__sprint_r.part.0>
   19562:	b20515e3          	bnez	a0,1908c <_vfiprintf_r+0x264>
   19566:	5626                	lw	a2,104(sp)
   19568:	4ec1                	li	t4,16
   1956a:	3cc1                	addiw	s9,s9,-16
   1956c:	77c6                	ld	a5,112(sp)
   1956e:	8722                	mv	a4,s0
   19570:	0016051b          	addiw	a0,a2,1
   19574:	4f9d                	li	t6,7
   19576:	fd9ec5e3          	blt	t4,s9,19540 <_vfiprintf_r+0x718>
   1957a:	01070613          	addi	a2,a4,16
   1957e:	97e6                	add	a5,a5,s9
   19580:	01773023          	sd	s7,0(a4)
   19584:	01973423          	sd	s9,8(a4)
   19588:	f8be                	sd	a5,112(sp)
   1958a:	d4aa                	sw	a0,104(sp)
   1958c:	471d                	li	a4,7
   1958e:	1ca74a63          	blt	a4,a0,19762 <_vfiprintf_r+0x93a>
   19592:	2505                	addiw	a0,a0,1
   19594:	01060693          	addi	a3,a2,16
   19598:	8732                	mv	a4,a2
   1959a:	bc59                	j	19030 <_vfiprintf_r+0x208>
   1959c:	4505                	li	a0,1
   1959e:	4601                	li	a2,0
   195a0:	8722                	mv	a4,s0
   195a2:	bf61                	j	1953a <_vfiprintf_r+0x712>
   195a4:	1090                	addi	a2,sp,96
   195a6:	85ca                	mv	a1,s2
   195a8:	854e                	mv	a0,s3
   195aa:	fccff0ef          	jal	ra,18d76 <__sprint_r.part.0>
   195ae:	ac0506e3          	beqz	a0,1907a <_vfiprintf_r+0x252>
   195b2:	bce9                	j	1908c <_vfiprintf_r+0x264>
   195b4:	4385                	li	t2,1
   195b6:	4601                	li	a2,0
   195b8:	8722                	mv	a4,s0
   195ba:	b5c5                	j	1949a <_vfiprintf_r+0x672>
   195bc:	1c078663          	beqz	a5,19788 <_vfiprintf_r+0x960>
   195c0:	1090                	addi	a2,sp,96
   195c2:	85ca                	mv	a1,s2
   195c4:	854e                	mv	a0,s3
   195c6:	f07e                	sd	t6,32(sp)
   195c8:	ec1e                	sd	t2,24(sp)
   195ca:	facff0ef          	jal	ra,18d76 <__sprint_r.part.0>
   195ce:	aa051fe3          	bnez	a0,1908c <_vfiprintf_r+0x264>
   195d2:	5626                	lw	a2,104(sp)
   195d4:	77c6                	ld	a5,112(sp)
   195d6:	7f82                	ld	t6,32(sp)
   195d8:	63e2                	ld	t2,24(sp)
   195da:	1994                	addi	a3,sp,240
   195dc:	0016051b          	addiw	a0,a2,1
   195e0:	8722                	mv	a4,s0
   195e2:	b419                	j	18fe8 <_vfiprintf_r+0x1c0>
   195e4:	08bc                	addi	a5,sp,88
   195e6:	f1be                	sd	a5,224(sp)
   195e8:	4789                	li	a5,2
   195ea:	f5be                	sd	a5,232(sp)
   195ec:	4505                	li	a0,1
   195ee:	1994                	addi	a3,sp,240
   195f0:	862a                	mv	a2,a0
   195f2:	8736                	mv	a4,a3
   195f4:	0016051b          	addiw	a0,a2,1
   195f8:	01070693          	addi	a3,a4,16
   195fc:	b415                	j	19020 <_vfiprintf_r+0x1f8>
   195fe:	4685                	li	a3,1
   19600:	8aea                	mv	s5,s10
   19602:	c0d794e3          	bne	a5,a3,1920a <_vfiprintf_r+0x3e2>
   19606:	47a5                	li	a5,9
   19608:	1d47e263          	bltu	a5,s4,197cc <_vfiprintf_r+0x9a4>
   1960c:	030a0a1b          	addiw	s4,s4,48
   19610:	0d410da3          	sb	s4,219(sp)
   19614:	8d56                	mv	s10,s5
   19616:	4a05                	li	s4,1
   19618:	0db10c13          	addi	s8,sp,219
   1961c:	b4f5                	j	19108 <_vfiprintf_r+0x2e0>
   1961e:	4ec1                	li	t4,16
   19620:	3f7ed163          	bge	t4,s7,19a02 <_vfiprintf_r+0xbda>
   19624:	00004e97          	auipc	t4,0x4
   19628:	82ce8e93          	addi	t4,t4,-2004 # 1ce50 <blanks.4496>
   1962c:	4f41                	li	t5,16
   1962e:	429d                	li	t0,7
   19630:	a811                	j	19644 <_vfiprintf_r+0x81c>
   19632:	0026059b          	addiw	a1,a2,2
   19636:	0741                	addi	a4,a4,16
   19638:	862a                	mv	a2,a0
   1963a:	3bc1                	addiw	s7,s7,-16
   1963c:	057f5763          	bge	t5,s7,1968a <_vfiprintf_r+0x862>
   19640:	0016059b          	addiw	a1,a2,1
   19644:	07c1                	addi	a5,a5,16
   19646:	01d73023          	sd	t4,0(a4)
   1964a:	01e73423          	sd	t5,8(a4)
   1964e:	f8be                	sd	a5,112(sp)
   19650:	0005851b          	sext.w	a0,a1
   19654:	d4ae                	sw	a1,104(sp)
   19656:	fca2dee3          	bge	t0,a0,19632 <_vfiprintf_r+0x80a>
   1965a:	c7b9                	beqz	a5,196a8 <_vfiprintf_r+0x880>
   1965c:	1090                	addi	a2,sp,96
   1965e:	85ca                	mv	a1,s2
   19660:	854e                	mv	a0,s3
   19662:	f476                	sd	t4,40(sp)
   19664:	f07e                	sd	t6,32(sp)
   19666:	ec1e                	sd	t2,24(sp)
   19668:	f0eff0ef          	jal	ra,18d76 <__sprint_r.part.0>
   1966c:	a20510e3          	bnez	a0,1908c <_vfiprintf_r+0x264>
   19670:	5626                	lw	a2,104(sp)
   19672:	4f41                	li	t5,16
   19674:	3bc1                	addiw	s7,s7,-16
   19676:	77c6                	ld	a5,112(sp)
   19678:	7ea2                	ld	t4,40(sp)
   1967a:	7f82                	ld	t6,32(sp)
   1967c:	63e2                	ld	t2,24(sp)
   1967e:	8722                	mv	a4,s0
   19680:	0016059b          	addiw	a1,a2,1
   19684:	429d                	li	t0,7
   19686:	fb7f4de3          	blt	t5,s7,19640 <_vfiprintf_r+0x818>
   1968a:	97de                	add	a5,a5,s7
   1968c:	01d73023          	sd	t4,0(a4)
   19690:	01773423          	sd	s7,8(a4)
   19694:	f8be                	sd	a5,112(sp)
   19696:	d4ae                	sw	a1,104(sp)
   19698:	469d                	li	a3,7
   1969a:	10b6c563          	blt	a3,a1,197a4 <_vfiprintf_r+0x97c>
   1969e:	0741                	addi	a4,a4,16
   196a0:	0015851b          	addiw	a0,a1,1
   196a4:	862e                	mv	a2,a1
   196a6:	ba29                	j	18fc0 <_vfiprintf_r+0x198>
   196a8:	4601                	li	a2,0
   196aa:	4585                	li	a1,1
   196ac:	8722                	mv	a4,s0
   196ae:	b771                	j	1963a <_vfiprintf_r+0x812>
   196b0:	d482                	sw	zero,104(sp)
   196b2:	004d7e13          	andi	t3,s10,4
   196b6:	080e0e63          	beqz	t3,19752 <_vfiprintf_r+0x92a>
   196ba:	41548a3b          	subw	s4,s1,s5
   196be:	09405a63          	blez	s4,19752 <_vfiprintf_r+0x92a>
   196c2:	86a2                	mv	a3,s0
   196c4:	4741                	li	a4,16
   196c6:	5626                	lw	a2,104(sp)
   196c8:	35475263          	bge	a4,s4,19a0c <_vfiprintf_r+0xbe4>
   196cc:	00003e97          	auipc	t4,0x3
   196d0:	784e8e93          	addi	t4,t4,1924 # 1ce50 <blanks.4496>
   196d4:	4cc1                	li	s9,16
   196d6:	4c1d                	li	s8,7
   196d8:	a801                	j	196e8 <_vfiprintf_r+0x8c0>
   196da:	0026071b          	addiw	a4,a2,2
   196de:	06c1                	addi	a3,a3,16
   196e0:	862e                	mv	a2,a1
   196e2:	3a41                	addiw	s4,s4,-16
   196e4:	034cdf63          	bge	s9,s4,19722 <_vfiprintf_r+0x8fa>
   196e8:	0016059b          	addiw	a1,a2,1
   196ec:	07c1                	addi	a5,a5,16
   196ee:	01d6b023          	sd	t4,0(a3)
   196f2:	0196b423          	sd	s9,8(a3)
   196f6:	f8be                	sd	a5,112(sp)
   196f8:	d4ae                	sw	a1,104(sp)
   196fa:	febc50e3          	bge	s8,a1,196da <_vfiprintf_r+0x8b2>
   196fe:	c7b1                	beqz	a5,1974a <_vfiprintf_r+0x922>
   19700:	1090                	addi	a2,sp,96
   19702:	85ca                	mv	a1,s2
   19704:	854e                	mv	a0,s3
   19706:	ec76                	sd	t4,24(sp)
   19708:	e6eff0ef          	jal	ra,18d76 <__sprint_r.part.0>
   1970c:	980510e3          	bnez	a0,1908c <_vfiprintf_r+0x264>
   19710:	5626                	lw	a2,104(sp)
   19712:	3a41                	addiw	s4,s4,-16
   19714:	77c6                	ld	a5,112(sp)
   19716:	6ee2                	ld	t4,24(sp)
   19718:	86a2                	mv	a3,s0
   1971a:	0016071b          	addiw	a4,a2,1
   1971e:	fd4cc5e3          	blt	s9,s4,196e8 <_vfiprintf_r+0x8c0>
   19722:	97d2                	add	a5,a5,s4
   19724:	01d6b023          	sd	t4,0(a3)
   19728:	0146b423          	sd	s4,8(a3)
   1972c:	f8be                	sd	a5,112(sp)
   1972e:	d4ba                	sw	a4,104(sp)
   19730:	469d                	li	a3,7
   19732:	92e6dbe3          	bge	a3,a4,19068 <_vfiprintf_r+0x240>
   19736:	cf91                	beqz	a5,19752 <_vfiprintf_r+0x92a>
   19738:	1090                	addi	a2,sp,96
   1973a:	85ca                	mv	a1,s2
   1973c:	854e                	mv	a0,s3
   1973e:	e38ff0ef          	jal	ra,18d76 <__sprint_r.part.0>
   19742:	940515e3          	bnez	a0,1908c <_vfiprintf_r+0x264>
   19746:	77c6                	ld	a5,112(sp)
   19748:	b205                	j	19068 <_vfiprintf_r+0x240>
   1974a:	4705                	li	a4,1
   1974c:	4601                	li	a2,0
   1974e:	86a2                	mv	a3,s0
   19750:	bf49                	j	196e2 <_vfiprintf_r+0x8ba>
   19752:	87a6                	mv	a5,s1
   19754:	0154d363          	bge	s1,s5,1975a <_vfiprintf_r+0x932>
   19758:	87d6                	mv	a5,s5
   1975a:	6722                	ld	a4,8(sp)
   1975c:	9fb9                	addw	a5,a5,a4
   1975e:	e43e                	sd	a5,8(sp)
   19760:	ba29                	j	1907a <_vfiprintf_r+0x252>
   19762:	18078f63          	beqz	a5,19900 <_vfiprintf_r+0xad8>
   19766:	1090                	addi	a2,sp,96
   19768:	85ca                	mv	a1,s2
   1976a:	854e                	mv	a0,s3
   1976c:	e0aff0ef          	jal	ra,18d76 <__sprint_r.part.0>
   19770:	90051ee3          	bnez	a0,1908c <_vfiprintf_r+0x264>
   19774:	5526                	lw	a0,104(sp)
   19776:	77c6                	ld	a5,112(sp)
   19778:	1994                	addi	a3,sp,240
   1977a:	2505                	addiw	a0,a0,1
   1977c:	8722                	mv	a4,s0
   1977e:	b84d                	j	19030 <_vfiprintf_r+0x208>
   19780:	d482                	sw	zero,104(sp)
   19782:	8722                	mv	a4,s0
   19784:	f82ff06f          	j	18f06 <_vfiprintf_r+0xde>
   19788:	0c038663          	beqz	t2,19854 <_vfiprintf_r+0xa2c>
   1978c:	08bc                	addi	a5,sp,88
   1978e:	f1be                	sd	a5,224(sp)
   19790:	4789                	li	a5,2
   19792:	f5be                	sd	a5,232(sp)
   19794:	4605                	li	a2,1
   19796:	1998                	addi	a4,sp,240
   19798:	bdb1                	j	195f4 <_vfiprintf_r+0x7cc>
   1979a:	1994                	addi	a3,sp,240
   1979c:	4505                	li	a0,1
   1979e:	4601                	li	a2,0
   197a0:	8722                	mv	a4,s0
   197a2:	b8bd                	j	19020 <_vfiprintf_r+0x1f8>
   197a4:	14078363          	beqz	a5,198ea <_vfiprintf_r+0xac2>
   197a8:	1090                	addi	a2,sp,96
   197aa:	85ca                	mv	a1,s2
   197ac:	854e                	mv	a0,s3
   197ae:	f07e                	sd	t6,32(sp)
   197b0:	ec1e                	sd	t2,24(sp)
   197b2:	dc4ff0ef          	jal	ra,18d76 <__sprint_r.part.0>
   197b6:	8c051be3          	bnez	a0,1908c <_vfiprintf_r+0x264>
   197ba:	5626                	lw	a2,104(sp)
   197bc:	77c6                	ld	a5,112(sp)
   197be:	7f82                	ld	t6,32(sp)
   197c0:	63e2                	ld	t2,24(sp)
   197c2:	8722                	mv	a4,s0
   197c4:	0016051b          	addiw	a0,a2,1
   197c8:	ff8ff06f          	j	18fc0 <_vfiprintf_r+0x198>
   197cc:	400afe13          	andi	t3,s5,1024
   197d0:	2e01                	sext.w	t3,t3
   197d2:	4581                	li	a1,0
   197d4:	09f0                	addi	a2,sp,220
   197d6:	46a9                	li	a3,10
   197d8:	4d25                	li	s10,9
   197da:	0ff00b93          	li	s7,255
   197de:	a039                	j	197ec <_vfiprintf_r+0x9c4>
   197e0:	02da57b3          	divu	a5,s4,a3
   197e4:	c94d74e3          	bgeu	s10,s4,1946c <_vfiprintf_r+0x644>
   197e8:	8a3e                	mv	s4,a5
   197ea:	8662                	mv	a2,s8
   197ec:	fff60c13          	addi	s8,a2,-1
   197f0:	2585                	addiw	a1,a1,1
   197f2:	02da77b3          	remu	a5,s4,a3
   197f6:	0307879b          	addiw	a5,a5,48
   197fa:	fef60fa3          	sb	a5,-1(a2)
   197fe:	fe0e01e3          	beqz	t3,197e0 <_vfiprintf_r+0x9b8>
   19802:	77c2                	ld	a5,48(sp)
   19804:	0007c783          	lbu	a5,0(a5)
   19808:	fcb79ce3          	bne	a5,a1,197e0 <_vfiprintf_r+0x9b8>
   1980c:	fd778ae3          	beq	a5,s7,197e0 <_vfiprintf_r+0x9b8>
   19810:	c54d7ee3          	bgeu	s10,s4,1946c <_vfiprintf_r+0x644>
   19814:	6786                	ld	a5,64(sp)
   19816:	75e2                	ld	a1,56(sp)
   19818:	f072                	sd	t3,32(sp)
   1981a:	40fc0c33          	sub	s8,s8,a5
   1981e:	863e                	mv	a2,a5
   19820:	8562                	mv	a0,s8
   19822:	ec3a                	sd	a4,24(sp)
   19824:	8f5fd0ef          	jal	ra,17118 <strncpy>
   19828:	7742                	ld	a4,48(sp)
   1982a:	46a9                	li	a3,10
   1982c:	02da57b3          	divu	a5,s4,a3
   19830:	00174603          	lbu	a2,1(a4)
   19834:	7e02                	ld	t3,32(sp)
   19836:	4581                	li	a1,0
   19838:	00c03633          	snez	a2,a2
   1983c:	9732                	add	a4,a4,a2
   1983e:	f83a                	sd	a4,48(sp)
   19840:	6762                	ld	a4,24(sp)
   19842:	b75d                	j	197e8 <_vfiprintf_r+0x9c0>
   19844:	0013851b          	addiw	a0,t2,1
   19848:	01058693          	addi	a3,a1,16
   1984c:	861e                	mv	a2,t2
   1984e:	872e                	mv	a4,a1
   19850:	fd8ff06f          	j	19028 <_vfiprintf_r+0x200>
   19854:	4601                	li	a2,0
   19856:	1994                	addi	a3,sp,240
   19858:	4505                	li	a0,1
   1985a:	8722                	mv	a4,s0
   1985c:	fc4ff06f          	j	19020 <_vfiprintf_r+0x1f8>
   19860:	8b36                	mv	s6,a3
   19862:	b355                	j	19606 <_vfiprintf_r+0x7de>
   19864:	00003797          	auipc	a5,0x3
   19868:	d0c78793          	addi	a5,a5,-756 # 1c570 <__clzdi2+0x114>
   1986c:	e83e                	sd	a5,16(sp)
   1986e:	020d7793          	andi	a5,s10,32
   19872:	008b0613          	addi	a2,s6,8
   19876:	efb1                	bnez	a5,198d2 <_vfiprintf_r+0xaaa>
   19878:	010d7793          	andi	a5,s10,16
   1987c:	ebb9                	bnez	a5,198d2 <_vfiprintf_r+0xaaa>
   1987e:	040d7793          	andi	a5,s10,64
   19882:	000b2a03          	lw	s4,0(s6)
   19886:	c3fd                	beqz	a5,1996c <_vfiprintf_r+0xb44>
   19888:	1a42                	slli	s4,s4,0x30
   1988a:	030a5a13          	srli	s4,s4,0x30
   1988e:	001d7793          	andi	a5,s10,1
   19892:	cf89                	beqz	a5,198ac <_vfiprintf_r+0xa84>
   19894:	000a0c63          	beqz	s4,198ac <_vfiprintf_r+0xa84>
   19898:	002d6e13          	ori	t3,s10,2
   1989c:	03000793          	li	a5,48
   198a0:	04f10c23          	sb	a5,88(sp)
   198a4:	04d10ca3          	sb	a3,89(sp)
   198a8:	000e0d1b          	sext.w	s10,t3
   198ac:	bffd7e13          	andi	t3,s10,-1025
   198b0:	000e0a9b          	sext.w	s5,t3
   198b4:	8b32                	mv	s6,a2
   198b6:	4789                	li	a5,2
   198b8:	b875                	j	19174 <_vfiprintf_r+0x34c>
   198ba:	8aea                	mv	s5,s10
   198bc:	bc8d                	j	1932e <_vfiprintf_r+0x506>
   198be:	00003797          	auipc	a5,0x3
   198c2:	cca78793          	addi	a5,a5,-822 # 1c588 <__clzdi2+0x12c>
   198c6:	e83e                	sd	a5,16(sp)
   198c8:	020d7793          	andi	a5,s10,32
   198cc:	008b0613          	addi	a2,s6,8
   198d0:	d7c5                	beqz	a5,19878 <_vfiprintf_r+0xa50>
   198d2:	000b3a03          	ld	s4,0(s6)
   198d6:	bf65                	j	1988e <_vfiprintf_r+0xa66>
   198d8:	8562                	mv	a0,s8
   198da:	ef7f60ef          	jal	ra,107d0 <strlen>
   198de:	6762                	ld	a4,24(sp)
   198e0:	00050a1b          	sext.w	s4,a0
   198e4:	4c81                	li	s9,0
   198e6:	823ff06f          	j	19108 <_vfiprintf_r+0x2e0>
   198ea:	05714703          	lbu	a4,87(sp)
   198ee:	ef45                	bnez	a4,199a6 <_vfiprintf_r+0xb7e>
   198f0:	ce039ae3          	bnez	t2,195e4 <_vfiprintf_r+0x7bc>
   198f4:	4601                	li	a2,0
   198f6:	4505                	li	a0,1
   198f8:	1994                	addi	a3,sp,240
   198fa:	8722                	mv	a4,s0
   198fc:	f24ff06f          	j	19020 <_vfiprintf_r+0x1f8>
   19900:	4705                	li	a4,1
   19902:	87d2                	mv	a5,s4
   19904:	f1e2                	sd	s8,224(sp)
   19906:	f5d2                	sd	s4,232(sp)
   19908:	f8d2                	sd	s4,112(sp)
   1990a:	d4ba                	sw	a4,104(sp)
   1990c:	1994                	addi	a3,sp,240
   1990e:	f4aff06f          	j	19058 <_vfiprintf_r+0x230>
   19912:	200d6e13          	ori	t3,s10,512
   19916:	001dc683          	lbu	a3,1(s11)
   1991a:	000e0d1b          	sext.w	s10,t3
   1991e:	0d85                	addi	s11,s11,1
   19920:	e0cff06f          	j	18f2c <_vfiprintf_r+0x104>
   19924:	020d6e13          	ori	t3,s10,32
   19928:	001dc683          	lbu	a3,1(s11)
   1992c:	000e0d1b          	sext.w	s10,t3
   19930:	0d85                	addi	s11,s11,1
   19932:	dfaff06f          	j	18f2c <_vfiprintf_r+0x104>
   19936:	4799                	li	a5,6
   19938:	000c8a1b          	sext.w	s4,s9
   1993c:	0797e363          	bltu	a5,s9,199a2 <_vfiprintf_r+0xb7a>
   19940:	8ad2                	mv	s5,s4
   19942:	00003c17          	auipc	s8,0x3
   19946:	c5ec0c13          	addi	s8,s8,-930 # 1c5a0 <__clzdi2+0x144>
   1994a:	e4eff06f          	j	18f98 <_vfiprintf_r+0x170>
   1994e:	200d7793          	andi	a5,s10,512
   19952:	c3c9                	beqz	a5,199d4 <_vfiprintf_r+0xbac>
   19954:	000b0a03          	lb	s4,0(s6)
   19958:	87d2                	mv	a5,s4
   1995a:	f86ff06f          	j	190e0 <_vfiprintf_r+0x2b8>
   1995e:	200d7793          	andi	a5,s10,512
   19962:	c7a5                	beqz	a5,199ca <_vfiprintf_r+0xba2>
   19964:	0ffa7a13          	andi	s4,s4,255
   19968:	801ff06f          	j	19168 <_vfiprintf_r+0x340>
   1996c:	200d7793          	andi	a5,s10,512
   19970:	cba9                	beqz	a5,199c2 <_vfiprintf_r+0xb9a>
   19972:	0ffa7a13          	andi	s4,s4,255
   19976:	bf21                	j	1988e <_vfiprintf_r+0xa66>
   19978:	200af793          	andi	a5,s5,512
   1997c:	c3ad                	beqz	a5,199de <_vfiprintf_r+0xbb6>
   1997e:	0ffa7a13          	andi	s4,s4,255
   19982:	8b36                	mv	s6,a3
   19984:	4785                	li	a5,1
   19986:	feeff06f          	j	19174 <_vfiprintf_r+0x34c>
   1998a:	8636                	mv	a2,a3
   1998c:	00003b97          	auipc	s7,0x3
   19990:	4d4b8b93          	addi	s7,s7,1236 # 1ce60 <zeroes.4497>
   19994:	b6ed                	j	1957e <_vfiprintf_r+0x756>
   19996:	1994                	addi	a3,sp,240
   19998:	4505                	li	a0,1
   1999a:	4601                	li	a2,0
   1999c:	8722                	mv	a4,s0
   1999e:	e8aff06f          	j	19028 <_vfiprintf_r+0x200>
   199a2:	4a19                	li	s4,6
   199a4:	bf71                	j	19940 <_vfiprintf_r+0xb18>
   199a6:	05710793          	addi	a5,sp,87
   199aa:	f1be                	sd	a5,224(sp)
   199ac:	4785                	li	a5,1
   199ae:	f5be                	sd	a5,232(sp)
   199b0:	4505                	li	a0,1
   199b2:	1994                	addi	a3,sp,240
   199b4:	e2cff06f          	j	18fe0 <_vfiprintf_r+0x1b8>
   199b8:	67a2                	ld	a5,8(sp)
   199ba:	00f69023          	sh	a5,0(a3)
   199be:	cf6ff06f          	j	18eb4 <_vfiprintf_r+0x8c>
   199c2:	1a02                	slli	s4,s4,0x20
   199c4:	020a5a13          	srli	s4,s4,0x20
   199c8:	b5d9                	j	1988e <_vfiprintf_r+0xa66>
   199ca:	1a02                	slli	s4,s4,0x20
   199cc:	020a5a13          	srli	s4,s4,0x20
   199d0:	f98ff06f          	j	19168 <_vfiprintf_r+0x340>
   199d4:	000b2a03          	lw	s4,0(s6)
   199d8:	87d2                	mv	a5,s4
   199da:	f06ff06f          	j	190e0 <_vfiprintf_r+0x2b8>
   199de:	1a02                	slli	s4,s4,0x20
   199e0:	020a5a13          	srli	s4,s4,0x20
   199e4:	8b36                	mv	s6,a3
   199e6:	4785                	li	a5,1
   199e8:	f8cff06f          	j	19174 <_vfiprintf_r+0x34c>
   199ec:	1090                	addi	a2,sp,96
   199ee:	85ca                	mv	a1,s2
   199f0:	854e                	mv	a0,s3
   199f2:	b84ff0ef          	jal	ra,18d76 <__sprint_r.part.0>
   199f6:	e96ff06f          	j	1908c <_vfiprintf_r+0x264>
   199fa:	8a66                	mv	s4,s9
   199fc:	4c81                	li	s9,0
   199fe:	f0aff06f          	j	19108 <_vfiprintf_r+0x2e0>
   19a02:	00003e97          	auipc	t4,0x3
   19a06:	44ee8e93          	addi	t4,t4,1102 # 1ce50 <blanks.4496>
   19a0a:	b141                	j	1968a <_vfiprintf_r+0x862>
   19a0c:	0016071b          	addiw	a4,a2,1
   19a10:	00003e97          	auipc	t4,0x3
   19a14:	440e8e93          	addi	t4,t4,1088 # 1ce50 <blanks.4496>
   19a18:	b329                	j	19722 <_vfiprintf_r+0x8fa>
   19a1a:	8aea                	mv	s5,s10
   19a1c:	bec5                	j	1960c <_vfiprintf_r+0x7e4>
   19a1e:	57fd                	li	a5,-1
   19a20:	e43e                	sd	a5,8(sp)
   19a22:	e76ff06f          	j	19098 <_vfiprintf_r+0x270>
   19a26:	85b6                	mv	a1,a3
   19a28:	83aa                	mv	t2,a0
   19a2a:	00003b97          	auipc	s7,0x3
   19a2e:	436b8b93          	addi	s7,s7,1078 # 1ce60 <zeroes.4497>
   19a32:	bc4d                	j	194e4 <_vfiprintf_r+0x6bc>
   19a34:	c29c                	sw	a5,0(a3)
   19a36:	c7eff06f          	j	18eb4 <_vfiprintf_r+0x8c>
   19a3a:	000b2683          	lw	a3,0(s6)
   19a3e:	0b21                	addi	s6,s6,8
   19a40:	8836                	mv	a6,a3
   19a42:	0006d363          	bgez	a3,19a48 <_vfiprintf_r+0xc20>
   19a46:	587d                	li	a6,-1
   19a48:	001dc683          	lbu	a3,1(s11)
   19a4c:	00080c9b          	sext.w	s9,a6
   19a50:	8dbe                	mv	s11,a5
   19a52:	cdaff06f          	j	18f2c <_vfiprintf_r+0x104>

0000000000019a56 <vfiprintf>:
   19a56:	86b2                	mv	a3,a2
   19a58:	862e                	mv	a2,a1
   19a5a:	85aa                	mv	a1,a0
   19a5c:	7581b503          	ld	a0,1880(gp) # 1f408 <_impure_ptr>
   19a60:	bc8ff06f          	j	18e28 <_vfiprintf_r>

0000000000019a64 <__sbprintf>:
   19a64:	0105d783          	lhu	a5,16(a1)
   19a68:	0ac5ae03          	lw	t3,172(a1)
   19a6c:	0125d303          	lhu	t1,18(a1)
   19a70:	0305b883          	ld	a7,48(a1)
   19a74:	0405b803          	ld	a6,64(a1)
   19a78:	b3010113          	addi	sp,sp,-1232
   19a7c:	9bf5                	andi	a5,a5,-3
   19a7e:	40000713          	li	a4,1024
   19a82:	4c813023          	sd	s0,1216(sp)
   19a86:	00f11823          	sh	a5,16(sp)
   19a8a:	842e                	mv	s0,a1
   19a8c:	191c                	addi	a5,sp,176
   19a8e:	858a                	mv	a1,sp
   19a90:	4a913c23          	sd	s1,1208(sp)
   19a94:	4b213823          	sd	s2,1200(sp)
   19a98:	4c113423          	sd	ra,1224(sp)
   19a9c:	892a                	mv	s2,a0
   19a9e:	d772                	sw	t3,172(sp)
   19aa0:	00611923          	sh	t1,18(sp)
   19aa4:	f846                	sd	a7,48(sp)
   19aa6:	e0c2                	sd	a6,64(sp)
   19aa8:	e03e                	sd	a5,0(sp)
   19aaa:	ec3e                	sd	a5,24(sp)
   19aac:	c63a                	sw	a4,12(sp)
   19aae:	d03a                	sw	a4,32(sp)
   19ab0:	d402                	sw	zero,40(sp)
   19ab2:	b76ff0ef          	jal	ra,18e28 <_vfiprintf_r>
   19ab6:	84aa                	mv	s1,a0
   19ab8:	02055963          	bgez	a0,19aea <__sbprintf+0x86>
   19abc:	01015783          	lhu	a5,16(sp)
   19ac0:	0407f793          	andi	a5,a5,64
   19ac4:	c799                	beqz	a5,19ad2 <__sbprintf+0x6e>
   19ac6:	01045783          	lhu	a5,16(s0)
   19aca:	0407e793          	ori	a5,a5,64
   19ace:	00f41823          	sh	a5,16(s0)
   19ad2:	4c813083          	ld	ra,1224(sp)
   19ad6:	4c013403          	ld	s0,1216(sp)
   19ada:	4b013903          	ld	s2,1200(sp)
   19ade:	8526                	mv	a0,s1
   19ae0:	4b813483          	ld	s1,1208(sp)
   19ae4:	4d010113          	addi	sp,sp,1232
   19ae8:	8082                	ret
   19aea:	858a                	mv	a1,sp
   19aec:	854a                	mv	a0,s2
   19aee:	d7df80ef          	jal	ra,1286a <_fflush_r>
   19af2:	d569                	beqz	a0,19abc <__sbprintf+0x58>
   19af4:	54fd                	li	s1,-1
   19af6:	b7d9                	j	19abc <__sbprintf+0x58>

0000000000019af8 <_wctomb_r>:
   19af8:	e381b303          	ld	t1,-456(gp) # 1eae8 <__global_locale+0xe0>
   19afc:	8302                	jr	t1

0000000000019afe <__ascii_wctomb>:
   19afe:	0006079b          	sext.w	a5,a2
   19b02:	cd91                	beqz	a1,19b1e <__ascii_wctomb+0x20>
   19b04:	0ff00713          	li	a4,255
   19b08:	00f76663          	bltu	a4,a5,19b14 <__ascii_wctomb+0x16>
   19b0c:	00c58023          	sb	a2,0(a1)
   19b10:	4505                	li	a0,1
   19b12:	8082                	ret
   19b14:	08a00793          	li	a5,138
   19b18:	c11c                	sw	a5,0(a0)
   19b1a:	557d                	li	a0,-1
   19b1c:	8082                	ret
   19b1e:	4501                	li	a0,0
   19b20:	8082                	ret

0000000000019b22 <_write_r>:
   19b22:	1141                	addi	sp,sp,-16
   19b24:	872e                	mv	a4,a1
   19b26:	e022                	sd	s0,0(sp)
   19b28:	85b2                	mv	a1,a2
   19b2a:	842a                	mv	s0,a0
   19b2c:	8636                	mv	a2,a3
   19b2e:	853a                	mv	a0,a4
   19b30:	00006797          	auipc	a5,0x6
   19b34:	9607ac23          	sw	zero,-1672(a5) # 1f4a8 <errno>
   19b38:	e406                	sd	ra,8(sp)
   19b3a:	4ba010ef          	jal	ra,1aff4 <_write>
   19b3e:	57fd                	li	a5,-1
   19b40:	00f50663          	beq	a0,a5,19b4c <_write_r+0x2a>
   19b44:	60a2                	ld	ra,8(sp)
   19b46:	6402                	ld	s0,0(sp)
   19b48:	0141                	addi	sp,sp,16
   19b4a:	8082                	ret
   19b4c:	00006797          	auipc	a5,0x6
   19b50:	95c7a783          	lw	a5,-1700(a5) # 1f4a8 <errno>
   19b54:	dbe5                	beqz	a5,19b44 <_write_r+0x22>
   19b56:	60a2                	ld	ra,8(sp)
   19b58:	c01c                	sw	a5,0(s0)
   19b5a:	6402                	ld	s0,0(sp)
   19b5c:	0141                	addi	sp,sp,16
   19b5e:	8082                	ret

0000000000019b60 <atexit>:
   19b60:	85aa                	mv	a1,a0
   19b62:	4681                	li	a3,0
   19b64:	4601                	li	a2,0
   19b66:	4501                	li	a0,0
   19b68:	2780106f          	j	1ade0 <__register_exitproc>

0000000000019b6c <_calloc_r>:
   19b6c:	02c585b3          	mul	a1,a1,a2
   19b70:	1141                	addi	sp,sp,-16
   19b72:	e022                	sd	s0,0(sp)
   19b74:	e406                	sd	ra,8(sp)
   19b76:	9adfb0ef          	jal	ra,15522 <_malloc_r>
   19b7a:	842a                	mv	s0,a0
   19b7c:	c505                	beqz	a0,19ba4 <_calloc_r+0x38>
   19b7e:	ff853603          	ld	a2,-8(a0)
   19b82:	04800713          	li	a4,72
   19b86:	9a71                	andi	a2,a2,-4
   19b88:	1661                	addi	a2,a2,-8
   19b8a:	04c76963          	bltu	a4,a2,19bdc <_calloc_r+0x70>
   19b8e:	02700693          	li	a3,39
   19b92:	87aa                	mv	a5,a0
   19b94:	00c6ed63          	bltu	a3,a2,19bae <_calloc_r+0x42>
   19b98:	0007b023          	sd	zero,0(a5)
   19b9c:	0007b423          	sd	zero,8(a5)
   19ba0:	0007b823          	sd	zero,16(a5)
   19ba4:	60a2                	ld	ra,8(sp)
   19ba6:	8522                	mv	a0,s0
   19ba8:	6402                	ld	s0,0(sp)
   19baa:	0141                	addi	sp,sp,16
   19bac:	8082                	ret
   19bae:	00053023          	sd	zero,0(a0)
   19bb2:	00053423          	sd	zero,8(a0)
   19bb6:	03700793          	li	a5,55
   19bba:	02c7f963          	bgeu	a5,a2,19bec <_calloc_r+0x80>
   19bbe:	00053823          	sd	zero,16(a0)
   19bc2:	00053c23          	sd	zero,24(a0)
   19bc6:	02050793          	addi	a5,a0,32
   19bca:	fce617e3          	bne	a2,a4,19b98 <_calloc_r+0x2c>
   19bce:	02053023          	sd	zero,32(a0)
   19bd2:	03050793          	addi	a5,a0,48
   19bd6:	02053423          	sd	zero,40(a0)
   19bda:	bf7d                	j	19b98 <_calloc_r+0x2c>
   19bdc:	4581                	li	a1,0
   19bde:	a49f60ef          	jal	ra,10626 <memset>
   19be2:	60a2                	ld	ra,8(sp)
   19be4:	8522                	mv	a0,s0
   19be6:	6402                	ld	s0,0(sp)
   19be8:	0141                	addi	sp,sp,16
   19bea:	8082                	ret
   19bec:	01050793          	addi	a5,a0,16
   19bf0:	b765                	j	19b98 <_calloc_r+0x2c>

0000000000019bf2 <_close_r>:
   19bf2:	1141                	addi	sp,sp,-16
   19bf4:	e022                	sd	s0,0(sp)
   19bf6:	842a                	mv	s0,a0
   19bf8:	852e                	mv	a0,a1
   19bfa:	00006797          	auipc	a5,0x6
   19bfe:	8a07a723          	sw	zero,-1874(a5) # 1f4a8 <errno>
   19c02:	e406                	sd	ra,8(sp)
   19c04:	252010ef          	jal	ra,1ae56 <_close>
   19c08:	57fd                	li	a5,-1
   19c0a:	00f50663          	beq	a0,a5,19c16 <_close_r+0x24>
   19c0e:	60a2                	ld	ra,8(sp)
   19c10:	6402                	ld	s0,0(sp)
   19c12:	0141                	addi	sp,sp,16
   19c14:	8082                	ret
   19c16:	00006797          	auipc	a5,0x6
   19c1a:	8927a783          	lw	a5,-1902(a5) # 1f4a8 <errno>
   19c1e:	dbe5                	beqz	a5,19c0e <_close_r+0x1c>
   19c20:	60a2                	ld	ra,8(sp)
   19c22:	c01c                	sw	a5,0(s0)
   19c24:	6402                	ld	s0,0(sp)
   19c26:	0141                	addi	sp,sp,16
   19c28:	8082                	ret

0000000000019c2a <_fclose_r>:
   19c2a:	1101                	addi	sp,sp,-32
   19c2c:	ec06                	sd	ra,24(sp)
   19c2e:	e822                	sd	s0,16(sp)
   19c30:	e426                	sd	s1,8(sp)
   19c32:	e04a                	sd	s2,0(sp)
   19c34:	c989                	beqz	a1,19c46 <_fclose_r+0x1c>
   19c36:	842e                	mv	s0,a1
   19c38:	84aa                	mv	s1,a0
   19c3a:	c119                	beqz	a0,19c40 <_fclose_r+0x16>
   19c3c:	493c                	lw	a5,80(a0)
   19c3e:	cfa5                	beqz	a5,19cb6 <_fclose_r+0x8c>
   19c40:	01041783          	lh	a5,16(s0)
   19c44:	eb89                	bnez	a5,19c56 <_fclose_r+0x2c>
   19c46:	60e2                	ld	ra,24(sp)
   19c48:	6442                	ld	s0,16(sp)
   19c4a:	4901                	li	s2,0
   19c4c:	64a2                	ld	s1,8(sp)
   19c4e:	854a                	mv	a0,s2
   19c50:	6902                	ld	s2,0(sp)
   19c52:	6105                	addi	sp,sp,32
   19c54:	8082                	ret
   19c56:	85a2                	mv	a1,s0
   19c58:	8526                	mv	a0,s1
   19c5a:	a77f80ef          	jal	ra,126d0 <__sflush_r>
   19c5e:	683c                	ld	a5,80(s0)
   19c60:	892a                	mv	s2,a0
   19c62:	c791                	beqz	a5,19c6e <_fclose_r+0x44>
   19c64:	780c                	ld	a1,48(s0)
   19c66:	8526                	mv	a0,s1
   19c68:	9782                	jalr	a5
   19c6a:	04054c63          	bltz	a0,19cc2 <_fclose_r+0x98>
   19c6e:	01045783          	lhu	a5,16(s0)
   19c72:	0807f793          	andi	a5,a5,128
   19c76:	efa1                	bnez	a5,19cce <_fclose_r+0xa4>
   19c78:	6c2c                	ld	a1,88(s0)
   19c7a:	c991                	beqz	a1,19c8e <_fclose_r+0x64>
   19c7c:	07440793          	addi	a5,s0,116
   19c80:	00f58563          	beq	a1,a5,19c8a <_fclose_r+0x60>
   19c84:	8526                	mv	a0,s1
   19c86:	fb5f80ef          	jal	ra,12c3a <_free_r>
   19c8a:	04043c23          	sd	zero,88(s0)
   19c8e:	7c2c                	ld	a1,120(s0)
   19c90:	c591                	beqz	a1,19c9c <_fclose_r+0x72>
   19c92:	8526                	mv	a0,s1
   19c94:	fa7f80ef          	jal	ra,12c3a <_free_r>
   19c98:	06043c23          	sd	zero,120(s0)
   19c9c:	e6df80ef          	jal	ra,12b08 <__sfp_lock_acquire>
   19ca0:	00041823          	sh	zero,16(s0)
   19ca4:	e67f80ef          	jal	ra,12b0a <__sfp_lock_release>
   19ca8:	60e2                	ld	ra,24(sp)
   19caa:	6442                	ld	s0,16(sp)
   19cac:	64a2                	ld	s1,8(sp)
   19cae:	854a                	mv	a0,s2
   19cb0:	6902                	ld	s2,0(sp)
   19cb2:	6105                	addi	sp,sp,32
   19cb4:	8082                	ret
   19cb6:	e4bf80ef          	jal	ra,12b00 <__sinit>
   19cba:	01041783          	lh	a5,16(s0)
   19cbe:	d7c1                	beqz	a5,19c46 <_fclose_r+0x1c>
   19cc0:	bf59                	j	19c56 <_fclose_r+0x2c>
   19cc2:	01045783          	lhu	a5,16(s0)
   19cc6:	597d                	li	s2,-1
   19cc8:	0807f793          	andi	a5,a5,128
   19ccc:	d7d5                	beqz	a5,19c78 <_fclose_r+0x4e>
   19cce:	6c0c                	ld	a1,24(s0)
   19cd0:	8526                	mv	a0,s1
   19cd2:	f69f80ef          	jal	ra,12c3a <_free_r>
   19cd6:	b74d                	j	19c78 <_fclose_r+0x4e>

0000000000019cd8 <fclose>:
   19cd8:	85aa                	mv	a1,a0
   19cda:	7581b503          	ld	a0,1880(gp) # 1f408 <_impure_ptr>
   19cde:	b7b1                	j	19c2a <_fclose_r>

0000000000019ce0 <__fputwc>:
   19ce0:	715d                	addi	sp,sp,-80
   19ce2:	e0a2                	sd	s0,64(sp)
   19ce4:	f44e                	sd	s3,40(sp)
   19ce6:	e85a                	sd	s6,16(sp)
   19ce8:	e486                	sd	ra,72(sp)
   19cea:	fc26                	sd	s1,56(sp)
   19cec:	f84a                	sd	s2,48(sp)
   19cee:	f052                	sd	s4,32(sp)
   19cf0:	ec56                	sd	s5,24(sp)
   19cf2:	8b2a                	mv	s6,a0
   19cf4:	89ae                	mv	s3,a1
   19cf6:	8432                	mv	s0,a2
   19cf8:	edcfb0ef          	jal	ra,153d4 <__locale_mb_cur_max>
   19cfc:	4785                	li	a5,1
   19cfe:	00f51e63          	bne	a0,a5,19d1a <__fputwc+0x3a>
   19d02:	fff9879b          	addiw	a5,s3,-1
   19d06:	0fe00713          	li	a4,254
   19d0a:	00f76863          	bltu	a4,a5,19d1a <__fputwc+0x3a>
   19d0e:	0ff9f713          	andi	a4,s3,255
   19d12:	00e10423          	sb	a4,8(sp)
   19d16:	4905                	li	s2,1
   19d18:	a839                	j	19d36 <__fputwc+0x56>
   19d1a:	0a440693          	addi	a3,s0,164
   19d1e:	864e                	mv	a2,s3
   19d20:	002c                	addi	a1,sp,8
   19d22:	855a                	mv	a0,s6
   19d24:	026010ef          	jal	ra,1ad4a <_wcrtomb_r>
   19d28:	57fd                	li	a5,-1
   19d2a:	892a                	mv	s2,a0
   19d2c:	06f50963          	beq	a0,a5,19d9e <__fputwc+0xbe>
   19d30:	c525                	beqz	a0,19d98 <__fputwc+0xb8>
   19d32:	00814703          	lbu	a4,8(sp)
   19d36:	4481                	li	s1,0
   19d38:	5a7d                	li	s4,-1
   19d3a:	4aa9                	li	s5,10
   19d3c:	a831                	j	19d58 <__fputwc+0x78>
   19d3e:	601c                	ld	a5,0(s0)
   19d40:	00178693          	addi	a3,a5,1
   19d44:	e014                	sd	a3,0(s0)
   19d46:	00e78023          	sb	a4,0(a5)
   19d4a:	0485                	addi	s1,s1,1
   19d4c:	003c                	addi	a5,sp,8
   19d4e:	97a6                	add	a5,a5,s1
   19d50:	0524f463          	bgeu	s1,s2,19d98 <__fputwc+0xb8>
   19d54:	0007c703          	lbu	a4,0(a5)
   19d58:	445c                	lw	a5,12(s0)
   19d5a:	37fd                	addiw	a5,a5,-1
   19d5c:	c45c                	sw	a5,12(s0)
   19d5e:	02079613          	slli	a2,a5,0x20
   19d62:	0007869b          	sext.w	a3,a5
   19d66:	fc065ce3          	bgez	a2,19d3e <__fputwc+0x5e>
   19d6a:	541c                	lw	a5,40(s0)
   19d6c:	85ba                	mv	a1,a4
   19d6e:	8622                	mv	a2,s0
   19d70:	855a                	mv	a0,s6
   19d72:	00f6c463          	blt	a3,a5,19d7a <__fputwc+0x9a>
   19d76:	fd5714e3          	bne	a4,s5,19d3e <__fputwc+0x5e>
   19d7a:	6c9000ef          	jal	ra,1ac42 <__swbuf_r>
   19d7e:	fd4516e3          	bne	a0,s4,19d4a <__fputwc+0x6a>
   19d82:	557d                	li	a0,-1
   19d84:	60a6                	ld	ra,72(sp)
   19d86:	6406                	ld	s0,64(sp)
   19d88:	74e2                	ld	s1,56(sp)
   19d8a:	7942                	ld	s2,48(sp)
   19d8c:	79a2                	ld	s3,40(sp)
   19d8e:	7a02                	ld	s4,32(sp)
   19d90:	6ae2                	ld	s5,24(sp)
   19d92:	6b42                	ld	s6,16(sp)
   19d94:	6161                	addi	sp,sp,80
   19d96:	8082                	ret
   19d98:	0009851b          	sext.w	a0,s3
   19d9c:	b7e5                	j	19d84 <__fputwc+0xa4>
   19d9e:	01045783          	lhu	a5,16(s0)
   19da2:	557d                	li	a0,-1
   19da4:	0407e793          	ori	a5,a5,64
   19da8:	00f41823          	sh	a5,16(s0)
   19dac:	bfe1                	j	19d84 <__fputwc+0xa4>

0000000000019dae <_fputwc_r>:
   19dae:	01061783          	lh	a5,16(a2)
   19db2:	03279713          	slli	a4,a5,0x32
   19db6:	00074c63          	bltz	a4,19dce <_fputwc_r+0x20>
   19dba:	0ac62703          	lw	a4,172(a2)
   19dbe:	6689                	lui	a3,0x2
   19dc0:	8fd5                	or	a5,a5,a3
   19dc2:	6689                	lui	a3,0x2
   19dc4:	8f55                	or	a4,a4,a3
   19dc6:	00f61823          	sh	a5,16(a2)
   19dca:	0ae62623          	sw	a4,172(a2)
   19dce:	bf09                	j	19ce0 <__fputwc>

0000000000019dd0 <fputwc>:
   19dd0:	1101                	addi	sp,sp,-32
   19dd2:	e822                	sd	s0,16(sp)
   19dd4:	ec06                	sd	ra,24(sp)
   19dd6:	7581b403          	ld	s0,1880(gp) # 1f408 <_impure_ptr>
   19dda:	862e                	mv	a2,a1
   19ddc:	85aa                	mv	a1,a0
   19dde:	c019                	beqz	s0,19de4 <fputwc+0x14>
   19de0:	483c                	lw	a5,80(s0)
   19de2:	c795                	beqz	a5,19e0e <fputwc+0x3e>
   19de4:	01061783          	lh	a5,16(a2)
   19de8:	03279713          	slli	a4,a5,0x32
   19dec:	00074c63          	bltz	a4,19e04 <fputwc+0x34>
   19df0:	0ac62703          	lw	a4,172(a2)
   19df4:	6689                	lui	a3,0x2
   19df6:	8fd5                	or	a5,a5,a3
   19df8:	6689                	lui	a3,0x2
   19dfa:	8f55                	or	a4,a4,a3
   19dfc:	00f61823          	sh	a5,16(a2)
   19e00:	0ae62623          	sw	a4,172(a2)
   19e04:	8522                	mv	a0,s0
   19e06:	6442                	ld	s0,16(sp)
   19e08:	60e2                	ld	ra,24(sp)
   19e0a:	6105                	addi	sp,sp,32
   19e0c:	bdd1                	j	19ce0 <__fputwc>
   19e0e:	e02a                	sd	a0,0(sp)
   19e10:	8522                	mv	a0,s0
   19e12:	e432                	sd	a2,8(sp)
   19e14:	cedf80ef          	jal	ra,12b00 <__sinit>
   19e18:	6622                	ld	a2,8(sp)
   19e1a:	6582                	ld	a1,0(sp)
   19e1c:	b7e1                	j	19de4 <fputwc+0x14>

0000000000019e1e <_fstat_r>:
   19e1e:	1141                	addi	sp,sp,-16
   19e20:	872e                	mv	a4,a1
   19e22:	e022                	sd	s0,0(sp)
   19e24:	85b2                	mv	a1,a2
   19e26:	842a                	mv	s0,a0
   19e28:	853a                	mv	a0,a4
   19e2a:	00005797          	auipc	a5,0x5
   19e2e:	6607af23          	sw	zero,1662(a5) # 1f4a8 <errno>
   19e32:	e406                	sd	ra,8(sp)
   19e34:	084010ef          	jal	ra,1aeb8 <_fstat>
   19e38:	57fd                	li	a5,-1
   19e3a:	00f50663          	beq	a0,a5,19e46 <_fstat_r+0x28>
   19e3e:	60a2                	ld	ra,8(sp)
   19e40:	6402                	ld	s0,0(sp)
   19e42:	0141                	addi	sp,sp,16
   19e44:	8082                	ret
   19e46:	00005797          	auipc	a5,0x5
   19e4a:	6627a783          	lw	a5,1634(a5) # 1f4a8 <errno>
   19e4e:	dbe5                	beqz	a5,19e3e <_fstat_r+0x20>
   19e50:	60a2                	ld	ra,8(sp)
   19e52:	c01c                	sw	a5,0(s0)
   19e54:	6402                	ld	s0,0(sp)
   19e56:	0141                	addi	sp,sp,16
   19e58:	8082                	ret

0000000000019e5a <_isatty_r>:
   19e5a:	1141                	addi	sp,sp,-16
   19e5c:	e022                	sd	s0,0(sp)
   19e5e:	842a                	mv	s0,a0
   19e60:	852e                	mv	a0,a1
   19e62:	00005797          	auipc	a5,0x5
   19e66:	6407a323          	sw	zero,1606(a5) # 1f4a8 <errno>
   19e6a:	e406                	sd	ra,8(sp)
   19e6c:	094010ef          	jal	ra,1af00 <_isatty>
   19e70:	57fd                	li	a5,-1
   19e72:	00f50663          	beq	a0,a5,19e7e <_isatty_r+0x24>
   19e76:	60a2                	ld	ra,8(sp)
   19e78:	6402                	ld	s0,0(sp)
   19e7a:	0141                	addi	sp,sp,16
   19e7c:	8082                	ret
   19e7e:	00005797          	auipc	a5,0x5
   19e82:	62a7a783          	lw	a5,1578(a5) # 1f4a8 <errno>
   19e86:	dbe5                	beqz	a5,19e76 <_isatty_r+0x1c>
   19e88:	60a2                	ld	ra,8(sp)
   19e8a:	c01c                	sw	a5,0(s0)
   19e8c:	6402                	ld	s0,0(sp)
   19e8e:	0141                	addi	sp,sp,16
   19e90:	8082                	ret

0000000000019e92 <_lseek_r>:
   19e92:	1141                	addi	sp,sp,-16
   19e94:	872e                	mv	a4,a1
   19e96:	e022                	sd	s0,0(sp)
   19e98:	85b2                	mv	a1,a2
   19e9a:	842a                	mv	s0,a0
   19e9c:	8636                	mv	a2,a3
   19e9e:	853a                	mv	a0,a4
   19ea0:	00005797          	auipc	a5,0x5
   19ea4:	6007a423          	sw	zero,1544(a5) # 1f4a8 <errno>
   19ea8:	e406                	sd	ra,8(sp)
   19eaa:	07c010ef          	jal	ra,1af26 <_lseek>
   19eae:	57fd                	li	a5,-1
   19eb0:	00f50663          	beq	a0,a5,19ebc <_lseek_r+0x2a>
   19eb4:	60a2                	ld	ra,8(sp)
   19eb6:	6402                	ld	s0,0(sp)
   19eb8:	0141                	addi	sp,sp,16
   19eba:	8082                	ret
   19ebc:	00005797          	auipc	a5,0x5
   19ec0:	5ec7a783          	lw	a5,1516(a5) # 1f4a8 <errno>
   19ec4:	dbe5                	beqz	a5,19eb4 <_lseek_r+0x22>
   19ec6:	60a2                	ld	ra,8(sp)
   19ec8:	c01c                	sw	a5,0(s0)
   19eca:	6402                	ld	s0,0(sp)
   19ecc:	0141                	addi	sp,sp,16
   19ece:	8082                	ret

0000000000019ed0 <_read_r>:
   19ed0:	1141                	addi	sp,sp,-16
   19ed2:	872e                	mv	a4,a1
   19ed4:	e022                	sd	s0,0(sp)
   19ed6:	85b2                	mv	a1,a2
   19ed8:	842a                	mv	s0,a0
   19eda:	8636                	mv	a2,a3
   19edc:	853a                	mv	a0,a4
   19ede:	00005797          	auipc	a5,0x5
   19ee2:	5c07a523          	sw	zero,1482(a5) # 1f4a8 <errno>
   19ee6:	e406                	sd	ra,8(sp)
   19ee8:	070010ef          	jal	ra,1af58 <_read>
   19eec:	57fd                	li	a5,-1
   19eee:	00f50663          	beq	a0,a5,19efa <_read_r+0x2a>
   19ef2:	60a2                	ld	ra,8(sp)
   19ef4:	6402                	ld	s0,0(sp)
   19ef6:	0141                	addi	sp,sp,16
   19ef8:	8082                	ret
   19efa:	00005797          	auipc	a5,0x5
   19efe:	5ae7a783          	lw	a5,1454(a5) # 1f4a8 <errno>
   19f02:	dbe5                	beqz	a5,19ef2 <_read_r+0x22>
   19f04:	60a2                	ld	ra,8(sp)
   19f06:	c01c                	sw	a5,0(s0)
   19f08:	6402                	ld	s0,0(sp)
   19f0a:	0141                	addi	sp,sp,16
   19f0c:	8082                	ret

0000000000019f0e <cleanup_glue>:
   19f0e:	1101                	addi	sp,sp,-32
   19f10:	e822                	sd	s0,16(sp)
   19f12:	842e                	mv	s0,a1
   19f14:	618c                	ld	a1,0(a1)
   19f16:	e426                	sd	s1,8(sp)
   19f18:	ec06                	sd	ra,24(sp)
   19f1a:	84aa                	mv	s1,a0
   19f1c:	c199                	beqz	a1,19f22 <cleanup_glue+0x14>
   19f1e:	ff1ff0ef          	jal	ra,19f0e <cleanup_glue>
   19f22:	85a2                	mv	a1,s0
   19f24:	6442                	ld	s0,16(sp)
   19f26:	60e2                	ld	ra,24(sp)
   19f28:	8526                	mv	a0,s1
   19f2a:	64a2                	ld	s1,8(sp)
   19f2c:	6105                	addi	sp,sp,32
   19f2e:	d0df806f          	j	12c3a <_free_r>

0000000000019f32 <_reclaim_reent>:
   19f32:	7581b783          	ld	a5,1880(gp) # 1f408 <_impure_ptr>
   19f36:	08a78e63          	beq	a5,a0,19fd2 <_reclaim_reent+0xa0>
   19f3a:	7d2c                	ld	a1,120(a0)
   19f3c:	7179                	addi	sp,sp,-48
   19f3e:	ec26                	sd	s1,24(sp)
   19f40:	f406                	sd	ra,40(sp)
   19f42:	f022                	sd	s0,32(sp)
   19f44:	e84a                	sd	s2,16(sp)
   19f46:	e44e                	sd	s3,8(sp)
   19f48:	84aa                	mv	s1,a0
   19f4a:	c58d                	beqz	a1,19f74 <_reclaim_reent+0x42>
   19f4c:	4901                	li	s2,0
   19f4e:	20000993          	li	s3,512
   19f52:	012587b3          	add	a5,a1,s2
   19f56:	6380                	ld	s0,0(a5)
   19f58:	c801                	beqz	s0,19f68 <_reclaim_reent+0x36>
   19f5a:	85a2                	mv	a1,s0
   19f5c:	6000                	ld	s0,0(s0)
   19f5e:	8526                	mv	a0,s1
   19f60:	cdbf80ef          	jal	ra,12c3a <_free_r>
   19f64:	f87d                	bnez	s0,19f5a <_reclaim_reent+0x28>
   19f66:	7cac                	ld	a1,120(s1)
   19f68:	0921                	addi	s2,s2,8
   19f6a:	ff3914e3          	bne	s2,s3,19f52 <_reclaim_reent+0x20>
   19f6e:	8526                	mv	a0,s1
   19f70:	ccbf80ef          	jal	ra,12c3a <_free_r>
   19f74:	70ac                	ld	a1,96(s1)
   19f76:	c581                	beqz	a1,19f7e <_reclaim_reent+0x4c>
   19f78:	8526                	mv	a0,s1
   19f7a:	cc1f80ef          	jal	ra,12c3a <_free_r>
   19f7e:	1f84b403          	ld	s0,504(s1)
   19f82:	cc01                	beqz	s0,19f9a <_reclaim_reent+0x68>
   19f84:	20048913          	addi	s2,s1,512
   19f88:	01240963          	beq	s0,s2,19f9a <_reclaim_reent+0x68>
   19f8c:	85a2                	mv	a1,s0
   19f8e:	6000                	ld	s0,0(s0)
   19f90:	8526                	mv	a0,s1
   19f92:	ca9f80ef          	jal	ra,12c3a <_free_r>
   19f96:	fe891be3          	bne	s2,s0,19f8c <_reclaim_reent+0x5a>
   19f9a:	64cc                	ld	a1,136(s1)
   19f9c:	c581                	beqz	a1,19fa4 <_reclaim_reent+0x72>
   19f9e:	8526                	mv	a0,s1
   19fa0:	c9bf80ef          	jal	ra,12c3a <_free_r>
   19fa4:	48bc                	lw	a5,80(s1)
   19fa6:	cf99                	beqz	a5,19fc4 <_reclaim_reent+0x92>
   19fa8:	6cbc                	ld	a5,88(s1)
   19faa:	8526                	mv	a0,s1
   19fac:	9782                	jalr	a5
   19fae:	5204b583          	ld	a1,1312(s1)
   19fb2:	c989                	beqz	a1,19fc4 <_reclaim_reent+0x92>
   19fb4:	7402                	ld	s0,32(sp)
   19fb6:	70a2                	ld	ra,40(sp)
   19fb8:	6942                	ld	s2,16(sp)
   19fba:	69a2                	ld	s3,8(sp)
   19fbc:	8526                	mv	a0,s1
   19fbe:	64e2                	ld	s1,24(sp)
   19fc0:	6145                	addi	sp,sp,48
   19fc2:	b7b1                	j	19f0e <cleanup_glue>
   19fc4:	70a2                	ld	ra,40(sp)
   19fc6:	7402                	ld	s0,32(sp)
   19fc8:	64e2                	ld	s1,24(sp)
   19fca:	6942                	ld	s2,16(sp)
   19fcc:	69a2                	ld	s3,8(sp)
   19fce:	6145                	addi	sp,sp,48
   19fd0:	8082                	ret
   19fd2:	8082                	ret

0000000000019fd4 <__ssprint_r>:
   19fd4:	6a1c                	ld	a5,16(a2)
   19fd6:	715d                	addi	sp,sp,-80
   19fd8:	f052                	sd	s4,32(sp)
   19fda:	e486                	sd	ra,72(sp)
   19fdc:	e0a2                	sd	s0,64(sp)
   19fde:	fc26                	sd	s1,56(sp)
   19fe0:	f84a                	sd	s2,48(sp)
   19fe2:	f44e                	sd	s3,40(sp)
   19fe4:	ec56                	sd	s5,24(sp)
   19fe6:	e85a                	sd	s6,16(sp)
   19fe8:	e45e                	sd	s7,8(sp)
   19fea:	e062                	sd	s8,0(sp)
   19fec:	8a32                	mv	s4,a2
   19fee:	cff9                	beqz	a5,1a0cc <__ssprint_r+0xf8>
   19ff0:	8aaa                	mv	s5,a0
   19ff2:	00063983          	ld	s3,0(a2)
   19ff6:	6188                	ld	a0,0(a1)
   19ff8:	45c0                	lw	s0,12(a1)
   19ffa:	892e                	mv	s2,a1
   19ffc:	4b01                	li	s6,0
   19ffe:	4481                	li	s1,0
   1a000:	c4ed                	beqz	s1,1a0ea <__ssprint_r+0x116>
   1a002:	8c22                	mv	s8,s0
   1a004:	0004879b          	sext.w	a5,s1
   1a008:	0e84e763          	bltu	s1,s0,1a0f6 <__ssprint_r+0x122>
   1a00c:	01095783          	lhu	a5,16(s2)
   1a010:	00048b9b          	sext.w	s7,s1
   1a014:	4807f713          	andi	a4,a5,1152
   1a018:	c349                	beqz	a4,1a09a <__ssprint_r+0xc6>
   1a01a:	02092683          	lw	a3,32(s2)
   1a01e:	01893583          	ld	a1,24(s2)
   1a022:	00148713          	addi	a4,s1,1
   1a026:	0016941b          	slliw	s0,a3,0x1
   1a02a:	9ea1                	addw	a3,a3,s0
   1a02c:	8d0d                	sub	a0,a0,a1
   1a02e:	01f6d41b          	srliw	s0,a3,0x1f
   1a032:	00050b9b          	sext.w	s7,a0
   1a036:	9c35                	addw	s0,s0,a3
   1a038:	4014541b          	sraiw	s0,s0,0x1
   1a03c:	975e                	add	a4,a4,s7
   1a03e:	00e47563          	bgeu	s0,a4,1a048 <__ssprint_r+0x74>
   1a042:	0014841b          	addiw	s0,s1,1
   1a046:	9c29                	addw	s0,s0,a0
   1a048:	4007f793          	andi	a5,a5,1024
   1a04c:	cbcd                	beqz	a5,1a0fe <__ssprint_r+0x12a>
   1a04e:	85a2                	mv	a1,s0
   1a050:	8556                	mv	a0,s5
   1a052:	cd0fb0ef          	jal	ra,15522 <_malloc_r>
   1a056:	8c2a                	mv	s8,a0
   1a058:	cd55                	beqz	a0,1a114 <__ssprint_r+0x140>
   1a05a:	01893583          	ld	a1,24(s2)
   1a05e:	865e                	mv	a2,s7
   1a060:	bcdfb0ef          	jal	ra,15c2c <memcpy>
   1a064:	01095783          	lhu	a5,16(s2)
   1a068:	b7f7f793          	andi	a5,a5,-1153
   1a06c:	0807e793          	ori	a5,a5,128
   1a070:	00f91823          	sh	a5,16(s2)
   1a074:	017c0533          	add	a0,s8,s7
   1a078:	41740bbb          	subw	s7,s0,s7
   1a07c:	0004879b          	sext.w	a5,s1
   1a080:	01893c23          	sd	s8,24(s2)
   1a084:	02892023          	sw	s0,32(s2)
   1a088:	01792623          	sw	s7,12(s2)
   1a08c:	00a93023          	sd	a0,0(s2)
   1a090:	843e                	mv	s0,a5
   1a092:	8bbe                	mv	s7,a5
   1a094:	8c3e                	mv	s8,a5
   1a096:	06f4e063          	bltu	s1,a5,1a0f6 <__ssprint_r+0x122>
   1a09a:	8622                	mv	a2,s0
   1a09c:	85da                	mv	a1,s6
   1a09e:	c6dfb0ef          	jal	ra,15d0a <memmove>
   1a0a2:	00c92603          	lw	a2,12(s2)
   1a0a6:	00093503          	ld	a0,0(s2)
   1a0aa:	010a3783          	ld	a5,16(s4)
   1a0ae:	4086043b          	subw	s0,a2,s0
   1a0b2:	9562                	add	a0,a0,s8
   1a0b4:	00892623          	sw	s0,12(s2)
   1a0b8:	00a93023          	sd	a0,0(s2)
   1a0bc:	417787b3          	sub	a5,a5,s7
   1a0c0:	00fa3823          	sd	a5,16(s4)
   1a0c4:	9b5e                	add	s6,s6,s7
   1a0c6:	417484b3          	sub	s1,s1,s7
   1a0ca:	fb9d                	bnez	a5,1a000 <__ssprint_r+0x2c>
   1a0cc:	000a2423          	sw	zero,8(s4)
   1a0d0:	4501                	li	a0,0
   1a0d2:	60a6                	ld	ra,72(sp)
   1a0d4:	6406                	ld	s0,64(sp)
   1a0d6:	74e2                	ld	s1,56(sp)
   1a0d8:	7942                	ld	s2,48(sp)
   1a0da:	79a2                	ld	s3,40(sp)
   1a0dc:	7a02                	ld	s4,32(sp)
   1a0de:	6ae2                	ld	s5,24(sp)
   1a0e0:	6b42                	ld	s6,16(sp)
   1a0e2:	6ba2                	ld	s7,8(sp)
   1a0e4:	6c02                	ld	s8,0(sp)
   1a0e6:	6161                	addi	sp,sp,80
   1a0e8:	8082                	ret
   1a0ea:	0009bb03          	ld	s6,0(s3)
   1a0ee:	0089b483          	ld	s1,8(s3)
   1a0f2:	09c1                	addi	s3,s3,16
   1a0f4:	b731                	j	1a000 <__ssprint_r+0x2c>
   1a0f6:	843e                	mv	s0,a5
   1a0f8:	8bbe                	mv	s7,a5
   1a0fa:	8c3e                	mv	s8,a5
   1a0fc:	bf79                	j	1a09a <__ssprint_r+0xc6>
   1a0fe:	8622                	mv	a2,s0
   1a100:	8556                	mv	a0,s5
   1a102:	861fc0ef          	jal	ra,16962 <_realloc_r>
   1a106:	8c2a                	mv	s8,a0
   1a108:	f535                	bnez	a0,1a074 <__ssprint_r+0xa0>
   1a10a:	01893583          	ld	a1,24(s2)
   1a10e:	8556                	mv	a0,s5
   1a110:	b2bf80ef          	jal	ra,12c3a <_free_r>
   1a114:	47b1                	li	a5,12
   1a116:	00faa023          	sw	a5,0(s5)
   1a11a:	01095783          	lhu	a5,16(s2)
   1a11e:	557d                	li	a0,-1
   1a120:	0407e793          	ori	a5,a5,64
   1a124:	00f91823          	sh	a5,16(s2)
   1a128:	000a3823          	sd	zero,16(s4)
   1a12c:	000a2423          	sw	zero,8(s4)
   1a130:	b74d                	j	1a0d2 <__ssprint_r+0xfe>

000000000001a132 <_svfiprintf_r>:
   1a132:	0105d783          	lhu	a5,16(a1)
   1a136:	7145                	addi	sp,sp,-464
   1a138:	ff26                	sd	s1,440(sp)
   1a13a:	f74e                	sd	s3,424(sp)
   1a13c:	f6ee                	sd	s11,360(sp)
   1a13e:	e786                	sd	ra,456(sp)
   1a140:	e3a2                	sd	s0,448(sp)
   1a142:	fb4a                	sd	s2,432(sp)
   1a144:	f352                	sd	s4,416(sp)
   1a146:	ef56                	sd	s5,408(sp)
   1a148:	eb5a                	sd	s6,400(sp)
   1a14a:	e75e                	sd	s7,392(sp)
   1a14c:	e362                	sd	s8,384(sp)
   1a14e:	fee6                	sd	s9,376(sp)
   1a150:	faea                	sd	s10,368(sp)
   1a152:	0807f793          	andi	a5,a5,128
   1a156:	e436                	sd	a3,8(sp)
   1a158:	84ae                	mv	s1,a1
   1a15a:	89aa                	mv	s3,a0
   1a15c:	8db2                	mv	s11,a2
   1a15e:	c781                	beqz	a5,1a166 <_svfiprintf_r+0x34>
   1a160:	6d9c                	ld	a5,24(a1)
   1a162:	160783e3          	beqz	a5,1aac8 <_svfiprintf_r+0x996>
   1a166:	77e1                	lui	a5,0xffff8
   1a168:	0e010913          	addi	s2,sp,224
   1a16c:	8307c793          	xori	a5,a5,-2000
   1a170:	f0ca                	sd	s2,96(sp)
   1a172:	f882                	sd	zero,112(sp)
   1a174:	d482                	sw	zero,104(sp)
   1a176:	874a                	mv	a4,s2
   1a178:	e802                	sd	zero,16(sp)
   1a17a:	f802                	sd	zero,48(sp)
   1a17c:	e082                	sd	zero,64(sp)
   1a17e:	fc02                	sd	zero,56(sp)
   1a180:	e002                	sd	zero,0(sp)
   1a182:	00003b97          	auipc	s7,0x3
   1a186:	df6b8b93          	addi	s7,s7,-522 # 1cf78 <_ctype_+0x108>
   1a18a:	e4be                	sd	a5,72(sp)
   1a18c:	000dc783          	lbu	a5,0(s11)
   1a190:	18078963          	beqz	a5,1a322 <_svfiprintf_r+0x1f0>
   1a194:	8a6e                	mv	s4,s11
   1a196:	02500693          	li	a3,37
   1a19a:	28d78263          	beq	a5,a3,1a41e <_svfiprintf_r+0x2ec>
   1a19e:	001a4783          	lbu	a5,1(s4)
   1a1a2:	0a05                	addi	s4,s4,1
   1a1a4:	fbfd                	bnez	a5,1a19a <_svfiprintf_r+0x68>
   1a1a6:	41ba043b          	subw	s0,s4,s11
   1a1aa:	16040c63          	beqz	s0,1a322 <_svfiprintf_r+0x1f0>
   1a1ae:	76c6                	ld	a3,112(sp)
   1a1b0:	57a6                	lw	a5,104(sp)
   1a1b2:	01b73023          	sd	s11,0(a4)
   1a1b6:	96a2                	add	a3,a3,s0
   1a1b8:	2785                	addiw	a5,a5,1
   1a1ba:	e700                	sd	s0,8(a4)
   1a1bc:	f8b6                	sd	a3,112(sp)
   1a1be:	d4be                	sw	a5,104(sp)
   1a1c0:	0007869b          	sext.w	a3,a5
   1a1c4:	479d                	li	a5,7
   1a1c6:	0741                	addi	a4,a4,16
   1a1c8:	26d7c263          	blt	a5,a3,1a42c <_svfiprintf_r+0x2fa>
   1a1cc:	6682                	ld	a3,0(sp)
   1a1ce:	000a4783          	lbu	a5,0(s4)
   1a1d2:	9ea1                	addw	a3,a3,s0
   1a1d4:	e036                	sd	a3,0(sp)
   1a1d6:	14078663          	beqz	a5,1a322 <_svfiprintf_r+0x1f0>
   1a1da:	001a4683          	lbu	a3,1(s4)
   1a1de:	001a0d93          	addi	s11,s4,1
   1a1e2:	04010ba3          	sb	zero,87(sp)
   1a1e6:	5cfd                	li	s9,-1
   1a1e8:	4401                	li	s0,0
   1a1ea:	4d01                	li	s10,0
   1a1ec:	4a25                	li	s4,9
   1a1ee:	02a00a93          	li	s5,42
   1a1f2:	0d85                	addi	s11,s11,1
   1a1f4:	2681                	sext.w	a3,a3
   1a1f6:	05a00593          	li	a1,90
   1a1fa:	fe06879b          	addiw	a5,a3,-32
   1a1fe:	0007861b          	sext.w	a2,a5
   1a202:	04c5e063          	bltu	a1,a2,1a242 <_svfiprintf_r+0x110>
   1a206:	1782                	slli	a5,a5,0x20
   1a208:	83f9                	srli	a5,a5,0x1e
   1a20a:	97de                	add	a5,a5,s7
   1a20c:	439c                	lw	a5,0(a5)
   1a20e:	97de                	add	a5,a5,s7
   1a210:	8782                	jr	a5
   1a212:	4401                	li	s0,0
   1a214:	000dc603          	lbu	a2,0(s11)
   1a218:	0024179b          	slliw	a5,s0,0x2
   1a21c:	9c3d                	addw	s0,s0,a5
   1a21e:	fd06869b          	addiw	a3,a3,-48
   1a222:	0014141b          	slliw	s0,s0,0x1
   1a226:	fd06079b          	addiw	a5,a2,-48
   1a22a:	9c35                	addw	s0,s0,a3
   1a22c:	0d85                	addi	s11,s11,1
   1a22e:	0006069b          	sext.w	a3,a2
   1a232:	fefa71e3          	bgeu	s4,a5,1a214 <_svfiprintf_r+0xe2>
   1a236:	fe06879b          	addiw	a5,a3,-32
   1a23a:	0007861b          	sext.w	a2,a5
   1a23e:	fcc5f4e3          	bgeu	a1,a2,1a206 <_svfiprintf_r+0xd4>
   1a242:	c2e5                	beqz	a3,1a322 <_svfiprintf_r+0x1f0>
   1a244:	06d10c23          	sb	a3,120(sp)
   1a248:	04010ba3          	sb	zero,87(sp)
   1a24c:	4a85                	li	s5,1
   1a24e:	4a05                	li	s4,1
   1a250:	07810c13          	addi	s8,sp,120
   1a254:	4c81                	li	s9,0
   1a256:	002d7793          	andi	a5,s10,2
   1a25a:	0007839b          	sext.w	t2,a5
   1a25e:	c391                	beqz	a5,1a262 <_svfiprintf_r+0x130>
   1a260:	2a89                	addiw	s5,s5,2
   1a262:	084d7b13          	andi	s6,s10,132
   1a266:	77c6                	ld	a5,112(sp)
   1a268:	5626                	lw	a2,104(sp)
   1a26a:	000b1663          	bnez	s6,1a276 <_svfiprintf_r+0x144>
   1a26e:	415406bb          	subw	a3,s0,s5
   1a272:	5ad04a63          	bgtz	a3,1a826 <_svfiprintf_r+0x6f4>
   1a276:	05714e83          	lbu	t4,87(sp)
   1a27a:	0016059b          	addiw	a1,a2,1
   1a27e:	01070693          	addi	a3,a4,16
   1a282:	020e8763          	beqz	t4,1a2b0 <_svfiprintf_r+0x17e>
   1a286:	05710e93          	addi	t4,sp,87
   1a28a:	0785                	addi	a5,a5,1
   1a28c:	01d73023          	sd	t4,0(a4)
   1a290:	4e85                	li	t4,1
   1a292:	01d73423          	sd	t4,8(a4)
   1a296:	f8be                	sd	a5,112(sp)
   1a298:	d4ae                	sw	a1,104(sp)
   1a29a:	451d                	li	a0,7
   1a29c:	60b54a63          	blt	a0,a1,1a8b0 <_svfiprintf_r+0x77e>
   1a2a0:	00260e9b          	addiw	t4,a2,2
   1a2a4:	02070513          	addi	a0,a4,32
   1a2a8:	862e                	mv	a2,a1
   1a2aa:	8736                	mv	a4,a3
   1a2ac:	85f6                	mv	a1,t4
   1a2ae:	86aa                	mv	a3,a0
   1a2b0:	02038063          	beqz	t2,1a2d0 <_svfiprintf_r+0x19e>
   1a2b4:	08b0                	addi	a2,sp,88
   1a2b6:	e310                	sd	a2,0(a4)
   1a2b8:	0789                	addi	a5,a5,2
   1a2ba:	4609                	li	a2,2
   1a2bc:	e710                	sd	a2,8(a4)
   1a2be:	f8be                	sd	a5,112(sp)
   1a2c0:	d4ae                	sw	a1,104(sp)
   1a2c2:	471d                	li	a4,7
   1a2c4:	60b74663          	blt	a4,a1,1a8d0 <_svfiprintf_r+0x79e>
   1a2c8:	862e                	mv	a2,a1
   1a2ca:	8736                	mv	a4,a3
   1a2cc:	2585                	addiw	a1,a1,1
   1a2ce:	06c1                	addi	a3,a3,16
   1a2d0:	08000513          	li	a0,128
   1a2d4:	40ab0f63          	beq	s6,a0,1a6f2 <_svfiprintf_r+0x5c0>
   1a2d8:	414c8cbb          	subw	s9,s9,s4
   1a2dc:	49904e63          	bgtz	s9,1a778 <_svfiprintf_r+0x646>
   1a2e0:	97d2                	add	a5,a5,s4
   1a2e2:	01873023          	sd	s8,0(a4)
   1a2e6:	01473423          	sd	s4,8(a4)
   1a2ea:	f8be                	sd	a5,112(sp)
   1a2ec:	d4ae                	sw	a1,104(sp)
   1a2ee:	471d                	li	a4,7
   1a2f0:	50b74763          	blt	a4,a1,1a7fe <_svfiprintf_r+0x6cc>
   1a2f4:	004d7e13          	andi	t3,s10,4
   1a2f8:	000e0663          	beqz	t3,1a304 <_svfiprintf_r+0x1d2>
   1a2fc:	41540a3b          	subw	s4,s0,s5
   1a300:	5f404663          	bgtz	s4,1a8ec <_svfiprintf_r+0x7ba>
   1a304:	8722                	mv	a4,s0
   1a306:	01545363          	bge	s0,s5,1a30c <_svfiprintf_r+0x1da>
   1a30a:	8756                	mv	a4,s5
   1a30c:	6682                	ld	a3,0(sp)
   1a30e:	9f35                	addw	a4,a4,a3
   1a310:	e03a                	sd	a4,0(sp)
   1a312:	50079063          	bnez	a5,1a812 <_svfiprintf_r+0x6e0>
   1a316:	000dc783          	lbu	a5,0(s11)
   1a31a:	d482                	sw	zero,104(sp)
   1a31c:	874a                	mv	a4,s2
   1a31e:	e6079be3          	bnez	a5,1a194 <_svfiprintf_r+0x62>
   1a322:	77c6                	ld	a5,112(sp)
   1a324:	0a079be3          	bnez	a5,1abda <_svfiprintf_r+0xaa8>
   1a328:	0104d783          	lhu	a5,16(s1)
   1a32c:	0407f793          	andi	a5,a5,64
   1a330:	0c079ee3          	bnez	a5,1ac0c <_svfiprintf_r+0xada>
   1a334:	60be                	ld	ra,456(sp)
   1a336:	641e                	ld	s0,448(sp)
   1a338:	6502                	ld	a0,0(sp)
   1a33a:	74fa                	ld	s1,440(sp)
   1a33c:	795a                	ld	s2,432(sp)
   1a33e:	79ba                	ld	s3,424(sp)
   1a340:	7a1a                	ld	s4,416(sp)
   1a342:	6afa                	ld	s5,408(sp)
   1a344:	6b5a                	ld	s6,400(sp)
   1a346:	6bba                	ld	s7,392(sp)
   1a348:	6c1a                	ld	s8,384(sp)
   1a34a:	7cf6                	ld	s9,376(sp)
   1a34c:	7d56                	ld	s10,368(sp)
   1a34e:	7db6                	ld	s11,360(sp)
   1a350:	6179                	addi	sp,sp,464
   1a352:	8082                	ret
   1a354:	010d6e13          	ori	t3,s10,16
   1a358:	000dc683          	lbu	a3,0(s11)
   1a35c:	000e0d1b          	sext.w	s10,t3
   1a360:	bd49                	j	1a1f2 <_svfiprintf_r+0xc0>
   1a362:	010d6e13          	ori	t3,s10,16
   1a366:	000e0d1b          	sext.w	s10,t3
   1a36a:	6622                	ld	a2,8(sp)
   1a36c:	020d7793          	andi	a5,s10,32
   1a370:	00860693          	addi	a3,a2,8
   1a374:	c7e5                	beqz	a5,1a45c <_svfiprintf_r+0x32a>
   1a376:	621c                	ld	a5,0(a2)
   1a378:	8a3e                	mv	s4,a5
   1a37a:	0e07cf63          	bltz	a5,1a478 <_svfiprintf_r+0x346>
   1a37e:	57fd                	li	a5,-1
   1a380:	76fc8b63          	beq	s9,a5,1aaf6 <_svfiprintf_r+0x9c4>
   1a384:	f7fd7e13          	andi	t3,s10,-129
   1a388:	e436                	sd	a3,8(sp)
   1a38a:	000e0a9b          	sext.w	s5,t3
   1a38e:	5c0a0d63          	beqz	s4,1a968 <_svfiprintf_r+0x836>
   1a392:	47a5                	li	a5,9
   1a394:	6147ef63          	bltu	a5,s4,1a9b2 <_svfiprintf_r+0x880>
   1a398:	030a0a1b          	addiw	s4,s4,48
   1a39c:	0d410da3          	sb	s4,219(sp)
   1a3a0:	8d56                	mv	s10,s5
   1a3a2:	4a05                	li	s4,1
   1a3a4:	0db10c13          	addi	s8,sp,219
   1a3a8:	a8b1                	j	1a404 <_svfiprintf_r+0x2d2>
   1a3aa:	010d6e13          	ori	t3,s10,16
   1a3ae:	000e0d1b          	sext.w	s10,t3
   1a3b2:	6622                	ld	a2,8(sp)
   1a3b4:	020d7793          	andi	a5,s10,32
   1a3b8:	00860693          	addi	a3,a2,8
   1a3bc:	c3c9                	beqz	a5,1a43e <_svfiprintf_r+0x30c>
   1a3be:	00063a03          	ld	s4,0(a2)
   1a3c2:	bffd7e13          	andi	t3,s10,-1025
   1a3c6:	000e0a9b          	sext.w	s5,t3
   1a3ca:	e436                	sd	a3,8(sp)
   1a3cc:	4781                	li	a5,0
   1a3ce:	04010ba3          	sb	zero,87(sp)
   1a3d2:	56fd                	li	a3,-1
   1a3d4:	0adc8e63          	beq	s9,a3,1a490 <_svfiprintf_r+0x35e>
   1a3d8:	f7fafe13          	andi	t3,s5,-129
   1a3dc:	000e0d1b          	sext.w	s10,t3
   1a3e0:	440a1163          	bnez	s4,1a822 <_svfiprintf_r+0x6f0>
   1a3e4:	2c0c9c63          	bnez	s9,1a6bc <_svfiprintf_r+0x58a>
   1a3e8:	58079363          	bnez	a5,1a96e <_svfiprintf_r+0x83c>
   1a3ec:	001afa13          	andi	s4,s5,1
   1a3f0:	0dc10c13          	addi	s8,sp,220
   1a3f4:	000a0863          	beqz	s4,1a404 <_svfiprintf_r+0x2d2>
   1a3f8:	03000793          	li	a5,48
   1a3fc:	0cf10da3          	sb	a5,219(sp)
   1a400:	0db10c13          	addi	s8,sp,219
   1a404:	87e6                	mv	a5,s9
   1a406:	014cd363          	bge	s9,s4,1a40c <_svfiprintf_r+0x2da>
   1a40a:	87d2                	mv	a5,s4
   1a40c:	05714683          	lbu	a3,87(sp)
   1a410:	00078a9b          	sext.w	s5,a5
   1a414:	e40681e3          	beqz	a3,1a256 <_svfiprintf_r+0x124>
   1a418:	00178a9b          	addiw	s5,a5,1
   1a41c:	bd2d                	j	1a256 <_svfiprintf_r+0x124>
   1a41e:	41ba043b          	subw	s0,s4,s11
   1a422:	d80416e3          	bnez	s0,1a1ae <_svfiprintf_r+0x7c>
   1a426:	000a4783          	lbu	a5,0(s4)
   1a42a:	b375                	j	1a1d6 <_svfiprintf_r+0xa4>
   1a42c:	1090                	addi	a2,sp,96
   1a42e:	85a6                	mv	a1,s1
   1a430:	854e                	mv	a0,s3
   1a432:	ba3ff0ef          	jal	ra,19fd4 <__ssprint_r>
   1a436:	ee0519e3          	bnez	a0,1a328 <_svfiprintf_r+0x1f6>
   1a43a:	874a                	mv	a4,s2
   1a43c:	bb41                	j	1a1cc <_svfiprintf_r+0x9a>
   1a43e:	010d7793          	andi	a5,s10,16
   1a442:	5e079e63          	bnez	a5,1aa3e <_svfiprintf_r+0x90c>
   1a446:	6622                	ld	a2,8(sp)
   1a448:	040d7793          	andi	a5,s10,64
   1a44c:	00062a03          	lw	s4,0(a2)
   1a450:	72078463          	beqz	a5,1ab78 <_svfiprintf_r+0xa46>
   1a454:	1a42                	slli	s4,s4,0x30
   1a456:	030a5a13          	srli	s4,s4,0x30
   1a45a:	b7a5                	j	1a3c2 <_svfiprintf_r+0x290>
   1a45c:	010d7793          	andi	a5,s10,16
   1a460:	5c079563          	bnez	a5,1aa2a <_svfiprintf_r+0x8f8>
   1a464:	040d7793          	andi	a5,s10,64
   1a468:	6e078f63          	beqz	a5,1ab66 <_svfiprintf_r+0xa34>
   1a46c:	67a2                	ld	a5,8(sp)
   1a46e:	00079a03          	lh	s4,0(a5) # ffffffffffff8000 <__BSS_END__+0xfffffffffffd8b50>
   1a472:	87d2                	mv	a5,s4
   1a474:	f007d5e3          	bgez	a5,1a37e <_svfiprintf_r+0x24c>
   1a478:	02d00793          	li	a5,45
   1a47c:	04f10ba3          	sb	a5,87(sp)
   1a480:	e436                	sd	a3,8(sp)
   1a482:	56fd                	li	a3,-1
   1a484:	41400a33          	neg	s4,s4
   1a488:	8aea                	mv	s5,s10
   1a48a:	4785                	li	a5,1
   1a48c:	f4dc96e3          	bne	s9,a3,1a3d8 <_svfiprintf_r+0x2a6>
   1a490:	4685                	li	a3,1
   1a492:	f0d780e3          	beq	a5,a3,1a392 <_svfiprintf_r+0x260>
   1a496:	4689                	li	a3,2
   1a498:	22d78963          	beq	a5,a3,1a6ca <_svfiprintf_r+0x598>
   1a49c:	0dc10c13          	addi	s8,sp,220
   1a4a0:	007a7793          	andi	a5,s4,7
   1a4a4:	03078793          	addi	a5,a5,48
   1a4a8:	fefc0fa3          	sb	a5,-1(s8)
   1a4ac:	003a5a13          	srli	s4,s4,0x3
   1a4b0:	86e2                	mv	a3,s8
   1a4b2:	1c7d                	addi	s8,s8,-1
   1a4b4:	fe0a16e3          	bnez	s4,1a4a0 <_svfiprintf_r+0x36e>
   1a4b8:	001af613          	andi	a2,s5,1
   1a4bc:	22060663          	beqz	a2,1a6e8 <_svfiprintf_r+0x5b6>
   1a4c0:	03000613          	li	a2,48
   1a4c4:	22c78263          	beq	a5,a2,1a6e8 <_svfiprintf_r+0x5b6>
   1a4c8:	16f9                	addi	a3,a3,-2
   1a4ca:	09fc                	addi	a5,sp,220
   1a4cc:	fecc0fa3          	sb	a2,-1(s8)
   1a4d0:	40d78a3b          	subw	s4,a5,a3
   1a4d4:	8d56                	mv	s10,s5
   1a4d6:	8c36                	mv	s8,a3
   1a4d8:	b735                	j	1a404 <_svfiprintf_r+0x2d2>
   1a4da:	67a2                	ld	a5,8(sp)
   1a4dc:	04010ba3          	sb	zero,87(sp)
   1a4e0:	0007bc03          	ld	s8,0(a5)
   1a4e4:	00878b13          	addi	s6,a5,8
   1a4e8:	640c0b63          	beqz	s8,1ab3e <_svfiprintf_r+0xa0c>
   1a4ec:	57fd                	li	a5,-1
   1a4ee:	5cfc8363          	beq	s9,a5,1aab4 <_svfiprintf_r+0x982>
   1a4f2:	8666                	mv	a2,s9
   1a4f4:	4581                	li	a1,0
   1a4f6:	8562                	mv	a0,s8
   1a4f8:	e43a                	sd	a4,8(sp)
   1a4fa:	e94fb0ef          	jal	ra,15b8e <memchr>
   1a4fe:	6722                	ld	a4,8(sp)
   1a500:	6e050463          	beqz	a0,1abe8 <_svfiprintf_r+0xab6>
   1a504:	41850a3b          	subw	s4,a0,s8
   1a508:	e45a                	sd	s6,8(sp)
   1a50a:	4c81                	li	s9,0
   1a50c:	bde5                	j	1a404 <_svfiprintf_r+0x2d2>
   1a50e:	66a2                	ld	a3,8(sp)
   1a510:	04010ba3          	sb	zero,87(sp)
   1a514:	4a85                	li	s5,1
   1a516:	429c                	lw	a5,0(a3)
   1a518:	06a1                	addi	a3,a3,8
   1a51a:	e436                	sd	a3,8(sp)
   1a51c:	06f10c23          	sb	a5,120(sp)
   1a520:	4a05                	li	s4,1
   1a522:	07810c13          	addi	s8,sp,120
   1a526:	b33d                	j	1a254 <_svfiprintf_r+0x122>
   1a528:	020d6e13          	ori	t3,s10,32
   1a52c:	000dc683          	lbu	a3,0(s11)
   1a530:	000e0d1b          	sext.w	s10,t3
   1a534:	b97d                	j	1a1f2 <_svfiprintf_r+0xc0>
   1a536:	67a2                	ld	a5,8(sp)
   1a538:	66a6                	ld	a3,72(sp)
   1a53a:	002d6e13          	ori	t3,s10,2
   1a53e:	0007ba03          	ld	s4,0(a5)
   1a542:	07a1                	addi	a5,a5,8
   1a544:	e43e                	sd	a5,8(sp)
   1a546:	00002797          	auipc	a5,0x2
   1a54a:	04278793          	addi	a5,a5,66 # 1c588 <__clzdi2+0x12c>
   1a54e:	e83e                	sd	a5,16(sp)
   1a550:	000e0a9b          	sext.w	s5,t3
   1a554:	04d11c23          	sh	a3,88(sp)
   1a558:	4789                	li	a5,2
   1a55a:	bd95                	j	1a3ce <_svfiprintf_r+0x29c>
   1a55c:	6622                	ld	a2,8(sp)
   1a55e:	020d7793          	andi	a5,s10,32
   1a562:	6214                	ld	a3,0(a2)
   1a564:	0621                	addi	a2,a2,8
   1a566:	e432                	sd	a2,8(sp)
   1a568:	e385                	bnez	a5,1a588 <_svfiprintf_r+0x456>
   1a56a:	010d7793          	andi	a5,s10,16
   1a56e:	ef89                	bnez	a5,1a588 <_svfiprintf_r+0x456>
   1a570:	040d7793          	andi	a5,s10,64
   1a574:	64079e63          	bnez	a5,1abd0 <_svfiprintf_r+0xa9e>
   1a578:	200d7e13          	andi	t3,s10,512
   1a57c:	6782                	ld	a5,0(sp)
   1a57e:	680e0463          	beqz	t3,1ac06 <_svfiprintf_r+0xad4>
   1a582:	00f68023          	sb	a5,0(a3) # 2000 <main-0xe0b0>
   1a586:	b119                	j	1a18c <_svfiprintf_r+0x5a>
   1a588:	6782                	ld	a5,0(sp)
   1a58a:	e29c                	sd	a5,0(a3)
   1a58c:	b101                	j	1a18c <_svfiprintf_r+0x5a>
   1a58e:	000dc683          	lbu	a3,0(s11)
   1a592:	06c00793          	li	a5,108
   1a596:	56f68c63          	beq	a3,a5,1ab0e <_svfiprintf_r+0x9dc>
   1a59a:	010d6e13          	ori	t3,s10,16
   1a59e:	000e0d1b          	sext.w	s10,t3
   1a5a2:	b981                	j	1a1f2 <_svfiprintf_r+0xc0>
   1a5a4:	000dc683          	lbu	a3,0(s11)
   1a5a8:	06800793          	li	a5,104
   1a5ac:	54f68863          	beq	a3,a5,1aafc <_svfiprintf_r+0x9ca>
   1a5b0:	040d6e13          	ori	t3,s10,64
   1a5b4:	000e0d1b          	sext.w	s10,t3
   1a5b8:	b92d                	j	1a1f2 <_svfiprintf_r+0xc0>
   1a5ba:	010d6e13          	ori	t3,s10,16
   1a5be:	000e0a9b          	sext.w	s5,t3
   1a5c2:	6622                	ld	a2,8(sp)
   1a5c4:	020af793          	andi	a5,s5,32
   1a5c8:	00860693          	addi	a3,a2,8
   1a5cc:	3a078663          	beqz	a5,1a978 <_svfiprintf_r+0x846>
   1a5d0:	00063a03          	ld	s4,0(a2)
   1a5d4:	4785                	li	a5,1
   1a5d6:	e436                	sd	a3,8(sp)
   1a5d8:	bbdd                	j	1a3ce <_svfiprintf_r+0x29c>
   1a5da:	080d6e13          	ori	t3,s10,128
   1a5de:	000dc683          	lbu	a3,0(s11)
   1a5e2:	000e0d1b          	sext.w	s10,t3
   1a5e6:	b131                	j	1a1f2 <_svfiprintf_r+0xc0>
   1a5e8:	67a2                	ld	a5,8(sp)
   1a5ea:	000dc683          	lbu	a3,0(s11)
   1a5ee:	4380                	lw	s0,0(a5)
   1a5f0:	07a1                	addi	a5,a5,8
   1a5f2:	e43e                	sd	a5,8(sp)
   1a5f4:	be045fe3          	bgez	s0,1a1f2 <_svfiprintf_r+0xc0>
   1a5f8:	4080043b          	negw	s0,s0
   1a5fc:	a0b5                	j	1a668 <_svfiprintf_r+0x536>
   1a5fe:	854e                	mv	a0,s3
   1a600:	ec3a                	sd	a4,24(sp)
   1a602:	d6ffa0ef          	jal	ra,15370 <_localeconv_r>
   1a606:	651c                	ld	a5,8(a0)
   1a608:	853e                	mv	a0,a5
   1a60a:	fc3e                	sd	a5,56(sp)
   1a60c:	9c4f60ef          	jal	ra,107d0 <strlen>
   1a610:	87aa                	mv	a5,a0
   1a612:	854e                	mv	a0,s3
   1a614:	8b3e                	mv	s6,a5
   1a616:	e0be                	sd	a5,64(sp)
   1a618:	d59fa0ef          	jal	ra,15370 <_localeconv_r>
   1a61c:	691c                	ld	a5,16(a0)
   1a61e:	6762                	ld	a4,24(sp)
   1a620:	000dc683          	lbu	a3,0(s11)
   1a624:	f83e                	sd	a5,48(sp)
   1a626:	bc0b06e3          	beqz	s6,1a1f2 <_svfiprintf_r+0xc0>
   1a62a:	bc0784e3          	beqz	a5,1a1f2 <_svfiprintf_r+0xc0>
   1a62e:	0007c783          	lbu	a5,0(a5)
   1a632:	bc0780e3          	beqz	a5,1a1f2 <_svfiprintf_r+0xc0>
   1a636:	400d6e13          	ori	t3,s10,1024
   1a63a:	000e0d1b          	sext.w	s10,t3
   1a63e:	be55                	j	1a1f2 <_svfiprintf_r+0xc0>
   1a640:	001d6e13          	ori	t3,s10,1
   1a644:	000dc683          	lbu	a3,0(s11)
   1a648:	000e0d1b          	sext.w	s10,t3
   1a64c:	b65d                	j	1a1f2 <_svfiprintf_r+0xc0>
   1a64e:	05714783          	lbu	a5,87(sp)
   1a652:	000dc683          	lbu	a3,0(s11)
   1a656:	b8079ee3          	bnez	a5,1a1f2 <_svfiprintf_r+0xc0>
   1a65a:	02000793          	li	a5,32
   1a65e:	04f10ba3          	sb	a5,87(sp)
   1a662:	be41                	j	1a1f2 <_svfiprintf_r+0xc0>
   1a664:	000dc683          	lbu	a3,0(s11)
   1a668:	004d6e13          	ori	t3,s10,4
   1a66c:	000e0d1b          	sext.w	s10,t3
   1a670:	b649                	j	1a1f2 <_svfiprintf_r+0xc0>
   1a672:	02b00793          	li	a5,43
   1a676:	000dc683          	lbu	a3,0(s11)
   1a67a:	04f10ba3          	sb	a5,87(sp)
   1a67e:	be95                	j	1a1f2 <_svfiprintf_r+0xc0>
   1a680:	000dc603          	lbu	a2,0(s11)
   1a684:	001d8793          	addi	a5,s11,1
   1a688:	0006069b          	sext.w	a3,a2
   1a68c:	58ca8463          	beq	s5,a2,1ac14 <_svfiprintf_r+0xae2>
   1a690:	fd06061b          	addiw	a2,a2,-48
   1a694:	8dbe                	mv	s11,a5
   1a696:	4c81                	li	s9,0
   1a698:	b6ca61e3          	bltu	s4,a2,1a1fa <_svfiprintf_r+0xc8>
   1a69c:	000dc683          	lbu	a3,0(s11)
   1a6a0:	002c979b          	slliw	a5,s9,0x2
   1a6a4:	0197883b          	addw	a6,a5,s9
   1a6a8:	0018181b          	slliw	a6,a6,0x1
   1a6ac:	00c80cbb          	addw	s9,a6,a2
   1a6b0:	fd06861b          	addiw	a2,a3,-48
   1a6b4:	0d85                	addi	s11,s11,1
   1a6b6:	feca73e3          	bgeu	s4,a2,1a69c <_svfiprintf_r+0x56a>
   1a6ba:	b681                	j	1a1fa <_svfiprintf_r+0xc8>
   1a6bc:	4685                	li	a3,1
   1a6be:	52d78a63          	beq	a5,a3,1abf2 <_svfiprintf_r+0xac0>
   1a6c2:	4689                	li	a3,2
   1a6c4:	8aea                	mv	s5,s10
   1a6c6:	dcd79be3          	bne	a5,a3,1a49c <_svfiprintf_r+0x36a>
   1a6ca:	0dc10c13          	addi	s8,sp,220
   1a6ce:	66c2                	ld	a3,16(sp)
   1a6d0:	00fa7793          	andi	a5,s4,15
   1a6d4:	1c7d                	addi	s8,s8,-1
   1a6d6:	97b6                	add	a5,a5,a3
   1a6d8:	0007c783          	lbu	a5,0(a5)
   1a6dc:	004a5a13          	srli	s4,s4,0x4
   1a6e0:	00fc0023          	sb	a5,0(s8)
   1a6e4:	fe0a15e3          	bnez	s4,1a6ce <_svfiprintf_r+0x59c>
   1a6e8:	09fc                	addi	a5,sp,220
   1a6ea:	41878a3b          	subw	s4,a5,s8
   1a6ee:	8d56                	mv	s10,s5
   1a6f0:	bb11                	j	1a404 <_svfiprintf_r+0x2d2>
   1a6f2:	41540ebb          	subw	t4,s0,s5
   1a6f6:	bfd051e3          	blez	t4,1a2d8 <_svfiprintf_r+0x1a6>
   1a6fa:	4541                	li	a0,16
   1a6fc:	4fd55e63          	bge	a0,t4,1abf8 <_svfiprintf_r+0xac6>
   1a700:	00003b17          	auipc	s6,0x3
   1a704:	9f8b0b13          	addi	s6,s6,-1544 # 1d0f8 <zeroes.4483>
   1a708:	4fc1                	li	t6,16
   1a70a:	429d                	li	t0,7
   1a70c:	a021                	j	1a714 <_svfiprintf_r+0x5e2>
   1a70e:	3ec1                	addiw	t4,t4,-16
   1a710:	03dfde63          	bge	t6,t4,1a74c <_svfiprintf_r+0x61a>
   1a714:	2605                	addiw	a2,a2,1
   1a716:	07c1                	addi	a5,a5,16
   1a718:	01673023          	sd	s6,0(a4)
   1a71c:	01f73423          	sd	t6,8(a4)
   1a720:	f8be                	sd	a5,112(sp)
   1a722:	d4b2                	sw	a2,104(sp)
   1a724:	0741                	addi	a4,a4,16
   1a726:	fec2d4e3          	bge	t0,a2,1a70e <_svfiprintf_r+0x5dc>
   1a72a:	1090                	addi	a2,sp,96
   1a72c:	85a6                	mv	a1,s1
   1a72e:	854e                	mv	a0,s3
   1a730:	ec76                	sd	t4,24(sp)
   1a732:	8a3ff0ef          	jal	ra,19fd4 <__ssprint_r>
   1a736:	be0519e3          	bnez	a0,1a328 <_svfiprintf_r+0x1f6>
   1a73a:	6ee2                	ld	t4,24(sp)
   1a73c:	4fc1                	li	t6,16
   1a73e:	77c6                	ld	a5,112(sp)
   1a740:	3ec1                	addiw	t4,t4,-16
   1a742:	5626                	lw	a2,104(sp)
   1a744:	874a                	mv	a4,s2
   1a746:	429d                	li	t0,7
   1a748:	fddfc6e3          	blt	t6,t4,1a714 <_svfiprintf_r+0x5e2>
   1a74c:	2605                	addiw	a2,a2,1
   1a74e:	01070513          	addi	a0,a4,16
   1a752:	97f6                	add	a5,a5,t4
   1a754:	01673023          	sd	s6,0(a4)
   1a758:	01d73423          	sd	t4,8(a4)
   1a75c:	f8be                	sd	a5,112(sp)
   1a75e:	d4b2                	sw	a2,104(sp)
   1a760:	471d                	li	a4,7
   1a762:	3ac74f63          	blt	a4,a2,1ab20 <_svfiprintf_r+0x9ee>
   1a766:	414c8cbb          	subw	s9,s9,s4
   1a76a:	0016059b          	addiw	a1,a2,1
   1a76e:	01050693          	addi	a3,a0,16
   1a772:	872a                	mv	a4,a0
   1a774:	b79056e3          	blez	s9,1a2e0 <_svfiprintf_r+0x1ae>
   1a778:	4541                	li	a0,16
   1a77a:	41955f63          	bge	a0,s9,1ab98 <_svfiprintf_r+0xa66>
   1a77e:	00003b17          	auipc	s6,0x3
   1a782:	97ab0b13          	addi	s6,s6,-1670 # 1d0f8 <zeroes.4483>
   1a786:	4ec1                	li	t4,16
   1a788:	4f9d                	li	t6,7
   1a78a:	a021                	j	1a792 <_svfiprintf_r+0x660>
   1a78c:	3cc1                	addiw	s9,s9,-16
   1a78e:	039edc63          	bge	t4,s9,1a7c6 <_svfiprintf_r+0x694>
   1a792:	2605                	addiw	a2,a2,1
   1a794:	07c1                	addi	a5,a5,16
   1a796:	01673023          	sd	s6,0(a4)
   1a79a:	01d73423          	sd	t4,8(a4)
   1a79e:	f8be                	sd	a5,112(sp)
   1a7a0:	d4b2                	sw	a2,104(sp)
   1a7a2:	0741                	addi	a4,a4,16
   1a7a4:	fecfd4e3          	bge	t6,a2,1a78c <_svfiprintf_r+0x65a>
   1a7a8:	1090                	addi	a2,sp,96
   1a7aa:	85a6                	mv	a1,s1
   1a7ac:	854e                	mv	a0,s3
   1a7ae:	827ff0ef          	jal	ra,19fd4 <__ssprint_r>
   1a7b2:	b6051be3          	bnez	a0,1a328 <_svfiprintf_r+0x1f6>
   1a7b6:	4ec1                	li	t4,16
   1a7b8:	3cc1                	addiw	s9,s9,-16
   1a7ba:	77c6                	ld	a5,112(sp)
   1a7bc:	5626                	lw	a2,104(sp)
   1a7be:	874a                	mv	a4,s2
   1a7c0:	4f9d                	li	t6,7
   1a7c2:	fd9ec8e3          	blt	t4,s9,1a792 <_svfiprintf_r+0x660>
   1a7c6:	0016059b          	addiw	a1,a2,1
   1a7ca:	01070613          	addi	a2,a4,16
   1a7ce:	97e6                	add	a5,a5,s9
   1a7d0:	01673023          	sd	s6,0(a4)
   1a7d4:	01973423          	sd	s9,8(a4)
   1a7d8:	f8be                	sd	a5,112(sp)
   1a7da:	d4ae                	sw	a1,104(sp)
   1a7dc:	471d                	li	a4,7
   1a7de:	1ab74d63          	blt	a4,a1,1a998 <_svfiprintf_r+0x866>
   1a7e2:	8732                	mv	a4,a2
   1a7e4:	2585                	addiw	a1,a1,1
   1a7e6:	97d2                	add	a5,a5,s4
   1a7e8:	01873023          	sd	s8,0(a4)
   1a7ec:	01473423          	sd	s4,8(a4)
   1a7f0:	f8be                	sd	a5,112(sp)
   1a7f2:	d4ae                	sw	a1,104(sp)
   1a7f4:	471d                	li	a4,7
   1a7f6:	01060693          	addi	a3,a2,16
   1a7fa:	aeb75de3          	bge	a4,a1,1a2f4 <_svfiprintf_r+0x1c2>
   1a7fe:	1090                	addi	a2,sp,96
   1a800:	85a6                	mv	a1,s1
   1a802:	854e                	mv	a0,s3
   1a804:	fd0ff0ef          	jal	ra,19fd4 <__ssprint_r>
   1a808:	b20510e3          	bnez	a0,1a328 <_svfiprintf_r+0x1f6>
   1a80c:	77c6                	ld	a5,112(sp)
   1a80e:	86ca                	mv	a3,s2
   1a810:	b4d5                	j	1a2f4 <_svfiprintf_r+0x1c2>
   1a812:	1090                	addi	a2,sp,96
   1a814:	85a6                	mv	a1,s1
   1a816:	854e                	mv	a0,s3
   1a818:	fbcff0ef          	jal	ra,19fd4 <__ssprint_r>
   1a81c:	ae050de3          	beqz	a0,1a316 <_svfiprintf_r+0x1e4>
   1a820:	b621                	j	1a328 <_svfiprintf_r+0x1f6>
   1a822:	8aea                	mv	s5,s10
   1a824:	b1b5                	j	1a490 <_svfiprintf_r+0x35e>
   1a826:	45c1                	li	a1,16
   1a828:	00003e97          	auipc	t4,0x3
   1a82c:	8c0e8e93          	addi	t4,t4,-1856 # 1d0e8 <blanks.4482>
   1a830:	4f41                	li	t5,16
   1a832:	429d                	li	t0,7
   1a834:	00d5c663          	blt	a1,a3,1a840 <_svfiprintf_r+0x70e>
   1a838:	a0a1                	j	1a880 <_svfiprintf_r+0x74e>
   1a83a:	36c1                	addiw	a3,a3,-16
   1a83c:	04df5263          	bge	t5,a3,1a880 <_svfiprintf_r+0x74e>
   1a840:	2605                	addiw	a2,a2,1
   1a842:	07c1                	addi	a5,a5,16
   1a844:	01d73023          	sd	t4,0(a4)
   1a848:	01e73423          	sd	t5,8(a4)
   1a84c:	f8be                	sd	a5,112(sp)
   1a84e:	d4b2                	sw	a2,104(sp)
   1a850:	0741                	addi	a4,a4,16
   1a852:	fec2d4e3          	bge	t0,a2,1a83a <_svfiprintf_r+0x708>
   1a856:	1090                	addi	a2,sp,96
   1a858:	85a6                	mv	a1,s1
   1a85a:	854e                	mv	a0,s3
   1a85c:	f476                	sd	t4,40(sp)
   1a85e:	f036                	sd	a3,32(sp)
   1a860:	ec1e                	sd	t2,24(sp)
   1a862:	f72ff0ef          	jal	ra,19fd4 <__ssprint_r>
   1a866:	ac0511e3          	bnez	a0,1a328 <_svfiprintf_r+0x1f6>
   1a86a:	7682                	ld	a3,32(sp)
   1a86c:	4f41                	li	t5,16
   1a86e:	77c6                	ld	a5,112(sp)
   1a870:	36c1                	addiw	a3,a3,-16
   1a872:	5626                	lw	a2,104(sp)
   1a874:	7ea2                	ld	t4,40(sp)
   1a876:	63e2                	ld	t2,24(sp)
   1a878:	874a                	mv	a4,s2
   1a87a:	429d                	li	t0,7
   1a87c:	fcdf42e3          	blt	t5,a3,1a840 <_svfiprintf_r+0x70e>
   1a880:	97b6                	add	a5,a5,a3
   1a882:	2605                	addiw	a2,a2,1
   1a884:	e714                	sd	a3,8(a4)
   1a886:	01d73023          	sd	t4,0(a4)
   1a88a:	f8be                	sd	a5,112(sp)
   1a88c:	d4b2                	sw	a2,104(sp)
   1a88e:	469d                	li	a3,7
   1a890:	0741                	addi	a4,a4,16
   1a892:	9ec6d2e3          	bge	a3,a2,1a276 <_svfiprintf_r+0x144>
   1a896:	1090                	addi	a2,sp,96
   1a898:	85a6                	mv	a1,s1
   1a89a:	854e                	mv	a0,s3
   1a89c:	ec1e                	sd	t2,24(sp)
   1a89e:	f36ff0ef          	jal	ra,19fd4 <__ssprint_r>
   1a8a2:	a80513e3          	bnez	a0,1a328 <_svfiprintf_r+0x1f6>
   1a8a6:	77c6                	ld	a5,112(sp)
   1a8a8:	5626                	lw	a2,104(sp)
   1a8aa:	63e2                	ld	t2,24(sp)
   1a8ac:	874a                	mv	a4,s2
   1a8ae:	b2e1                	j	1a276 <_svfiprintf_r+0x144>
   1a8b0:	1090                	addi	a2,sp,96
   1a8b2:	85a6                	mv	a1,s1
   1a8b4:	854e                	mv	a0,s3
   1a8b6:	ec1e                	sd	t2,24(sp)
   1a8b8:	f1cff0ef          	jal	ra,19fd4 <__ssprint_r>
   1a8bc:	a60516e3          	bnez	a0,1a328 <_svfiprintf_r+0x1f6>
   1a8c0:	5626                	lw	a2,104(sp)
   1a8c2:	77c6                	ld	a5,112(sp)
   1a8c4:	63e2                	ld	t2,24(sp)
   1a8c6:	1994                	addi	a3,sp,240
   1a8c8:	0016059b          	addiw	a1,a2,1
   1a8cc:	874a                	mv	a4,s2
   1a8ce:	b2cd                	j	1a2b0 <_svfiprintf_r+0x17e>
   1a8d0:	1090                	addi	a2,sp,96
   1a8d2:	85a6                	mv	a1,s1
   1a8d4:	854e                	mv	a0,s3
   1a8d6:	efeff0ef          	jal	ra,19fd4 <__ssprint_r>
   1a8da:	a40517e3          	bnez	a0,1a328 <_svfiprintf_r+0x1f6>
   1a8de:	5626                	lw	a2,104(sp)
   1a8e0:	77c6                	ld	a5,112(sp)
   1a8e2:	1994                	addi	a3,sp,240
   1a8e4:	0016059b          	addiw	a1,a2,1
   1a8e8:	874a                	mv	a4,s2
   1a8ea:	b2dd                	j	1a2d0 <_svfiprintf_r+0x19e>
   1a8ec:	4641                	li	a2,16
   1a8ee:	5726                	lw	a4,104(sp)
   1a8f0:	00002e97          	auipc	t4,0x2
   1a8f4:	7f8e8e93          	addi	t4,t4,2040 # 1d0e8 <blanks.4482>
   1a8f8:	4cc1                	li	s9,16
   1a8fa:	4c1d                	li	s8,7
   1a8fc:	01464663          	blt	a2,s4,1a908 <_svfiprintf_r+0x7d6>
   1a900:	a835                	j	1a93c <_svfiprintf_r+0x80a>
   1a902:	3a41                	addiw	s4,s4,-16
   1a904:	034cdc63          	bge	s9,s4,1a93c <_svfiprintf_r+0x80a>
   1a908:	2705                	addiw	a4,a4,1
   1a90a:	07c1                	addi	a5,a5,16
   1a90c:	01d6b023          	sd	t4,0(a3)
   1a910:	0196b423          	sd	s9,8(a3)
   1a914:	f8be                	sd	a5,112(sp)
   1a916:	d4ba                	sw	a4,104(sp)
   1a918:	06c1                	addi	a3,a3,16
   1a91a:	feec54e3          	bge	s8,a4,1a902 <_svfiprintf_r+0x7d0>
   1a91e:	1090                	addi	a2,sp,96
   1a920:	85a6                	mv	a1,s1
   1a922:	854e                	mv	a0,s3
   1a924:	ec76                	sd	t4,24(sp)
   1a926:	eaeff0ef          	jal	ra,19fd4 <__ssprint_r>
   1a92a:	9e051fe3          	bnez	a0,1a328 <_svfiprintf_r+0x1f6>
   1a92e:	3a41                	addiw	s4,s4,-16
   1a930:	77c6                	ld	a5,112(sp)
   1a932:	5726                	lw	a4,104(sp)
   1a934:	6ee2                	ld	t4,24(sp)
   1a936:	86ca                	mv	a3,s2
   1a938:	fd4cc8e3          	blt	s9,s4,1a908 <_svfiprintf_r+0x7d6>
   1a93c:	2705                	addiw	a4,a4,1
   1a93e:	97d2                	add	a5,a5,s4
   1a940:	01d6b023          	sd	t4,0(a3)
   1a944:	0146b423          	sd	s4,8(a3)
   1a948:	d4ba                	sw	a4,104(sp)
   1a94a:	0007069b          	sext.w	a3,a4
   1a94e:	f8be                	sd	a5,112(sp)
   1a950:	471d                	li	a4,7
   1a952:	9ad759e3          	bge	a4,a3,1a304 <_svfiprintf_r+0x1d2>
   1a956:	1090                	addi	a2,sp,96
   1a958:	85a6                	mv	a1,s1
   1a95a:	854e                	mv	a0,s3
   1a95c:	e78ff0ef          	jal	ra,19fd4 <__ssprint_r>
   1a960:	9c0514e3          	bnez	a0,1a328 <_svfiprintf_r+0x1f6>
   1a964:	77c6                	ld	a5,112(sp)
   1a966:	ba79                	j	1a304 <_svfiprintf_r+0x1d2>
   1a968:	a20c98e3          	bnez	s9,1a398 <_svfiprintf_r+0x266>
   1a96c:	8d56                	mv	s10,s5
   1a96e:	4c81                	li	s9,0
   1a970:	4a01                	li	s4,0
   1a972:	0dc10c13          	addi	s8,sp,220
   1a976:	b479                	j	1a404 <_svfiprintf_r+0x2d2>
   1a978:	010af793          	andi	a5,s5,16
   1a97c:	ebdd                	bnez	a5,1aa32 <_svfiprintf_r+0x900>
   1a97e:	6622                	ld	a2,8(sp)
   1a980:	040af793          	andi	a5,s5,64
   1a984:	00062a03          	lw	s4,0(a2)
   1a988:	1e078f63          	beqz	a5,1ab86 <_svfiprintf_r+0xa54>
   1a98c:	1a42                	slli	s4,s4,0x30
   1a98e:	030a5a13          	srli	s4,s4,0x30
   1a992:	e436                	sd	a3,8(sp)
   1a994:	4785                	li	a5,1
   1a996:	bc25                	j	1a3ce <_svfiprintf_r+0x29c>
   1a998:	1090                	addi	a2,sp,96
   1a99a:	85a6                	mv	a1,s1
   1a99c:	854e                	mv	a0,s3
   1a99e:	e36ff0ef          	jal	ra,19fd4 <__ssprint_r>
   1a9a2:	980513e3          	bnez	a0,1a328 <_svfiprintf_r+0x1f6>
   1a9a6:	55a6                	lw	a1,104(sp)
   1a9a8:	77c6                	ld	a5,112(sp)
   1a9aa:	1994                	addi	a3,sp,240
   1a9ac:	2585                	addiw	a1,a1,1
   1a9ae:	874a                	mv	a4,s2
   1a9b0:	ba05                	j	1a2e0 <_svfiprintf_r+0x1ae>
   1a9b2:	400afe13          	andi	t3,s5,1024
   1a9b6:	2e01                	sext.w	t3,t3
   1a9b8:	4581                	li	a1,0
   1a9ba:	09f0                	addi	a2,sp,220
   1a9bc:	46a9                	li	a3,10
   1a9be:	4d25                	li	s10,9
   1a9c0:	0ff00b13          	li	s6,255
   1a9c4:	a039                	j	1a9d2 <_svfiprintf_r+0x8a0>
   1a9c6:	02da57b3          	divu	a5,s4,a3
   1a9ca:	d14d7fe3          	bgeu	s10,s4,1a6e8 <_svfiprintf_r+0x5b6>
   1a9ce:	8a3e                	mv	s4,a5
   1a9d0:	8662                	mv	a2,s8
   1a9d2:	fff60c13          	addi	s8,a2,-1
   1a9d6:	2585                	addiw	a1,a1,1
   1a9d8:	02da77b3          	remu	a5,s4,a3
   1a9dc:	0307879b          	addiw	a5,a5,48
   1a9e0:	fef60fa3          	sb	a5,-1(a2)
   1a9e4:	fe0e01e3          	beqz	t3,1a9c6 <_svfiprintf_r+0x894>
   1a9e8:	77c2                	ld	a5,48(sp)
   1a9ea:	0007c783          	lbu	a5,0(a5)
   1a9ee:	fcb79ce3          	bne	a5,a1,1a9c6 <_svfiprintf_r+0x894>
   1a9f2:	fd678ae3          	beq	a5,s6,1a9c6 <_svfiprintf_r+0x894>
   1a9f6:	cf4d79e3          	bgeu	s10,s4,1a6e8 <_svfiprintf_r+0x5b6>
   1a9fa:	6786                	ld	a5,64(sp)
   1a9fc:	75e2                	ld	a1,56(sp)
   1a9fe:	f072                	sd	t3,32(sp)
   1aa00:	40fc0c33          	sub	s8,s8,a5
   1aa04:	863e                	mv	a2,a5
   1aa06:	8562                	mv	a0,s8
   1aa08:	ec3a                	sd	a4,24(sp)
   1aa0a:	f0efc0ef          	jal	ra,17118 <strncpy>
   1aa0e:	7742                	ld	a4,48(sp)
   1aa10:	46a9                	li	a3,10
   1aa12:	02da57b3          	divu	a5,s4,a3
   1aa16:	00174603          	lbu	a2,1(a4)
   1aa1a:	7e02                	ld	t3,32(sp)
   1aa1c:	4581                	li	a1,0
   1aa1e:	00c03633          	snez	a2,a2
   1aa22:	9732                	add	a4,a4,a2
   1aa24:	f83a                	sd	a4,48(sp)
   1aa26:	6762                	ld	a4,24(sp)
   1aa28:	b75d                	j	1a9ce <_svfiprintf_r+0x89c>
   1aa2a:	67a2                	ld	a5,8(sp)
   1aa2c:	639c                	ld	a5,0(a5)
   1aa2e:	8a3e                	mv	s4,a5
   1aa30:	b2a9                	j	1a37a <_svfiprintf_r+0x248>
   1aa32:	67a2                	ld	a5,8(sp)
   1aa34:	e436                	sd	a3,8(sp)
   1aa36:	0007ba03          	ld	s4,0(a5)
   1aa3a:	4785                	li	a5,1
   1aa3c:	ba49                	j	1a3ce <_svfiprintf_r+0x29c>
   1aa3e:	67a2                	ld	a5,8(sp)
   1aa40:	0007ba03          	ld	s4,0(a5)
   1aa44:	babd                	j	1a3c2 <_svfiprintf_r+0x290>
   1aa46:	8aea                	mv	s5,s10
   1aa48:	bead                	j	1a5c2 <_svfiprintf_r+0x490>
   1aa4a:	65a2                	ld	a1,8(sp)
   1aa4c:	00002797          	auipc	a5,0x2
   1aa50:	b2478793          	addi	a5,a5,-1244 # 1c570 <__clzdi2+0x114>
   1aa54:	e83e                	sd	a5,16(sp)
   1aa56:	020d7793          	andi	a5,s10,32
   1aa5a:	00858613          	addi	a2,a1,8
   1aa5e:	c7a1                	beqz	a5,1aaa6 <_svfiprintf_r+0x974>
   1aa60:	0005ba03          	ld	s4,0(a1)
   1aa64:	001d7793          	andi	a5,s10,1
   1aa68:	cf89                	beqz	a5,1aa82 <_svfiprintf_r+0x950>
   1aa6a:	000a0c63          	beqz	s4,1aa82 <_svfiprintf_r+0x950>
   1aa6e:	002d6e13          	ori	t3,s10,2
   1aa72:	03000793          	li	a5,48
   1aa76:	04f10c23          	sb	a5,88(sp)
   1aa7a:	04d10ca3          	sb	a3,89(sp)
   1aa7e:	000e0d1b          	sext.w	s10,t3
   1aa82:	bffd7e13          	andi	t3,s10,-1025
   1aa86:	000e0a9b          	sext.w	s5,t3
   1aa8a:	e432                	sd	a2,8(sp)
   1aa8c:	4789                	li	a5,2
   1aa8e:	b281                	j	1a3ce <_svfiprintf_r+0x29c>
   1aa90:	65a2                	ld	a1,8(sp)
   1aa92:	00002797          	auipc	a5,0x2
   1aa96:	af678793          	addi	a5,a5,-1290 # 1c588 <__clzdi2+0x12c>
   1aa9a:	e83e                	sd	a5,16(sp)
   1aa9c:	020d7793          	andi	a5,s10,32
   1aaa0:	00858613          	addi	a2,a1,8
   1aaa4:	ffd5                	bnez	a5,1aa60 <_svfiprintf_r+0x92e>
   1aaa6:	010d7793          	andi	a5,s10,16
   1aaaa:	cf85                	beqz	a5,1aae2 <_svfiprintf_r+0x9b0>
   1aaac:	67a2                	ld	a5,8(sp)
   1aaae:	0007ba03          	ld	s4,0(a5)
   1aab2:	bf4d                	j	1aa64 <_svfiprintf_r+0x932>
   1aab4:	8562                	mv	a0,s8
   1aab6:	ec3a                	sd	a4,24(sp)
   1aab8:	d19f50ef          	jal	ra,107d0 <strlen>
   1aabc:	6762                	ld	a4,24(sp)
   1aabe:	00050a1b          	sext.w	s4,a0
   1aac2:	e45a                	sd	s6,8(sp)
   1aac4:	4c81                	li	s9,0
   1aac6:	ba3d                	j	1a404 <_svfiprintf_r+0x2d2>
   1aac8:	04000593          	li	a1,64
   1aacc:	a57fa0ef          	jal	ra,15522 <_malloc_r>
   1aad0:	e088                	sd	a0,0(s1)
   1aad2:	ec88                	sd	a0,24(s1)
   1aad4:	16050063          	beqz	a0,1ac34 <_svfiprintf_r+0xb02>
   1aad8:	04000793          	li	a5,64
   1aadc:	d09c                	sw	a5,32(s1)
   1aade:	e88ff06f          	j	1a166 <_svfiprintf_r+0x34>
   1aae2:	65a2                	ld	a1,8(sp)
   1aae4:	040d7793          	andi	a5,s10,64
   1aae8:	0005aa03          	lw	s4,0(a1)
   1aaec:	c7bd                	beqz	a5,1ab5a <_svfiprintf_r+0xa28>
   1aaee:	1a42                	slli	s4,s4,0x30
   1aaf0:	030a5a13          	srli	s4,s4,0x30
   1aaf4:	bf85                	j	1aa64 <_svfiprintf_r+0x932>
   1aaf6:	8aea                	mv	s5,s10
   1aaf8:	e436                	sd	a3,8(sp)
   1aafa:	b861                	j	1a392 <_svfiprintf_r+0x260>
   1aafc:	200d6e13          	ori	t3,s10,512
   1ab00:	001dc683          	lbu	a3,1(s11)
   1ab04:	000e0d1b          	sext.w	s10,t3
   1ab08:	0d85                	addi	s11,s11,1
   1ab0a:	ee8ff06f          	j	1a1f2 <_svfiprintf_r+0xc0>
   1ab0e:	020d6e13          	ori	t3,s10,32
   1ab12:	001dc683          	lbu	a3,1(s11)
   1ab16:	000e0d1b          	sext.w	s10,t3
   1ab1a:	0d85                	addi	s11,s11,1
   1ab1c:	ed6ff06f          	j	1a1f2 <_svfiprintf_r+0xc0>
   1ab20:	1090                	addi	a2,sp,96
   1ab22:	85a6                	mv	a1,s1
   1ab24:	854e                	mv	a0,s3
   1ab26:	caeff0ef          	jal	ra,19fd4 <__ssprint_r>
   1ab2a:	fe051f63          	bnez	a0,1a328 <_svfiprintf_r+0x1f6>
   1ab2e:	5626                	lw	a2,104(sp)
   1ab30:	77c6                	ld	a5,112(sp)
   1ab32:	1994                	addi	a3,sp,240
   1ab34:	0016059b          	addiw	a1,a2,1
   1ab38:	874a                	mv	a4,s2
   1ab3a:	f9eff06f          	j	1a2d8 <_svfiprintf_r+0x1a6>
   1ab3e:	4799                	li	a5,6
   1ab40:	000c8a1b          	sext.w	s4,s9
   1ab44:	0197f363          	bgeu	a5,s9,1ab4a <_svfiprintf_r+0xa18>
   1ab48:	4a19                	li	s4,6
   1ab4a:	8ad2                	mv	s5,s4
   1ab4c:	e45a                	sd	s6,8(sp)
   1ab4e:	00002c17          	auipc	s8,0x2
   1ab52:	a52c0c13          	addi	s8,s8,-1454 # 1c5a0 <__clzdi2+0x144>
   1ab56:	efeff06f          	j	1a254 <_svfiprintf_r+0x122>
   1ab5a:	200d7793          	andi	a5,s10,512
   1ab5e:	c7ad                	beqz	a5,1abc8 <_svfiprintf_r+0xa96>
   1ab60:	0ffa7a13          	andi	s4,s4,255
   1ab64:	b701                	j	1aa64 <_svfiprintf_r+0x932>
   1ab66:	200d7793          	andi	a5,s10,512
   1ab6a:	cba9                	beqz	a5,1abbc <_svfiprintf_r+0xa8a>
   1ab6c:	67a2                	ld	a5,8(sp)
   1ab6e:	00078a03          	lb	s4,0(a5)
   1ab72:	87d2                	mv	a5,s4
   1ab74:	807ff06f          	j	1a37a <_svfiprintf_r+0x248>
   1ab78:	200d7793          	andi	a5,s10,512
   1ab7c:	cb9d                	beqz	a5,1abb2 <_svfiprintf_r+0xa80>
   1ab7e:	0ffa7a13          	andi	s4,s4,255
   1ab82:	841ff06f          	j	1a3c2 <_svfiprintf_r+0x290>
   1ab86:	200af793          	andi	a5,s5,512
   1ab8a:	cf89                	beqz	a5,1aba4 <_svfiprintf_r+0xa72>
   1ab8c:	0ffa7a13          	andi	s4,s4,255
   1ab90:	e436                	sd	a3,8(sp)
   1ab92:	4785                	li	a5,1
   1ab94:	83bff06f          	j	1a3ce <_svfiprintf_r+0x29c>
   1ab98:	8636                	mv	a2,a3
   1ab9a:	00002b17          	auipc	s6,0x2
   1ab9e:	55eb0b13          	addi	s6,s6,1374 # 1d0f8 <zeroes.4483>
   1aba2:	b135                	j	1a7ce <_svfiprintf_r+0x69c>
   1aba4:	1a02                	slli	s4,s4,0x20
   1aba6:	020a5a13          	srli	s4,s4,0x20
   1abaa:	e436                	sd	a3,8(sp)
   1abac:	4785                	li	a5,1
   1abae:	821ff06f          	j	1a3ce <_svfiprintf_r+0x29c>
   1abb2:	1a02                	slli	s4,s4,0x20
   1abb4:	020a5a13          	srli	s4,s4,0x20
   1abb8:	80bff06f          	j	1a3c2 <_svfiprintf_r+0x290>
   1abbc:	67a2                	ld	a5,8(sp)
   1abbe:	0007aa03          	lw	s4,0(a5)
   1abc2:	87d2                	mv	a5,s4
   1abc4:	fb6ff06f          	j	1a37a <_svfiprintf_r+0x248>
   1abc8:	1a02                	slli	s4,s4,0x20
   1abca:	020a5a13          	srli	s4,s4,0x20
   1abce:	bd59                	j	1aa64 <_svfiprintf_r+0x932>
   1abd0:	6782                	ld	a5,0(sp)
   1abd2:	00f69023          	sh	a5,0(a3)
   1abd6:	db6ff06f          	j	1a18c <_svfiprintf_r+0x5a>
   1abda:	1090                	addi	a2,sp,96
   1abdc:	85a6                	mv	a1,s1
   1abde:	854e                	mv	a0,s3
   1abe0:	bf4ff0ef          	jal	ra,19fd4 <__ssprint_r>
   1abe4:	f44ff06f          	j	1a328 <_svfiprintf_r+0x1f6>
   1abe8:	8a66                	mv	s4,s9
   1abea:	e45a                	sd	s6,8(sp)
   1abec:	4c81                	li	s9,0
   1abee:	817ff06f          	j	1a404 <_svfiprintf_r+0x2d2>
   1abf2:	8aea                	mv	s5,s10
   1abf4:	fa4ff06f          	j	1a398 <_svfiprintf_r+0x266>
   1abf8:	8536                	mv	a0,a3
   1abfa:	862e                	mv	a2,a1
   1abfc:	00002b17          	auipc	s6,0x2
   1ac00:	4fcb0b13          	addi	s6,s6,1276 # 1d0f8 <zeroes.4483>
   1ac04:	b6b9                	j	1a752 <_svfiprintf_r+0x620>
   1ac06:	c29c                	sw	a5,0(a3)
   1ac08:	d84ff06f          	j	1a18c <_svfiprintf_r+0x5a>
   1ac0c:	57fd                	li	a5,-1
   1ac0e:	e03e                	sd	a5,0(sp)
   1ac10:	f24ff06f          	j	1a334 <_svfiprintf_r+0x202>
   1ac14:	6622                	ld	a2,8(sp)
   1ac16:	4214                	lw	a3,0(a2)
   1ac18:	00860b13          	addi	s6,a2,8
   1ac1c:	8836                	mv	a6,a3
   1ac1e:	0006d363          	bgez	a3,1ac24 <_svfiprintf_r+0xaf2>
   1ac22:	587d                	li	a6,-1
   1ac24:	001dc683          	lbu	a3,1(s11)
   1ac28:	00080c9b          	sext.w	s9,a6
   1ac2c:	e45a                	sd	s6,8(sp)
   1ac2e:	8dbe                	mv	s11,a5
   1ac30:	dc2ff06f          	j	1a1f2 <_svfiprintf_r+0xc0>
   1ac34:	47b1                	li	a5,12
   1ac36:	00f9a023          	sw	a5,0(s3)
   1ac3a:	57fd                	li	a5,-1
   1ac3c:	e03e                	sd	a5,0(sp)
   1ac3e:	ef6ff06f          	j	1a334 <_svfiprintf_r+0x202>

000000000001ac42 <__swbuf_r>:
   1ac42:	7179                	addi	sp,sp,-48
   1ac44:	f022                	sd	s0,32(sp)
   1ac46:	ec26                	sd	s1,24(sp)
   1ac48:	e84a                	sd	s2,16(sp)
   1ac4a:	f406                	sd	ra,40(sp)
   1ac4c:	e44e                	sd	s3,8(sp)
   1ac4e:	892a                	mv	s2,a0
   1ac50:	84ae                	mv	s1,a1
   1ac52:	8432                	mv	s0,a2
   1ac54:	c119                	beqz	a0,1ac5a <__swbuf_r+0x18>
   1ac56:	493c                	lw	a5,80(a0)
   1ac58:	c3ed                	beqz	a5,1ad3a <__swbuf_r+0xf8>
   1ac5a:	01041703          	lh	a4,16(s0)
   1ac5e:	5414                	lw	a3,40(s0)
   1ac60:	00877793          	andi	a5,a4,8
   1ac64:	c454                	sw	a3,12(s0)
   1ac66:	03071693          	slli	a3,a4,0x30
   1ac6a:	92c1                	srli	a3,a3,0x30
   1ac6c:	cbb9                	beqz	a5,1acc2 <__swbuf_r+0x80>
   1ac6e:	6c1c                	ld	a5,24(s0)
   1ac70:	cba9                	beqz	a5,1acc2 <__swbuf_r+0x80>
   1ac72:	0ff4f993          	andi	s3,s1,255
   1ac76:	03269613          	slli	a2,a3,0x32
   1ac7a:	84ce                	mv	s1,s3
   1ac7c:	06065563          	bgez	a2,1ace6 <__swbuf_r+0xa4>
   1ac80:	6018                	ld	a4,0(s0)
   1ac82:	5014                	lw	a3,32(s0)
   1ac84:	40f707bb          	subw	a5,a4,a5
   1ac88:	08d7d063          	bge	a5,a3,1ad08 <__swbuf_r+0xc6>
   1ac8c:	4454                	lw	a3,12(s0)
   1ac8e:	00170613          	addi	a2,a4,1
   1ac92:	e010                	sd	a2,0(s0)
   1ac94:	36fd                	addiw	a3,a3,-1
   1ac96:	c454                	sw	a3,12(s0)
   1ac98:	01370023          	sb	s3,0(a4)
   1ac9c:	5018                	lw	a4,32(s0)
   1ac9e:	2785                	addiw	a5,a5,1
   1aca0:	08f70663          	beq	a4,a5,1ad2c <__swbuf_r+0xea>
   1aca4:	01045783          	lhu	a5,16(s0)
   1aca8:	8b85                	andi	a5,a5,1
   1acaa:	c781                	beqz	a5,1acb2 <__swbuf_r+0x70>
   1acac:	47a9                	li	a5,10
   1acae:	06f48f63          	beq	s1,a5,1ad2c <__swbuf_r+0xea>
   1acb2:	70a2                	ld	ra,40(sp)
   1acb4:	7402                	ld	s0,32(sp)
   1acb6:	6942                	ld	s2,16(sp)
   1acb8:	69a2                	ld	s3,8(sp)
   1acba:	8526                	mv	a0,s1
   1acbc:	64e2                	ld	s1,24(sp)
   1acbe:	6145                	addi	sp,sp,48
   1acc0:	8082                	ret
   1acc2:	85a2                	mv	a1,s0
   1acc4:	854a                	mv	a0,s2
   1acc6:	85bf70ef          	jal	ra,12520 <__swsetup_r>
   1acca:	e535                	bnez	a0,1ad36 <__swbuf_r+0xf4>
   1accc:	01041703          	lh	a4,16(s0)
   1acd0:	0ff4f993          	andi	s3,s1,255
   1acd4:	6c1c                	ld	a5,24(s0)
   1acd6:	03071693          	slli	a3,a4,0x30
   1acda:	92c1                	srli	a3,a3,0x30
   1acdc:	03269613          	slli	a2,a3,0x32
   1ace0:	84ce                	mv	s1,s3
   1ace2:	f8064fe3          	bltz	a2,1ac80 <__swbuf_r+0x3e>
   1ace6:	0ac42683          	lw	a3,172(s0)
   1acea:	6609                	lui	a2,0x2
   1acec:	8f51                	or	a4,a4,a2
   1acee:	7679                	lui	a2,0xffffe
   1acf0:	167d                	addi	a2,a2,-1
   1acf2:	8ef1                	and	a3,a3,a2
   1acf4:	00e41823          	sh	a4,16(s0)
   1acf8:	6018                	ld	a4,0(s0)
   1acfa:	0ad42623          	sw	a3,172(s0)
   1acfe:	5014                	lw	a3,32(s0)
   1ad00:	40f707bb          	subw	a5,a4,a5
   1ad04:	f8d7c4e3          	blt	a5,a3,1ac8c <__swbuf_r+0x4a>
   1ad08:	85a2                	mv	a1,s0
   1ad0a:	854a                	mv	a0,s2
   1ad0c:	b5ff70ef          	jal	ra,1286a <_fflush_r>
   1ad10:	e11d                	bnez	a0,1ad36 <__swbuf_r+0xf4>
   1ad12:	6018                	ld	a4,0(s0)
   1ad14:	4454                	lw	a3,12(s0)
   1ad16:	4785                	li	a5,1
   1ad18:	00170613          	addi	a2,a4,1
   1ad1c:	36fd                	addiw	a3,a3,-1
   1ad1e:	e010                	sd	a2,0(s0)
   1ad20:	c454                	sw	a3,12(s0)
   1ad22:	01370023          	sb	s3,0(a4)
   1ad26:	5018                	lw	a4,32(s0)
   1ad28:	f6f71ee3          	bne	a4,a5,1aca4 <__swbuf_r+0x62>
   1ad2c:	85a2                	mv	a1,s0
   1ad2e:	854a                	mv	a0,s2
   1ad30:	b3bf70ef          	jal	ra,1286a <_fflush_r>
   1ad34:	dd3d                	beqz	a0,1acb2 <__swbuf_r+0x70>
   1ad36:	54fd                	li	s1,-1
   1ad38:	bfad                	j	1acb2 <__swbuf_r+0x70>
   1ad3a:	dc7f70ef          	jal	ra,12b00 <__sinit>
   1ad3e:	bf31                	j	1ac5a <__swbuf_r+0x18>

000000000001ad40 <__swbuf>:
   1ad40:	862e                	mv	a2,a1
   1ad42:	85aa                	mv	a1,a0
   1ad44:	7581b503          	ld	a0,1880(gp) # 1f408 <_impure_ptr>
   1ad48:	bded                	j	1ac42 <__swbuf_r>

000000000001ad4a <_wcrtomb_r>:
   1ad4a:	7179                	addi	sp,sp,-48
   1ad4c:	f022                	sd	s0,32(sp)
   1ad4e:	ec26                	sd	s1,24(sp)
   1ad50:	f406                	sd	ra,40(sp)
   1ad52:	842a                	mv	s0,a0
   1ad54:	84b6                	mv	s1,a3
   1ad56:	e381b783          	ld	a5,-456(gp) # 1eae8 <__global_locale+0xe0>
   1ad5a:	c991                	beqz	a1,1ad6e <_wcrtomb_r+0x24>
   1ad5c:	9782                	jalr	a5
   1ad5e:	57fd                	li	a5,-1
   1ad60:	00f50d63          	beq	a0,a5,1ad7a <_wcrtomb_r+0x30>
   1ad64:	70a2                	ld	ra,40(sp)
   1ad66:	7402                	ld	s0,32(sp)
   1ad68:	64e2                	ld	s1,24(sp)
   1ad6a:	6145                	addi	sp,sp,48
   1ad6c:	8082                	ret
   1ad6e:	4601                	li	a2,0
   1ad70:	858a                	mv	a1,sp
   1ad72:	9782                	jalr	a5
   1ad74:	57fd                	li	a5,-1
   1ad76:	fef517e3          	bne	a0,a5,1ad64 <_wcrtomb_r+0x1a>
   1ad7a:	0004a023          	sw	zero,0(s1)
   1ad7e:	08a00793          	li	a5,138
   1ad82:	70a2                	ld	ra,40(sp)
   1ad84:	c01c                	sw	a5,0(s0)
   1ad86:	7402                	ld	s0,32(sp)
   1ad88:	64e2                	ld	s1,24(sp)
   1ad8a:	6145                	addi	sp,sp,48
   1ad8c:	8082                	ret

000000000001ad8e <wcrtomb>:
   1ad8e:	7179                	addi	sp,sp,-48
   1ad90:	f022                	sd	s0,32(sp)
   1ad92:	ec26                	sd	s1,24(sp)
   1ad94:	f406                	sd	ra,40(sp)
   1ad96:	8432                	mv	s0,a2
   1ad98:	7581b483          	ld	s1,1880(gp) # 1f408 <_impure_ptr>
   1ad9c:	e381b783          	ld	a5,-456(gp) # 1eae8 <__global_locale+0xe0>
   1ada0:	cd11                	beqz	a0,1adbc <wcrtomb+0x2e>
   1ada2:	862e                	mv	a2,a1
   1ada4:	86a2                	mv	a3,s0
   1ada6:	85aa                	mv	a1,a0
   1ada8:	8526                	mv	a0,s1
   1adaa:	9782                	jalr	a5
   1adac:	57fd                	li	a5,-1
   1adae:	00f50f63          	beq	a0,a5,1adcc <wcrtomb+0x3e>
   1adb2:	70a2                	ld	ra,40(sp)
   1adb4:	7402                	ld	s0,32(sp)
   1adb6:	64e2                	ld	s1,24(sp)
   1adb8:	6145                	addi	sp,sp,48
   1adba:	8082                	ret
   1adbc:	86b2                	mv	a3,a2
   1adbe:	858a                	mv	a1,sp
   1adc0:	4601                	li	a2,0
   1adc2:	8526                	mv	a0,s1
   1adc4:	9782                	jalr	a5
   1adc6:	57fd                	li	a5,-1
   1adc8:	fef515e3          	bne	a0,a5,1adb2 <wcrtomb+0x24>
   1adcc:	00042023          	sw	zero,0(s0)
   1add0:	70a2                	ld	ra,40(sp)
   1add2:	7402                	ld	s0,32(sp)
   1add4:	08a00793          	li	a5,138
   1add8:	c09c                	sw	a5,0(s1)
   1adda:	64e2                	ld	s1,24(sp)
   1addc:	6145                	addi	sp,sp,48
   1adde:	8082                	ret

000000000001ade0 <__register_exitproc>:
   1ade0:	7481b703          	ld	a4,1864(gp) # 1f3f8 <_global_impure_ptr>
   1ade4:	1f873783          	ld	a5,504(a4)
   1ade8:	c3b1                	beqz	a5,1ae2c <__register_exitproc+0x4c>
   1adea:	4798                	lw	a4,8(a5)
   1adec:	487d                	li	a6,31
   1adee:	06e84263          	blt	a6,a4,1ae52 <__register_exitproc+0x72>
   1adf2:	c505                	beqz	a0,1ae1a <__register_exitproc+0x3a>
   1adf4:	00371813          	slli	a6,a4,0x3
   1adf8:	983e                	add	a6,a6,a5
   1adfa:	10c83823          	sd	a2,272(a6) # 7ff00110 <__BSS_END__+0x7fee0c60>
   1adfe:	3107a883          	lw	a7,784(a5)
   1ae02:	4605                	li	a2,1
   1ae04:	00e6163b          	sllw	a2,a2,a4
   1ae08:	00c8e8b3          	or	a7,a7,a2
   1ae0c:	3117a823          	sw	a7,784(a5)
   1ae10:	20d83823          	sd	a3,528(a6)
   1ae14:	4689                	li	a3,2
   1ae16:	02d50063          	beq	a0,a3,1ae36 <__register_exitproc+0x56>
   1ae1a:	00270693          	addi	a3,a4,2
   1ae1e:	068e                	slli	a3,a3,0x3
   1ae20:	2705                	addiw	a4,a4,1
   1ae22:	c798                	sw	a4,8(a5)
   1ae24:	97b6                	add	a5,a5,a3
   1ae26:	e38c                	sd	a1,0(a5)
   1ae28:	4501                	li	a0,0
   1ae2a:	8082                	ret
   1ae2c:	20070793          	addi	a5,a4,512
   1ae30:	1ef73c23          	sd	a5,504(a4)
   1ae34:	bf5d                	j	1adea <__register_exitproc+0xa>
   1ae36:	3147a683          	lw	a3,788(a5)
   1ae3a:	4501                	li	a0,0
   1ae3c:	8e55                	or	a2,a2,a3
   1ae3e:	00270693          	addi	a3,a4,2
   1ae42:	068e                	slli	a3,a3,0x3
   1ae44:	2705                	addiw	a4,a4,1
   1ae46:	30c7aa23          	sw	a2,788(a5)
   1ae4a:	c798                	sw	a4,8(a5)
   1ae4c:	97b6                	add	a5,a5,a3
   1ae4e:	e38c                	sd	a1,0(a5)
   1ae50:	8082                	ret
   1ae52:	557d                	li	a0,-1
   1ae54:	8082                	ret

000000000001ae56 <_close>:
   1ae56:	1141                	addi	sp,sp,-16
   1ae58:	e406                	sd	ra,8(sp)
   1ae5a:	e022                	sd	s0,0(sp)
   1ae5c:	4581                	li	a1,0
   1ae5e:	4601                	li	a2,0
   1ae60:	4681                	li	a3,0
   1ae62:	4701                	li	a4,0
   1ae64:	4781                	li	a5,0
   1ae66:	03900893          	li	a7,57
   1ae6a:	00000073          	ecall
   1ae6e:	842a                	mv	s0,a0
   1ae70:	00054763          	bltz	a0,1ae7e <_close+0x28>
   1ae74:	2501                	sext.w	a0,a0
   1ae76:	60a2                	ld	ra,8(sp)
   1ae78:	6402                	ld	s0,0(sp)
   1ae7a:	0141                	addi	sp,sp,16
   1ae7c:	8082                	ret
   1ae7e:	202000ef          	jal	ra,1b080 <__errno>
   1ae82:	4080043b          	negw	s0,s0
   1ae86:	c100                	sw	s0,0(a0)
   1ae88:	557d                	li	a0,-1
   1ae8a:	b7f5                	j	1ae76 <_close+0x20>

000000000001ae8c <_exit>:
   1ae8c:	4581                	li	a1,0
   1ae8e:	4601                	li	a2,0
   1ae90:	4681                	li	a3,0
   1ae92:	4701                	li	a4,0
   1ae94:	4781                	li	a5,0
   1ae96:	05d00893          	li	a7,93
   1ae9a:	00000073          	ecall
   1ae9e:	00054363          	bltz	a0,1aea4 <_exit+0x18>
   1aea2:	a001                	j	1aea2 <_exit+0x16>
   1aea4:	1141                	addi	sp,sp,-16
   1aea6:	e022                	sd	s0,0(sp)
   1aea8:	842a                	mv	s0,a0
   1aeaa:	e406                	sd	ra,8(sp)
   1aeac:	4080043b          	negw	s0,s0
   1aeb0:	1d0000ef          	jal	ra,1b080 <__errno>
   1aeb4:	c100                	sw	s0,0(a0)
   1aeb6:	a001                	j	1aeb6 <_exit+0x2a>

000000000001aeb8 <_fstat>:
   1aeb8:	7135                	addi	sp,sp,-160
   1aeba:	e526                	sd	s1,136(sp)
   1aebc:	ed06                	sd	ra,152(sp)
   1aebe:	84ae                	mv	s1,a1
   1aec0:	e922                	sd	s0,144(sp)
   1aec2:	858a                	mv	a1,sp
   1aec4:	4601                	li	a2,0
   1aec6:	4681                	li	a3,0
   1aec8:	4701                	li	a4,0
   1aeca:	4781                	li	a5,0
   1aecc:	05000893          	li	a7,80
   1aed0:	00000073          	ecall
   1aed4:	842a                	mv	s0,a0
   1aed6:	00054e63          	bltz	a0,1aef2 <_fstat+0x3a>
   1aeda:	0005041b          	sext.w	s0,a0
   1aede:	8526                	mv	a0,s1
   1aee0:	858a                	mv	a1,sp
   1aee2:	144000ef          	jal	ra,1b026 <_conv_stat>
   1aee6:	60ea                	ld	ra,152(sp)
   1aee8:	8522                	mv	a0,s0
   1aeea:	644a                	ld	s0,144(sp)
   1aeec:	64aa                	ld	s1,136(sp)
   1aeee:	610d                	addi	sp,sp,160
   1aef0:	8082                	ret
   1aef2:	4080043b          	negw	s0,s0
   1aef6:	18a000ef          	jal	ra,1b080 <__errno>
   1aefa:	c100                	sw	s0,0(a0)
   1aefc:	547d                	li	s0,-1
   1aefe:	b7c5                	j	1aede <_fstat+0x26>

000000000001af00 <_isatty>:
   1af00:	7119                	addi	sp,sp,-128
   1af02:	002c                	addi	a1,sp,8
   1af04:	fc86                	sd	ra,120(sp)
   1af06:	fb3ff0ef          	jal	ra,1aeb8 <_fstat>
   1af0a:	57fd                	li	a5,-1
   1af0c:	00f50963          	beq	a0,a5,1af1e <_isatty+0x1e>
   1af10:	4532                	lw	a0,12(sp)
   1af12:	70e6                	ld	ra,120(sp)
   1af14:	40d5551b          	sraiw	a0,a0,0xd
   1af18:	8905                	andi	a0,a0,1
   1af1a:	6109                	addi	sp,sp,128
   1af1c:	8082                	ret
   1af1e:	70e6                	ld	ra,120(sp)
   1af20:	4501                	li	a0,0
   1af22:	6109                	addi	sp,sp,128
   1af24:	8082                	ret

000000000001af26 <_lseek>:
   1af26:	1141                	addi	sp,sp,-16
   1af28:	e406                	sd	ra,8(sp)
   1af2a:	e022                	sd	s0,0(sp)
   1af2c:	4681                	li	a3,0
   1af2e:	4701                	li	a4,0
   1af30:	4781                	li	a5,0
   1af32:	03e00893          	li	a7,62
   1af36:	00000073          	ecall
   1af3a:	842a                	mv	s0,a0
   1af3c:	00054763          	bltz	a0,1af4a <_lseek+0x24>
   1af40:	60a2                	ld	ra,8(sp)
   1af42:	8522                	mv	a0,s0
   1af44:	6402                	ld	s0,0(sp)
   1af46:	0141                	addi	sp,sp,16
   1af48:	8082                	ret
   1af4a:	4080043b          	negw	s0,s0
   1af4e:	132000ef          	jal	ra,1b080 <__errno>
   1af52:	c100                	sw	s0,0(a0)
   1af54:	547d                	li	s0,-1
   1af56:	b7ed                	j	1af40 <_lseek+0x1a>

000000000001af58 <_read>:
   1af58:	1141                	addi	sp,sp,-16
   1af5a:	e406                	sd	ra,8(sp)
   1af5c:	e022                	sd	s0,0(sp)
   1af5e:	4681                	li	a3,0
   1af60:	4701                	li	a4,0
   1af62:	4781                	li	a5,0
   1af64:	03f00893          	li	a7,63
   1af68:	00000073          	ecall
   1af6c:	842a                	mv	s0,a0
   1af6e:	00054763          	bltz	a0,1af7c <_read+0x24>
   1af72:	60a2                	ld	ra,8(sp)
   1af74:	8522                	mv	a0,s0
   1af76:	6402                	ld	s0,0(sp)
   1af78:	0141                	addi	sp,sp,16
   1af7a:	8082                	ret
   1af7c:	4080043b          	negw	s0,s0
   1af80:	100000ef          	jal	ra,1b080 <__errno>
   1af84:	c100                	sw	s0,0(a0)
   1af86:	547d                	li	s0,-1
   1af88:	b7ed                	j	1af72 <_read+0x1a>

000000000001af8a <_sbrk>:
   1af8a:	79018313          	addi	t1,gp,1936 # 1f440 <heap_end.1850>
   1af8e:	00033783          	ld	a5,0(t1)
   1af92:	1141                	addi	sp,sp,-16
   1af94:	e406                	sd	ra,8(sp)
   1af96:	882a                	mv	a6,a0
   1af98:	e385                	bnez	a5,1afb8 <_sbrk+0x2e>
   1af9a:	4501                	li	a0,0
   1af9c:	4581                	li	a1,0
   1af9e:	4601                	li	a2,0
   1afa0:	4681                	li	a3,0
   1afa2:	4701                	li	a4,0
   1afa4:	0d600893          	li	a7,214
   1afa8:	00000073          	ecall
   1afac:	577d                	li	a4,-1
   1afae:	87aa                	mv	a5,a0
   1afb0:	02e50a63          	beq	a0,a4,1afe4 <_sbrk+0x5a>
   1afb4:	00a33023          	sd	a0,0(t1)
   1afb8:	00f80533          	add	a0,a6,a5
   1afbc:	4581                	li	a1,0
   1afbe:	4601                	li	a2,0
   1afc0:	4681                	li	a3,0
   1afc2:	4701                	li	a4,0
   1afc4:	4781                	li	a5,0
   1afc6:	0d600893          	li	a7,214
   1afca:	00000073          	ecall
   1afce:	00033783          	ld	a5,0(t1)
   1afd2:	983e                	add	a6,a6,a5
   1afd4:	01051863          	bne	a0,a6,1afe4 <_sbrk+0x5a>
   1afd8:	60a2                	ld	ra,8(sp)
   1afda:	00a33023          	sd	a0,0(t1)
   1afde:	853e                	mv	a0,a5
   1afe0:	0141                	addi	sp,sp,16
   1afe2:	8082                	ret
   1afe4:	09c000ef          	jal	ra,1b080 <__errno>
   1afe8:	60a2                	ld	ra,8(sp)
   1afea:	47b1                	li	a5,12
   1afec:	c11c                	sw	a5,0(a0)
   1afee:	557d                	li	a0,-1
   1aff0:	0141                	addi	sp,sp,16
   1aff2:	8082                	ret

000000000001aff4 <_write>:
   1aff4:	1141                	addi	sp,sp,-16
   1aff6:	e406                	sd	ra,8(sp)
   1aff8:	e022                	sd	s0,0(sp)
   1affa:	4681                	li	a3,0
   1affc:	4701                	li	a4,0
   1affe:	4781                	li	a5,0
   1b000:	04000893          	li	a7,64
   1b004:	00000073          	ecall
   1b008:	842a                	mv	s0,a0
   1b00a:	00054763          	bltz	a0,1b018 <_write+0x24>
   1b00e:	60a2                	ld	ra,8(sp)
   1b010:	8522                	mv	a0,s0
   1b012:	6402                	ld	s0,0(sp)
   1b014:	0141                	addi	sp,sp,16
   1b016:	8082                	ret
   1b018:	4080043b          	negw	s0,s0
   1b01c:	064000ef          	jal	ra,1b080 <__errno>
   1b020:	c100                	sw	s0,0(a0)
   1b022:	547d                	li	s0,-1
   1b024:	b7ed                	j	1b00e <_write+0x1a>

000000000001b026 <_conv_stat>:
   1b026:	0005b383          	ld	t2,0(a1)
   1b02a:	0085b283          	ld	t0,8(a1)
   1b02e:	0105af83          	lw	t6,16(a1)
   1b032:	0145af03          	lw	t5,20(a1)
   1b036:	0185ae83          	lw	t4,24(a1)
   1b03a:	01c5ae03          	lw	t3,28(a1)
   1b03e:	0205b303          	ld	t1,32(a1)
   1b042:	0305b883          	ld	a7,48(a1)
   1b046:	0405b803          	ld	a6,64(a1)
   1b04a:	5d90                	lw	a2,56(a1)
   1b04c:	65b4                	ld	a3,72(a1)
   1b04e:	6db8                	ld	a4,88(a1)
   1b050:	75bc                	ld	a5,104(a1)
   1b052:	00751023          	sh	t2,0(a0)
   1b056:	00551123          	sh	t0,2(a0)
   1b05a:	01f52223          	sw	t6,4(a0)
   1b05e:	01e51423          	sh	t5,8(a0)
   1b062:	01d51523          	sh	t4,10(a0)
   1b066:	01c51623          	sh	t3,12(a0)
   1b06a:	00651723          	sh	t1,14(a0)
   1b06e:	01153823          	sd	a7,16(a0)
   1b072:	05053823          	sd	a6,80(a0)
   1b076:	e530                	sd	a2,72(a0)
   1b078:	ed14                	sd	a3,24(a0)
   1b07a:	f518                	sd	a4,40(a0)
   1b07c:	fd1c                	sd	a5,56(a0)
   1b07e:	8082                	ret

000000000001b080 <__errno>:
   1b080:	7581b503          	ld	a0,1880(gp) # 1f408 <_impure_ptr>
   1b084:	8082                	ret

000000000001b086 <__eqtf2>:
#include "soft-fp.h"
#include "quad.h"

CMPtype
__eqtf2 (TFtype a, TFtype b)
{
   1b086:	882a                	mv	a6,a0
  FP_DECL_EX;
  FP_DECL_Q (A);
  FP_DECL_Q (B);
  CMPtype r;

  FP_INIT_EXCEPTIONS;
   1b088:	002027f3          	frrm	a5
  FP_UNPACK_RAW_Q (A, a);
   1b08c:	6521                	lui	a0,0x8
   1b08e:	0305d893          	srli	a7,a1,0x30
   1b092:	157d                	addi	a0,a0,-1
   1b094:	57fd                	li	a5,-1
   1b096:	83c1                	srli	a5,a5,0x10
  FP_UNPACK_RAW_Q (B, b);
   1b098:	0306d313          	srli	t1,a3,0x30
  FP_UNPACK_RAW_Q (A, a);
   1b09c:	00a8f8b3          	and	a7,a7,a0
   1b0a0:	00f5f733          	and	a4,a1,a5
  FP_UNPACK_RAW_Q (B, b);
   1b0a4:	00a37333          	and	t1,t1,a0
   1b0a8:	8ff5                	and	a5,a5,a3
  FP_UNPACK_RAW_Q (A, a);
   1b0aa:	91fd                	srli	a1,a1,0x3f
  FP_UNPACK_RAW_Q (B, b);
   1b0ac:	92fd                	srli	a3,a3,0x3f
  FP_CMP_EQ_Q (r, A, B, 1);
   1b0ae:	00a89863          	bne	a7,a0,1b0be <__eqtf2+0x38>
   1b0b2:	01076533          	or	a0,a4,a6
   1b0b6:	e529                	bnez	a0,1b100 <__eqtf2+0x7a>
   1b0b8:	05131f63          	bne	t1,a7,1b116 <__eqtf2+0x90>
   1b0bc:	a019                	j	1b0c2 <__eqtf2+0x3c>
   1b0be:	00a31563          	bne	t1,a0,1b0c8 <__eqtf2+0x42>
   1b0c2:	00c7e533          	or	a0,a5,a2
   1b0c6:	e515                	bnez	a0,1b0f2 <__eqtf2+0x6c>
   1b0c8:	4505                	li	a0,1
   1b0ca:	04689763          	bne	a7,t1,1b118 <__eqtf2+0x92>
   1b0ce:	04f71563          	bne	a4,a5,1b118 <__eqtf2+0x92>
   1b0d2:	04c81363          	bne	a6,a2,1b118 <__eqtf2+0x92>
   1b0d6:	00d58963          	beq	a1,a3,1b0e8 <__eqtf2+0x62>
   1b0da:	02089f63          	bnez	a7,1b118 <__eqtf2+0x92>
   1b0de:	01076533          	or	a0,a4,a6
   1b0e2:	00a03533          	snez	a0,a0
   1b0e6:	8082                	ret
   1b0e8:	4501                	li	a0,0
  FP_HANDLE_EXCEPTIONS;
   1b0ea:	8082                	ret
   1b0ec:	00186073          	csrsi	fflags,16
   1b0f0:	a01d                	j	1b116 <__eqtf2+0x90>
  FP_CMP_EQ_Q (r, A, B, 1);
   1b0f2:	66a1                	lui	a3,0x8
   1b0f4:	16fd                	addi	a3,a3,-1
   1b0f6:	00d89e63          	bne	a7,a3,1b112 <__eqtf2+0x8c>
   1b0fa:	01076533          	or	a0,a4,a6
   1b0fe:	c911                	beqz	a0,1b112 <__eqtf2+0x8c>
   1b100:	933d                	srli	a4,a4,0x2f
   1b102:	d76d                	beqz	a4,1b0ec <__eqtf2+0x66>
   1b104:	6721                	lui	a4,0x8
   1b106:	177d                	addi	a4,a4,-1
   1b108:	4505                	li	a0,1
   1b10a:	00e31763          	bne	t1,a4,1b118 <__eqtf2+0x92>
   1b10e:	8e5d                	or	a2,a2,a5
   1b110:	c601                	beqz	a2,1b118 <__eqtf2+0x92>
   1b112:	93bd                	srli	a5,a5,0x2f
   1b114:	dfe1                	beqz	a5,1b0ec <__eqtf2+0x66>
   1b116:	4505                	li	a0,1

  return r;
}
   1b118:	8082                	ret

000000000001b11a <__getf2>:
#include "soft-fp.h"
#include "quad.h"

CMPtype
__getf2 (TFtype a, TFtype b)
{
   1b11a:	88aa                	mv	a7,a0
  FP_DECL_EX;
  FP_DECL_Q (A);
  FP_DECL_Q (B);
  CMPtype r;

  FP_INIT_EXCEPTIONS;
   1b11c:	002027f3          	frrm	a5
  FP_UNPACK_RAW_Q (A, a);
   1b120:	6321                	lui	t1,0x8
   1b122:	137d                	addi	t1,t1,-1
   1b124:	57fd                	li	a5,-1
   1b126:	0305d813          	srli	a6,a1,0x30
   1b12a:	83c1                	srli	a5,a5,0x10
  FP_UNPACK_RAW_Q (B, b);
   1b12c:	0306d713          	srli	a4,a3,0x30
  FP_UNPACK_RAW_Q (A, a);
   1b130:	00687833          	and	a6,a6,t1
   1b134:	00f5fe33          	and	t3,a1,a5
   1b138:	03f5d513          	srli	a0,a1,0x3f
  FP_UNPACK_RAW_Q (B, b);
   1b13c:	8ff5                	and	a5,a5,a3
   1b13e:	00677733          	and	a4,a4,t1
   1b142:	92fd                	srli	a3,a3,0x3f
  FP_CMP_Q (r, A, B, -2, 2);
   1b144:	00681963          	bne	a6,t1,1b156 <__getf2+0x3c>
   1b148:	011e65b3          	or	a1,t3,a7
   1b14c:	c5b5                	beqz	a1,1b1b8 <__getf2+0x9e>
  FP_HANDLE_EXCEPTIONS;
   1b14e:	00186073          	csrsi	fflags,16
   1b152:	5579                	li	a0,-2
   1b154:	8082                	ret
  FP_CMP_Q (r, A, B, -2, 2);
   1b156:	00671563          	bne	a4,t1,1b160 <__getf2+0x46>
   1b15a:	00c7e5b3          	or	a1,a5,a2
   1b15e:	f9e5                	bnez	a1,1b14e <__getf2+0x34>
   1b160:	04081e63          	bnez	a6,1b1bc <__getf2+0xa2>
   1b164:	011e65b3          	or	a1,t3,a7
   1b168:	0015b593          	seqz	a1,a1
   1b16c:	e709                	bnez	a4,1b176 <__getf2+0x5c>
   1b16e:	00c7e333          	or	t1,a5,a2
   1b172:	02030e63          	beqz	t1,1b1ae <__getf2+0x94>
   1b176:	e981                	bnez	a1,1b186 <__getf2+0x6c>
   1b178:	00d51463          	bne	a0,a3,1b180 <__getf2+0x66>
   1b17c:	01075963          	bge	a4,a6,1b18e <__getf2+0x74>
   1b180:	c50d                	beqz	a0,1b1aa <__getf2+0x90>
   1b182:	557d                	li	a0,-1
   1b184:	8082                	ret
   1b186:	557d                	li	a0,-1
   1b188:	c691                	beqz	a3,1b194 <__getf2+0x7a>
   1b18a:	8536                	mv	a0,a3
   1b18c:	8082                	ret
   1b18e:	00e85463          	bge	a6,a4,1b196 <__getf2+0x7c>
   1b192:	d965                	beqz	a0,1b182 <__getf2+0x68>

  return r;
}
   1b194:	8082                	ret
  FP_CMP_Q (r, A, B, -2, 2);
   1b196:	ffc7e5e3          	bltu	a5,t3,1b180 <__getf2+0x66>
   1b19a:	00fe1c63          	bne	t3,a5,1b1b2 <__getf2+0x98>
   1b19e:	ff1661e3          	bltu	a2,a7,1b180 <__getf2+0x66>
   1b1a2:	fec8e8e3          	bltu	a7,a2,1b192 <__getf2+0x78>
   1b1a6:	4501                	li	a0,0
   1b1a8:	8082                	ret
   1b1aa:	4505                	li	a0,1
   1b1ac:	8082                	ret
   1b1ae:	fde5                	bnez	a1,1b1a6 <__getf2+0x8c>
   1b1b0:	bfc1                	j	1b180 <__getf2+0x66>
   1b1b2:	fefe60e3          	bltu	t3,a5,1b192 <__getf2+0x78>
   1b1b6:	bfc5                	j	1b1a6 <__getf2+0x8c>
   1b1b8:	fb0701e3          	beq	a4,a6,1b15a <__getf2+0x40>
   1b1bc:	ff55                	bnez	a4,1b178 <__getf2+0x5e>
   1b1be:	4581                	li	a1,0
   1b1c0:	b77d                	j	1b16e <__getf2+0x54>

000000000001b1c2 <__letf2>:
#include "soft-fp.h"
#include "quad.h"

CMPtype
__letf2 (TFtype a, TFtype b)
{
   1b1c2:	88aa                	mv	a7,a0
  FP_DECL_EX;
  FP_DECL_Q (A);
  FP_DECL_Q (B);
  CMPtype r;

  FP_INIT_EXCEPTIONS;
   1b1c4:	002027f3          	frrm	a5
  FP_UNPACK_RAW_Q (A, a);
   1b1c8:	6321                	lui	t1,0x8
   1b1ca:	137d                	addi	t1,t1,-1
   1b1cc:	57fd                	li	a5,-1
   1b1ce:	0305d813          	srli	a6,a1,0x30
   1b1d2:	83c1                	srli	a5,a5,0x10
  FP_UNPACK_RAW_Q (B, b);
   1b1d4:	0306d713          	srli	a4,a3,0x30
  FP_UNPACK_RAW_Q (A, a);
   1b1d8:	00687833          	and	a6,a6,t1
   1b1dc:	00f5fe33          	and	t3,a1,a5
   1b1e0:	03f5d513          	srli	a0,a1,0x3f
  FP_UNPACK_RAW_Q (B, b);
   1b1e4:	8ff5                	and	a5,a5,a3
   1b1e6:	00677733          	and	a4,a4,t1
   1b1ea:	92fd                	srli	a3,a3,0x3f
  FP_CMP_Q (r, A, B, 2, 2);
   1b1ec:	00681963          	bne	a6,t1,1b1fe <__letf2+0x3c>
   1b1f0:	011e65b3          	or	a1,t3,a7
   1b1f4:	c5b5                	beqz	a1,1b260 <__letf2+0x9e>
  FP_HANDLE_EXCEPTIONS;
   1b1f6:	00186073          	csrsi	fflags,16
   1b1fa:	4509                	li	a0,2
   1b1fc:	8082                	ret
  FP_CMP_Q (r, A, B, 2, 2);
   1b1fe:	00671563          	bne	a4,t1,1b208 <__letf2+0x46>
   1b202:	00c7e5b3          	or	a1,a5,a2
   1b206:	f9e5                	bnez	a1,1b1f6 <__letf2+0x34>
   1b208:	04081e63          	bnez	a6,1b264 <__letf2+0xa2>
   1b20c:	011e65b3          	or	a1,t3,a7
   1b210:	0015b593          	seqz	a1,a1
   1b214:	e709                	bnez	a4,1b21e <__letf2+0x5c>
   1b216:	00c7e333          	or	t1,a5,a2
   1b21a:	02030e63          	beqz	t1,1b256 <__letf2+0x94>
   1b21e:	e981                	bnez	a1,1b22e <__letf2+0x6c>
   1b220:	00d51463          	bne	a0,a3,1b228 <__letf2+0x66>
   1b224:	01075963          	bge	a4,a6,1b236 <__letf2+0x74>
   1b228:	c50d                	beqz	a0,1b252 <__letf2+0x90>
   1b22a:	557d                	li	a0,-1
   1b22c:	8082                	ret
   1b22e:	557d                	li	a0,-1
   1b230:	c691                	beqz	a3,1b23c <__letf2+0x7a>
   1b232:	8536                	mv	a0,a3
   1b234:	8082                	ret
   1b236:	00e85463          	bge	a6,a4,1b23e <__letf2+0x7c>
   1b23a:	d965                	beqz	a0,1b22a <__letf2+0x68>

  return r;
}
   1b23c:	8082                	ret
  FP_CMP_Q (r, A, B, 2, 2);
   1b23e:	ffc7e5e3          	bltu	a5,t3,1b228 <__letf2+0x66>
   1b242:	00fe1c63          	bne	t3,a5,1b25a <__letf2+0x98>
   1b246:	ff1661e3          	bltu	a2,a7,1b228 <__letf2+0x66>
   1b24a:	fec8e8e3          	bltu	a7,a2,1b23a <__letf2+0x78>
   1b24e:	4501                	li	a0,0
   1b250:	8082                	ret
   1b252:	4505                	li	a0,1
   1b254:	8082                	ret
   1b256:	fde5                	bnez	a1,1b24e <__letf2+0x8c>
   1b258:	bfc1                	j	1b228 <__letf2+0x66>
   1b25a:	fefe60e3          	bltu	t3,a5,1b23a <__letf2+0x78>
   1b25e:	bfc5                	j	1b24e <__letf2+0x8c>
   1b260:	fb0701e3          	beq	a4,a6,1b202 <__letf2+0x40>
   1b264:	ff55                	bnez	a4,1b220 <__letf2+0x5e>
   1b266:	4581                	li	a1,0
   1b268:	b77d                	j	1b216 <__letf2+0x54>

000000000001b26a <__multf3>:
#include "soft-fp.h"
#include "quad.h"

TFtype
__multf3 (TFtype a, TFtype b)
{
   1b26a:	711d                	addi	sp,sp,-96
   1b26c:	f05a                	sd	s6,32(sp)
   1b26e:	e466                	sd	s9,8(sp)
   1b270:	ec86                	sd	ra,88(sp)
   1b272:	e8a2                	sd	s0,80(sp)
   1b274:	e4a6                	sd	s1,72(sp)
   1b276:	e0ca                	sd	s2,64(sp)
   1b278:	fc4e                	sd	s3,56(sp)
   1b27a:	f852                	sd	s4,48(sp)
   1b27c:	f456                	sd	s5,40(sp)
   1b27e:	ec5e                	sd	s7,24(sp)
   1b280:	e862                	sd	s8,16(sp)
   1b282:	8cb2                	mv	s9,a2
   1b284:	8b36                	mv	s6,a3
  FP_DECL_Q (A);
  FP_DECL_Q (B);
  FP_DECL_Q (R);
  TFtype r;

  FP_INIT_ROUNDMODE;
   1b286:	002029f3          	frrm	s3
  FP_UNPACK_Q (A, a);
   1b28a:	6721                	lui	a4,0x8
   1b28c:	0305da93          	srli	s5,a1,0x30
   1b290:	177d                	addi	a4,a4,-1
   1b292:	01059493          	slli	s1,a1,0x10
   1b296:	00eaf7b3          	and	a5,s5,a4
  FP_INIT_ROUNDMODE;
   1b29a:	2981                	sext.w	s3,s3
  FP_UNPACK_Q (A, a);
   1b29c:	80c1                	srli	s1,s1,0x10
   1b29e:	03f5db93          	srli	s7,a1,0x3f
   1b2a2:	c78d                	beqz	a5,1b2cc <__multf3+0x62>
   1b2a4:	8a2a                	mv	s4,a0
   1b2a6:	00078a9b          	sext.w	s5,a5
   1b2aa:	08e78263          	beq	a5,a4,1b32e <__multf3+0xc4>
   1b2ae:	048e                	slli	s1,s1,0x3
   1b2b0:	03d55713          	srli	a4,a0,0x3d
   1b2b4:	8f45                	or	a4,a4,s1
   1b2b6:	7af1                	lui	s5,0xffffc
   1b2b8:	4485                	li	s1,1
   1b2ba:	14ce                	slli	s1,s1,0x33
   1b2bc:	0a85                	addi	s5,s5,1
   1b2be:	8cd9                	or	s1,s1,a4
   1b2c0:	00351a13          	slli	s4,a0,0x3
   1b2c4:	9abe                	add	s5,s5,a5
   1b2c6:	4c01                	li	s8,0
  FP_DECL_EX;
   1b2c8:	4901                	li	s2,0
   1b2ca:	a89d                	j	1b340 <__multf3+0xd6>
  FP_UNPACK_Q (A, a);
   1b2cc:	00a4e7b3          	or	a5,s1,a0
   1b2d0:	842a                	mv	s0,a0
   1b2d2:	cbf1                	beqz	a5,1b3a6 <__multf3+0x13c>
   1b2d4:	c0a1                	beqz	s1,1b314 <__multf3+0xaa>
   1b2d6:	8526                	mv	a0,s1
   1b2d8:	184010ef          	jal	ra,1c45c <__clzdi2>
   1b2dc:	0005079b          	sext.w	a5,a0
   1b2e0:	ff178693          	addi	a3,a5,-15
   1b2e4:	03c00613          	li	a2,60
   1b2e8:	0006871b          	sext.w	a4,a3
   1b2ec:	02d64b63          	blt	a2,a3,1b322 <__multf3+0xb8>
   1b2f0:	03d00693          	li	a3,61
   1b2f4:	00370a1b          	addiw	s4,a4,3
   1b2f8:	40e6873b          	subw	a4,a3,a4
   1b2fc:	014494b3          	sll	s1,s1,s4
   1b300:	00e45733          	srl	a4,s0,a4
   1b304:	8cd9                	or	s1,s1,a4
   1b306:	01441a33          	sll	s4,s0,s4
   1b30a:	7af1                	lui	s5,0xffffc
   1b30c:	0ac5                	addi	s5,s5,17
   1b30e:	40fa8ab3          	sub	s5,s5,a5
   1b312:	bf55                	j	1b2c6 <__multf3+0x5c>
   1b314:	148010ef          	jal	ra,1c45c <__clzdi2>
   1b318:	00050a9b          	sext.w	s5,a0
   1b31c:	040a8793          	addi	a5,s5,64 # ffffffffffffc040 <__BSS_END__+0xfffffffffffdcb90>
   1b320:	b7c1                	j	1b2e0 <__multf3+0x76>
   1b322:	fc37049b          	addiw	s1,a4,-61
   1b326:	009414b3          	sll	s1,s0,s1
   1b32a:	4a01                	li	s4,0
   1b32c:	bff9                	j	1b30a <__multf3+0xa0>
   1b32e:	00a4e7b3          	or	a5,s1,a0
   1b332:	cfbd                	beqz	a5,1b3b0 <__multf3+0x146>
   1b334:	01049793          	slli	a5,s1,0x10
   1b338:	4c0d                	li	s8,3
   1b33a:	4941                	li	s2,16
   1b33c:	f807c6e3          	bltz	a5,1b2c8 <__multf3+0x5e>
  FP_UNPACK_Q (B, b);
   1b340:	66a1                	lui	a3,0x8
   1b342:	030b5513          	srli	a0,s6,0x30
   1b346:	16fd                	addi	a3,a3,-1
   1b348:	010b1413          	slli	s0,s6,0x10
   1b34c:	00d57733          	and	a4,a0,a3
   1b350:	87e6                	mv	a5,s9
   1b352:	8041                	srli	s0,s0,0x10
   1b354:	03fb5b13          	srli	s6,s6,0x3f
   1b358:	c325                	beqz	a4,1b3b8 <__multf3+0x14e>
   1b35a:	0007051b          	sext.w	a0,a4
   1b35e:	0ad70c63          	beq	a4,a3,1b416 <__multf3+0x1ac>
   1b362:	040e                	slli	s0,s0,0x3
   1b364:	03dcd593          	srli	a1,s9,0x3d
   1b368:	8dc1                	or	a1,a1,s0
   1b36a:	7571                	lui	a0,0xffffc
   1b36c:	4405                	li	s0,1
   1b36e:	144e                	slli	s0,s0,0x33
   1b370:	0505                	addi	a0,a0,1
   1b372:	8c4d                	or	s0,s0,a1
   1b374:	003c9793          	slli	a5,s9,0x3
   1b378:	953a                	add	a0,a0,a4
   1b37a:	4701                	li	a4,0
  FP_MUL_Q (R, A, B);
   1b37c:	002c1693          	slli	a3,s8,0x2
   1b380:	8ed9                	or	a3,a3,a4
   1b382:	9aaa                	add	s5,s5,a0
   1b384:	16fd                	addi	a3,a3,-1
   1b386:	45b9                	li	a1,14
   1b388:	016bc633          	xor	a2,s7,s6
   1b38c:	001a8813          	addi	a6,s5,1
   1b390:	0ed5e963          	bltu	a1,a3,1b482 <__multf3+0x218>
   1b394:	00002597          	auipc	a1,0x2
   1b398:	d7458593          	addi	a1,a1,-652 # 1d108 <zeroes.4483+0x10>
   1b39c:	068a                	slli	a3,a3,0x2
   1b39e:	96ae                	add	a3,a3,a1
   1b3a0:	4294                	lw	a3,0(a3)
   1b3a2:	96ae                	add	a3,a3,a1
   1b3a4:	8682                	jr	a3
   1b3a6:	4481                	li	s1,0
   1b3a8:	4a01                	li	s4,0
   1b3aa:	4a81                	li	s5,0
  FP_UNPACK_Q (A, a);
   1b3ac:	4c05                	li	s8,1
   1b3ae:	bf29                	j	1b2c8 <__multf3+0x5e>
   1b3b0:	4481                	li	s1,0
   1b3b2:	4a01                	li	s4,0
   1b3b4:	4c09                	li	s8,2
   1b3b6:	bf09                	j	1b2c8 <__multf3+0x5e>
  FP_UNPACK_Q (B, b);
   1b3b8:	019467b3          	or	a5,s0,s9
   1b3bc:	c7bd                	beqz	a5,1b42a <__multf3+0x1c0>
   1b3be:	cc1d                	beqz	s0,1b3fc <__multf3+0x192>
   1b3c0:	8522                	mv	a0,s0
   1b3c2:	09a010ef          	jal	ra,1c45c <__clzdi2>
   1b3c6:	0005071b          	sext.w	a4,a0
   1b3ca:	ff170793          	addi	a5,a4,-15 # 7ff1 <main-0x80bf>
   1b3ce:	03c00613          	li	a2,60
   1b3d2:	0007869b          	sext.w	a3,a5
   1b3d6:	02f64a63          	blt	a2,a5,1b40a <__multf3+0x1a0>
   1b3da:	03d00613          	li	a2,61
   1b3de:	0036879b          	addiw	a5,a3,3
   1b3e2:	40d606bb          	subw	a3,a2,a3
   1b3e6:	00f41433          	sll	s0,s0,a5
   1b3ea:	00dcd6b3          	srl	a3,s9,a3
   1b3ee:	8c55                	or	s0,s0,a3
   1b3f0:	00fc97b3          	sll	a5,s9,a5
   1b3f4:	7571                	lui	a0,0xffffc
   1b3f6:	0545                	addi	a0,a0,17
   1b3f8:	8d19                	sub	a0,a0,a4
   1b3fa:	b741                	j	1b37a <__multf3+0x110>
   1b3fc:	8566                	mv	a0,s9
   1b3fe:	05e010ef          	jal	ra,1c45c <__clzdi2>
   1b402:	2501                	sext.w	a0,a0
   1b404:	04050713          	addi	a4,a0,64 # ffffffffffffc040 <__BSS_END__+0xfffffffffffdcb90>
   1b408:	b7c9                	j	1b3ca <__multf3+0x160>
   1b40a:	fc36841b          	addiw	s0,a3,-61
   1b40e:	008c9433          	sll	s0,s9,s0
   1b412:	4781                	li	a5,0
   1b414:	b7c5                	j	1b3f4 <__multf3+0x18a>
   1b416:	01946733          	or	a4,s0,s9
   1b41a:	cf09                	beqz	a4,1b434 <__multf3+0x1ca>
   1b41c:	01041713          	slli	a4,s0,0x10
   1b420:	00074e63          	bltz	a4,1b43c <__multf3+0x1d2>
   1b424:	470d                	li	a4,3
   1b426:	4941                	li	s2,16
   1b428:	bf91                	j	1b37c <__multf3+0x112>
   1b42a:	4401                	li	s0,0
   1b42c:	4781                	li	a5,0
   1b42e:	4501                	li	a0,0
   1b430:	4705                	li	a4,1
   1b432:	b7a9                	j	1b37c <__multf3+0x112>
   1b434:	4401                	li	s0,0
   1b436:	4781                	li	a5,0
   1b438:	4709                	li	a4,2
   1b43a:	b789                	j	1b37c <__multf3+0x112>
   1b43c:	470d                	li	a4,3
   1b43e:	bf3d                	j	1b37c <__multf3+0x112>
  FP_MUL_Q (R, A, B);
   1b440:	4405                	li	s0,1
   1b442:	6721                	lui	a4,0x8
   1b444:	143e                	slli	s0,s0,0x2f
   1b446:	4501                	li	a0,0
   1b448:	177d                	addi	a4,a4,-1
   1b44a:	4601                	li	a2,0
   1b44c:	4941                	li	s2,16
  FP_PACK_Q (r, R);
   1b44e:	1746                	slli	a4,a4,0x31
   1b450:	9345                	srli	a4,a4,0x31
   1b452:	00f61593          	slli	a1,a2,0xf
   1b456:	0442                	slli	s0,s0,0x10
   1b458:	8dd9                	or	a1,a1,a4
   1b45a:	15c2                	slli	a1,a1,0x30
   1b45c:	8041                	srli	s0,s0,0x10
   1b45e:	8dc1                	or	a1,a1,s0
  FP_HANDLE_EXCEPTIONS;
   1b460:	00090463          	beqz	s2,1b468 <__multf3+0x1fe>
   1b464:	00192073          	csrs	fflags,s2

  return r;
}
   1b468:	60e6                	ld	ra,88(sp)
   1b46a:	6446                	ld	s0,80(sp)
   1b46c:	64a6                	ld	s1,72(sp)
   1b46e:	6906                	ld	s2,64(sp)
   1b470:	79e2                	ld	s3,56(sp)
   1b472:	7a42                	ld	s4,48(sp)
   1b474:	7aa2                	ld	s5,40(sp)
   1b476:	7b02                	ld	s6,32(sp)
   1b478:	6be2                	ld	s7,24(sp)
   1b47a:	6c42                	ld	s8,16(sp)
   1b47c:	6ca2                	ld	s9,8(sp)
   1b47e:	6125                	addi	sp,sp,96
   1b480:	8082                	ret
  FP_MUL_Q (R, A, B);
   1b482:	557d                	li	a0,-1
   1b484:	014483b3          	add	t2,s1,s4
   1b488:	00878f33          	add	t5,a5,s0
   1b48c:	9101                	srli	a0,a0,0x20
   1b48e:	020a5e93          	srli	t4,s4,0x20
   1b492:	0207d693          	srli	a3,a5,0x20
   1b496:	0143bfb3          	sltu	t6,t2,s4
   1b49a:	0143be33          	sltu	t3,t2,s4
   1b49e:	00ff32b3          	sltu	t0,t5,a5
   1b4a2:	00aa7a33          	and	s4,s4,a0
   1b4a6:	00ff3333          	sltu	t1,t5,a5
   1b4aa:	8fe9                	and	a5,a5,a0
   1b4ac:	034785b3          	mul	a1,a5,s4
   1b4b0:	02de8733          	mul	a4,t4,a3
   1b4b4:	02fe87b3          	mul	a5,t4,a5
   1b4b8:	034686b3          	mul	a3,a3,s4
   1b4bc:	0205da13          	srli	s4,a1,0x20
   1b4c0:	96be                	add	a3,a3,a5
   1b4c2:	9a36                	add	s4,s4,a3
   1b4c4:	00fa7563          	bgeu	s4,a5,1b4ce <__multf3+0x264>
   1b4c8:	4785                	li	a5,1
   1b4ca:	1782                	slli	a5,a5,0x20
   1b4cc:	973e                	add	a4,a4,a5
   1b4ce:	56fd                	li	a3,-1
   1b4d0:	9281                	srli	a3,a3,0x20
   1b4d2:	00da7533          	and	a0,s4,a3
   1b4d6:	8df5                	and	a1,a1,a3
   1b4d8:	1502                	slli	a0,a0,0x20
   1b4da:	0203d893          	srli	a7,t2,0x20
   1b4de:	020f5793          	srli	a5,t5,0x20
   1b4e2:	020a5e93          	srli	t4,s4,0x20
   1b4e6:	952e                	add	a0,a0,a1
   1b4e8:	00d3f5b3          	and	a1,t2,a3
   1b4ec:	00df76b3          	and	a3,t5,a3
   1b4f0:	02f88b33          	mul	s6,a7,a5
   1b4f4:	9eba                	add	t4,t4,a4
   1b4f6:	02b787b3          	mul	a5,a5,a1
   1b4fa:	02b68733          	mul	a4,a3,a1
   1b4fe:	02d886b3          	mul	a3,a7,a3
   1b502:	00d785b3          	add	a1,a5,a3
   1b506:	02075793          	srli	a5,a4,0x20
   1b50a:	97ae                	add	a5,a5,a1
   1b50c:	00d7f563          	bgeu	a5,a3,1b516 <__multf3+0x2ac>
   1b510:	4685                	li	a3,1
   1b512:	1682                	slli	a3,a3,0x20
   1b514:	9b36                	add	s6,s6,a3
   1b516:	58fd                	li	a7,-1
   1b518:	0208d893          	srli	a7,a7,0x20
   1b51c:	0117f6b3          	and	a3,a5,a7
   1b520:	02045b93          	srli	s7,s0,0x20
   1b524:	0207da13          	srli	s4,a5,0x20
   1b528:	01147433          	and	s0,s0,a7
   1b52c:	0204d793          	srli	a5,s1,0x20
   1b530:	0114f4b3          	and	s1,s1,a7
   1b534:	011775b3          	and	a1,a4,a7
   1b538:	028488b3          	mul	a7,s1,s0
   1b53c:	1682                	slli	a3,a3,0x20
   1b53e:	95b6                	add	a1,a1,a3
   1b540:	02878433          	mul	s0,a5,s0
   1b544:	037787b3          	mul	a5,a5,s7
   1b548:	029b8bb3          	mul	s7,s7,s1
   1b54c:	0208d493          	srli	s1,a7,0x20
   1b550:	9ba2                	add	s7,s7,s0
   1b552:	94de                	add	s1,s1,s7
   1b554:	0084f563          	bgeu	s1,s0,1b55e <__multf3+0x2f4>
   1b558:	4705                	li	a4,1
   1b55a:	1702                	slli	a4,a4,0x20
   1b55c:	97ba                	add	a5,a5,a4
   1b55e:	0204d693          	srli	a3,s1,0x20
   1b562:	97b6                	add	a5,a5,a3
   1b564:	56fd                	li	a3,-1
   1b566:	9281                	srli	a3,a3,0x20
   1b568:	00d8f8b3          	and	a7,a7,a3
   1b56c:	00d4f733          	and	a4,s1,a3
   1b570:	01d586b3          	add	a3,a1,t4
   1b574:	01d6b5b3          	sltu	a1,a3,t4
   1b578:	1702                	slli	a4,a4,0x20
   1b57a:	40600333          	neg	t1,t1
   1b57e:	9746                	add	a4,a4,a7
   1b580:	00ba08b3          	add	a7,s4,a1
   1b584:	98da                	add	a7,a7,s6
   1b586:	007373b3          	and	t2,t1,t2
   1b58a:	41c00e33          	neg	t3,t3
   1b58e:	93c6                	add	t2,t2,a7
   1b590:	01ee7f33          	and	t5,t3,t5
   1b594:	00b8b5b3          	sltu	a1,a7,a1
   1b598:	005fffb3          	and	t6,t6,t0
   1b59c:	9f1e                	add	t5,t5,t2
   1b59e:	0113b8b3          	sltu	a7,t2,a7
   1b5a2:	95fe                	add	a1,a1,t6
   1b5a4:	40a68333          	sub	t1,a3,a0
   1b5a8:	95c6                	add	a1,a1,a7
   1b5aa:	0066be33          	sltu	t3,a3,t1
   1b5ae:	41df08b3          	sub	a7,t5,t4
   1b5b2:	007f33b3          	sltu	t2,t5,t2
   1b5b6:	011f3fb3          	sltu	t6,t5,a7
   1b5ba:	959e                	add	a1,a1,t2
   1b5bc:	41c888b3          	sub	a7,a7,t3
   1b5c0:	4e01                	li	t3,0
   1b5c2:	0066f663          	bgeu	a3,t1,1b5ce <__multf3+0x364>
   1b5c6:	41ee8f33          	sub	t5,t4,t5
   1b5ca:	001f3e13          	seqz	t3,t5
   1b5ce:	01fe6f33          	or	t5,t3,t6
   1b5d2:	40e30e33          	sub	t3,t1,a4
   1b5d6:	40f886b3          	sub	a3,a7,a5
   1b5da:	95be                	add	a1,a1,a5
   1b5dc:	01c337b3          	sltu	a5,t1,t3
   1b5e0:	00d8b8b3          	sltu	a7,a7,a3
   1b5e4:	40f707b3          	sub	a5,a4,a5
   1b5e8:	4f81                	li	t6,0
   1b5ea:	01c37463          	bgeu	t1,t3,1b5f2 <__multf3+0x388>
   1b5ee:	0016bf93          	seqz	t6,a3
   1b5f2:	96be                	add	a3,a3,a5
   1b5f4:	00e6b733          	sltu	a4,a3,a4
   1b5f8:	972e                	add	a4,a4,a1
   1b5fa:	00de1793          	slli	a5,t3,0xd
   1b5fe:	8fc9                	or	a5,a5,a0
   1b600:	41e70733          	sub	a4,a4,t5
   1b604:	011fe8b3          	or	a7,t6,a7
   1b608:	41170733          	sub	a4,a4,a7
   1b60c:	00f037b3          	snez	a5,a5
   1b610:	033e5513          	srli	a0,t3,0x33
   1b614:	0736                	slli	a4,a4,0xd
   1b616:	0336d413          	srli	s0,a3,0x33
   1b61a:	8fc9                	or	a5,a5,a0
   1b61c:	06b6                	slli	a3,a3,0xd
   1b61e:	8fd5                	or	a5,a5,a3
   1b620:	00b71693          	slli	a3,a4,0xb
   1b624:	8c59                	or	s0,s0,a4
   1b626:	0606da63          	bgez	a3,1b69a <__multf3+0x430>
   1b62a:	0017d713          	srli	a4,a5,0x1
   1b62e:	8b85                	andi	a5,a5,1
   1b630:	03f41513          	slli	a0,s0,0x3f
   1b634:	8fd9                	or	a5,a5,a4
   1b636:	8fc9                	or	a5,a5,a0
   1b638:	8005                	srli	s0,s0,0x1
  FP_PACK_Q (r, R);
   1b63a:	6711                	lui	a4,0x4
   1b63c:	177d                	addi	a4,a4,-1
   1b63e:	9742                	add	a4,a4,a6
   1b640:	0ce05263          	blez	a4,1b704 <__multf3+0x49a>
   1b644:	0077f693          	andi	a3,a5,7
   1b648:	c2a5                	beqz	a3,1b6a8 <__multf3+0x43e>
   1b64a:	4689                	li	a3,2
   1b64c:	00196913          	ori	s2,s2,1
   1b650:	04d98b63          	beq	s3,a3,1b6a6 <__multf3+0x43c>
   1b654:	468d                	li	a3,3
   1b656:	04d98463          	beq	s3,a3,1b69e <__multf3+0x434>
   1b65a:	04099763          	bnez	s3,1b6a8 <__multf3+0x43e>
   1b65e:	00f7f693          	andi	a3,a5,15
   1b662:	4591                	li	a1,4
   1b664:	04b68263          	beq	a3,a1,1b6a8 <__multf3+0x43e>
   1b668:	00478693          	addi	a3,a5,4
   1b66c:	00f6b7b3          	sltu	a5,a3,a5
   1b670:	943e                	add	s0,s0,a5
   1b672:	87b6                	mv	a5,a3
   1b674:	a815                	j	1b6a8 <__multf3+0x43e>
  FP_UNPACK_Q (A, a);
   1b676:	865e                	mv	a2,s7
  FP_MUL_Q (R, A, B);
   1b678:	8426                	mv	s0,s1
   1b67a:	87d2                	mv	a5,s4
   1b67c:	8762                	mv	a4,s8
  FP_PACK_Q (r, R);
   1b67e:	4689                	li	a3,2
   1b680:	1ed70263          	beq	a4,a3,1b864 <__multf3+0x5fa>
   1b684:	468d                	li	a3,3
   1b686:	1ed70463          	beq	a4,a3,1b86e <__multf3+0x604>
   1b68a:	4685                	li	a3,1
   1b68c:	fad717e3          	bne	a4,a3,1b63a <__multf3+0x3d0>
   1b690:	4401                	li	s0,0
   1b692:	4501                	li	a0,0
   1b694:	aa7d                	j	1b852 <__multf3+0x5e8>
  FP_UNPACK_Q (B, b);
   1b696:	865a                	mv	a2,s6
  FP_MUL_Q (R, A, B);
   1b698:	b7dd                	j	1b67e <__multf3+0x414>
   1b69a:	8856                	mv	a6,s5
   1b69c:	bf79                	j	1b63a <__multf3+0x3d0>
  FP_PACK_Q (r, R);
   1b69e:	e609                	bnez	a2,1b6a8 <__multf3+0x43e>
   1b6a0:	00878693          	addi	a3,a5,8
   1b6a4:	b7e1                	j	1b66c <__multf3+0x402>
   1b6a6:	fe6d                	bnez	a2,1b6a0 <__multf3+0x436>
   1b6a8:	00b41693          	slli	a3,s0,0xb
   1b6ac:	0006d863          	bgez	a3,1b6bc <__multf3+0x452>
   1b6b0:	577d                	li	a4,-1
   1b6b2:	1752                	slli	a4,a4,0x34
   1b6b4:	177d                	addi	a4,a4,-1
   1b6b6:	8c79                	and	s0,s0,a4
   1b6b8:	6711                	lui	a4,0x4
   1b6ba:	9742                	add	a4,a4,a6
   1b6bc:	66a1                	lui	a3,0x8
   1b6be:	ffe68593          	addi	a1,a3,-2 # 7ffe <main-0x80b2>
   1b6c2:	00e5c963          	blt	a1,a4,1b6d4 <__multf3+0x46a>
   1b6c6:	0037d513          	srli	a0,a5,0x3
   1b6ca:	03d41793          	slli	a5,s0,0x3d
   1b6ce:	8d5d                	or	a0,a0,a5
   1b6d0:	800d                	srli	s0,s0,0x3
   1b6d2:	bbb5                	j	1b44e <__multf3+0x1e4>
   1b6d4:	4789                	li	a5,2
   1b6d6:	02f98263          	beq	s3,a5,1b6fa <__multf3+0x490>
   1b6da:	478d                	li	a5,3
   1b6dc:	fff68713          	addi	a4,a3,-1
   1b6e0:	00f98663          	beq	s3,a5,1b6ec <__multf3+0x482>
   1b6e4:	00099563          	bnez	s3,1b6ee <__multf3+0x484>
   1b6e8:	4501                	li	a0,0
   1b6ea:	a021                	j	1b6f2 <__multf3+0x488>
   1b6ec:	de75                	beqz	a2,1b6e8 <__multf3+0x47e>
   1b6ee:	557d                	li	a0,-1
   1b6f0:	872e                	mv	a4,a1
   1b6f2:	00596913          	ori	s2,s2,5
   1b6f6:	842a                	mv	s0,a0
   1b6f8:	bb99                	j	1b44e <__multf3+0x1e4>
   1b6fa:	da75                	beqz	a2,1b6ee <__multf3+0x484>
   1b6fc:	4501                	li	a0,0
   1b6fe:	fff68713          	addi	a4,a3,-1
   1b702:	bfc5                	j	1b6f2 <__multf3+0x488>
   1b704:	4685                	li	a3,1
   1b706:	e731                	bnez	a4,1b752 <__multf3+0x4e8>
   1b708:	0077f593          	andi	a1,a5,7
   1b70c:	86a2                	mv	a3,s0
   1b70e:	cd95                	beqz	a1,1b74a <__multf3+0x4e0>
   1b710:	4689                	li	a3,2
   1b712:	00196913          	ori	s2,s2,1
   1b716:	02d98863          	beq	s3,a3,1b746 <__multf3+0x4dc>
   1b71a:	468d                	li	a3,3
   1b71c:	02d98063          	beq	s3,a3,1b73c <__multf3+0x4d2>
   1b720:	86a2                	mv	a3,s0
   1b722:	02099463          	bnez	s3,1b74a <__multf3+0x4e0>
   1b726:	00f7f593          	andi	a1,a5,15
   1b72a:	4511                	li	a0,4
   1b72c:	00a58f63          	beq	a1,a0,1b74a <__multf3+0x4e0>
   1b730:	ffc7b693          	sltiu	a3,a5,-4
   1b734:	0016c693          	xori	a3,a3,1
   1b738:	96a2                	add	a3,a3,s0
   1b73a:	a801                	j	1b74a <__multf3+0x4e0>
   1b73c:	86a2                	mv	a3,s0
   1b73e:	e611                	bnez	a2,1b74a <__multf3+0x4e0>
   1b740:	ff87b693          	sltiu	a3,a5,-8
   1b744:	bfc5                	j	1b734 <__multf3+0x4ca>
   1b746:	86a2                	mv	a3,s0
   1b748:	fe65                	bnez	a2,1b740 <__multf3+0x4d6>
   1b74a:	92d1                	srli	a3,a3,0x34
   1b74c:	0016c693          	xori	a3,a3,1
   1b750:	8a85                	andi	a3,a3,1
   1b752:	4585                	li	a1,1
   1b754:	40e58733          	sub	a4,a1,a4
   1b758:	07400593          	li	a1,116
   1b75c:	0ce5c763          	blt	a1,a4,1b82a <__multf3+0x5c0>
   1b760:	03f00513          	li	a0,63
   1b764:	0007059b          	sext.w	a1,a4
   1b768:	04e54b63          	blt	a0,a4,1b7be <__multf3+0x554>
   1b76c:	04000713          	li	a4,64
   1b770:	9f0d                	subw	a4,a4,a1
   1b772:	00e41533          	sll	a0,s0,a4
   1b776:	00b7d833          	srl	a6,a5,a1
   1b77a:	00e797b3          	sll	a5,a5,a4
   1b77e:	01056533          	or	a0,a0,a6
   1b782:	00f037b3          	snez	a5,a5
   1b786:	8d5d                	or	a0,a0,a5
   1b788:	00b45433          	srl	s0,s0,a1
   1b78c:	00757793          	andi	a5,a0,7
   1b790:	c3b5                	beqz	a5,1b7f4 <__multf3+0x58a>
   1b792:	4789                	li	a5,2
   1b794:	00196913          	ori	s2,s2,1
   1b798:	04f98d63          	beq	s3,a5,1b7f2 <__multf3+0x588>
   1b79c:	478d                	li	a5,3
   1b79e:	04f98663          	beq	s3,a5,1b7ea <__multf3+0x580>
   1b7a2:	04099963          	bnez	s3,1b7f4 <__multf3+0x58a>
   1b7a6:	00f57793          	andi	a5,a0,15
   1b7aa:	4711                	li	a4,4
   1b7ac:	04e78463          	beq	a5,a4,1b7f4 <__multf3+0x58a>
   1b7b0:	00450793          	addi	a5,a0,4
   1b7b4:	00a7b533          	sltu	a0,a5,a0
   1b7b8:	942a                	add	s0,s0,a0
   1b7ba:	853e                	mv	a0,a5
   1b7bc:	a825                	j	1b7f4 <__multf3+0x58a>
   1b7be:	fc05851b          	addiw	a0,a1,-64
   1b7c2:	04000893          	li	a7,64
   1b7c6:	00a45533          	srl	a0,s0,a0
   1b7ca:	4801                	li	a6,0
   1b7cc:	01170863          	beq	a4,a7,1b7dc <__multf3+0x572>
   1b7d0:	08000813          	li	a6,128
   1b7d4:	40b805bb          	subw	a1,a6,a1
   1b7d8:	00b41833          	sll	a6,s0,a1
   1b7dc:	00f867b3          	or	a5,a6,a5
   1b7e0:	00f037b3          	snez	a5,a5
   1b7e4:	8d5d                	or	a0,a0,a5
   1b7e6:	4401                	li	s0,0
   1b7e8:	b755                	j	1b78c <__multf3+0x522>
   1b7ea:	e609                	bnez	a2,1b7f4 <__multf3+0x58a>
   1b7ec:	00850793          	addi	a5,a0,8
   1b7f0:	b7d1                	j	1b7b4 <__multf3+0x54a>
   1b7f2:	fe6d                	bnez	a2,1b7ec <__multf3+0x582>
   1b7f4:	00c41793          	slli	a5,s0,0xc
   1b7f8:	0007dc63          	bgez	a5,1b810 <__multf3+0x5a6>
   1b7fc:	00196913          	ori	s2,s2,1
   1b800:	4401                	li	s0,0
   1b802:	4501                	li	a0,0
   1b804:	4705                	li	a4,1
   1b806:	c40684e3          	beqz	a3,1b44e <__multf3+0x1e4>
   1b80a:	00296913          	ori	s2,s2,2
   1b80e:	b181                	j	1b44e <__multf3+0x1e4>
   1b810:	03d41793          	slli	a5,s0,0x3d
   1b814:	810d                	srli	a0,a0,0x3
   1b816:	8d5d                	or	a0,a0,a5
   1b818:	800d                	srli	s0,s0,0x3
   1b81a:	4701                	li	a4,0
   1b81c:	c20689e3          	beqz	a3,1b44e <__multf3+0x1e4>
   1b820:	00197793          	andi	a5,s2,1
   1b824:	c20785e3          	beqz	a5,1b44e <__multf3+0x1e4>
   1b828:	b7cd                	j	1b80a <__multf3+0x5a0>
   1b82a:	0087e533          	or	a0,a5,s0
   1b82e:	cd19                	beqz	a0,1b84c <__multf3+0x5e2>
   1b830:	4789                	li	a5,2
   1b832:	00196913          	ori	s2,s2,1
   1b836:	02f98463          	beq	s3,a5,1b85e <__multf3+0x5f4>
   1b83a:	478d                	li	a5,3
   1b83c:	00f98d63          	beq	s3,a5,1b856 <__multf3+0x5ec>
   1b840:	4785                	li	a5,1
   1b842:	00099363          	bnez	s3,1b848 <__multf3+0x5de>
   1b846:	4795                	li	a5,5
   1b848:	0037d513          	srli	a0,a5,0x3
   1b84c:	00296913          	ori	s2,s2,2
   1b850:	4401                	li	s0,0
   1b852:	4701                	li	a4,0
   1b854:	beed                	j	1b44e <__multf3+0x1e4>
   1b856:	47a5                	li	a5,9
   1b858:	da65                	beqz	a2,1b848 <__multf3+0x5de>
   1b85a:	4785                	li	a5,1
   1b85c:	b7f5                	j	1b848 <__multf3+0x5de>
   1b85e:	47a5                	li	a5,9
   1b860:	f665                	bnez	a2,1b848 <__multf3+0x5de>
   1b862:	bfe5                	j	1b85a <__multf3+0x5f0>
   1b864:	6721                	lui	a4,0x8
   1b866:	4401                	li	s0,0
   1b868:	4501                	li	a0,0
   1b86a:	177d                	addi	a4,a4,-1
   1b86c:	b6cd                	j	1b44e <__multf3+0x1e4>
   1b86e:	4405                	li	s0,1
   1b870:	6721                	lui	a4,0x8
   1b872:	143e                	slli	s0,s0,0x2f
   1b874:	4501                	li	a0,0
   1b876:	177d                	addi	a4,a4,-1
   1b878:	4601                	li	a2,0
   1b87a:	bed1                	j	1b44e <__multf3+0x1e4>

000000000001b87c <__subtf3>:
#include "soft-fp.h"
#include "quad.h"

TFtype
__subtf3 (TFtype a, TFtype b)
{
   1b87c:	7179                	addi	sp,sp,-48
   1b87e:	f406                	sd	ra,40(sp)
   1b880:	f022                	sd	s0,32(sp)
   1b882:	ec26                	sd	s1,24(sp)
   1b884:	e84a                	sd	s2,16(sp)
   1b886:	e44e                	sd	s3,8(sp)
   1b888:	e052                	sd	s4,0(sp)
  FP_DECL_Q (A);
  FP_DECL_Q (B);
  FP_DECL_Q (R);
  TFtype r;

  FP_INIT_ROUNDMODE;
   1b88a:	002024f3          	frrm	s1
  FP_UNPACK_SEMIRAW_Q (A, a);
   1b88e:	577d                	li	a4,-1
   1b890:	8341                	srli	a4,a4,0x10
   1b892:	6321                	lui	t1,0x8
   1b894:	0305d893          	srli	a7,a1,0x30
   1b898:	137d                	addi	t1,t1,-1
  FP_UNPACK_SEMIRAW_Q (B, b);
   1b89a:	0306de13          	srli	t3,a3,0x30
  FP_UNPACK_SEMIRAW_Q (A, a);
   1b89e:	03f5d413          	srli	s0,a1,0x3f
  FP_UNPACK_SEMIRAW_Q (B, b);
   1b8a2:	03f6de93          	srli	t4,a3,0x3f
  FP_UNPACK_SEMIRAW_Q (A, a);
   1b8a6:	8df9                	and	a1,a1,a4
  FP_UNPACK_SEMIRAW_Q (B, b);
   1b8a8:	8ef9                	and	a3,a3,a4
  FP_UNPACK_SEMIRAW_Q (A, a);
   1b8aa:	00359793          	slli	a5,a1,0x3
  FP_UNPACK_SEMIRAW_Q (B, b);
   1b8ae:	03d65713          	srli	a4,a2,0x3d
  FP_UNPACK_SEMIRAW_Q (A, a);
   1b8b2:	03d55593          	srli	a1,a0,0x3d
   1b8b6:	0068f8b3          	and	a7,a7,t1
  FP_UNPACK_SEMIRAW_Q (B, b);
   1b8ba:	006e7e33          	and	t3,t3,t1
   1b8be:	068e                	slli	a3,a3,0x3
  FP_INIT_ROUNDMODE;
   1b8c0:	2481                	sext.w	s1,s1
  FP_UNPACK_SEMIRAW_Q (A, a);
   1b8c2:	89c6                	mv	s3,a7
   1b8c4:	8ddd                	or	a1,a1,a5
   1b8c6:	050e                	slli	a0,a0,0x3
  FP_UNPACK_SEMIRAW_Q (B, b);
   1b8c8:	8872                	mv	a6,t3
   1b8ca:	8ed9                	or	a3,a3,a4
   1b8cc:	060e                	slli	a2,a2,0x3
  FP_SUB_Q (R, A, B);
   1b8ce:	006e1563          	bne	t3,t1,1b8d8 <__subtf3+0x5c>
   1b8d2:	00c6e7b3          	or	a5,a3,a2
   1b8d6:	e399                	bnez	a5,1b8dc <__subtf3+0x60>
   1b8d8:	001ece93          	xori	t4,t4,1
   1b8dc:	41c887bb          	subw	a5,a7,t3
   1b8e0:	6f21                	lui	t5,0x8
   1b8e2:	0007871b          	sext.w	a4,a5
   1b8e6:	ffff0313          	addi	t1,t5,-1 # 7fff <main-0x80b1>
   1b8ea:	368e9263          	bne	t4,s0,1bc4e <__subtf3+0x3d2>
   1b8ee:	10e05063          	blez	a4,1b9ee <__subtf3+0x172>
   1b8f2:	080e1063          	bnez	t3,1b972 <__subtf3+0xf6>
   1b8f6:	00c6e733          	or	a4,a3,a2
   1b8fa:	ef11                	bnez	a4,1b916 <__subtf3+0x9a>
   1b8fc:	6a689f63          	bne	a7,t1,1bfba <__subtf3+0x73e>
   1b900:	00a5e7b3          	or	a5,a1,a0
   1b904:	70078163          	beqz	a5,1c006 <__subtf3+0x78a>
   1b908:	00d59793          	slli	a5,a1,0xd
   1b90c:	8846                	mv	a6,a7
   1b90e:	0407c663          	bltz	a5,1b95a <__subtf3+0xde>
   1b912:	47c1                	li	a5,16
   1b914:	a2d5                	j	1baf8 <__subtf3+0x27c>
   1b916:	fff7871b          	addiw	a4,a5,-1
   1b91a:	e331                	bnez	a4,1b95e <__subtf3+0xe2>
   1b91c:	962a                	add	a2,a2,a0
   1b91e:	95b6                	add	a1,a1,a3
   1b920:	00a63533          	sltu	a0,a2,a0
   1b924:	95aa                	add	a1,a1,a0
   1b926:	8532                	mv	a0,a2
   1b928:	00c59793          	slli	a5,a1,0xc
   1b92c:	6807d763          	bgez	a5,1bfba <__subtf3+0x73e>
   1b930:	67a1                	lui	a5,0x8
   1b932:	00198813          	addi	a6,s3,1
   1b936:	fff78713          	addi	a4,a5,-1 # 7fff <main-0x80b1>
   1b93a:	2ee80a63          	beq	a6,a4,1bc2e <__subtf3+0x3b2>
   1b93e:	57fd                	li	a5,-1
   1b940:	17ce                	slli	a5,a5,0x33
   1b942:	17fd                	addi	a5,a5,-1
   1b944:	8fed                	and	a5,a5,a1
   1b946:	00155893          	srli	a7,a0,0x1
   1b94a:	8905                	andi	a0,a0,1
   1b94c:	03f79593          	slli	a1,a5,0x3f
   1b950:	00a8e533          	or	a0,a7,a0
   1b954:	8d4d                	or	a0,a0,a1
   1b956:	0017d593          	srli	a1,a5,0x1
  FP_PACK_SEMIRAW_Q (r, R);
   1b95a:	4701                	li	a4,0
   1b95c:	a451                	j	1bbe0 <__subtf3+0x364>
  FP_SUB_Q (R, A, B);
   1b95e:	00689f63          	bne	a7,t1,1b97c <__subtf3+0x100>
   1b962:	00a5e7b3          	or	a5,a1,a0
   1b966:	6a078063          	beqz	a5,1c006 <__subtf3+0x78a>
   1b96a:	00d59793          	slli	a5,a1,0xd
   1b96e:	8846                	mv	a6,a7
   1b970:	a045                	j	1ba10 <__subtf3+0x194>
   1b972:	fe6888e3          	beq	a7,t1,1b962 <__subtf3+0xe6>
   1b976:	4785                	li	a5,1
   1b978:	17ce                	slli	a5,a5,0x33
   1b97a:	8edd                	or	a3,a3,a5
   1b97c:	07400793          	li	a5,116
   1b980:	06e7c363          	blt	a5,a4,1b9e6 <__subtf3+0x16a>
   1b984:	03f00793          	li	a5,63
   1b988:	02e7c963          	blt	a5,a4,1b9ba <__subtf3+0x13e>
   1b98c:	04000813          	li	a6,64
   1b990:	40e8083b          	subw	a6,a6,a4
   1b994:	00e658b3          	srl	a7,a2,a4
   1b998:	010697b3          	sll	a5,a3,a6
   1b99c:	01061633          	sll	a2,a2,a6
   1b9a0:	0117e7b3          	or	a5,a5,a7
   1b9a4:	00c03633          	snez	a2,a2
   1b9a8:	8e5d                	or	a2,a2,a5
   1b9aa:	00e6d733          	srl	a4,a3,a4
   1b9ae:	962a                	add	a2,a2,a0
   1b9b0:	972e                	add	a4,a4,a1
   1b9b2:	00a635b3          	sltu	a1,a2,a0
   1b9b6:	95ba                	add	a1,a1,a4
   1b9b8:	b7bd                	j	1b926 <__subtf3+0xaa>
   1b9ba:	fc07079b          	addiw	a5,a4,-64
   1b9be:	04000893          	li	a7,64
   1b9c2:	00f6d7b3          	srl	a5,a3,a5
   1b9c6:	4801                	li	a6,0
   1b9c8:	01170863          	beq	a4,a7,1b9d8 <__subtf3+0x15c>
   1b9cc:	08000813          	li	a6,128
   1b9d0:	40e8073b          	subw	a4,a6,a4
   1b9d4:	00e69833          	sll	a6,a3,a4
   1b9d8:	00c86633          	or	a2,a6,a2
   1b9dc:	00c03633          	snez	a2,a2
   1b9e0:	8e5d                	or	a2,a2,a5
   1b9e2:	4701                	li	a4,0
   1b9e4:	b7e9                	j	1b9ae <__subtf3+0x132>
   1b9e6:	8e55                	or	a2,a2,a3
   1b9e8:	00c03633          	snez	a2,a2
   1b9ec:	bfdd                	j	1b9e2 <__subtf3+0x166>
   1b9ee:	c379                	beqz	a4,1bab4 <__subtf3+0x238>
   1b9f0:	08089063          	bnez	a7,1ba70 <__subtf3+0x1f4>
   1b9f4:	00a5e8b3          	or	a7,a1,a0
   1b9f8:	02089063          	bnez	a7,1ba18 <__subtf3+0x19c>
   1b9fc:	5c6e1363          	bne	t3,t1,1bfc2 <__subtf3+0x746>
   1ba00:	00c6e533          	or	a0,a3,a2
   1ba04:	5e050e63          	beqz	a0,1c000 <__subtf3+0x784>
   1ba08:	00d69793          	slli	a5,a3,0xd
   1ba0c:	85b6                	mv	a1,a3
  FP_UNPACK_SEMIRAW_Q (B, b);
   1ba0e:	8532                	mv	a0,a2
  FP_PACK_SEMIRAW_Q (r, R);
   1ba10:	4701                	li	a4,0
  FP_SUB_Q (R, A, B);
   1ba12:	1c07c763          	bltz	a5,1bbe0 <__subtf3+0x364>
   1ba16:	bdf5                	j	1b912 <__subtf3+0x96>
   1ba18:	58fd                	li	a7,-1
   1ba1a:	01171963          	bne	a4,a7,1ba2c <__subtf3+0x1b0>
   1ba1e:	9532                	add	a0,a0,a2
   1ba20:	95b6                	add	a1,a1,a3
   1ba22:	00c53633          	sltu	a2,a0,a2
   1ba26:	95b2                	add	a1,a1,a2
  FP_UNPACK_SEMIRAW_Q (B, b);
   1ba28:	89f2                	mv	s3,t3
   1ba2a:	bdfd                	j	1b928 <__subtf3+0xac>
  FP_SUB_Q (R, A, B);
   1ba2c:	fc6e0ae3          	beq	t3,t1,1ba00 <__subtf3+0x184>
   1ba30:	fff7c713          	not	a4,a5
   1ba34:	2701                	sext.w	a4,a4
   1ba36:	07400793          	li	a5,116
   1ba3a:	06e7c963          	blt	a5,a4,1baac <__subtf3+0x230>
   1ba3e:	03f00793          	li	a5,63
   1ba42:	02e7cf63          	blt	a5,a4,1ba80 <__subtf3+0x204>
   1ba46:	04000813          	li	a6,64
   1ba4a:	40e8083b          	subw	a6,a6,a4
   1ba4e:	00e558b3          	srl	a7,a0,a4
   1ba52:	010597b3          	sll	a5,a1,a6
   1ba56:	01051533          	sll	a0,a0,a6
   1ba5a:	0117e7b3          	or	a5,a5,a7
   1ba5e:	00a03533          	snez	a0,a0
   1ba62:	8d5d                	or	a0,a0,a5
   1ba64:	00e5d733          	srl	a4,a1,a4
   1ba68:	9532                	add	a0,a0,a2
   1ba6a:	00d705b3          	add	a1,a4,a3
   1ba6e:	bf55                	j	1ba22 <__subtf3+0x1a6>
   1ba70:	f86e08e3          	beq	t3,t1,1ba00 <__subtf3+0x184>
   1ba74:	40f0073b          	negw	a4,a5
   1ba78:	4785                	li	a5,1
   1ba7a:	17ce                	slli	a5,a5,0x33
   1ba7c:	8ddd                	or	a1,a1,a5
   1ba7e:	bf65                	j	1ba36 <__subtf3+0x1ba>
   1ba80:	fc07079b          	addiw	a5,a4,-64
   1ba84:	04000893          	li	a7,64
   1ba88:	00f5d7b3          	srl	a5,a1,a5
   1ba8c:	4801                	li	a6,0
   1ba8e:	01170863          	beq	a4,a7,1ba9e <__subtf3+0x222>
   1ba92:	08000813          	li	a6,128
   1ba96:	40e8073b          	subw	a4,a6,a4
   1ba9a:	00e59833          	sll	a6,a1,a4
   1ba9e:	00a86533          	or	a0,a6,a0
   1baa2:	00a03533          	snez	a0,a0
   1baa6:	8d5d                	or	a0,a0,a5
   1baa8:	4701                	li	a4,0
   1baaa:	bf7d                	j	1ba68 <__subtf3+0x1ec>
   1baac:	8d4d                	or	a0,a0,a1
   1baae:	00a03533          	snez	a0,a0
   1bab2:	bfdd                	j	1baa8 <__subtf3+0x22c>
   1bab4:	00188813          	addi	a6,a7,1
   1bab8:	ffef0793          	addi	a5,t5,-2
   1babc:	00f87eb3          	and	t4,a6,a5
   1bac0:	100e9263          	bnez	t4,1bbc4 <__subtf3+0x348>
   1bac4:	00a5e833          	or	a6,a1,a0
   1bac8:	04089063          	bnez	a7,1bb08 <__subtf3+0x28c>
   1bacc:	50080463          	beqz	a6,1bfd4 <__subtf3+0x758>
   1bad0:	00c6e7b3          	or	a5,a3,a2
   1bad4:	32078963          	beqz	a5,1be06 <__subtf3+0x58a>
   1bad8:	962a                	add	a2,a2,a0
   1bada:	95b6                	add	a1,a1,a3
   1badc:	00a63533          	sltu	a0,a2,a0
   1bae0:	95aa                	add	a1,a1,a0
   1bae2:	00c59793          	slli	a5,a1,0xc
   1bae6:	4e07d863          	bgez	a5,1bfd6 <__subtf3+0x75a>
   1baea:	57fd                	li	a5,-1
   1baec:	17ce                	slli	a5,a5,0x33
   1baee:	17fd                	addi	a5,a5,-1
   1baf0:	8dfd                	and	a1,a1,a5
   1baf2:	8532                	mv	a0,a2
   1baf4:	4781                	li	a5,0
   1baf6:	4805                	li	a6,1
  FP_PACK_SEMIRAW_Q (r, R);
   1baf8:	00757693          	andi	a3,a0,7
   1bafc:	10069563          	bnez	a3,1bc06 <__subtf3+0x38a>
   1bb00:	cf29                	beqz	a4,1bb5a <__subtf3+0x2de>
   1bb02:	0017f713          	andi	a4,a5,1
   1bb06:	a205                	j	1bc26 <__subtf3+0x3aa>
  FP_SUB_Q (R, A, B);
   1bb08:	02689c63          	bne	a7,t1,1bb40 <__subtf3+0x2c4>
   1bb0c:	56080263          	beqz	a6,1c070 <__subtf3+0x7f4>
   1bb10:	0325d793          	srli	a5,a1,0x32
   1bb14:	8b85                	andi	a5,a5,1
  FP_DECL_EX;
   1bb16:	0017b793          	seqz	a5,a5
   1bb1a:	0792                	slli	a5,a5,0x4
  FP_SUB_Q (R, A, B);
   1bb1c:	031e1763          	bne	t3,a7,1bb4a <__subtf3+0x2ce>
   1bb20:	00c6e8b3          	or	a7,a3,a2
   1bb24:	00088763          	beqz	a7,1bb32 <__subtf3+0x2b6>
   1bb28:	00d69893          	slli	a7,a3,0xd
   1bb2c:	0008c363          	bltz	a7,1bb32 <__subtf3+0x2b6>
   1bb30:	47c1                	li	a5,16
   1bb32:	00081c63          	bnez	a6,1bb4a <__subtf3+0x2ce>
  FP_UNPACK_SEMIRAW_Q (B, b);
   1bb36:	85b6                	mv	a1,a3
   1bb38:	8532                	mv	a0,a2
  FP_SUB_Q (R, A, B);
   1bb3a:	6821                	lui	a6,0x8
   1bb3c:	187d                	addi	a6,a6,-1
   1bb3e:	bf6d                	j	1baf8 <__subtf3+0x27c>
   1bb40:	4781                	li	a5,0
   1bb42:	fe6e18e3          	bne	t3,t1,1bb32 <__subtf3+0x2b6>
   1bb46:	4781                	li	a5,0
   1bb48:	bfe1                	j	1bb20 <__subtf3+0x2a4>
   1bb4a:	8e55                	or	a2,a2,a3
   1bb4c:	d67d                	beqz	a2,1bb3a <__subtf3+0x2be>
   1bb4e:	4585                	li	a1,1
   1bb50:	6821                	lui	a6,0x8
   1bb52:	4401                	li	s0,0
   1bb54:	15ca                	slli	a1,a1,0x32
   1bb56:	4501                	li	a0,0
   1bb58:	187d                	addi	a6,a6,-1
  FP_PACK_SEMIRAW_Q (r, R);
   1bb5a:	00c59713          	slli	a4,a1,0xc
   1bb5e:	00075c63          	bgez	a4,1bb76 <__subtf3+0x2fa>
   1bb62:	6721                	lui	a4,0x8
   1bb64:	0805                	addi	a6,a6,1
   1bb66:	fff70693          	addi	a3,a4,-1 # 7fff <main-0x80b1>
   1bb6a:	4cd80d63          	beq	a6,a3,1c044 <__subtf3+0x7c8>
   1bb6e:	577d                	li	a4,-1
   1bb70:	174e                	slli	a4,a4,0x33
   1bb72:	177d                	addi	a4,a4,-1
   1bb74:	8df9                	and	a1,a1,a4
   1bb76:	6721                	lui	a4,0x8
   1bb78:	00355613          	srli	a2,a0,0x3
   1bb7c:	177d                	addi	a4,a4,-1
   1bb7e:	03d59513          	slli	a0,a1,0x3d
   1bb82:	8d51                	or	a0,a0,a2
   1bb84:	818d                	srli	a1,a1,0x3
   1bb86:	00e81963          	bne	a6,a4,1bb98 <__subtf3+0x31c>
   1bb8a:	8d4d                	or	a0,a0,a1
   1bb8c:	4581                	li	a1,0
   1bb8e:	c509                	beqz	a0,1bb98 <__subtf3+0x31c>
   1bb90:	4585                	li	a1,1
   1bb92:	15be                	slli	a1,a1,0x2f
   1bb94:	4501                	li	a0,0
   1bb96:	4401                	li	s0,0
   1bb98:	1846                	slli	a6,a6,0x31
   1bb9a:	03185813          	srli	a6,a6,0x31
   1bb9e:	043e                	slli	s0,s0,0xf
   1bba0:	05c2                	slli	a1,a1,0x10
   1bba2:	00886833          	or	a6,a6,s0
   1bba6:	1842                	slli	a6,a6,0x30
   1bba8:	81c1                	srli	a1,a1,0x10
   1bbaa:	0105e5b3          	or	a1,a1,a6
  FP_HANDLE_EXCEPTIONS;
   1bbae:	c399                	beqz	a5,1bbb4 <__subtf3+0x338>
   1bbb0:	0017a073          	csrs	fflags,a5

  return r;
}
   1bbb4:	70a2                	ld	ra,40(sp)
   1bbb6:	7402                	ld	s0,32(sp)
   1bbb8:	64e2                	ld	s1,24(sp)
   1bbba:	6942                	ld	s2,16(sp)
   1bbbc:	69a2                	ld	s3,8(sp)
   1bbbe:	6a02                	ld	s4,0(sp)
   1bbc0:	6145                	addi	sp,sp,48
   1bbc2:	8082                	ret
  FP_SUB_Q (R, A, B);
   1bbc4:	02680063          	beq	a6,t1,1bbe4 <__subtf3+0x368>
   1bbc8:	962a                	add	a2,a2,a0
   1bbca:	96ae                	add	a3,a3,a1
   1bbcc:	00a635b3          	sltu	a1,a2,a0
   1bbd0:	96ae                	add	a3,a3,a1
   1bbd2:	03f69593          	slli	a1,a3,0x3f
   1bbd6:	8205                	srli	a2,a2,0x1
   1bbd8:	00c5e533          	or	a0,a1,a2
   1bbdc:	0016d593          	srli	a1,a3,0x1
   1bbe0:	4781                	li	a5,0
   1bbe2:	bf19                	j	1baf8 <__subtf3+0x27c>
   1bbe4:	c489                	beqz	s1,1bbee <__subtf3+0x372>
   1bbe6:	468d                	li	a3,3
   1bbe8:	00d49763          	bne	s1,a3,1bbf6 <__subtf3+0x37a>
   1bbec:	e809                	bnez	s0,1bbfe <__subtf3+0x382>
   1bbee:	4581                	li	a1,0
   1bbf0:	4501                	li	a0,0
   1bbf2:	4795                	li	a5,5
   1bbf4:	b79d                	j	1bb5a <__subtf3+0x2de>
   1bbf6:	4689                	li	a3,2
   1bbf8:	00d49363          	bne	s1,a3,1bbfe <__subtf3+0x382>
   1bbfc:	f86d                	bnez	s0,1bbee <__subtf3+0x372>
   1bbfe:	55fd                	li	a1,-1
   1bc00:	557d                	li	a0,-1
   1bc02:	883e                	mv	a6,a5
   1bc04:	4795                	li	a5,5
  FP_PACK_SEMIRAW_Q (r, R);
   1bc06:	4689                	li	a3,2
   1bc08:	0017e793          	ori	a5,a5,1
   1bc0c:	42d48963          	beq	s1,a3,1c03e <__subtf3+0x7c2>
   1bc10:	468d                	li	a3,3
   1bc12:	40d48d63          	beq	s1,a3,1c02c <__subtf3+0x7b0>
   1bc16:	e881                	bnez	s1,1bc26 <__subtf3+0x3aa>
   1bc18:	00f57693          	andi	a3,a0,15
   1bc1c:	4611                	li	a2,4
   1bc1e:	00450893          	addi	a7,a0,4
   1bc22:	40c69963          	bne	a3,a2,1c034 <__subtf3+0x7b8>
   1bc26:	db15                	beqz	a4,1bb5a <__subtf3+0x2de>
   1bc28:	0027e793          	ori	a5,a5,2
   1bc2c:	b73d                	j	1bb5a <__subtf3+0x2de>
  FP_SUB_Q (R, A, B);
   1bc2e:	d0e1                	beqz	s1,1bbee <__subtf3+0x372>
   1bc30:	470d                	li	a4,3
   1bc32:	00e49963          	bne	s1,a4,1bc44 <__subtf3+0x3c8>
   1bc36:	dc45                	beqz	s0,1bbee <__subtf3+0x372>
   1bc38:	55fd                	li	a1,-1
   1bc3a:	557d                	li	a0,-1
   1bc3c:	ffe78813          	addi	a6,a5,-2
  FP_PACK_SEMIRAW_Q (r, R);
   1bc40:	4701                	li	a4,0
   1bc42:	b7c9                	j	1bc04 <__subtf3+0x388>
  FP_SUB_Q (R, A, B);
   1bc44:	4709                	li	a4,2
   1bc46:	fee499e3          	bne	s1,a4,1bc38 <__subtf3+0x3bc>
   1bc4a:	f055                	bnez	s0,1bbee <__subtf3+0x372>
   1bc4c:	b7f5                	j	1bc38 <__subtf3+0x3bc>
   1bc4e:	0ce05063          	blez	a4,1bd0e <__subtf3+0x492>
   1bc52:	060e1e63          	bnez	t3,1bcce <__subtf3+0x452>
   1bc56:	00c6e733          	or	a4,a3,a2
   1bc5a:	ca0701e3          	beqz	a4,1b8fc <__subtf3+0x80>
   1bc5e:	fff7871b          	addiw	a4,a5,-1
   1bc62:	e315                	bnez	a4,1bc86 <__subtf3+0x40a>
   1bc64:	40c50633          	sub	a2,a0,a2
   1bc68:	8d95                	sub	a1,a1,a3
   1bc6a:	00c53533          	sltu	a0,a0,a2
   1bc6e:	8d89                	sub	a1,a1,a0
   1bc70:	8532                	mv	a0,a2
   1bc72:	00c59793          	slli	a5,a1,0xc
   1bc76:	3407d263          	bgez	a5,1bfba <__subtf3+0x73e>
   1bc7a:	00d59913          	slli	s2,a1,0xd
   1bc7e:	00d95913          	srli	s2,s2,0xd
   1bc82:	8a2a                	mv	s4,a0
   1bc84:	acb5                	j	1bf00 <__subtf3+0x684>
   1bc86:	cc688ee3          	beq	a7,t1,1b962 <__subtf3+0xe6>
   1bc8a:	07400793          	li	a5,116
   1bc8e:	06e7cc63          	blt	a5,a4,1bd06 <__subtf3+0x48a>
   1bc92:	03f00793          	li	a5,63
   1bc96:	04e7c263          	blt	a5,a4,1bcda <__subtf3+0x45e>
   1bc9a:	04000813          	li	a6,64
   1bc9e:	40e8083b          	subw	a6,a6,a4
   1bca2:	00e658b3          	srl	a7,a2,a4
   1bca6:	010697b3          	sll	a5,a3,a6
   1bcaa:	01061633          	sll	a2,a2,a6
   1bcae:	0117e7b3          	or	a5,a5,a7
   1bcb2:	00c03633          	snez	a2,a2
   1bcb6:	8e5d                	or	a2,a2,a5
   1bcb8:	00e6d733          	srl	a4,a3,a4
   1bcbc:	40c50633          	sub	a2,a0,a2
   1bcc0:	40e58733          	sub	a4,a1,a4
   1bcc4:	00c535b3          	sltu	a1,a0,a2
   1bcc8:	40b705b3          	sub	a1,a4,a1
   1bccc:	b755                	j	1bc70 <__subtf3+0x3f4>
   1bcce:	c8688ae3          	beq	a7,t1,1b962 <__subtf3+0xe6>
   1bcd2:	4785                	li	a5,1
   1bcd4:	17ce                	slli	a5,a5,0x33
   1bcd6:	8edd                	or	a3,a3,a5
   1bcd8:	bf4d                	j	1bc8a <__subtf3+0x40e>
   1bcda:	fc07079b          	addiw	a5,a4,-64
   1bcde:	04000893          	li	a7,64
   1bce2:	00f6d7b3          	srl	a5,a3,a5
   1bce6:	4801                	li	a6,0
   1bce8:	01170863          	beq	a4,a7,1bcf8 <__subtf3+0x47c>
   1bcec:	08000813          	li	a6,128
   1bcf0:	40e8073b          	subw	a4,a6,a4
   1bcf4:	00e69833          	sll	a6,a3,a4
   1bcf8:	00c86633          	or	a2,a6,a2
   1bcfc:	00c03633          	snez	a2,a2
   1bd00:	8e5d                	or	a2,a2,a5
   1bd02:	4701                	li	a4,0
   1bd04:	bf65                	j	1bcbc <__subtf3+0x440>
   1bd06:	8e55                	or	a2,a2,a3
   1bd08:	00c03633          	snez	a2,a2
   1bd0c:	bfdd                	j	1bd02 <__subtf3+0x486>
   1bd0e:	c769                	beqz	a4,1bdd8 <__subtf3+0x55c>
   1bd10:	08089263          	bnez	a7,1bd94 <__subtf3+0x518>
   1bd14:	00a5e8b3          	or	a7,a1,a0
   1bd18:	00089e63          	bnez	a7,1bd34 <__subtf3+0x4b8>
   1bd1c:	2a6e1763          	bne	t3,t1,1bfca <__subtf3+0x74e>
   1bd20:	00c6e533          	or	a0,a3,a2
   1bd24:	2e050563          	beqz	a0,1c00e <__subtf3+0x792>
   1bd28:	00d69793          	slli	a5,a3,0xd
   1bd2c:	85b6                	mv	a1,a3
  FP_UNPACK_SEMIRAW_Q (B, b);
   1bd2e:	8532                	mv	a0,a2
  FP_SUB_Q (R, A, B);
   1bd30:	8476                	mv	s0,t4
   1bd32:	b9f9                	j	1ba10 <__subtf3+0x194>
   1bd34:	58fd                	li	a7,-1
   1bd36:	01171c63          	bne	a4,a7,1bd4e <__subtf3+0x4d2>
   1bd3a:	40a60533          	sub	a0,a2,a0
   1bd3e:	40b685b3          	sub	a1,a3,a1
   1bd42:	00a63633          	sltu	a2,a2,a0
   1bd46:	8d91                	sub	a1,a1,a2
  FP_UNPACK_SEMIRAW_Q (B, b);
   1bd48:	89f2                	mv	s3,t3
   1bd4a:	8476                	mv	s0,t4
   1bd4c:	b71d                	j	1bc72 <__subtf3+0x3f6>
  FP_SUB_Q (R, A, B);
   1bd4e:	fc6e09e3          	beq	t3,t1,1bd20 <__subtf3+0x4a4>
   1bd52:	fff7c713          	not	a4,a5
   1bd56:	2701                	sext.w	a4,a4
   1bd58:	07400793          	li	a5,116
   1bd5c:	06e7ca63          	blt	a5,a4,1bdd0 <__subtf3+0x554>
   1bd60:	03f00793          	li	a5,63
   1bd64:	04e7c063          	blt	a5,a4,1bda4 <__subtf3+0x528>
   1bd68:	04000813          	li	a6,64
   1bd6c:	40e8083b          	subw	a6,a6,a4
   1bd70:	00e558b3          	srl	a7,a0,a4
   1bd74:	010597b3          	sll	a5,a1,a6
   1bd78:	01051533          	sll	a0,a0,a6
   1bd7c:	0117e7b3          	or	a5,a5,a7
   1bd80:	00a03533          	snez	a0,a0
   1bd84:	8d5d                	or	a0,a0,a5
   1bd86:	00e5d733          	srl	a4,a1,a4
   1bd8a:	40a60533          	sub	a0,a2,a0
   1bd8e:	40e685b3          	sub	a1,a3,a4
   1bd92:	bf45                	j	1bd42 <__subtf3+0x4c6>
   1bd94:	f86e06e3          	beq	t3,t1,1bd20 <__subtf3+0x4a4>
   1bd98:	40f0073b          	negw	a4,a5
   1bd9c:	4785                	li	a5,1
   1bd9e:	17ce                	slli	a5,a5,0x33
   1bda0:	8ddd                	or	a1,a1,a5
   1bda2:	bf5d                	j	1bd58 <__subtf3+0x4dc>
   1bda4:	fc07079b          	addiw	a5,a4,-64
   1bda8:	04000893          	li	a7,64
   1bdac:	00f5d7b3          	srl	a5,a1,a5
   1bdb0:	4801                	li	a6,0
   1bdb2:	01170863          	beq	a4,a7,1bdc2 <__subtf3+0x546>
   1bdb6:	08000813          	li	a6,128
   1bdba:	40e8073b          	subw	a4,a6,a4
   1bdbe:	00e59833          	sll	a6,a1,a4
   1bdc2:	00a86533          	or	a0,a6,a0
   1bdc6:	00a03533          	snez	a0,a0
   1bdca:	8d5d                	or	a0,a0,a5
   1bdcc:	4701                	li	a4,0
   1bdce:	bf75                	j	1bd8a <__subtf3+0x50e>
   1bdd0:	8d4d                	or	a0,a0,a1
   1bdd2:	00a03533          	snez	a0,a0
   1bdd6:	bfdd                	j	1bdcc <__subtf3+0x550>
   1bdd8:	00188813          	addi	a6,a7,1
   1bddc:	ffef0793          	addi	a5,t5,-2
   1bde0:	00f877b3          	and	a5,a6,a5
   1bde4:	ebed                	bnez	a5,1bed6 <__subtf3+0x65a>
   1bde6:	00a5ef33          	or	t5,a1,a0
   1bdea:	00c6e833          	or	a6,a3,a2
   1bdee:	0a089163          	bnez	a7,1be90 <__subtf3+0x614>
   1bdf2:	040f1e63          	bnez	t5,1be4e <__subtf3+0x5d2>
   1bdf6:	1e081263          	bnez	a6,1bfda <__subtf3+0x75e>
   1bdfa:	ffe48413          	addi	s0,s1,-2
   1bdfe:	00143413          	seqz	s0,s0
   1be02:	4581                	li	a1,0
   1be04:	4501                	li	a0,0
  FP_PACK_SEMIRAW_Q (r, R);
   1be06:	00b567b3          	or	a5,a0,a1
   1be0a:	20078d63          	beqz	a5,1c024 <__subtf3+0x7a8>
   1be0e:	00151693          	slli	a3,a0,0x1
   1be12:	03f55793          	srli	a5,a0,0x3f
   1be16:	00159713          	slli	a4,a1,0x1
   1be1a:	0076f613          	andi	a2,a3,7
   1be1e:	973e                	add	a4,a4,a5
   1be20:	4781                	li	a5,0
   1be22:	c205                	beqz	a2,1be42 <__subtf3+0x5c6>
   1be24:	4789                	li	a5,2
   1be26:	1cf48963          	beq	s1,a5,1bff8 <__subtf3+0x77c>
   1be2a:	478d                	li	a5,3
   1be2c:	1af48d63          	beq	s1,a5,1bfe6 <__subtf3+0x76a>
   1be30:	4785                	li	a5,1
   1be32:	e881                	bnez	s1,1be42 <__subtf3+0x5c6>
   1be34:	00f6f613          	andi	a2,a3,15
   1be38:	4811                	li	a6,4
   1be3a:	ffc6b693          	sltiu	a3,a3,-4
   1be3e:	1b061963          	bne	a2,a6,1bff0 <__subtf3+0x774>
   1be42:	9351                	srli	a4,a4,0x34
   1be44:	00174713          	xori	a4,a4,1
   1be48:	8b05                	andi	a4,a4,1
   1be4a:	4801                	li	a6,0
   1be4c:	b175                	j	1baf8 <__subtf3+0x27c>
  FP_SUB_Q (R, A, B);
   1be4e:	fa080ce3          	beqz	a6,1be06 <__subtf3+0x58a>
   1be52:	40c50733          	sub	a4,a0,a2
   1be56:	00e53833          	sltu	a6,a0,a4
   1be5a:	40d587b3          	sub	a5,a1,a3
   1be5e:	410787b3          	sub	a5,a5,a6
   1be62:	00c79813          	slli	a6,a5,0xc
   1be66:	00085b63          	bgez	a6,1be7c <__subtf3+0x600>
   1be6a:	40a60533          	sub	a0,a2,a0
   1be6e:	40b685b3          	sub	a1,a3,a1
   1be72:	00a63633          	sltu	a2,a2,a0
   1be76:	8d91                	sub	a1,a1,a2
   1be78:	8476                	mv	s0,t4
   1be7a:	b771                	j	1be06 <__subtf3+0x58a>
   1be7c:	00f76533          	or	a0,a4,a5
   1be80:	16051063          	bnez	a0,1bfe0 <__subtf3+0x764>
   1be84:	ffe48413          	addi	s0,s1,-2
   1be88:	00143413          	seqz	s0,s0
   1be8c:	4581                	li	a1,0
   1be8e:	bfa5                	j	1be06 <__subtf3+0x58a>
   1be90:	02689b63          	bne	a7,t1,1bec6 <__subtf3+0x64a>
   1be94:	1c0f0a63          	beqz	t5,1c068 <__subtf3+0x7ec>
   1be98:	0325d793          	srli	a5,a1,0x32
   1be9c:	8b85                	andi	a5,a5,1
  FP_DECL_EX;
   1be9e:	0017b793          	seqz	a5,a5
   1bea2:	0792                	slli	a5,a5,0x4
  FP_SUB_Q (R, A, B);
   1bea4:	031e1663          	bne	t3,a7,1bed0 <__subtf3+0x654>
   1bea8:	00080763          	beqz	a6,1beb6 <__subtf3+0x63a>
   1beac:	00d69893          	slli	a7,a3,0xd
   1beb0:	0008c363          	bltz	a7,1beb6 <__subtf3+0x63a>
   1beb4:	47c1                	li	a5,16
   1beb6:	000f1d63          	bnez	t5,1bed0 <__subtf3+0x654>
   1beba:	14080d63          	beqz	a6,1c014 <__subtf3+0x798>
  FP_UNPACK_SEMIRAW_Q (B, b);
   1bebe:	85b6                	mv	a1,a3
   1bec0:	8532                	mv	a0,a2
  FP_SUB_Q (R, A, B);
   1bec2:	8476                	mv	s0,t4
   1bec4:	b99d                	j	1bb3a <__subtf3+0x2be>
  FP_DECL_EX;
   1bec6:	4781                	li	a5,0
  FP_SUB_Q (R, A, B);
   1bec8:	fe6e17e3          	bne	t3,t1,1beb6 <__subtf3+0x63a>
  FP_DECL_EX;
   1becc:	4781                	li	a5,0
   1bece:	bfe9                	j	1bea8 <__subtf3+0x62c>
  FP_SUB_Q (R, A, B);
   1bed0:	c60805e3          	beqz	a6,1bb3a <__subtf3+0x2be>
   1bed4:	b9ad                	j	1bb4e <__subtf3+0x2d2>
   1bed6:	40c50a33          	sub	s4,a0,a2
   1beda:	40d58933          	sub	s2,a1,a3
   1bede:	01453733          	sltu	a4,a0,s4
   1bee2:	40e90933          	sub	s2,s2,a4
   1bee6:	00c91793          	slli	a5,s2,0xc
   1beea:	0607dd63          	bgez	a5,1bf64 <__subtf3+0x6e8>
   1beee:	40a60a33          	sub	s4,a2,a0
   1bef2:	40b685b3          	sub	a1,a3,a1
   1bef6:	01463633          	sltu	a2,a2,s4
   1befa:	40c58933          	sub	s2,a1,a2
   1befe:	8476                	mv	s0,t4
   1bf00:	06090663          	beqz	s2,1bf6c <__subtf3+0x6f0>
   1bf04:	854a                	mv	a0,s2
   1bf06:	556000ef          	jal	ra,1c45c <__clzdi2>
   1bf0a:	2501                	sext.w	a0,a0
   1bf0c:	ff45071b          	addiw	a4,a0,-12
   1bf10:	03f00693          	li	a3,63
   1bf14:	87ba                	mv	a5,a4
   1bf16:	06e6c163          	blt	a3,a4,1bf78 <__subtf3+0x6fc>
   1bf1a:	04000593          	li	a1,64
   1bf1e:	9d99                	subw	a1,a1,a4
   1bf20:	00e91933          	sll	s2,s2,a4
   1bf24:	00ba55b3          	srl	a1,s4,a1
   1bf28:	0125e5b3          	or	a1,a1,s2
   1bf2c:	00ea1533          	sll	a0,s4,a4
   1bf30:	07374f63          	blt	a4,s3,1bfae <__subtf3+0x732>
   1bf34:	413789bb          	subw	s3,a5,s3
   1bf38:	0019871b          	addiw	a4,s3,1
   1bf3c:	03f00793          	li	a5,63
   1bf40:	04e7c263          	blt	a5,a4,1bf84 <__subtf3+0x708>
   1bf44:	04000793          	li	a5,64
   1bf48:	9f99                	subw	a5,a5,a4
   1bf4a:	00f596b3          	sll	a3,a1,a5
   1bf4e:	00e55633          	srl	a2,a0,a4
   1bf52:	00f51533          	sll	a0,a0,a5
   1bf56:	8ed1                	or	a3,a3,a2
   1bf58:	00a03533          	snez	a0,a0
   1bf5c:	8d55                	or	a0,a0,a3
   1bf5e:	00e5d5b3          	srl	a1,a1,a4
   1bf62:	b555                	j	1be06 <__subtf3+0x58a>
   1bf64:	012a6533          	or	a0,s4,s2
   1bf68:	fd41                	bnez	a0,1bf00 <__subtf3+0x684>
   1bf6a:	bf29                	j	1be84 <__subtf3+0x608>
   1bf6c:	8552                	mv	a0,s4
   1bf6e:	4ee000ef          	jal	ra,1c45c <__clzdi2>
   1bf72:	0405051b          	addiw	a0,a0,64
   1bf76:	bf59                	j	1bf0c <__subtf3+0x690>
   1bf78:	fb45059b          	addiw	a1,a0,-76
   1bf7c:	00ba15b3          	sll	a1,s4,a1
   1bf80:	4501                	li	a0,0
   1bf82:	b77d                	j	1bf30 <__subtf3+0x6b4>
   1bf84:	fc19899b          	addiw	s3,s3,-63
   1bf88:	04000613          	li	a2,64
   1bf8c:	0135d9b3          	srl	s3,a1,s3
   1bf90:	4781                	li	a5,0
   1bf92:	00c70763          	beq	a4,a2,1bfa0 <__subtf3+0x724>
   1bf96:	08000793          	li	a5,128
   1bf9a:	9f99                	subw	a5,a5,a4
   1bf9c:	00f597b3          	sll	a5,a1,a5
   1bfa0:	00f565b3          	or	a1,a0,a5
   1bfa4:	00b035b3          	snez	a1,a1
   1bfa8:	00b9e533          	or	a0,s3,a1
   1bfac:	b5c5                	j	1be8c <__subtf3+0x610>
   1bfae:	57fd                	li	a5,-1
   1bfb0:	17ce                	slli	a5,a5,0x33
   1bfb2:	17fd                	addi	a5,a5,-1
   1bfb4:	40e989b3          	sub	s3,s3,a4
   1bfb8:	8dfd                	and	a1,a1,a5
  FP_PACK_SEMIRAW_Q (r, R);
   1bfba:	e40986e3          	beqz	s3,1be06 <__subtf3+0x58a>
   1bfbe:	884e                	mv	a6,s3
   1bfc0:	ba69                	j	1b95a <__subtf3+0xde>
  FP_UNPACK_SEMIRAW_Q (B, b);
   1bfc2:	85b6                	mv	a1,a3
   1bfc4:	8532                	mv	a0,a2
   1bfc6:	89f2                	mv	s3,t3
   1bfc8:	bfcd                	j	1bfba <__subtf3+0x73e>
   1bfca:	85b6                	mv	a1,a3
   1bfcc:	8532                	mv	a0,a2
   1bfce:	89f2                	mv	s3,t3
   1bfd0:	8476                	mv	s0,t4
   1bfd2:	b7e5                	j	1bfba <__subtf3+0x73e>
   1bfd4:	85b6                	mv	a1,a3
  FP_SUB_Q (R, A, B);
   1bfd6:	8532                	mv	a0,a2
   1bfd8:	b53d                	j	1be06 <__subtf3+0x58a>
  FP_UNPACK_SEMIRAW_Q (B, b);
   1bfda:	85b6                	mv	a1,a3
   1bfdc:	8532                	mv	a0,a2
   1bfde:	bd69                	j	1be78 <__subtf3+0x5fc>
   1bfe0:	85be                	mv	a1,a5
  FP_SUB_Q (R, A, B);
   1bfe2:	853a                	mv	a0,a4
   1bfe4:	b50d                	j	1be06 <__subtf3+0x58a>
  FP_PACK_SEMIRAW_Q (r, R);
   1bfe6:	4785                	li	a5,1
   1bfe8:	e4041de3          	bnez	s0,1be42 <__subtf3+0x5c6>
   1bfec:	ff86b693          	sltiu	a3,a3,-8
   1bff0:	0016c693          	xori	a3,a3,1
   1bff4:	9736                	add	a4,a4,a3
   1bff6:	b5b1                	j	1be42 <__subtf3+0x5c6>
   1bff8:	4785                	li	a5,1
   1bffa:	e40404e3          	beqz	s0,1be42 <__subtf3+0x5c6>
   1bffe:	b7fd                	j	1bfec <__subtf3+0x770>
   1c000:	4581                	li	a1,0
   1c002:	4781                	li	a5,0
   1c004:	be99                	j	1bb5a <__subtf3+0x2de>
   1c006:	4581                	li	a1,0
   1c008:	4501                	li	a0,0
  FP_SUB_Q (R, A, B);
   1c00a:	8846                	mv	a6,a7
   1c00c:	bfdd                	j	1c002 <__subtf3+0x786>
   1c00e:	4581                	li	a1,0
   1c010:	8476                	mv	s0,t4
   1c012:	bfc5                	j	1c002 <__subtf3+0x786>
   1c014:	4585                	li	a1,1
   1c016:	6821                	lui	a6,0x8
   1c018:	4501                	li	a0,0
   1c01a:	4401                	li	s0,0
   1c01c:	15ca                	slli	a1,a1,0x32
   1c01e:	187d                	addi	a6,a6,-1
   1c020:	47c1                	li	a5,16
   1c022:	be25                	j	1bb5a <__subtf3+0x2de>
   1c024:	4581                	li	a1,0
   1c026:	4501                	li	a0,0
   1c028:	4801                	li	a6,0
   1c02a:	bfe1                	j	1c002 <__subtf3+0x786>
  FP_PACK_SEMIRAW_Q (r, R);
   1c02c:	be041de3          	bnez	s0,1bc26 <__subtf3+0x3aa>
   1c030:	00850893          	addi	a7,a0,8
   1c034:	00a8b533          	sltu	a0,a7,a0
   1c038:	95aa                	add	a1,a1,a0
   1c03a:	8546                	mv	a0,a7
   1c03c:	b6ed                	j	1bc26 <__subtf3+0x3aa>
   1c03e:	be0404e3          	beqz	s0,1bc26 <__subtf3+0x3aa>
   1c042:	b7fd                	j	1c030 <__subtf3+0x7b4>
   1c044:	4501                	li	a0,0
   1c046:	cc89                	beqz	s1,1c060 <__subtf3+0x7e4>
   1c048:	468d                	li	a3,3
   1c04a:	00d49763          	bne	s1,a3,1c058 <__subtf3+0x7dc>
   1c04e:	c809                	beqz	s0,1c060 <__subtf3+0x7e4>
   1c050:	557d                	li	a0,-1
   1c052:	ffe70813          	addi	a6,a4,-2 # 7ffe <main-0x80b2>
   1c056:	a029                	j	1c060 <__subtf3+0x7e4>
   1c058:	4689                	li	a3,2
   1c05a:	fed49be3          	bne	s1,a3,1c050 <__subtf3+0x7d4>
   1c05e:	d86d                	beqz	s0,1c050 <__subtf3+0x7d4>
   1c060:	0057e793          	ori	a5,a5,5
   1c064:	85aa                	mv	a1,a0
   1c066:	be01                	j	1bb76 <__subtf3+0x2fa>
  FP_DECL_EX;
   1c068:	4781                	li	a5,0
  FP_SUB_Q (R, A, B);
   1c06a:	e51e18e3          	bne	t3,a7,1beba <__subtf3+0x63e>
   1c06e:	bdb9                	j	1becc <__subtf3+0x650>
   1c070:	4781                	li	a5,0
   1c072:	ad1e12e3          	bne	t3,a7,1bb36 <__subtf3+0x2ba>
   1c076:	bcc1                	j	1bb46 <__subtf3+0x2ca>

000000000001c078 <__fixtfsi>:
#include "soft-fp.h"
#include "quad.h"

SItype
__fixtfsi (TFtype a)
{
   1c078:	882a                	mv	a6,a0
  FP_DECL_EX;
  FP_DECL_Q (A);
  USItype r;

  FP_INIT_EXCEPTIONS;
   1c07a:	002027f3          	frrm	a5
  FP_UNPACK_RAW_Q (A, a);
  FP_TO_INT_Q (r, A, SI_BITS, 1);
   1c07e:	6611                	lui	a2,0x4
  FP_UNPACK_RAW_Q (A, a);
   1c080:	00159693          	slli	a3,a1,0x1
   1c084:	01059793          	slli	a5,a1,0x10
   1c088:	92c5                	srli	a3,a3,0x31
  FP_TO_INT_Q (r, A, SI_BITS, 1);
   1c08a:	ffe60713          	addi	a4,a2,-2 # 3ffe <main-0xc0b2>
  FP_UNPACK_RAW_Q (A, a);
   1c08e:	83c1                	srli	a5,a5,0x10
   1c090:	91fd                	srli	a1,a1,0x3f
  FP_TO_INT_Q (r, A, SI_BITS, 1);
   1c092:	00d74763          	blt	a4,a3,1c0a0 <__fixtfsi+0x28>
   1c096:	e6b5                	bnez	a3,1c102 <__fixtfsi+0x8a>
   1c098:	8fc9                	or	a5,a5,a0
   1c09a:	4501                	li	a0,0
   1c09c:	e3ad                	bnez	a5,1c0fe <__fixtfsi+0x86>
   1c09e:	8082                	ret
   1c0a0:	01d60713          	addi	a4,a2,29
   1c0a4:	02d75663          	bge	a4,a3,1c0d0 <__fixtfsi+0x58>
   1c0a8:	80000737          	lui	a4,0x80000
   1c0ac:	fff74713          	not	a4,a4
   1c0b0:	00b7053b          	addw	a0,a4,a1
   1c0b4:	c9a9                	beqz	a1,1c106 <__fixtfsi+0x8e>
   1c0b6:	01e60713          	addi	a4,a2,30
   1c0ba:	4641                	li	a2,16
   1c0bc:	04e69663          	bne	a3,a4,1c108 <__fixtfsi+0x90>
   1c0c0:	0117d713          	srli	a4,a5,0x11
   1c0c4:	e331                	bnez	a4,1c108 <__fixtfsi+0x90>
   1c0c6:	17be                	slli	a5,a5,0x2f
   1c0c8:	0107e7b3          	or	a5,a5,a6
   1c0cc:	eb8d                	bnez	a5,1c0fe <__fixtfsi+0x86>
   1c0ce:	8082                	ret
   1c0d0:	4505                	li	a0,1
   1c0d2:	1542                	slli	a0,a0,0x30
   1c0d4:	8fc9                	or	a5,a5,a0
   1c0d6:	7771                	lui	a4,0xffffc
   1c0d8:	6511                	lui	a0,0x4
   1c0da:	02f5051b          	addiw	a0,a0,47
   1c0de:	2745                	addiw	a4,a4,17
   1c0e0:	9f35                	addw	a4,a4,a3
   1c0e2:	40d506bb          	subw	a3,a0,a3
   1c0e6:	00e79733          	sll	a4,a5,a4
   1c0ea:	00d7d7b3          	srl	a5,a5,a3
   1c0ee:	01076733          	or	a4,a4,a6
   1c0f2:	0007851b          	sext.w	a0,a5
   1c0f6:	c199                	beqz	a1,1c0fc <__fixtfsi+0x84>
   1c0f8:	40a0053b          	negw	a0,a0
  FP_HANDLE_EXCEPTIONS;
   1c0fc:	cb01                	beqz	a4,1c10c <__fixtfsi+0x94>
  FP_TO_INT_Q (r, A, SI_BITS, 1);
   1c0fe:	4605                	li	a2,1
   1c100:	a021                	j	1c108 <__fixtfsi+0x90>
   1c102:	4501                	li	a0,0
   1c104:	bfed                	j	1c0fe <__fixtfsi+0x86>
   1c106:	4641                	li	a2,16
  FP_HANDLE_EXCEPTIONS;
   1c108:	00162073          	csrs	fflags,a2

  return r;
}
   1c10c:	8082                	ret

000000000001c10e <__floatsitf>:
#include "soft-fp.h"
#include "quad.h"

TFtype
__floatsitf (SItype i)
{
   1c10e:	1101                	addi	sp,sp,-32
   1c110:	ec06                	sd	ra,24(sp)
   1c112:	e822                	sd	s0,16(sp)
   1c114:	e426                	sd	s1,8(sp)
  FP_DECL_Q (A);
  TFtype a;

  FP_FROM_INT_Q (A, i, SI_BITS, USItype);
   1c116:	c531                	beqz	a0,1c162 <__floatsitf+0x54>
   1c118:	0005079b          	sext.w	a5,a0
   1c11c:	03f55493          	srli	s1,a0,0x3f
   1c120:	00055463          	bgez	a0,1c128 <__floatsitf+0x1a>
   1c124:	40f007bb          	negw	a5,a5
   1c128:	02079413          	slli	s0,a5,0x20
   1c12c:	9001                	srli	s0,s0,0x20
   1c12e:	8522                	mv	a0,s0
   1c130:	32c000ef          	jal	ra,1c45c <__clzdi2>
   1c134:	6691                	lui	a3,0x4
   1c136:	03e6879b          	addiw	a5,a3,62
   1c13a:	40a7873b          	subw	a4,a5,a0
   1c13e:	02f6879b          	addiw	a5,a3,47
   1c142:	9f99                	subw	a5,a5,a4
   1c144:	00f417b3          	sll	a5,s0,a5
  FP_PACK_RAW_Q (a, A);

  return a;
}
   1c148:	60e2                	ld	ra,24(sp)
   1c14a:	6442                	ld	s0,16(sp)
  FP_PACK_RAW_Q (a, A);
   1c14c:	00f49593          	slli	a1,s1,0xf
   1c150:	07c2                	slli	a5,a5,0x10
   1c152:	8dd9                	or	a1,a1,a4
   1c154:	15c2                	slli	a1,a1,0x30
   1c156:	83c1                	srli	a5,a5,0x10
}
   1c158:	64a2                	ld	s1,8(sp)
   1c15a:	4501                	li	a0,0
   1c15c:	8ddd                	or	a1,a1,a5
   1c15e:	6105                	addi	sp,sp,32
   1c160:	8082                	ret
  FP_FROM_INT_Q (A, i, SI_BITS, USItype);
   1c162:	4781                	li	a5,0
   1c164:	4701                	li	a4,0
   1c166:	4481                	li	s1,0
   1c168:	b7c5                	j	1c148 <__floatsitf+0x3a>

000000000001c16a <__extenddftf2>:
#include "double.h"
#include "quad.h"

TFtype
__extenddftf2 (DFtype a)
{
   1c16a:	1101                	addi	sp,sp,-32
   1c16c:	e20507d3          	fmv.x.d	a5,fa0
   1c170:	ec06                	sd	ra,24(sp)
   1c172:	e822                	sd	s0,16(sp)
   1c174:	e426                	sd	s1,8(sp)
  FP_DECL_EX;
  FP_DECL_D (A);
  FP_DECL_Q (R);
  TFtype r;

  FP_INIT_EXCEPTIONS;
   1c176:	00202773          	frrm	a4
  FP_UNPACK_RAW_D (A, a);
   1c17a:	0347d513          	srli	a0,a5,0x34
   1c17e:	7ff57513          	andi	a0,a0,2047
   1c182:	00c79413          	slli	s0,a5,0xc
   1c186:	03f7d493          	srli	s1,a5,0x3f
#if (2 * _FP_W_TYPE_SIZE) < _FP_FRACBITS_Q
  FP_EXTEND (Q, D, 4, 2, R, A);
#else
  FP_EXTEND (Q, D, 2, 1, R, A);
   1c18a:	00150793          	addi	a5,a0,1 # 4001 <main-0xc0af>
   1c18e:	7fe7f793          	andi	a5,a5,2046
  FP_UNPACK_RAW_D (A, a);
   1c192:	8031                	srli	s0,s0,0xc
  FP_EXTEND (Q, D, 2, 1, R, A);
   1c194:	cb91                	beqz	a5,1c1a8 <__extenddftf2+0x3e>
   1c196:	6791                	lui	a5,0x4
   1c198:	c0078793          	addi	a5,a5,-1024 # 3c00 <main-0xc4b0>
   1c19c:	00445593          	srli	a1,s0,0x4
   1c1a0:	953e                	add	a0,a0,a5
   1c1a2:	1472                	slli	s0,s0,0x3c
  FP_DECL_EX;
   1c1a4:	4781                	li	a5,0
   1c1a6:	a8b9                	j	1c204 <__extenddftf2+0x9a>
  FP_EXTEND (Q, D, 2, 1, R, A);
   1c1a8:	ed1d                	bnez	a0,1c1e6 <__extenddftf2+0x7c>
   1c1aa:	4581                	li	a1,0
   1c1ac:	dc65                	beqz	s0,1c1a4 <__extenddftf2+0x3a>
   1c1ae:	8522                	mv	a0,s0
   1c1b0:	2ac000ef          	jal	ra,1c45c <__clzdi2>
   1c1b4:	0005071b          	sext.w	a4,a0
   1c1b8:	47b9                	li	a5,14
   1c1ba:	02e7c063          	blt	a5,a4,1c1da <__extenddftf2+0x70>
   1c1be:	45bd                	li	a1,15
   1c1c0:	9d89                	subw	a1,a1,a0
   1c1c2:	0315079b          	addiw	a5,a0,49
   1c1c6:	00b455b3          	srl	a1,s0,a1
   1c1ca:	00f41433          	sll	s0,s0,a5
   1c1ce:	6791                	lui	a5,0x4
   1c1d0:	c0c7879b          	addiw	a5,a5,-1012
   1c1d4:	40a7853b          	subw	a0,a5,a0
   1c1d8:	b7f1                	j	1c1a4 <__extenddftf2+0x3a>
   1c1da:	ff15059b          	addiw	a1,a0,-15
   1c1de:	00b415b3          	sll	a1,s0,a1
   1c1e2:	4401                	li	s0,0
   1c1e4:	b7ed                	j	1c1ce <__extenddftf2+0x64>
   1c1e6:	cc15                	beqz	s0,1c222 <__extenddftf2+0xb8>
   1c1e8:	4705                	li	a4,1
   1c1ea:	03371793          	slli	a5,a4,0x33
   1c1ee:	8fe1                	and	a5,a5,s0
   1c1f0:	00445593          	srli	a1,s0,0x4
   1c1f4:	0017b793          	seqz	a5,a5
   1c1f8:	173e                	slli	a4,a4,0x2f
   1c1fa:	6521                	lui	a0,0x8
   1c1fc:	0792                	slli	a5,a5,0x4
   1c1fe:	8dd9                	or	a1,a1,a4
   1c200:	1472                	slli	s0,s0,0x3c
   1c202:	157d                	addi	a0,a0,-1
#endif
  FP_PACK_RAW_Q (r, R);
   1c204:	04be                	slli	s1,s1,0xf
   1c206:	05c2                	slli	a1,a1,0x10
   1c208:	8d45                	or	a0,a0,s1
   1c20a:	1542                	slli	a0,a0,0x30
   1c20c:	81c1                	srli	a1,a1,0x10
   1c20e:	8dc9                	or	a1,a1,a0
  FP_HANDLE_EXCEPTIONS;
   1c210:	c399                	beqz	a5,1c216 <__extenddftf2+0xac>
   1c212:	0017a073          	csrs	fflags,a5

  return r;
}
   1c216:	60e2                	ld	ra,24(sp)
   1c218:	8522                	mv	a0,s0
   1c21a:	6442                	ld	s0,16(sp)
   1c21c:	64a2                	ld	s1,8(sp)
   1c21e:	6105                	addi	sp,sp,32
   1c220:	8082                	ret
  FP_EXTEND (Q, D, 2, 1, R, A);
   1c222:	6521                	lui	a0,0x8
   1c224:	4581                	li	a1,0
   1c226:	157d                	addi	a0,a0,-1
   1c228:	bfb5                	j	1c1a4 <__extenddftf2+0x3a>

000000000001c22a <__trunctfdf2>:
  FP_DECL_EX;
  FP_DECL_Q (A);
  FP_DECL_D (R);
  DFtype r;

  FP_INIT_ROUNDMODE;
   1c22a:	00202873          	frrm	a6
  FP_UNPACK_SEMIRAW_Q (A, a);
   1c22e:	68a1                	lui	a7,0x8
   1c230:	fff88e13          	addi	t3,a7,-1 # 7fff <main-0x80b1>
   1c234:	01059713          	slli	a4,a1,0x10
   1c238:	0305d613          	srli	a2,a1,0x30
   1c23c:	00d75793          	srli	a5,a4,0xd
   1c240:	01c67633          	and	a2,a2,t3
   1c244:	03d55713          	srli	a4,a0,0x3d
   1c248:	8f5d                	or	a4,a4,a5
#if (2 * _FP_W_TYPE_SIZE) < _FP_FRACBITS_Q
  FP_TRUNC (D, Q, 2, 4, R, A);
#else
  FP_TRUNC (D, Q, 1, 2, R, A);
   1c24a:	18f9                	addi	a7,a7,-2
   1c24c:	00160793          	addi	a5,a2,1
   1c250:	0117f8b3          	and	a7,a5,a7
  FP_INIT_ROUNDMODE;
   1c254:	2801                	sext.w	a6,a6
  FP_UNPACK_SEMIRAW_Q (A, a);
   1c256:	03f5d693          	srli	a3,a1,0x3f
   1c25a:	00351e93          	slli	t4,a0,0x3
  FP_TRUNC (D, Q, 1, 2, R, A);
   1c25e:	16088f63          	beqz	a7,1c3dc <__trunctfdf2+0x1b2>
   1c262:	78f1                	lui	a7,0xffffc
   1c264:	40088893          	addi	a7,a7,1024 # ffffffffffffc400 <__BSS_END__+0xfffffffffffdcf50>
   1c268:	9646                	add	a2,a2,a7
   1c26a:	7fe00793          	li	a5,2046
   1c26e:	08c7de63          	bge	a5,a2,1c30a <__trunctfdf2+0xe0>
   1c272:	04080363          	beqz	a6,1c2b8 <__trunctfdf2+0x8e>
   1c276:	478d                	li	a5,3
   1c278:	02f81c63          	bne	a6,a5,1c2b0 <__trunctfdf2+0x86>
   1c27c:	ce95                	beqz	a3,1c2b8 <__trunctfdf2+0x8e>
   1c27e:	57fd                	li	a5,-1
   1c280:	7fe00613          	li	a2,2046
#endif
  FP_PACK_SEMIRAW_D (r, R);
   1c284:	4701                	li	a4,0
  FP_TRUNC (D, Q, 1, 2, R, A);
   1c286:	4315                	li	t1,5
  FP_PACK_SEMIRAW_D (r, R);
   1c288:	4589                	li	a1,2
   1c28a:	00136313          	ori	t1,t1,1
   1c28e:	1ab80263          	beq	a6,a1,1c432 <__trunctfdf2+0x208>
   1c292:	458d                	li	a1,3
   1c294:	18b80b63          	beq	a6,a1,1c42a <__trunctfdf2+0x200>
   1c298:	00081863          	bnez	a6,1c2a8 <__trunctfdf2+0x7e>
   1c29c:	00f7f513          	andi	a0,a5,15
   1c2a0:	4591                	li	a1,4
   1c2a2:	00b50363          	beq	a0,a1,1c2a8 <__trunctfdf2+0x7e>
   1c2a6:	0791                	addi	a5,a5,4
   1c2a8:	cf01                	beqz	a4,1c2c0 <__trunctfdf2+0x96>
   1c2aa:	00236313          	ori	t1,t1,2
   1c2ae:	a809                	j	1c2c0 <__trunctfdf2+0x96>
  FP_TRUNC (D, Q, 1, 2, R, A);
   1c2b0:	4789                	li	a5,2
   1c2b2:	fcf816e3          	bne	a6,a5,1c27e <__trunctfdf2+0x54>
   1c2b6:	d6e1                	beqz	a3,1c27e <__trunctfdf2+0x54>
   1c2b8:	4781                	li	a5,0
   1c2ba:	7ff00613          	li	a2,2047
   1c2be:	4315                	li	t1,5
  FP_PACK_SEMIRAW_D (r, R);
   1c2c0:	00879713          	slli	a4,a5,0x8
   1c2c4:	00075b63          	bgez	a4,1c2da <__trunctfdf2+0xb0>
   1c2c8:	0605                	addi	a2,a2,1
   1c2ca:	7ff00713          	li	a4,2047
   1c2ce:	16e60563          	beq	a2,a4,1c438 <__trunctfdf2+0x20e>
   1c2d2:	557d                	li	a0,-1
   1c2d4:	155e                	slli	a0,a0,0x37
   1c2d6:	157d                	addi	a0,a0,-1
   1c2d8:	8fe9                	and	a5,a5,a0
   1c2da:	7ff00713          	li	a4,2047
   1c2de:	838d                	srli	a5,a5,0x3
   1c2e0:	00e61663          	bne	a2,a4,1c2ec <__trunctfdf2+0xc2>
   1c2e4:	c781                	beqz	a5,1c2ec <__trunctfdf2+0xc2>
   1c2e6:	4785                	li	a5,1
   1c2e8:	17ce                	slli	a5,a5,0x33
   1c2ea:	4681                	li	a3,0
   1c2ec:	7ff67713          	andi	a4,a2,2047
   1c2f0:	07b2                	slli	a5,a5,0xc
   1c2f2:	1752                	slli	a4,a4,0x34
   1c2f4:	83b1                	srli	a5,a5,0xc
   1c2f6:	8fd9                	or	a5,a5,a4
   1c2f8:	16fe                	slli	a3,a3,0x3f
   1c2fa:	8fd5                	or	a5,a5,a3
  FP_HANDLE_EXCEPTIONS;
   1c2fc:	00030463          	beqz	t1,1c304 <__trunctfdf2+0xda>
   1c300:	00132073          	csrs	fflags,t1

  return r;
}
   1c304:	f2078553          	fmv.d.x	fa0,a5
   1c308:	8082                	ret
  FP_TRUNC (D, Q, 1, 2, R, A);
   1c30a:	0ac04563          	bgtz	a2,1c3b4 <__trunctfdf2+0x18a>
   1c30e:	fcc00793          	li	a5,-52
   1c312:	10f64063          	blt	a2,a5,1c412 <__trunctfdf2+0x1e8>
   1c316:	4785                	li	a5,1
   1c318:	17ce                	slli	a5,a5,0x33
   1c31a:	03d00e13          	li	t3,61
   1c31e:	8f5d                	or	a4,a4,a5
   1c320:	40ce0e33          	sub	t3,t3,a2
   1c324:	03f00793          	li	a5,63
   1c328:	0006089b          	sext.w	a7,a2
   1c32c:	05c7cf63          	blt	a5,t3,1c38a <__trunctfdf2+0x160>
   1c330:	0038859b          	addiw	a1,a7,3
   1c334:	03d00613          	li	a2,61
   1c338:	4116063b          	subw	a2,a2,a7
   1c33c:	00be97b3          	sll	a5,t4,a1
   1c340:	00ced633          	srl	a2,t4,a2
   1c344:	00f037b3          	snez	a5,a5
   1c348:	8fd1                	or	a5,a5,a2
   1c34a:	00b71733          	sll	a4,a4,a1
   1c34e:	8fd9                	or	a5,a5,a4
   1c350:	4601                	li	a2,0
  FP_PACK_SEMIRAW_D (r, R);
   1c352:	cbf1                	beqz	a5,1c426 <__trunctfdf2+0x1fc>
   1c354:	00179713          	slli	a4,a5,0x1
   1c358:	00777613          	andi	a2,a4,7
   1c35c:	4301                	li	t1,0
   1c35e:	c205                	beqz	a2,1c37e <__trunctfdf2+0x154>
   1c360:	4609                	li	a2,2
   1c362:	0ac80d63          	beq	a6,a2,1c41c <__trunctfdf2+0x1f2>
   1c366:	460d                	li	a2,3
   1c368:	4305                	li	t1,1
   1c36a:	0ac80663          	beq	a6,a2,1c416 <__trunctfdf2+0x1ec>
   1c36e:	00081863          	bnez	a6,1c37e <__trunctfdf2+0x154>
   1c372:	00f77613          	andi	a2,a4,15
   1c376:	4591                	li	a1,4
   1c378:	00b60363          	beq	a2,a1,1c37e <__trunctfdf2+0x154>
   1c37c:	0711                	addi	a4,a4,4
   1c37e:	9361                	srli	a4,a4,0x38
   1c380:	00174713          	xori	a4,a4,1
   1c384:	8b05                	andi	a4,a4,1
   1c386:	4601                	li	a2,0
   1c388:	a089                	j	1c3ca <__trunctfdf2+0x1a0>
  FP_TRUNC (D, Q, 1, 2, R, A);
   1c38a:	5375                	li	t1,-3
   1c38c:	4113033b          	subw	t1,t1,a7
   1c390:	04000793          	li	a5,64
   1c394:	00675333          	srl	t1,a4,t1
   1c398:	4581                	li	a1,0
   1c39a:	00fe0663          	beq	t3,a5,1c3a6 <__trunctfdf2+0x17c>
   1c39e:	0438861b          	addiw	a2,a7,67
   1c3a2:	00c715b3          	sll	a1,a4,a2
   1c3a6:	01d5e5b3          	or	a1,a1,t4
   1c3aa:	00b035b3          	snez	a1,a1
   1c3ae:	00b367b3          	or	a5,t1,a1
   1c3b2:	bf79                	j	1c350 <__trunctfdf2+0x126>
   1c3b4:	00751793          	slli	a5,a0,0x7
   1c3b8:	00f037b3          	snez	a5,a5
   1c3bc:	03ced593          	srli	a1,t4,0x3c
   1c3c0:	0712                	slli	a4,a4,0x4
   1c3c2:	8fcd                	or	a5,a5,a1
   1c3c4:	8fd9                	or	a5,a5,a4
  FP_DECL_EX;
   1c3c6:	4301                	li	t1,0
  FP_PACK_SEMIRAW_D (r, R);
   1c3c8:	4701                	li	a4,0
   1c3ca:	0077f593          	andi	a1,a5,7
   1c3ce:	ea059de3          	bnez	a1,1c288 <__trunctfdf2+0x5e>
   1c3d2:	ee0707e3          	beqz	a4,1c2c0 <__trunctfdf2+0x96>
   1c3d6:	00137713          	andi	a4,t1,1
   1c3da:	b5f9                	j	1c2a8 <__trunctfdf2+0x7e>
  FP_TRUNC (D, Q, 1, 2, R, A);
   1c3dc:	01d767b3          	or	a5,a4,t4
   1c3e0:	e601                	bnez	a2,1c3e8 <__trunctfdf2+0x1be>
   1c3e2:	00f037b3          	snez	a5,a5
   1c3e6:	b7ad                	j	1c350 <__trunctfdf2+0x126>
   1c3e8:	cf8d                	beqz	a5,1c422 <__trunctfdf2+0x1f8>
  FP_DECL_EX;
   1c3ea:	4301                	li	t1,0
  FP_TRUNC (D, Q, 1, 2, R, A);
   1c3ec:	01c61763          	bne	a2,t3,1c3fa <__trunctfdf2+0x1d0>
   1c3f0:	03275313          	srli	t1,a4,0x32
  FP_DECL_EX;
   1c3f4:	00133313          	seqz	t1,t1
   1c3f8:	0312                	slli	t1,t1,0x4
  FP_TRUNC (D, Q, 1, 2, R, A);
   1c3fa:	03ced793          	srli	a5,t4,0x3c
   1c3fe:	0712                	slli	a4,a4,0x4
   1c400:	8f5d                	or	a4,a4,a5
   1c402:	4785                	li	a5,1
   1c404:	9b61                	andi	a4,a4,-8
   1c406:	17da                	slli	a5,a5,0x36
   1c408:	8fd9                	or	a5,a5,a4
   1c40a:	7ff00613          	li	a2,2047
  FP_PACK_SEMIRAW_D (r, R);
   1c40e:	4701                	li	a4,0
   1c410:	bf6d                	j	1c3ca <__trunctfdf2+0x1a0>
  FP_TRUNC (D, Q, 1, 2, R, A);
   1c412:	4785                	li	a5,1
   1c414:	b781                	j	1c354 <__trunctfdf2+0x12a>
  FP_PACK_SEMIRAW_D (r, R);
   1c416:	f6a5                	bnez	a3,1c37e <__trunctfdf2+0x154>
   1c418:	0721                	addi	a4,a4,8
   1c41a:	b795                	j	1c37e <__trunctfdf2+0x154>
   1c41c:	4305                	li	t1,1
   1c41e:	d2a5                	beqz	a3,1c37e <__trunctfdf2+0x154>
   1c420:	bfe5                	j	1c418 <__trunctfdf2+0x1ee>
  FP_TRUNC (D, Q, 1, 2, R, A);
   1c422:	7ff00613          	li	a2,2047
   1c426:	4301                	li	t1,0
   1c428:	bd61                	j	1c2c0 <__trunctfdf2+0x96>
  FP_PACK_SEMIRAW_D (r, R);
   1c42a:	e6069fe3          	bnez	a3,1c2a8 <__trunctfdf2+0x7e>
   1c42e:	07a1                	addi	a5,a5,8
   1c430:	bda5                	j	1c2a8 <__trunctfdf2+0x7e>
   1c432:	e6068be3          	beqz	a3,1c2a8 <__trunctfdf2+0x7e>
   1c436:	bfe5                	j	1c42e <__trunctfdf2+0x204>
   1c438:	4781                	li	a5,0
   1c43a:	00080e63          	beqz	a6,1c456 <__trunctfdf2+0x22c>
   1c43e:	470d                	li	a4,3
   1c440:	00e81763          	bne	a6,a4,1c44e <__trunctfdf2+0x224>
   1c444:	ca89                	beqz	a3,1c456 <__trunctfdf2+0x22c>
   1c446:	57fd                	li	a5,-1
   1c448:	7fe00613          	li	a2,2046
   1c44c:	a029                	j	1c456 <__trunctfdf2+0x22c>
   1c44e:	4709                	li	a4,2
   1c450:	fee81be3          	bne	a6,a4,1c446 <__trunctfdf2+0x21c>
   1c454:	daed                	beqz	a3,1c446 <__trunctfdf2+0x21c>
   1c456:	00536313          	ori	t1,t1,5
   1c45a:	b541                	j	1c2da <__trunctfdf2+0xb0>

000000000001c45c <__clzdi2>:
int
__clzSI2 (UWtype x)
{
  Wtype ret;

  count_leading_zeros (ret, x);
   1c45c:	03800793          	li	a5,56
   1c460:	00f55733          	srl	a4,a0,a5
   1c464:	0ff77713          	andi	a4,a4,255
   1c468:	e319                	bnez	a4,1c46e <__clzdi2+0x12>
   1c46a:	17e1                	addi	a5,a5,-8
   1c46c:	fbf5                	bnez	a5,1c460 <__clzdi2+0x4>
   1c46e:	04000713          	li	a4,64
   1c472:	8f1d                	sub	a4,a4,a5
   1c474:	00f55533          	srl	a0,a0,a5
   1c478:	00001797          	auipc	a5,0x1
   1c47c:	cd078793          	addi	a5,a5,-816 # 1d148 <__clz_tab>
   1c480:	953e                	add	a0,a0,a5
   1c482:	00054503          	lbu	a0,0(a0) # 8000 <main-0x80b0>

  return ret;
}
   1c486:	40a7053b          	subw	a0,a4,a0
   1c48a:	8082                	ret
