
RoCC6x6Tester:     file format elf64-littleriscv


Disassembly of section .text:

00000000000100b0 <main>:
        // printf("Array[%d] = %d, Sum is: %d\n", i,array[i], arraysum);
    }
    printf("Arraysum is: %d\n", arraysum);
}

int main () {
   100b0:	7379                	lui	t1,0xffffe
   100b2:	7179                	addi	sp,sp,-48
   100b4:	0c030313          	addi	t1,t1,192 # ffffffffffffe0c0 <__BSS_END__+0xfffffffffffdfdc0>
   100b8:	f406                	sd	ra,40(sp)
   100ba:	f022                	sd	s0,32(sp)
   100bc:	ec26                	sd	s1,24(sp)
   100be:	e84a                	sd	s2,16(sp)
   100c0:	911a                	add	sp,sp,t1

    asm ("nop"); //Marking start of program
   100c2:	0001                	nop

    int array1[ComputeLength];
    // printf("Starting program!\n");

    array_gen(array1);
   100c4:	6909                	lui	s2,0x2
   100c6:	7479                	lui	s0,0xffffe
   100c8:	f5090793          	addi	a5,s2,-176 # 1f50 <main-0xe160>
   100cc:	978a                	add	a5,a5,sp
   100ce:	0b840493          	addi	s1,s0,184 # ffffffffffffe0b8 <__BSS_END__+0xfffffffffffdfdb8>
   100d2:	94be                	add	s1,s1,a5
   100d4:	8526                	mv	a0,s1
   100d6:	208000ef          	jal	ra,102de <array_gen>
    
    int sum = 0;    
   100da:	c202                	sw	zero,4(sp)

    // printf("Addresses: array1: %p, sum has the value: %d with address: %p \n", &array1,sum,&sum);

    asm volatile ("fence");
   100dc:	0ff0000f          	fence

    asm("nop"); //Marking start of configuration
   100e0:	0001                	nop
        config1 = cgra_configuration[k];
   100e2:	67f5                	lui	a5,0x1d
   100e4:	02078793          	addi	a5,a5,32 # 1d020 <__fini_array_end>
        ROCC_INSTRUCTION_SS(0,config1, config2, 0);
   100e8:	6398                	ld	a4,0(a5)
   100ea:	6794                	ld	a3,8(a5)
   100ec:	00d7300b          	0xd7300b
   100f0:	6b98                	ld	a4,16(a5)
   100f2:	6f94                	ld	a3,24(a5)
   100f4:	00d7300b          	0xd7300b
   100f8:	7398                	ld	a4,32(a5)
   100fa:	7794                	ld	a3,40(a5)
   100fc:	00d7300b          	0xd7300b
   10100:	7b98                	ld	a4,48(a5)
   10102:	7f94                	ld	a3,56(a5)
   10104:	00d7300b          	0xd7300b
   10108:	63b8                	ld	a4,64(a5)
   1010a:	67b4                	ld	a3,72(a5)
   1010c:	00d7300b          	0xd7300b
   10110:	6bb8                	ld	a4,80(a5)
   10112:	6fb4                	ld	a3,88(a5)
   10114:	00d7300b          	0xd7300b
   10118:	73b8                	ld	a4,96(a5)
   1011a:	77b4                	ld	a3,104(a5)
   1011c:	00d7300b          	0xd7300b
   10120:	7bb8                	ld	a4,112(a5)
   10122:	7fb4                	ld	a3,120(a5)
   10124:	00d7300b          	0xd7300b
   10128:	63d8                	ld	a4,128(a5)
   1012a:	67d4                	ld	a3,136(a5)
   1012c:	00d7300b          	0xd7300b
   10130:	6bd8                	ld	a4,144(a5)
   10132:	6fd4                	ld	a3,152(a5)
   10134:	00d7300b          	0xd7300b
   10138:	73d8                	ld	a4,160(a5)
   1013a:	77d4                	ld	a3,168(a5)
   1013c:	00d7300b          	0xd7300b
   10140:	7bd8                	ld	a4,176(a5)
   10142:	7fd4                	ld	a3,184(a5)
   10144:	00d7300b          	0xd7300b
   10148:	63f8                	ld	a4,192(a5)
   1014a:	67f4                	ld	a3,200(a5)
   1014c:	00d7300b          	0xd7300b
   10150:	6bf8                	ld	a4,208(a5)
   10152:	6ff4                	ld	a3,216(a5)
   10154:	00d7300b          	0xd7300b
   10158:	73f8                	ld	a4,224(a5)
   1015a:	77fc                	ld	a5,232(a5)
   1015c:	00f7300b          	0xf7300b
    
    send_config();

    // Send the first input and output address
    ROCC_INSTRUCTION_SS(0,&array1,&sum,1);
   10160:	f5090793          	addi	a5,s2,-176
   10164:	978a                	add	a5,a5,sp
   10166:	0b440413          	addi	s0,s0,180
   1016a:	943e                	add	s0,s0,a5
   1016c:	0284b00b          	0x284b00b

    asm("nop"); //Marking the starting of computation
   10170:	0001                	nop

    // Send the array length. This need to be the same for array1 and array2 in this configuration
    // This will also start the calculation
    ROCC_INSTRUCTION_SS(0,ComputeLength,0,3);
   10172:	7d100793          	li	a5,2001
   10176:	4701                	li	a4,0
   10178:	06e7b00b          	0x6e7b00b

    asm("nop"); //Marking end of computatio
   1017c:	0001                	nop

    // if not here, the Sum will not be available to CPU (Datarace)
    ROCC_INSTRUCTION_SS(0,&array1, &sum,1);
   1017e:	0284b00b          	0x284b00b

    asm volatile ("fence" ::: "memory");
   10182:	0ff0000f          	fence

    printf("Program Done! Sum is: %d\n", sum);
   10186:	4592                	lw	a1,4(sp)
   10188:	6571                	lui	a0,0x1c
   1018a:	1a850513          	addi	a0,a0,424 # 1c1a8 <__clzdi2+0x52>
   1018e:	2ea000ef          	jal	ra,10478 <printf>
    return 0;
   10192:	6309                	lui	t1,0x2
   10194:	f4030313          	addi	t1,t1,-192 # 1f40 <main-0xe170>
   10198:	911a                	add	sp,sp,t1
   1019a:	70a2                	ld	ra,40(sp)
   1019c:	7402                	ld	s0,32(sp)
   1019e:	64e2                	ld	s1,24(sp)
   101a0:	6942                	ld	s2,16(sp)
   101a2:	4501                	li	a0,0
   101a4:	6145                	addi	sp,sp,48
   101a6:	8082                	ret

00000000000101a8 <register_fini>:
   101a8:	ffff0797          	auipc	a5,0xffff0
   101ac:	e5878793          	addi	a5,a5,-424 # 0 <main-0x100b0>
   101b0:	c799                	beqz	a5,101be <register_fini+0x16>
   101b2:	00002517          	auipc	a0,0x2
   101b6:	5e050513          	addi	a0,a0,1504 # 12792 <__libc_fini_array>
   101ba:	5b50806f          	j	18f6e <atexit>
   101be:	8082                	ret

00000000000101c0 <_start>:
   101c0:	0000e197          	auipc	gp,0xe
   101c4:	94018193          	addi	gp,gp,-1728 # 1db00 <__global_pointer$>
   101c8:	77018513          	addi	a0,gp,1904 # 1e270 <_edata>
   101cc:	0000e617          	auipc	a2,0xe
   101d0:	13460613          	addi	a2,a2,308 # 1e300 <__BSS_END__>
   101d4:	8e09                	sub	a2,a2,a0
   101d6:	4581                	li	a1,0
   101d8:	1d4000ef          	jal	ra,103ac <memset>
   101dc:	00009517          	auipc	a0,0x9
   101e0:	d9250513          	addi	a0,a0,-622 # 18f6e <atexit>
   101e4:	c519                	beqz	a0,101f2 <_start+0x32>
   101e6:	00002517          	auipc	a0,0x2
   101ea:	5ac50513          	addi	a0,a0,1452 # 12792 <__libc_fini_array>
   101ee:	581080ef          	jal	ra,18f6e <atexit>
   101f2:	150000ef          	jal	ra,10342 <__libc_init_array>
   101f6:	4502                	lw	a0,0(sp)
   101f8:	002c                	addi	a1,sp,8
   101fa:	4601                	li	a2,0
   101fc:	eb5ff0ef          	jal	ra,100b0 <main>
   10200:	a215                	j	10324 <exit>

0000000000010202 <__do_global_dtors_aux>:
   10202:	79818793          	addi	a5,gp,1944 # 1e298 <completed.5527>
   10206:	0007c703          	lbu	a4,0(a5)
   1020a:	eb0d                	bnez	a4,1023c <__do_global_dtors_aux+0x3a>
   1020c:	1141                	addi	sp,sp,-16
   1020e:	e022                	sd	s0,0(sp)
   10210:	e406                	sd	ra,8(sp)
   10212:	843e                	mv	s0,a5
   10214:	ffff0797          	auipc	a5,0xffff0
   10218:	dec78793          	addi	a5,a5,-532 # 0 <main-0x100b0>
   1021c:	cb89                	beqz	a5,1022e <__do_global_dtors_aux+0x2c>
   1021e:	0000d517          	auipc	a0,0xd
   10222:	de250513          	addi	a0,a0,-542 # 1d000 <__FRAME_END__>
   10226:	00000097          	auipc	ra,0x0
   1022a:	000000e7          	jalr	zero # 0 <main-0x100b0>
   1022e:	4785                	li	a5,1
   10230:	60a2                	ld	ra,8(sp)
   10232:	00f40023          	sb	a5,0(s0)
   10236:	6402                	ld	s0,0(sp)
   10238:	0141                	addi	sp,sp,16
   1023a:	8082                	ret
   1023c:	8082                	ret

000000000001023e <frame_dummy>:
   1023e:	ffff0797          	auipc	a5,0xffff0
   10242:	dc278793          	addi	a5,a5,-574 # 0 <main-0x100b0>
   10246:	cb99                	beqz	a5,1025c <frame_dummy+0x1e>
   10248:	7a018593          	addi	a1,gp,1952 # 1e2a0 <object.5532>
   1024c:	0000d517          	auipc	a0,0xd
   10250:	db450513          	addi	a0,a0,-588 # 1d000 <__FRAME_END__>
   10254:	00000317          	auipc	t1,0x0
   10258:	00000067          	jr	zero # 0 <main-0x100b0>
   1025c:	8082                	ret

000000000001025e <send_config>:
        config1 = cgra_configuration[k];
   1025e:	67f5                	lui	a5,0x1d
   10260:	02078793          	addi	a5,a5,32 # 1d020 <__fini_array_end>
        ROCC_INSTRUCTION_SS(0,config1, config2, 0);
   10264:	6398                	ld	a4,0(a5)
   10266:	6794                	ld	a3,8(a5)
   10268:	00d7300b          	0xd7300b
   1026c:	6b98                	ld	a4,16(a5)
   1026e:	6f94                	ld	a3,24(a5)
   10270:	00d7300b          	0xd7300b
   10274:	7398                	ld	a4,32(a5)
   10276:	7794                	ld	a3,40(a5)
   10278:	00d7300b          	0xd7300b
   1027c:	7b98                	ld	a4,48(a5)
   1027e:	7f94                	ld	a3,56(a5)
   10280:	00d7300b          	0xd7300b
   10284:	63b8                	ld	a4,64(a5)
   10286:	67b4                	ld	a3,72(a5)
   10288:	00d7300b          	0xd7300b
   1028c:	6bb8                	ld	a4,80(a5)
   1028e:	6fb4                	ld	a3,88(a5)
   10290:	00d7300b          	0xd7300b
   10294:	73b8                	ld	a4,96(a5)
   10296:	77b4                	ld	a3,104(a5)
   10298:	00d7300b          	0xd7300b
   1029c:	7bb8                	ld	a4,112(a5)
   1029e:	7fb4                	ld	a3,120(a5)
   102a0:	00d7300b          	0xd7300b
   102a4:	63d8                	ld	a4,128(a5)
   102a6:	67d4                	ld	a3,136(a5)
   102a8:	00d7300b          	0xd7300b
   102ac:	6bd8                	ld	a4,144(a5)
   102ae:	6fd4                	ld	a3,152(a5)
   102b0:	00d7300b          	0xd7300b
   102b4:	73d8                	ld	a4,160(a5)
   102b6:	77d4                	ld	a3,168(a5)
   102b8:	00d7300b          	0xd7300b
   102bc:	7bd8                	ld	a4,176(a5)
   102be:	7fd4                	ld	a3,184(a5)
   102c0:	00d7300b          	0xd7300b
   102c4:	63f8                	ld	a4,192(a5)
   102c6:	67f4                	ld	a3,200(a5)
   102c8:	00d7300b          	0xd7300b
   102cc:	6bf8                	ld	a4,208(a5)
   102ce:	6ff4                	ld	a3,216(a5)
   102d0:	00d7300b          	0xd7300b
   102d4:	73f8                	ld	a4,224(a5)
   102d6:	77fc                	ld	a5,232(a5)
   102d8:	00f7300b          	0xf7300b
}
   102dc:	8082                	ret

00000000000102de <array_gen>:
void array_gen(int array[]){
   102de:	7179                	addi	sp,sp,-48
   102e0:	e84a                	sd	s2,16(sp)
   102e2:	6909                	lui	s2,0x2
   102e4:	e44e                	sd	s3,8(sp)
   102e6:	f4490913          	addi	s2,s2,-188 # 1f44 <main-0xe16c>
        array[i] = rand() % 65535;
   102ea:	69c1                	lui	s3,0x10
void array_gen(int array[]){
   102ec:	f022                	sd	s0,32(sp)
   102ee:	ec26                	sd	s1,24(sp)
   102f0:	f406                	sd	ra,40(sp)
   102f2:	842a                	mv	s0,a0
   102f4:	992a                	add	s2,s2,a0
    int arraysum = 0;
   102f6:	4481                	li	s1,0
        array[i] = rand() % 65535;
   102f8:	39fd                	addiw	s3,s3,-1
   102fa:	1b6000ef          	jal	ra,104b0 <rand>
   102fe:	0335653b          	remw	a0,a0,s3
   10302:	0411                	addi	s0,s0,4
   10304:	fea42e23          	sw	a0,-4(s0)
        arraysum += array[i];   
   10308:	9ca9                	addw	s1,s1,a0
    for(int i = 0; i< ComputeLength; i++){
   1030a:	ff2418e3          	bne	s0,s2,102fa <array_gen+0x1c>
}
   1030e:	7402                	ld	s0,32(sp)
   10310:	70a2                	ld	ra,40(sp)
   10312:	6942                	ld	s2,16(sp)
   10314:	69a2                	ld	s3,8(sp)
    printf("Arraysum is: %d\n", arraysum);
   10316:	85a6                	mv	a1,s1
}
   10318:	64e2                	ld	s1,24(sp)
    printf("Arraysum is: %d\n", arraysum);
   1031a:	6571                	lui	a0,0x1c
   1031c:	19050513          	addi	a0,a0,400 # 1c190 <__clzdi2+0x3a>
}
   10320:	6145                	addi	sp,sp,48
    printf("Arraysum is: %d\n", arraysum);
   10322:	aa99                	j	10478 <printf>

0000000000010324 <exit>:
   10324:	1141                	addi	sp,sp,-16
   10326:	4581                	li	a1,0
   10328:	e022                	sd	s0,0(sp)
   1032a:	e406                	sd	ra,8(sp)
   1032c:	842a                	mv	s0,a0
   1032e:	74b010ef          	jal	ra,12278 <__call_exitprocs>
   10332:	7481b503          	ld	a0,1864(gp) # 1e248 <_global_impure_ptr>
   10336:	6d3c                	ld	a5,88(a0)
   10338:	c391                	beqz	a5,1033c <exit+0x18>
   1033a:	9782                	jalr	a5
   1033c:	8522                	mv	a0,s0
   1033e:	0490a0ef          	jal	ra,1ab86 <_exit>

0000000000010342 <__libc_init_array>:
   10342:	1101                	addi	sp,sp,-32
   10344:	e822                	sd	s0,16(sp)
   10346:	e04a                	sd	s2,0(sp)
   10348:	0000d417          	auipc	s0,0xd
   1034c:	cbc40413          	addi	s0,s0,-836 # 1d004 <__preinit_array_end>
   10350:	0000d917          	auipc	s2,0xd
   10354:	cb490913          	addi	s2,s2,-844 # 1d004 <__preinit_array_end>
   10358:	40890933          	sub	s2,s2,s0
   1035c:	ec06                	sd	ra,24(sp)
   1035e:	e426                	sd	s1,8(sp)
   10360:	40395913          	srai	s2,s2,0x3
   10364:	00090963          	beqz	s2,10376 <__libc_init_array+0x34>
   10368:	4481                	li	s1,0
   1036a:	601c                	ld	a5,0(s0)
   1036c:	0485                	addi	s1,s1,1
   1036e:	0421                	addi	s0,s0,8
   10370:	9782                	jalr	a5
   10372:	fe991ce3          	bne	s2,s1,1036a <__libc_init_array+0x28>
   10376:	0000d417          	auipc	s0,0xd
   1037a:	c9240413          	addi	s0,s0,-878 # 1d008 <__init_array_start>
   1037e:	0000d917          	auipc	s2,0xd
   10382:	c9a90913          	addi	s2,s2,-870 # 1d018 <__init_array_end>
   10386:	40890933          	sub	s2,s2,s0
   1038a:	40395913          	srai	s2,s2,0x3
   1038e:	00090963          	beqz	s2,103a0 <__libc_init_array+0x5e>
   10392:	4481                	li	s1,0
   10394:	601c                	ld	a5,0(s0)
   10396:	0485                	addi	s1,s1,1
   10398:	0421                	addi	s0,s0,8
   1039a:	9782                	jalr	a5
   1039c:	fe991ce3          	bne	s2,s1,10394 <__libc_init_array+0x52>
   103a0:	60e2                	ld	ra,24(sp)
   103a2:	6442                	ld	s0,16(sp)
   103a4:	64a2                	ld	s1,8(sp)
   103a6:	6902                	ld	s2,0(sp)
   103a8:	6105                	addi	sp,sp,32
   103aa:	8082                	ret

00000000000103ac <memset>:
   103ac:	433d                	li	t1,15
   103ae:	872a                	mv	a4,a0
   103b0:	02c37163          	bgeu	t1,a2,103d2 <memset+0x26>
   103b4:	00f77793          	andi	a5,a4,15
   103b8:	e3c1                	bnez	a5,10438 <memset+0x8c>
   103ba:	e1bd                	bnez	a1,10420 <memset+0x74>
   103bc:	ff067693          	andi	a3,a2,-16
   103c0:	8a3d                	andi	a2,a2,15
   103c2:	96ba                	add	a3,a3,a4
   103c4:	e30c                	sd	a1,0(a4)
   103c6:	e70c                	sd	a1,8(a4)
   103c8:	0741                	addi	a4,a4,16
   103ca:	fed76de3          	bltu	a4,a3,103c4 <memset+0x18>
   103ce:	e211                	bnez	a2,103d2 <memset+0x26>
   103d0:	8082                	ret
   103d2:	40c306b3          	sub	a3,t1,a2
   103d6:	068a                	slli	a3,a3,0x2
   103d8:	00000297          	auipc	t0,0x0
   103dc:	9696                	add	a3,a3,t0
   103de:	00a68067          	jr	10(a3)
   103e2:	00b70723          	sb	a1,14(a4)
   103e6:	00b706a3          	sb	a1,13(a4)
   103ea:	00b70623          	sb	a1,12(a4)
   103ee:	00b705a3          	sb	a1,11(a4)
   103f2:	00b70523          	sb	a1,10(a4)
   103f6:	00b704a3          	sb	a1,9(a4)
   103fa:	00b70423          	sb	a1,8(a4)
   103fe:	00b703a3          	sb	a1,7(a4)
   10402:	00b70323          	sb	a1,6(a4)
   10406:	00b702a3          	sb	a1,5(a4)
   1040a:	00b70223          	sb	a1,4(a4)
   1040e:	00b701a3          	sb	a1,3(a4)
   10412:	00b70123          	sb	a1,2(a4)
   10416:	00b700a3          	sb	a1,1(a4)
   1041a:	00b70023          	sb	a1,0(a4)
   1041e:	8082                	ret
   10420:	0ff5f593          	andi	a1,a1,255
   10424:	00859693          	slli	a3,a1,0x8
   10428:	8dd5                	or	a1,a1,a3
   1042a:	01059693          	slli	a3,a1,0x10
   1042e:	8dd5                	or	a1,a1,a3
   10430:	02059693          	slli	a3,a1,0x20
   10434:	8dd5                	or	a1,a1,a3
   10436:	b759                	j	103bc <memset+0x10>
   10438:	00279693          	slli	a3,a5,0x2
   1043c:	00000297          	auipc	t0,0x0
   10440:	9696                	add	a3,a3,t0
   10442:	8286                	mv	t0,ra
   10444:	fa2680e7          	jalr	-94(a3)
   10448:	8096                	mv	ra,t0
   1044a:	17c1                	addi	a5,a5,-16
   1044c:	8f1d                	sub	a4,a4,a5
   1044e:	963e                	add	a2,a2,a5
   10450:	f8c371e3          	bgeu	t1,a2,103d2 <memset+0x26>
   10454:	b79d                	j	103ba <memset+0xe>

0000000000010456 <_printf_r>:
   10456:	715d                	addi	sp,sp,-80
   10458:	f032                	sd	a2,32(sp)
   1045a:	f436                	sd	a3,40(sp)
   1045c:	f83a                	sd	a4,48(sp)
   1045e:	fc3e                	sd	a5,56(sp)
   10460:	e0c2                	sd	a6,64(sp)
   10462:	e4c6                	sd	a7,72(sp)
   10464:	862e                	mv	a2,a1
   10466:	690c                	ld	a1,16(a0)
   10468:	1014                	addi	a3,sp,32
   1046a:	ec06                	sd	ra,24(sp)
   1046c:	e436                	sd	a3,8(sp)
   1046e:	060000ef          	jal	ra,104ce <_vfprintf_r>
   10472:	60e2                	ld	ra,24(sp)
   10474:	6161                	addi	sp,sp,80
   10476:	8082                	ret

0000000000010478 <printf>:
   10478:	711d                	addi	sp,sp,-96
   1047a:	f832                	sd	a2,48(sp)
   1047c:	fc36                	sd	a3,56(sp)
   1047e:	7581b303          	ld	t1,1880(gp) # 1e258 <_impure_ptr>
   10482:	f42e                	sd	a1,40(sp)
   10484:	e0ba                	sd	a4,64(sp)
   10486:	e4be                	sd	a5,72(sp)
   10488:	e8c2                	sd	a6,80(sp)
   1048a:	ecc6                	sd	a7,88(sp)
   1048c:	01033583          	ld	a1,16(t1) # 10264 <send_config+0x6>
   10490:	1034                	addi	a3,sp,40
   10492:	862a                	mv	a2,a0
   10494:	851a                	mv	a0,t1
   10496:	ec06                	sd	ra,24(sp)
   10498:	e436                	sd	a3,8(sp)
   1049a:	034000ef          	jal	ra,104ce <_vfprintf_r>
   1049e:	60e2                	ld	ra,24(sp)
   104a0:	6125                	addi	sp,sp,96
   104a2:	8082                	ret

00000000000104a4 <srand>:
   104a4:	1502                	slli	a0,a0,0x20
   104a6:	9101                	srli	a0,a0,0x20
   104a8:	7581b783          	ld	a5,1880(gp) # 1e258 <_impure_ptr>
   104ac:	f7e8                	sd	a0,232(a5)
   104ae:	8082                	ret

00000000000104b0 <rand>:
   104b0:	7581b703          	ld	a4,1880(gp) # 1e258 <_impure_ptr>
   104b4:	777c                	ld	a5,232(a4)
   104b6:	0000e697          	auipc	a3,0xe
   104ba:	d5a6b683          	ld	a3,-678(a3) # 1e210 <__SDATA_BEGIN__>
   104be:	02d787b3          	mul	a5,a5,a3
   104c2:	0785                	addi	a5,a5,1
   104c4:	00179513          	slli	a0,a5,0x1
   104c8:	f77c                	sd	a5,232(a4)
   104ca:	9105                	srli	a0,a0,0x21
   104cc:	8082                	ret

00000000000104ce <_vfprintf_r>:
   104ce:	d8010113          	addi	sp,sp,-640
   104d2:	26113c23          	sd	ra,632(sp)
   104d6:	25413823          	sd	s4,592(sp)
   104da:	25513423          	sd	s5,584(sp)
   104de:	23913423          	sd	s9,552(sp)
   104e2:	8a2e                	mv	s4,a1
   104e4:	8cb2                	mv	s9,a2
   104e6:	e836                	sd	a3,16(sp)
   104e8:	26813823          	sd	s0,624(sp)
   104ec:	26913423          	sd	s1,616(sp)
   104f0:	27213023          	sd	s2,608(sp)
   104f4:	25313c23          	sd	s3,600(sp)
   104f8:	25613023          	sd	s6,576(sp)
   104fc:	23713c23          	sd	s7,568(sp)
   10500:	23813823          	sd	s8,560(sp)
   10504:	23a13023          	sd	s10,544(sp)
   10508:	21b13c23          	sd	s11,536(sp)
   1050c:	8aaa                	mv	s5,a0
   1050e:	79e040ef          	jal	ra,14cac <_localeconv_r>
   10512:	611c                	ld	a5,0(a0)
   10514:	853e                	mv	a0,a5
   10516:	fcbe                	sd	a5,120(sp)
   10518:	77b050ef          	jal	ra,16492 <strlen>
   1051c:	f8aa                	sd	a0,112(sp)
   1051e:	e202                	sd	zero,256(sp)
   10520:	e602                	sd	zero,264(sp)
   10522:	000a8663          	beqz	s5,1052e <_vfprintf_r+0x60>
   10526:	050aa783          	lw	a5,80(s5)
   1052a:	70078063          	beqz	a5,10c2a <_vfprintf_r+0x75c>
   1052e:	010a1703          	lh	a4,16(s4)
   10532:	03071793          	slli	a5,a4,0x30
   10536:	03271693          	slli	a3,a4,0x32
   1053a:	93c1                	srli	a5,a5,0x30
   1053c:	0006cf63          	bltz	a3,1055a <_vfprintf_r+0x8c>
   10540:	0aca2683          	lw	a3,172(s4)
   10544:	6789                	lui	a5,0x2
   10546:	8fd9                	or	a5,a5,a4
   10548:	7779                	lui	a4,0xffffe
   1054a:	177d                	addi	a4,a4,-1
   1054c:	8f75                	and	a4,a4,a3
   1054e:	00fa1823          	sh	a5,16(s4)
   10552:	17c2                	slli	a5,a5,0x30
   10554:	0aea2623          	sw	a4,172(s4)
   10558:	93c1                	srli	a5,a5,0x30
   1055a:	0087f713          	andi	a4,a5,8
   1055e:	26070463          	beqz	a4,107c6 <_vfprintf_r+0x2f8>
   10562:	018a3703          	ld	a4,24(s4)
   10566:	26070063          	beqz	a4,107c6 <_vfprintf_r+0x2f8>
   1056a:	8be9                	andi	a5,a5,26
   1056c:	4729                	li	a4,10
   1056e:	26e78963          	beq	a5,a4,107e0 <_vfprintf_r+0x312>
   10572:	000cc783          	lbu	a5,0(s9)
   10576:	19010b93          	addi	s7,sp,400
   1057a:	ea5e                	sd	s7,272(sp)
   1057c:	f202                	sd	zero,288(sp)
   1057e:	10012c23          	sw	zero,280(sp)
   10582:	f002                	sd	zero,32(sp)
   10584:	f402                	sd	zero,40(sp)
   10586:	e102                	sd	zero,128(sp)
   10588:	f482                	sd	zero,104(sp)
   1058a:	e502                	sd	zero,136(sp)
   1058c:	e902                	sd	zero,144(sp)
   1058e:	e002                	sd	zero,0(sp)
   10590:	835e                	mv	t1,s7
   10592:	4d41                	li	s10,16
   10594:	0000c917          	auipc	s2,0xc
   10598:	e1490913          	addi	s2,s2,-492 # 1c3a8 <zeroes.4521>
   1059c:	1c078663          	beqz	a5,10768 <_vfprintf_r+0x29a>
   105a0:	8466                	mv	s0,s9
   105a2:	02500713          	li	a4,37
   105a6:	30e78463          	beq	a5,a4,108ae <_vfprintf_r+0x3e0>
   105aa:	00144783          	lbu	a5,1(s0)
   105ae:	0405                	addi	s0,s0,1
   105b0:	fbfd                	bnez	a5,105a6 <_vfprintf_r+0xd8>
   105b2:	419404bb          	subw	s1,s0,s9
   105b6:	1a048963          	beqz	s1,10768 <_vfprintf_r+0x29a>
   105ba:	7712                	ld	a4,288(sp)
   105bc:	11812783          	lw	a5,280(sp)
   105c0:	01933023          	sd	s9,0(t1)
   105c4:	9726                	add	a4,a4,s1
   105c6:	2785                	addiw	a5,a5,1
   105c8:	00933423          	sd	s1,8(t1)
   105cc:	f23a                	sd	a4,288(sp)
   105ce:	10f12c23          	sw	a5,280(sp)
   105d2:	0007871b          	sext.w	a4,a5
   105d6:	479d                	li	a5,7
   105d8:	0341                	addi	t1,t1,16
   105da:	2ee7c163          	blt	a5,a4,108bc <_vfprintf_r+0x3ee>
   105de:	6702                	ld	a4,0(sp)
   105e0:	00044783          	lbu	a5,0(s0)
   105e4:	9f25                	addw	a4,a4,s1
   105e6:	e03a                	sd	a4,0(sp)
   105e8:	18078063          	beqz	a5,10768 <_vfprintf_r+0x29a>
   105ec:	00144f03          	lbu	t5,1(s0)
   105f0:	0c010fa3          	sb	zero,223(sp)
   105f4:	0405                	addi	s0,s0,1
   105f6:	5efd                	li	t4,-1
   105f8:	4b01                	li	s6,0
   105fa:	4481                	li	s1,0
   105fc:	49a5                	li	s3,9
   105fe:	02a00c13          	li	s8,42
   10602:	0405                	addi	s0,s0,1
   10604:	000f0d9b          	sext.w	s11,t5
   10608:	05a00693          	li	a3,90
   1060c:	fe0d879b          	addiw	a5,s11,-32
   10610:	0007871b          	sext.w	a4,a5
   10614:	04e6e663          	bltu	a3,a4,10660 <_vfprintf_r+0x192>
   10618:	1782                	slli	a5,a5,0x20
   1061a:	0000c717          	auipc	a4,0xc
   1061e:	c0e70713          	addi	a4,a4,-1010 # 1c228 <__clzdi2+0xd2>
   10622:	83f9                	srli	a5,a5,0x1e
   10624:	97ba                	add	a5,a5,a4
   10626:	439c                	lw	a5,0(a5)
   10628:	97ba                	add	a5,a5,a4
   1062a:	8782                	jr	a5
   1062c:	4b01                	li	s6,0
   1062e:	00044703          	lbu	a4,0(s0)
   10632:	002b179b          	slliw	a5,s6,0x2
   10636:	01678b3b          	addw	s6,a5,s6
   1063a:	fd0d8f1b          	addiw	t5,s11,-48
   1063e:	001b1b1b          	slliw	s6,s6,0x1
   10642:	fd07079b          	addiw	a5,a4,-48
   10646:	0405                	addi	s0,s0,1
   10648:	016f0b3b          	addw	s6,t5,s6
   1064c:	00070d9b          	sext.w	s11,a4
   10650:	fcf9ffe3          	bgeu	s3,a5,1062e <_vfprintf_r+0x160>
   10654:	fe0d879b          	addiw	a5,s11,-32
   10658:	0007871b          	sext.w	a4,a5
   1065c:	fae6fee3          	bgeu	a3,a4,10618 <_vfprintf_r+0x14a>
   10660:	100d8463          	beqz	s11,10768 <_vfprintf_r+0x29a>
   10664:	13b10423          	sb	s11,296(sp)
   10668:	0c010fa3          	sb	zero,223(sp)
   1066c:	4985                	li	s3,1
   1066e:	4c05                	li	s8,1
   10670:	12810c93          	addi	s9,sp,296
   10674:	ec02                	sd	zero,24(sp)
   10676:	4e81                	li	t4,0
   10678:	e882                	sd	zero,80(sp)
   1067a:	f082                	sd	zero,96(sp)
   1067c:	ec82                	sd	zero,88(sp)
   1067e:	0024f793          	andi	a5,s1,2
   10682:	0007829b          	sext.w	t0,a5
   10686:	c391                	beqz	a5,1068a <_vfprintf_r+0x1bc>
   10688:	2989                	addiw	s3,s3,2
   1068a:	0844ff93          	andi	t6,s1,132
   1068e:	7792                	ld	a5,288(sp)
   10690:	000f9663          	bnez	t6,1069c <_vfprintf_r+0x1ce>
   10694:	413b06bb          	subw	a3,s6,s3
   10698:	2cd046e3          	bgtz	a3,11164 <_vfprintf_r+0xc96>
   1069c:	0df14703          	lbu	a4,223(sp)
   106a0:	c70d                	beqz	a4,106ca <_vfprintf_r+0x1fc>
   106a2:	11812703          	lw	a4,280(sp)
   106a6:	0df10693          	addi	a3,sp,223
   106aa:	00d33023          	sd	a3,0(t1)
   106ae:	2705                	addiw	a4,a4,1
   106b0:	4685                	li	a3,1
   106b2:	0785                	addi	a5,a5,1
   106b4:	00d33423          	sd	a3,8(t1)
   106b8:	10e12c23          	sw	a4,280(sp)
   106bc:	0007069b          	sext.w	a3,a4
   106c0:	f23e                	sd	a5,288(sp)
   106c2:	471d                	li	a4,7
   106c4:	0341                	addi	t1,t1,16
   106c6:	42d74863          	blt	a4,a3,10af6 <_vfprintf_r+0x628>
   106ca:	02028563          	beqz	t0,106f4 <_vfprintf_r+0x226>
   106ce:	11812703          	lw	a4,280(sp)
   106d2:	1194                	addi	a3,sp,224
   106d4:	00d33023          	sd	a3,0(t1)
   106d8:	2705                	addiw	a4,a4,1
   106da:	4689                	li	a3,2
   106dc:	0789                	addi	a5,a5,2
   106de:	00d33423          	sd	a3,8(t1)
   106e2:	10e12c23          	sw	a4,280(sp)
   106e6:	0007069b          	sext.w	a3,a4
   106ea:	f23e                	sd	a5,288(sp)
   106ec:	471d                	li	a4,7
   106ee:	0341                	addi	t1,t1,16
   106f0:	30d74ce3          	blt	a4,a3,11208 <_vfprintf_r+0xd3a>
   106f4:	08000713          	li	a4,128
   106f8:	06ef81e3          	beq	t6,a4,10f5a <_vfprintf_r+0xa8c>
   106fc:	418e8ebb          	subw	t4,t4,s8
   10700:	0fd043e3          	bgtz	t4,10fe6 <_vfprintf_r+0xb18>
   10704:	1004f713          	andi	a4,s1,256
   10708:	78071663          	bnez	a4,10e94 <_vfprintf_r+0x9c6>
   1070c:	11812703          	lw	a4,280(sp)
   10710:	97e2                	add	a5,a5,s8
   10712:	01933023          	sd	s9,0(t1)
   10716:	0017069b          	addiw	a3,a4,1
   1071a:	8736                	mv	a4,a3
   1071c:	01833423          	sd	s8,8(t1)
   10720:	10e12c23          	sw	a4,280(sp)
   10724:	f23e                	sd	a5,288(sp)
   10726:	471d                	li	a4,7
   10728:	44d74963          	blt	a4,a3,10b7a <_vfprintf_r+0x6ac>
   1072c:	0341                	addi	t1,t1,16
   1072e:	8891                	andi	s1,s1,4
   10730:	c489                	beqz	s1,1073a <_vfprintf_r+0x26c>
   10732:	413b04bb          	subw	s1,s6,s3
   10736:	2e9048e3          	bgtz	s1,11226 <_vfprintf_r+0xd58>
   1073a:	875a                	mv	a4,s6
   1073c:	013b5363          	bge	s6,s3,10742 <_vfprintf_r+0x274>
   10740:	874e                	mv	a4,s3
   10742:	6682                	ld	a3,0(sp)
   10744:	9f35                	addw	a4,a4,a3
   10746:	e03a                	sd	a4,0(sp)
   10748:	10079ce3          	bnez	a5,11060 <_vfprintf_r+0xb92>
   1074c:	67e2                	ld	a5,24(sp)
   1074e:	10012c23          	sw	zero,280(sp)
   10752:	c789                	beqz	a5,1075c <_vfprintf_r+0x28e>
   10754:	65e2                	ld	a1,24(sp)
   10756:	8556                	mv	a0,s5
   10758:	148020ef          	jal	ra,128a0 <_free_r>
   1075c:	835e                	mv	t1,s7
   1075e:	8ca2                	mv	s9,s0
   10760:	000cc783          	lbu	a5,0(s9)
   10764:	e2079ee3          	bnez	a5,105a0 <_vfprintf_r+0xd2>
   10768:	7792                	ld	a5,288(sp)
   1076a:	c399                	beqz	a5,10770 <_vfprintf_r+0x2a2>
   1076c:	2de0106f          	j	11a4a <_vfprintf_r+0x157c>
   10770:	010a5783          	lhu	a5,16(s4)
   10774:	0407f793          	andi	a5,a5,64
   10778:	c399                	beqz	a5,1077e <_vfprintf_r+0x2b0>
   1077a:	67c0106f          	j	11df6 <_vfprintf_r+0x1928>
   1077e:	27813083          	ld	ra,632(sp)
   10782:	27013403          	ld	s0,624(sp)
   10786:	6502                	ld	a0,0(sp)
   10788:	26813483          	ld	s1,616(sp)
   1078c:	26013903          	ld	s2,608(sp)
   10790:	25813983          	ld	s3,600(sp)
   10794:	25013a03          	ld	s4,592(sp)
   10798:	24813a83          	ld	s5,584(sp)
   1079c:	24013b03          	ld	s6,576(sp)
   107a0:	23813b83          	ld	s7,568(sp)
   107a4:	23013c03          	ld	s8,560(sp)
   107a8:	22813c83          	ld	s9,552(sp)
   107ac:	22013d03          	ld	s10,544(sp)
   107b0:	21813d83          	ld	s11,536(sp)
   107b4:	28010113          	addi	sp,sp,640
   107b8:	8082                	ret
   107ba:	0104e493          	ori	s1,s1,16
   107be:	00044f03          	lbu	t5,0(s0)
   107c2:	2481                	sext.w	s1,s1
   107c4:	bd3d                	j	10602 <_vfprintf_r+0x134>
   107c6:	85d2                	mv	a1,s4
   107c8:	8556                	mv	a0,s5
   107ca:	1c1010ef          	jal	ra,1218a <__swsetup_r>
   107ce:	c119                	beqz	a0,107d4 <_vfprintf_r+0x306>
   107d0:	6260106f          	j	11df6 <_vfprintf_r+0x1928>
   107d4:	010a5783          	lhu	a5,16(s4)
   107d8:	4729                	li	a4,10
   107da:	8be9                	andi	a5,a5,26
   107dc:	d8e79be3          	bne	a5,a4,10572 <_vfprintf_r+0xa4>
   107e0:	012a1783          	lh	a5,18(s4)
   107e4:	d807c7e3          	bltz	a5,10572 <_vfprintf_r+0xa4>
   107e8:	66c2                	ld	a3,16(sp)
   107ea:	8666                	mv	a2,s9
   107ec:	85d2                	mv	a1,s4
   107ee:	8556                	mv	a0,s5
   107f0:	107010ef          	jal	ra,120f6 <__sbprintf>
   107f4:	e02a                	sd	a0,0(sp)
   107f6:	b761                	j	1077e <_vfprintf_r+0x2b0>
   107f8:	0104e493          	ori	s1,s1,16
   107fc:	2481                	sext.w	s1,s1
   107fe:	66c2                	ld	a3,16(sp)
   10800:	0204f793          	andi	a5,s1,32
   10804:	00868713          	addi	a4,a3,8
   10808:	3a078263          	beqz	a5,10bac <_vfprintf_r+0x6de>
   1080c:	629c                	ld	a5,0(a3)
   1080e:	89be                	mv	s3,a5
   10810:	3a07cc63          	bltz	a5,10bc8 <_vfprintf_r+0x6fa>
   10814:	57fd                	li	a5,-1
   10816:	48fe87e3          	beq	t4,a5,114a4 <_vfprintf_r+0xfd6>
   1081a:	f7f4f493          	andi	s1,s1,-129
   1081e:	e83a                	sd	a4,16(sp)
   10820:	0004881b          	sext.w	a6,s1
   10824:	120993e3          	bnez	s3,1114a <_vfprintf_r+0xc7c>
   10828:	120e94e3          	bnez	t4,11150 <_vfprintf_r+0xc82>
   1082c:	84c2                	mv	s1,a6
   1082e:	4e81                	li	t4,0
   10830:	4c01                	li	s8,0
   10832:	18c10c93          	addi	s9,sp,396
   10836:	000c099b          	sext.w	s3,s8
   1083a:	01dc5463          	bge	s8,t4,10842 <_vfprintf_r+0x374>
   1083e:	000e899b          	sext.w	s3,t4
   10842:	0df14783          	lbu	a5,223(sp)
   10846:	ec02                	sd	zero,24(sp)
   10848:	e882                	sd	zero,80(sp)
   1084a:	f082                	sd	zero,96(sp)
   1084c:	ec82                	sd	zero,88(sp)
   1084e:	e20788e3          	beqz	a5,1067e <_vfprintf_r+0x1b0>
   10852:	2985                	addiw	s3,s3,1
   10854:	b52d                	j	1067e <_vfprintf_r+0x1b0>
   10856:	0104e493          	ori	s1,s1,16
   1085a:	2481                	sext.w	s1,s1
   1085c:	66c2                	ld	a3,16(sp)
   1085e:	0204f793          	andi	a5,s1,32
   10862:	00868713          	addi	a4,a3,8
   10866:	32078463          	beqz	a5,10b8e <_vfprintf_r+0x6c0>
   1086a:	0006b983          	ld	s3,0(a3)
   1086e:	bff4f493          	andi	s1,s1,-1025
   10872:	0004881b          	sext.w	a6,s1
   10876:	e83a                	sd	a4,16(sp)
   10878:	4781                	li	a5,0
   1087a:	0c010fa3          	sb	zero,223(sp)
   1087e:	577d                	li	a4,-1
   10880:	36ee8063          	beq	t4,a4,10be0 <_vfprintf_r+0x712>
   10884:	f7f87493          	andi	s1,a6,-129
   10888:	2481                	sext.w	s1,s1
   1088a:	0a099ce3          	bnez	s3,11142 <_vfprintf_r+0xc74>
   1088e:	5c0e9663          	bnez	t4,10e5a <_vfprintf_r+0x98c>
   10892:	ffd1                	bnez	a5,1082e <_vfprintf_r+0x360>
   10894:	00187c13          	andi	s8,a6,1
   10898:	18c10c93          	addi	s9,sp,396
   1089c:	f80c0de3          	beqz	s8,10836 <_vfprintf_r+0x368>
   108a0:	03000793          	li	a5,48
   108a4:	18f105a3          	sb	a5,395(sp)
   108a8:	18b10c93          	addi	s9,sp,395
   108ac:	b769                	j	10836 <_vfprintf_r+0x368>
   108ae:	419404bb          	subw	s1,s0,s9
   108b2:	d00494e3          	bnez	s1,105ba <_vfprintf_r+0xec>
   108b6:	00044783          	lbu	a5,0(s0)
   108ba:	b33d                	j	105e8 <_vfprintf_r+0x11a>
   108bc:	0a10                	addi	a2,sp,272
   108be:	85d2                	mv	a1,s4
   108c0:	8556                	mv	a0,s5
   108c2:	167070ef          	jal	ra,18228 <__sprint_r>
   108c6:	ea0515e3          	bnez	a0,10770 <_vfprintf_r+0x2a2>
   108ca:	835e                	mv	t1,s7
   108cc:	bb09                	j	105de <_vfprintf_r+0x110>
   108ce:	0084f793          	andi	a5,s1,8
   108d2:	3a079ee3          	bnez	a5,1148e <_vfprintf_r+0xfc0>
   108d6:	67c2                	ld	a5,16(sp)
   108d8:	ec1a                	sd	t1,24(sp)
   108da:	e476                	sd	t4,8(sp)
   108dc:	2388                	fld	fa0,0(a5)
   108de:	00878693          	addi	a3,a5,8 # 2008 <main-0xe0a8>
   108e2:	e836                	sd	a3,16(sp)
   108e4:	5800b0ef          	jal	ra,1be64 <__extenddftf2>
   108e8:	6362                	ld	t1,24(sp)
   108ea:	6ea2                	ld	t4,8(sp)
   108ec:	e22a                	sd	a0,256(sp)
   108ee:	e62e                	sd	a1,264(sp)
   108f0:	0208                	addi	a0,sp,256
   108f2:	ec1a                	sd	t1,24(sp)
   108f4:	e476                	sd	t4,8(sp)
   108f6:	37a040ef          	jal	ra,14c70 <_ldcheck>
   108fa:	d5aa                	sw	a0,232(sp)
   108fc:	4789                	li	a5,2
   108fe:	6ea2                	ld	t4,8(sp)
   10900:	6362                	ld	t1,24(sp)
   10902:	64f502e3          	beq	a0,a5,11746 <_vfprintf_r+0x1278>
   10906:	4785                	li	a5,1
   10908:	6ef50ee3          	beq	a0,a5,11804 <_vfprintf_r+0x1336>
   1090c:	06100793          	li	a5,97
   10910:	00fd9463          	bne	s11,a5,10918 <_vfprintf_r+0x44a>
   10914:	5740106f          	j	11e88 <_vfprintf_r+0x19ba>
   10918:	04100793          	li	a5,65
   1091c:	00fd9463          	bne	s11,a5,10924 <_vfprintf_r+0x456>
   10920:	1380106f          	j	11a58 <_vfprintf_r+0x158a>
   10924:	fdfdf713          	andi	a4,s11,-33
   10928:	57fd                	li	a5,-1
   1092a:	f0ba                	sd	a4,96(sp)
   1092c:	00fe9463          	bne	t4,a5,10934 <_vfprintf_r+0x466>
   10930:	6140106f          	j	11f44 <_vfprintf_r+0x1a76>
   10934:	04700793          	li	a5,71
   10938:	00f71463          	bne	a4,a5,10940 <_vfprintf_r+0x472>
   1093c:	5c40106f          	j	11f00 <_vfprintf_r+0x1a32>
   10940:	69b2                	ld	s3,264(sp)
   10942:	1004e793          	ori	a5,s1,256
   10946:	ed26                	sd	s1,152(sp)
   10948:	6c12                	ld	s8,256(sp)
   1094a:	2781                	sext.w	a5,a5
   1094c:	0009d463          	bgez	s3,10954 <_vfprintf_r+0x486>
   10950:	67a0106f          	j	11fca <_vfprintf_r+0x1afc>
   10954:	e582                	sd	zero,200(sp)
   10956:	84be                	mv	s1,a5
   10958:	ec02                	sd	zero,24(sp)
   1095a:	2701                	sext.w	a4,a4
   1095c:	04600793          	li	a5,70
   10960:	00f71463          	bne	a4,a5,10968 <_vfprintf_r+0x49a>
   10964:	38a0106f          	j	11cee <_vfprintf_r+0x1820>
   10968:	7706                	ld	a4,96(sp)
   1096a:	04500793          	li	a5,69
   1096e:	00f70463          	beq	a4,a5,10976 <_vfprintf_r+0x4a8>
   10972:	33c0106f          	j	11cae <_vfprintf_r+0x17e0>
   10976:	001e871b          	addiw	a4,t4,1
   1097a:	0f810893          	addi	a7,sp,248
   1097e:	0ec10813          	addi	a6,sp,236
   10982:	11bc                	addi	a5,sp,232
   10984:	4689                	li	a3,2
   10986:	85e2                	mv	a1,s8
   10988:	864e                	mv	a2,s3
   1098a:	8556                	mv	a0,s5
   1098c:	f81a                	sd	t1,48(sp)
   1098e:	f076                	sd	t4,32(sp)
   10990:	e43a                	sd	a4,8(sp)
   10992:	466030ef          	jal	ra,13df8 <_ldtoa_r>
   10996:	6722                	ld	a4,8(sp)
   10998:	7e82                	ld	t4,32(sp)
   1099a:	7342                	ld	t1,48(sp)
   1099c:	8caa                	mv	s9,a0
   1099e:	00e508b3          	add	a7,a0,a4
   109a2:	4601                	li	a2,0
   109a4:	4681                	li	a3,0
   109a6:	8562                	mv	a0,s8
   109a8:	85ce                	mv	a1,s3
   109aa:	f846                	sd	a7,48(sp)
   109ac:	f01a                	sd	t1,32(sp)
   109ae:	e476                	sd	t4,8(sp)
   109b0:	3d00a0ef          	jal	ra,1ad80 <__eqtf2>
   109b4:	78c2                	ld	a7,48(sp)
   109b6:	6ea2                	ld	t4,8(sp)
   109b8:	7302                	ld	t1,32(sp)
   109ba:	87c6                	mv	a5,a7
   109bc:	cd11                	beqz	a0,109d8 <_vfprintf_r+0x50a>
   109be:	77ee                	ld	a5,248(sp)
   109c0:	0117fc63          	bgeu	a5,a7,109d8 <_vfprintf_r+0x50a>
   109c4:	03000693          	li	a3,48
   109c8:	00178713          	addi	a4,a5,1
   109cc:	fdba                	sd	a4,248(sp)
   109ce:	00d78023          	sb	a3,0(a5)
   109d2:	77ee                	ld	a5,248(sp)
   109d4:	ff17eae3          	bltu	a5,a7,109c8 <_vfprintf_r+0x4fa>
   109d8:	419787bb          	subw	a5,a5,s9
   109dc:	f03e                	sd	a5,32(sp)
   109de:	572e                	lw	a4,232(sp)
   109e0:	04700793          	li	a5,71
   109e4:	ecba                	sd	a4,88(sp)
   109e6:	7706                	ld	a4,96(sp)
   109e8:	00f71463          	bne	a4,a5,109f0 <_vfprintf_r+0x522>
   109ec:	2200106f          	j	11c0c <_vfprintf_r+0x173e>
   109f0:	7706                	ld	a4,96(sp)
   109f2:	04600793          	li	a5,70
   109f6:	00f71463          	bne	a4,a5,109fe <_vfprintf_r+0x530>
   109fa:	3c40106f          	j	11dbe <_vfprintf_r+0x18f0>
   109fe:	67e6                	ld	a5,88(sp)
   10a00:	7586                	ld	a1,96(sp)
   10a02:	04100613          	li	a2,65
   10a06:	37fd                	addiw	a5,a5,-1
   10a08:	d5be                	sw	a5,232(sp)
   10a0a:	0ffdf713          	andi	a4,s11,255
   10a0e:	4681                	li	a3,0
   10a10:	00c59663          	bne	a1,a2,10a1c <_vfprintf_r+0x54e>
   10a14:	273d                	addiw	a4,a4,15
   10a16:	0ff77713          	andi	a4,a4,255
   10a1a:	4685                	li	a3,1
   10a1c:	0ee10823          	sb	a4,240(sp)
   10a20:	02b00713          	li	a4,43
   10a24:	0007d763          	bgez	a5,10a32 <_vfprintf_r+0x564>
   10a28:	6766                	ld	a4,88(sp)
   10a2a:	4785                	li	a5,1
   10a2c:	9f99                	subw	a5,a5,a4
   10a2e:	02d00713          	li	a4,45
   10a32:	0ee108a3          	sb	a4,241(sp)
   10a36:	4725                	li	a4,9
   10a38:	00f74463          	blt	a4,a5,10a40 <_vfprintf_r+0x572>
   10a3c:	5e00106f          	j	1201c <_vfprintf_r+0x1b4e>
   10a40:	0ff10513          	addi	a0,sp,255
   10a44:	85aa                	mv	a1,a0
   10a46:	46a9                	li	a3,10
   10a48:	06300e93          	li	t4,99
   10a4c:	02d7e73b          	remw	a4,a5,a3
   10a50:	862e                	mv	a2,a1
   10a52:	88be                	mv	a7,a5
   10a54:	15fd                	addi	a1,a1,-1
   10a56:	0307071b          	addiw	a4,a4,48
   10a5a:	fee60fa3          	sb	a4,-1(a2)
   10a5e:	02d7c7bb          	divw	a5,a5,a3
   10a62:	ff1ec5e3          	blt	t4,a7,10a4c <_vfprintf_r+0x57e>
   10a66:	0307879b          	addiw	a5,a5,48
   10a6a:	0ff7f693          	andi	a3,a5,255
   10a6e:	fed58fa3          	sb	a3,-1(a1)
   10a72:	ffe60793          	addi	a5,a2,-2
   10a76:	00a7e463          	bltu	a5,a0,10a7e <_vfprintf_r+0x5b0>
   10a7a:	6560106f          	j	120d0 <_vfprintf_r+0x1c02>
   10a7e:	0f210713          	addi	a4,sp,242
   10a82:	a019                	j	10a88 <_vfprintf_r+0x5ba>
   10a84:	0007c683          	lbu	a3,0(a5)
   10a88:	00d70023          	sb	a3,0(a4)
   10a8c:	0785                	addi	a5,a5,1
   10a8e:	0705                	addi	a4,a4,1
   10a90:	fea79ae3          	bne	a5,a0,10a84 <_vfprintf_r+0x5b6>
   10a94:	10110793          	addi	a5,sp,257
   10a98:	0f210713          	addi	a4,sp,242
   10a9c:	8f91                	sub	a5,a5,a2
   10a9e:	97ba                	add	a5,a5,a4
   10aa0:	1998                	addi	a4,sp,240
   10aa2:	9f99                	subw	a5,a5,a4
   10aa4:	e13e                	sd	a5,128(sp)
   10aa6:	678a                	ld	a5,128(sp)
   10aa8:	7682                	ld	a3,32(sp)
   10aaa:	4705                	li	a4,1
   10aac:	00f68c3b          	addw	s8,a3,a5
   10ab0:	87e2                	mv	a5,s8
   10ab2:	00d74463          	blt	a4,a3,10aba <_vfprintf_r+0x5ec>
   10ab6:	5a00106f          	j	12056 <_vfprintf_r+0x1b88>
   10aba:	7746                	ld	a4,112(sp)
   10abc:	00e78c3b          	addw	s8,a5,a4
   10ac0:	67ea                	ld	a5,152(sp)
   10ac2:	fffc4993          	not	s3,s8
   10ac6:	43f9d993          	srai	s3,s3,0x3f
   10aca:	bff7f493          	andi	s1,a5,-1025
   10ace:	2481                	sext.w	s1,s1
   10ad0:	013c79b3          	and	s3,s8,s3
   10ad4:	1004e493          	ori	s1,s1,256
   10ad8:	2981                	sext.w	s3,s3
   10ada:	e882                	sd	zero,80(sp)
   10adc:	f082                	sd	zero,96(sp)
   10ade:	ec82                	sd	zero,88(sp)
   10ae0:	67ae                	ld	a5,200(sp)
   10ae2:	e399                	bnez	a5,10ae8 <_vfprintf_r+0x61a>
   10ae4:	17e0106f          	j	11c62 <_vfprintf_r+0x1794>
   10ae8:	02d00793          	li	a5,45
   10aec:	0cf10fa3          	sb	a5,223(sp)
   10af0:	4e81                	li	t4,0
   10af2:	2985                	addiw	s3,s3,1
   10af4:	b669                	j	1067e <_vfprintf_r+0x1b0>
   10af6:	0a10                	addi	a2,sp,272
   10af8:	85d2                	mv	a1,s4
   10afa:	8556                	mv	a0,s5
   10afc:	fc76                	sd	t4,56(sp)
   10afe:	f87e                	sd	t6,48(sp)
   10b00:	e416                	sd	t0,8(sp)
   10b02:	726070ef          	jal	ra,18228 <__sprint_r>
   10b06:	56051463          	bnez	a0,1106e <_vfprintf_r+0xba0>
   10b0a:	7792                	ld	a5,288(sp)
   10b0c:	7ee2                	ld	t4,56(sp)
   10b0e:	7fc2                	ld	t6,48(sp)
   10b10:	62a2                	ld	t0,8(sp)
   10b12:	835e                	mv	t1,s7
   10b14:	be5d                	j	106ca <_vfprintf_r+0x1fc>
   10b16:	76e6                	ld	a3,120(sp)
   10b18:	7746                	ld	a4,112(sp)
   10b1a:	0341                	addi	t1,t1,16
   10b1c:	fed33823          	sd	a3,-16(t1)
   10b20:	11812683          	lw	a3,280(sp)
   10b24:	97ba                	add	a5,a5,a4
   10b26:	fee33c23          	sd	a4,-8(t1)
   10b2a:	2685                	addiw	a3,a3,1
   10b2c:	0006871b          	sext.w	a4,a3
   10b30:	10d12c23          	sw	a3,280(sp)
   10b34:	f23e                	sd	a5,288(sp)
   10b36:	469d                	li	a3,7
   10b38:	00e6de63          	bge	a3,a4,10b54 <_vfprintf_r+0x686>
   10b3c:	0a10                	addi	a2,sp,272
   10b3e:	85d2                	mv	a1,s4
   10b40:	8556                	mv	a0,s5
   10b42:	6e6070ef          	jal	ra,18228 <__sprint_r>
   10b46:	52051463          	bnez	a0,1106e <_vfprintf_r+0xba0>
   10b4a:	562e                	lw	a2,232(sp)
   10b4c:	7792                	ld	a5,288(sp)
   10b4e:	11812703          	lw	a4,280(sp)
   10b52:	835e                	mv	t1,s7
   10b54:	00065463          	bgez	a2,10b5c <_vfprintf_r+0x68e>
   10b58:	2a60106f          	j	11dfe <_vfprintf_r+0x1930>
   10b5c:	7682                	ld	a3,32(sp)
   10b5e:	2705                	addiw	a4,a4,1
   10b60:	10e12c23          	sw	a4,280(sp)
   10b64:	97b6                	add	a5,a5,a3
   10b66:	00d33423          	sd	a3,8(t1)
   10b6a:	01933023          	sd	s9,0(t1)
   10b6e:	0007069b          	sext.w	a3,a4
   10b72:	f23e                	sd	a5,288(sp)
   10b74:	471d                	li	a4,7
   10b76:	bad75be3          	bge	a4,a3,1072c <_vfprintf_r+0x25e>
   10b7a:	0a10                	addi	a2,sp,272
   10b7c:	85d2                	mv	a1,s4
   10b7e:	8556                	mv	a0,s5
   10b80:	6a8070ef          	jal	ra,18228 <__sprint_r>
   10b84:	4e051563          	bnez	a0,1106e <_vfprintf_r+0xba0>
   10b88:	7792                	ld	a5,288(sp)
   10b8a:	835e                	mv	t1,s7
   10b8c:	b64d                	j	1072e <_vfprintf_r+0x260>
   10b8e:	0104f793          	andi	a5,s1,16
   10b92:	0e0799e3          	bnez	a5,11484 <_vfprintf_r+0xfb6>
   10b96:	66c2                	ld	a3,16(sp)
   10b98:	0404f793          	andi	a5,s1,64
   10b9c:	0006a983          	lw	s3,0(a3)
   10ba0:	44078ae3          	beqz	a5,117f4 <_vfprintf_r+0x1326>
   10ba4:	19c2                	slli	s3,s3,0x30
   10ba6:	0309d993          	srli	s3,s3,0x30
   10baa:	b1d1                	j	1086e <_vfprintf_r+0x3a0>
   10bac:	0104f793          	andi	a5,s1,16
   10bb0:	0c0795e3          	bnez	a5,1147a <_vfprintf_r+0xfac>
   10bb4:	0404f793          	andi	a5,s1,64
   10bb8:	40078de3          	beqz	a5,117d2 <_vfprintf_r+0x1304>
   10bbc:	67c2                	ld	a5,16(sp)
   10bbe:	00079983          	lh	s3,0(a5)
   10bc2:	87ce                	mv	a5,s3
   10bc4:	c407d8e3          	bgez	a5,10814 <_vfprintf_r+0x346>
   10bc8:	02d00793          	li	a5,45
   10bcc:	0cf10fa3          	sb	a5,223(sp)
   10bd0:	e83a                	sd	a4,16(sp)
   10bd2:	577d                	li	a4,-1
   10bd4:	413009b3          	neg	s3,s3
   10bd8:	8826                	mv	a6,s1
   10bda:	4785                	li	a5,1
   10bdc:	caee94e3          	bne	t4,a4,10884 <_vfprintf_r+0x3b6>
   10be0:	4705                	li	a4,1
   10be2:	56e78463          	beq	a5,a4,1114a <_vfprintf_r+0xc7c>
   10be6:	4709                	li	a4,2
   10be8:	28e78263          	beq	a5,a4,10e6c <_vfprintf_r+0x99e>
   10bec:	18c10c13          	addi	s8,sp,396
   10bf0:	8ce2                	mv	s9,s8
   10bf2:	0079f793          	andi	a5,s3,7
   10bf6:	03078793          	addi	a5,a5,48
   10bfa:	fefc8fa3          	sb	a5,-1(s9)
   10bfe:	0039d993          	srli	s3,s3,0x3
   10c02:	8766                	mv	a4,s9
   10c04:	1cfd                	addi	s9,s9,-1
   10c06:	fe0996e3          	bnez	s3,10bf2 <_vfprintf_r+0x724>
   10c0a:	00187693          	andi	a3,a6,1
   10c0e:	26068f63          	beqz	a3,10e8c <_vfprintf_r+0x9be>
   10c12:	03000693          	li	a3,48
   10c16:	26d78b63          	beq	a5,a3,10e8c <_vfprintf_r+0x9be>
   10c1a:	1779                	addi	a4,a4,-2
   10c1c:	fedc8fa3          	sb	a3,-1(s9)
   10c20:	40ec0c3b          	subw	s8,s8,a4
   10c24:	84c2                	mv	s1,a6
   10c26:	8cba                	mv	s9,a4
   10c28:	b139                	j	10836 <_vfprintf_r+0x368>
   10c2a:	8556                	mv	a0,s5
   10c2c:	33b010ef          	jal	ra,12766 <__sinit>
   10c30:	b8fd                	j	1052e <_vfprintf_r+0x60>
   10c32:	67c2                	ld	a5,16(sp)
   10c34:	0c010fa3          	sb	zero,223(sp)
   10c38:	0007bc83          	ld	s9,0(a5)
   10c3c:	00878693          	addi	a3,a5,8
   10c40:	1c0c85e3          	beqz	s9,1160a <_vfprintf_r+0x113c>
   10c44:	57fd                	li	a5,-1
   10c46:	34fe82e3          	beq	t4,a5,1178a <_vfprintf_r+0x12bc>
   10c4a:	8676                	mv	a2,t4
   10c4c:	4581                	li	a1,0
   10c4e:	8566                	mv	a0,s9
   10c50:	f836                	sd	a3,48(sp)
   10c52:	e81a                	sd	t1,16(sp)
   10c54:	e476                	sd	t4,8(sp)
   10c56:	075040ef          	jal	ra,154ca <memchr>
   10c5a:	ec2a                	sd	a0,24(sp)
   10c5c:	6ea2                	ld	t4,8(sp)
   10c5e:	6342                	ld	t1,16(sp)
   10c60:	76c2                	ld	a3,48(sp)
   10c62:	e119                	bnez	a0,10c68 <_vfprintf_r+0x79a>
   10c64:	1120106f          	j	11d76 <_vfprintf_r+0x18a8>
   10c68:	67e2                	ld	a5,24(sp)
   10c6a:	e836                	sd	a3,16(sp)
   10c6c:	ec02                	sd	zero,24(sp)
   10c6e:	41978c3b          	subw	s8,a5,s9
   10c72:	fffc4993          	not	s3,s8
   10c76:	0df14783          	lbu	a5,223(sp)
   10c7a:	43f9d993          	srai	s3,s3,0x3f
   10c7e:	013c79b3          	and	s3,s8,s3
   10c82:	e882                	sd	zero,80(sp)
   10c84:	f082                	sd	zero,96(sp)
   10c86:	ec82                	sd	zero,88(sp)
   10c88:	2981                	sext.w	s3,s3
   10c8a:	4e81                	li	t4,0
   10c8c:	bc0793e3          	bnez	a5,10852 <_vfprintf_r+0x384>
   10c90:	b2fd                	j	1067e <_vfprintf_r+0x1b0>
   10c92:	6742                	ld	a4,16(sp)
   10c94:	0c010fa3          	sb	zero,223(sp)
   10c98:	4985                	li	s3,1
   10c9a:	431c                	lw	a5,0(a4)
   10c9c:	0721                	addi	a4,a4,8
   10c9e:	e83a                	sd	a4,16(sp)
   10ca0:	12f10423          	sb	a5,296(sp)
   10ca4:	4c05                	li	s8,1
   10ca6:	12810c93          	addi	s9,sp,296
   10caa:	b2e9                	j	10674 <_vfprintf_r+0x1a6>
   10cac:	00044f03          	lbu	t5,0(s0)
   10cb0:	0044e493          	ori	s1,s1,4
   10cb4:	2481                	sext.w	s1,s1
   10cb6:	b2b1                	j	10602 <_vfprintf_r+0x134>
   10cb8:	02b00793          	li	a5,43
   10cbc:	00044f03          	lbu	t5,0(s0)
   10cc0:	0cf10fa3          	sb	a5,223(sp)
   10cc4:	ba3d                	j	10602 <_vfprintf_r+0x134>
   10cc6:	0804e493          	ori	s1,s1,128
   10cca:	00044f03          	lbu	t5,0(s0)
   10cce:	2481                	sext.w	s1,s1
   10cd0:	ba0d                	j	10602 <_vfprintf_r+0x134>
   10cd2:	00044703          	lbu	a4,0(s0)
   10cd6:	00140793          	addi	a5,s0,1
   10cda:	00070d9b          	sext.w	s11,a4
   10cde:	00ec1463          	bne	s8,a4,10ce6 <_vfprintf_r+0x818>
   10ce2:	3d20106f          	j	120b4 <_vfprintf_r+0x1be6>
   10ce6:	fd07071b          	addiw	a4,a4,-48
   10cea:	843e                	mv	s0,a5
   10cec:	4e81                	li	t4,0
   10cee:	90e9efe3          	bltu	s3,a4,1060c <_vfprintf_r+0x13e>
   10cf2:	00044d83          	lbu	s11,0(s0)
   10cf6:	002e979b          	slliw	a5,t4,0x2
   10cfa:	01d78ebb          	addw	t4,a5,t4
   10cfe:	001e9e9b          	slliw	t4,t4,0x1
   10d02:	00ee8ebb          	addw	t4,t4,a4
   10d06:	fd0d871b          	addiw	a4,s11,-48
   10d0a:	0405                	addi	s0,s0,1
   10d0c:	fee9f3e3          	bgeu	s3,a4,10cf2 <_vfprintf_r+0x824>
   10d10:	b8f5                	j	1060c <_vfprintf_r+0x13e>
   10d12:	67c2                	ld	a5,16(sp)
   10d14:	00044f03          	lbu	t5,0(s0)
   10d18:	0007ab03          	lw	s6,0(a5)
   10d1c:	07a1                	addi	a5,a5,8
   10d1e:	e83e                	sd	a5,16(sp)
   10d20:	8e0b51e3          	bgez	s6,10602 <_vfprintf_r+0x134>
   10d24:	41600b3b          	negw	s6,s6
   10d28:	b761                	j	10cb0 <_vfprintf_r+0x7e2>
   10d2a:	8556                	mv	a0,s5
   10d2c:	ec1a                	sd	t1,24(sp)
   10d2e:	e476                	sd	t4,8(sp)
   10d30:	77d030ef          	jal	ra,14cac <_localeconv_r>
   10d34:	651c                	ld	a5,8(a0)
   10d36:	853e                	mv	a0,a5
   10d38:	e93e                	sd	a5,144(sp)
   10d3a:	758050ef          	jal	ra,16492 <strlen>
   10d3e:	87aa                	mv	a5,a0
   10d40:	8556                	mv	a0,s5
   10d42:	8dbe                	mv	s11,a5
   10d44:	e53e                	sd	a5,136(sp)
   10d46:	767030ef          	jal	ra,14cac <_localeconv_r>
   10d4a:	6918                	ld	a4,16(a0)
   10d4c:	6ea2                	ld	t4,8(sp)
   10d4e:	6362                	ld	t1,24(sp)
   10d50:	f4ba                	sd	a4,104(sp)
   10d52:	00044f03          	lbu	t5,0(s0)
   10d56:	8a0d86e3          	beqz	s11,10602 <_vfprintf_r+0x134>
   10d5a:	8a0704e3          	beqz	a4,10602 <_vfprintf_r+0x134>
   10d5e:	00074783          	lbu	a5,0(a4)
   10d62:	8a0780e3          	beqz	a5,10602 <_vfprintf_r+0x134>
   10d66:	4004e493          	ori	s1,s1,1024
   10d6a:	2481                	sext.w	s1,s1
   10d6c:	b859                	j	10602 <_vfprintf_r+0x134>
   10d6e:	0014e493          	ori	s1,s1,1
   10d72:	00044f03          	lbu	t5,0(s0)
   10d76:	2481                	sext.w	s1,s1
   10d78:	b069                	j	10602 <_vfprintf_r+0x134>
   10d7a:	0df14783          	lbu	a5,223(sp)
   10d7e:	00044f03          	lbu	t5,0(s0)
   10d82:	880790e3          	bnez	a5,10602 <_vfprintf_r+0x134>
   10d86:	02000793          	li	a5,32
   10d8a:	0cf10fa3          	sb	a5,223(sp)
   10d8e:	b895                	j	10602 <_vfprintf_r+0x134>
   10d90:	0084e493          	ori	s1,s1,8
   10d94:	00044f03          	lbu	t5,0(s0)
   10d98:	2481                	sext.w	s1,s1
   10d9a:	b0a5                	j	10602 <_vfprintf_r+0x134>
   10d9c:	0104e493          	ori	s1,s1,16
   10da0:	0004881b          	sext.w	a6,s1
   10da4:	66c2                	ld	a3,16(sp)
   10da6:	02087793          	andi	a5,a6,32
   10daa:	00868713          	addi	a4,a3,8
   10dae:	68078463          	beqz	a5,11436 <_vfprintf_r+0xf68>
   10db2:	0006b983          	ld	s3,0(a3)
   10db6:	4785                	li	a5,1
   10db8:	e83a                	sd	a4,16(sp)
   10dba:	b4c1                	j	1087a <_vfprintf_r+0x3ac>
   10dbc:	0204e493          	ori	s1,s1,32
   10dc0:	00044f03          	lbu	t5,0(s0)
   10dc4:	2481                	sext.w	s1,s1
   10dc6:	83dff06f          	j	10602 <_vfprintf_r+0x134>
   10dca:	6742                	ld	a4,16(sp)
   10dcc:	77e1                	lui	a5,0xffff8
   10dce:	8307c793          	xori	a5,a5,-2000
   10dd2:	0ef11023          	sh	a5,224(sp)
   10dd6:	00870793          	addi	a5,a4,8
   10dda:	0024e493          	ori	s1,s1,2
   10dde:	e83e                	sd	a5,16(sp)
   10de0:	0000b797          	auipc	a5,0xb
   10de4:	42078793          	addi	a5,a5,1056 # 1c200 <__clzdi2+0xaa>
   10de8:	f43e                	sd	a5,40(sp)
   10dea:	00073983          	ld	s3,0(a4)
   10dee:	0004881b          	sext.w	a6,s1
   10df2:	4789                	li	a5,2
   10df4:	07800d93          	li	s11,120
   10df8:	b449                	j	1087a <_vfprintf_r+0x3ac>
   10dfa:	66c2                	ld	a3,16(sp)
   10dfc:	0204f793          	andi	a5,s1,32
   10e00:	6298                	ld	a4,0(a3)
   10e02:	06a1                	addi	a3,a3,8
   10e04:	e836                	sd	a3,16(sp)
   10e06:	64079e63          	bnez	a5,11462 <_vfprintf_r+0xf94>
   10e0a:	0104f793          	andi	a5,s1,16
   10e0e:	64079a63          	bnez	a5,11462 <_vfprintf_r+0xf94>
   10e12:	0404f793          	andi	a5,s1,64
   10e16:	3e0799e3          	bnez	a5,11a08 <_vfprintf_r+0x153a>
   10e1a:	2004f493          	andi	s1,s1,512
   10e1e:	6782                	ld	a5,0(sp)
   10e20:	e099                	bnez	s1,10e26 <_vfprintf_r+0x958>
   10e22:	1280106f          	j	11f4a <_vfprintf_r+0x1a7c>
   10e26:	00f70023          	sb	a5,0(a4)
   10e2a:	8ca2                	mv	s9,s0
   10e2c:	ba15                	j	10760 <_vfprintf_r+0x292>
   10e2e:	00044f03          	lbu	t5,0(s0)
   10e32:	06c00793          	li	a5,108
   10e36:	7aff0263          	beq	t5,a5,115da <_vfprintf_r+0x110c>
   10e3a:	0104e493          	ori	s1,s1,16
   10e3e:	2481                	sext.w	s1,s1
   10e40:	fc2ff06f          	j	10602 <_vfprintf_r+0x134>
   10e44:	00044f03          	lbu	t5,0(s0)
   10e48:	06800793          	li	a5,104
   10e4c:	76ff0f63          	beq	t5,a5,115ca <_vfprintf_r+0x10fc>
   10e50:	0404e493          	ori	s1,s1,64
   10e54:	2481                	sext.w	s1,s1
   10e56:	facff06f          	j	10602 <_vfprintf_r+0x134>
   10e5a:	4705                	li	a4,1
   10e5c:	00e79463          	bne	a5,a4,10e64 <_vfprintf_r+0x996>
   10e60:	0220106f          	j	11e82 <_vfprintf_r+0x19b4>
   10e64:	4709                	li	a4,2
   10e66:	8826                	mv	a6,s1
   10e68:	d8e792e3          	bne	a5,a4,10bec <_vfprintf_r+0x71e>
   10e6c:	18c10c13          	addi	s8,sp,396
   10e70:	8ce2                	mv	s9,s8
   10e72:	7722                	ld	a4,40(sp)
   10e74:	00f9f793          	andi	a5,s3,15
   10e78:	1cfd                	addi	s9,s9,-1
   10e7a:	97ba                	add	a5,a5,a4
   10e7c:	0007c783          	lbu	a5,0(a5)
   10e80:	0049d993          	srli	s3,s3,0x4
   10e84:	00fc8023          	sb	a5,0(s9)
   10e88:	fe0995e3          	bnez	s3,10e72 <_vfprintf_r+0x9a4>
   10e8c:	419c0c3b          	subw	s8,s8,s9
   10e90:	84c2                	mv	s1,a6
   10e92:	b255                	j	10836 <_vfprintf_r+0x368>
   10e94:	06500713          	li	a4,101
   10e98:	1fb75463          	bge	a4,s11,11080 <_vfprintf_r+0xbb2>
   10e9c:	6512                	ld	a0,256(sp)
   10e9e:	65b2                	ld	a1,264(sp)
   10ea0:	4601                	li	a2,0
   10ea2:	4681                	li	a3,0
   10ea4:	f83e                	sd	a5,48(sp)
   10ea6:	e41a                	sd	t1,8(sp)
   10ea8:	6d9090ef          	jal	ra,1ad80 <__eqtf2>
   10eac:	6322                	ld	t1,8(sp)
   10eae:	77c2                	ld	a5,48(sp)
   10eb0:	3e051b63          	bnez	a0,112a6 <_vfprintf_r+0xdd8>
   10eb4:	11812703          	lw	a4,280(sp)
   10eb8:	0000b697          	auipc	a3,0xb
   10ebc:	36868693          	addi	a3,a3,872 # 1c220 <__clzdi2+0xca>
   10ec0:	00d33023          	sd	a3,0(t1)
   10ec4:	2705                	addiw	a4,a4,1
   10ec6:	4685                	li	a3,1
   10ec8:	0785                	addi	a5,a5,1
   10eca:	00d33423          	sd	a3,8(t1)
   10ece:	10e12c23          	sw	a4,280(sp)
   10ed2:	0007069b          	sext.w	a3,a4
   10ed6:	f23e                	sd	a5,288(sp)
   10ed8:	471d                	li	a4,7
   10eda:	0341                	addi	t1,t1,16
   10edc:	04d742e3          	blt	a4,a3,11720 <_vfprintf_r+0x1252>
   10ee0:	572e                	lw	a4,232(sp)
   10ee2:	7682                	ld	a3,32(sp)
   10ee4:	56d75a63          	bge	a4,a3,11458 <_vfprintf_r+0xf8a>
   10ee8:	7766                	ld	a4,120(sp)
   10eea:	76c6                	ld	a3,112(sp)
   10eec:	0341                	addi	t1,t1,16
   10eee:	fee33823          	sd	a4,-16(t1)
   10ef2:	11812703          	lw	a4,280(sp)
   10ef6:	97b6                	add	a5,a5,a3
   10ef8:	fed33c23          	sd	a3,-8(t1)
   10efc:	2705                	addiw	a4,a4,1
   10efe:	0007069b          	sext.w	a3,a4
   10f02:	10e12c23          	sw	a4,280(sp)
   10f06:	f23e                	sd	a5,288(sp)
   10f08:	471d                	li	a4,7
   10f0a:	6ed74063          	blt	a4,a3,115ea <_vfprintf_r+0x111c>
   10f0e:	7702                	ld	a4,32(sp)
   10f10:	fff70c1b          	addiw	s8,a4,-1
   10f14:	81805de3          	blez	s8,1072e <_vfprintf_r+0x260>
   10f18:	11812703          	lw	a4,280(sp)
   10f1c:	018d5de3          	bge	s10,s8,11736 <_vfprintf_r+0x1268>
   10f20:	4c9d                	li	s9,7
   10f22:	a021                	j	10f2a <_vfprintf_r+0xa5c>
   10f24:	3c41                	addiw	s8,s8,-16
   10f26:	018d58e3          	bge	s10,s8,11736 <_vfprintf_r+0x1268>
   10f2a:	2705                	addiw	a4,a4,1
   10f2c:	07c1                	addi	a5,a5,16
   10f2e:	01233023          	sd	s2,0(t1)
   10f32:	01a33423          	sd	s10,8(t1)
   10f36:	f23e                	sd	a5,288(sp)
   10f38:	10e12c23          	sw	a4,280(sp)
   10f3c:	0341                	addi	t1,t1,16
   10f3e:	feecd3e3          	bge	s9,a4,10f24 <_vfprintf_r+0xa56>
   10f42:	0a10                	addi	a2,sp,272
   10f44:	85d2                	mv	a1,s4
   10f46:	8556                	mv	a0,s5
   10f48:	2e0070ef          	jal	ra,18228 <__sprint_r>
   10f4c:	12051163          	bnez	a0,1106e <_vfprintf_r+0xba0>
   10f50:	7792                	ld	a5,288(sp)
   10f52:	11812703          	lw	a4,280(sp)
   10f56:	835e                	mv	t1,s7
   10f58:	b7f1                	j	10f24 <_vfprintf_r+0xa56>
   10f5a:	413b06bb          	subw	a3,s6,s3
   10f5e:	f8d05f63          	blez	a3,106fc <_vfprintf_r+0x22e>
   10f62:	11812703          	lw	a4,280(sp)
   10f66:	04dd5563          	bge	s10,a3,10fb0 <_vfprintf_r+0xae2>
   10f6a:	489d                	li	a7,7
   10f6c:	a021                	j	10f74 <_vfprintf_r+0xaa6>
   10f6e:	36c1                	addiw	a3,a3,-16
   10f70:	04dd5063          	bge	s10,a3,10fb0 <_vfprintf_r+0xae2>
   10f74:	2705                	addiw	a4,a4,1
   10f76:	07c1                	addi	a5,a5,16
   10f78:	01233023          	sd	s2,0(t1)
   10f7c:	01a33423          	sd	s10,8(t1)
   10f80:	f23e                	sd	a5,288(sp)
   10f82:	10e12c23          	sw	a4,280(sp)
   10f86:	0341                	addi	t1,t1,16
   10f88:	fee8d3e3          	bge	a7,a4,10f6e <_vfprintf_r+0xaa0>
   10f8c:	0a10                	addi	a2,sp,272
   10f8e:	85d2                	mv	a1,s4
   10f90:	8556                	mv	a0,s5
   10f92:	f836                	sd	a3,48(sp)
   10f94:	e476                	sd	t4,8(sp)
   10f96:	292070ef          	jal	ra,18228 <__sprint_r>
   10f9a:	e971                	bnez	a0,1106e <_vfprintf_r+0xba0>
   10f9c:	76c2                	ld	a3,48(sp)
   10f9e:	7792                	ld	a5,288(sp)
   10fa0:	11812703          	lw	a4,280(sp)
   10fa4:	36c1                	addiw	a3,a3,-16
   10fa6:	6ea2                	ld	t4,8(sp)
   10fa8:	835e                	mv	t1,s7
   10faa:	489d                	li	a7,7
   10fac:	fcdd44e3          	blt	s10,a3,10f74 <_vfprintf_r+0xaa6>
   10fb0:	2705                	addiw	a4,a4,1
   10fb2:	97b6                	add	a5,a5,a3
   10fb4:	00d33423          	sd	a3,8(t1)
   10fb8:	01233023          	sd	s2,0(t1)
   10fbc:	0007069b          	sext.w	a3,a4
   10fc0:	10e12c23          	sw	a4,280(sp)
   10fc4:	f23e                	sd	a5,288(sp)
   10fc6:	471d                	li	a4,7
   10fc8:	0341                	addi	t1,t1,16
   10fca:	f2d75963          	bge	a4,a3,106fc <_vfprintf_r+0x22e>
   10fce:	0a10                	addi	a2,sp,272
   10fd0:	85d2                	mv	a1,s4
   10fd2:	8556                	mv	a0,s5
   10fd4:	e476                	sd	t4,8(sp)
   10fd6:	252070ef          	jal	ra,18228 <__sprint_r>
   10fda:	e951                	bnez	a0,1106e <_vfprintf_r+0xba0>
   10fdc:	7792                	ld	a5,288(sp)
   10fde:	6ea2                	ld	t4,8(sp)
   10fe0:	835e                	mv	t1,s7
   10fe2:	f1aff06f          	j	106fc <_vfprintf_r+0x22e>
   10fe6:	11812703          	lw	a4,280(sp)
   10fea:	05dd5363          	bge	s10,t4,11030 <_vfprintf_r+0xb62>
   10fee:	489d                	li	a7,7
   10ff0:	a021                	j	10ff8 <_vfprintf_r+0xb2a>
   10ff2:	3ec1                	addiw	t4,t4,-16
   10ff4:	03dd5e63          	bge	s10,t4,11030 <_vfprintf_r+0xb62>
   10ff8:	2705                	addiw	a4,a4,1
   10ffa:	07c1                	addi	a5,a5,16
   10ffc:	01233023          	sd	s2,0(t1)
   11000:	01a33423          	sd	s10,8(t1)
   11004:	f23e                	sd	a5,288(sp)
   11006:	10e12c23          	sw	a4,280(sp)
   1100a:	0341                	addi	t1,t1,16
   1100c:	fee8d3e3          	bge	a7,a4,10ff2 <_vfprintf_r+0xb24>
   11010:	0a10                	addi	a2,sp,272
   11012:	85d2                	mv	a1,s4
   11014:	8556                	mv	a0,s5
   11016:	e476                	sd	t4,8(sp)
   11018:	210070ef          	jal	ra,18228 <__sprint_r>
   1101c:	e929                	bnez	a0,1106e <_vfprintf_r+0xba0>
   1101e:	6ea2                	ld	t4,8(sp)
   11020:	7792                	ld	a5,288(sp)
   11022:	11812703          	lw	a4,280(sp)
   11026:	3ec1                	addiw	t4,t4,-16
   11028:	835e                	mv	t1,s7
   1102a:	489d                	li	a7,7
   1102c:	fddd46e3          	blt	s10,t4,10ff8 <_vfprintf_r+0xb2a>
   11030:	0017069b          	addiw	a3,a4,1
   11034:	97f6                	add	a5,a5,t4
   11036:	01233023          	sd	s2,0(t1)
   1103a:	01d33423          	sd	t4,8(t1)
   1103e:	f23e                	sd	a5,288(sp)
   11040:	10d12c23          	sw	a3,280(sp)
   11044:	471d                	li	a4,7
   11046:	0341                	addi	t1,t1,16
   11048:	ead75e63          	bge	a4,a3,10704 <_vfprintf_r+0x236>
   1104c:	0a10                	addi	a2,sp,272
   1104e:	85d2                	mv	a1,s4
   11050:	8556                	mv	a0,s5
   11052:	1d6070ef          	jal	ra,18228 <__sprint_r>
   11056:	ed01                	bnez	a0,1106e <_vfprintf_r+0xba0>
   11058:	7792                	ld	a5,288(sp)
   1105a:	835e                	mv	t1,s7
   1105c:	ea8ff06f          	j	10704 <_vfprintf_r+0x236>
   11060:	0a10                	addi	a2,sp,272
   11062:	85d2                	mv	a1,s4
   11064:	8556                	mv	a0,s5
   11066:	1c2070ef          	jal	ra,18228 <__sprint_r>
   1106a:	ee050163          	beqz	a0,1074c <_vfprintf_r+0x27e>
   1106e:	67e2                	ld	a5,24(sp)
   11070:	f0078063          	beqz	a5,10770 <_vfprintf_r+0x2a2>
   11074:	85be                	mv	a1,a5
   11076:	8556                	mv	a0,s5
   11078:	029010ef          	jal	ra,128a0 <_free_r>
   1107c:	ef4ff06f          	j	10770 <_vfprintf_r+0x2a2>
   11080:	11812603          	lw	a2,280(sp)
   11084:	00178d93          	addi	s11,a5,1
   11088:	7782                	ld	a5,32(sp)
   1108a:	0016071b          	addiw	a4,a2,1
   1108e:	4585                	li	a1,1
   11090:	01933023          	sd	s9,0(t1)
   11094:	86ba                	mv	a3,a4
   11096:	01030c13          	addi	s8,t1,16
   1109a:	32f5d863          	bge	a1,a5,113ca <_vfprintf_r+0xefc>
   1109e:	4605                	li	a2,1
   110a0:	10d12c23          	sw	a3,280(sp)
   110a4:	00c33423          	sd	a2,8(t1)
   110a8:	f26e                	sd	s11,288(sp)
   110aa:	469d                	li	a3,7
   110ac:	5ce6c463          	blt	a3,a4,11674 <_vfprintf_r+0x11a6>
   110b0:	77c6                	ld	a5,112(sp)
   110b2:	0017069b          	addiw	a3,a4,1
   110b6:	7766                	ld	a4,120(sp)
   110b8:	9dbe                	add	s11,s11,a5
   110ba:	00fc3423          	sd	a5,8(s8)
   110be:	00ec3023          	sd	a4,0(s8)
   110c2:	10d12c23          	sw	a3,280(sp)
   110c6:	0006871b          	sext.w	a4,a3
   110ca:	f26e                	sd	s11,288(sp)
   110cc:	469d                	li	a3,7
   110ce:	0c41                	addi	s8,s8,16
   110d0:	5ae6ce63          	blt	a3,a4,1168c <_vfprintf_r+0x11be>
   110d4:	6512                	ld	a0,256(sp)
   110d6:	65b2                	ld	a1,264(sp)
   110d8:	0017089b          	addiw	a7,a4,1
   110dc:	4601                	li	a2,0
   110de:	4681                	li	a3,0
   110e0:	e446                	sd	a7,8(sp)
   110e2:	f83a                	sd	a4,48(sp)
   110e4:	49d090ef          	jal	ra,1ad80 <__eqtf2>
   110e8:	68a2                	ld	a7,8(sp)
   110ea:	7782                	ld	a5,32(sp)
   110ec:	010c0313          	addi	t1,s8,16
   110f0:	0008861b          	sext.w	a2,a7
   110f4:	fff7869b          	addiw	a3,a5,-1
   110f8:	2e050963          	beqz	a0,113ea <_vfprintf_r+0xf1c>
   110fc:	9db6                	add	s11,s11,a3
   110fe:	001c8813          	addi	a6,s9,1
   11102:	00dc3423          	sd	a3,8(s8)
   11106:	010c3023          	sd	a6,0(s8)
   1110a:	f26e                	sd	s11,288(sp)
   1110c:	11112c23          	sw	a7,280(sp)
   11110:	469d                	li	a3,7
   11112:	44c6c763          	blt	a3,a2,11560 <_vfprintf_r+0x1092>
   11116:	7742                	ld	a4,48(sp)
   11118:	020c0693          	addi	a3,s8,32
   1111c:	8c1a                	mv	s8,t1
   1111e:	0027061b          	addiw	a2,a4,2
   11122:	8336                	mv	t1,a3
   11124:	668a                	ld	a3,128(sp)
   11126:	1998                	addi	a4,sp,240
   11128:	00ec3023          	sd	a4,0(s8)
   1112c:	00dd87b3          	add	a5,s11,a3
   11130:	00dc3423          	sd	a3,8(s8)
   11134:	f23e                	sd	a5,288(sp)
   11136:	10c12c23          	sw	a2,280(sp)
   1113a:	471d                	li	a4,7
   1113c:	dec75963          	bge	a4,a2,1072e <_vfprintf_r+0x260>
   11140:	bc2d                	j	10b7a <_vfprintf_r+0x6ac>
   11142:	4705                	li	a4,1
   11144:	8826                	mv	a6,s1
   11146:	aae790e3          	bne	a5,a4,10be6 <_vfprintf_r+0x718>
   1114a:	47a5                	li	a5,9
   1114c:	3737e163          	bltu	a5,s3,114ae <_vfprintf_r+0xfe0>
   11150:	0309899b          	addiw	s3,s3,48
   11154:	193105a3          	sb	s3,395(sp)
   11158:	84c2                	mv	s1,a6
   1115a:	4c05                	li	s8,1
   1115c:	18b10c93          	addi	s9,sp,395
   11160:	ed6ff06f          	j	10836 <_vfprintf_r+0x368>
   11164:	11812703          	lw	a4,280(sp)
   11168:	0000b897          	auipc	a7,0xb
   1116c:	23088893          	addi	a7,a7,560 # 1c398 <blanks.4520>
   11170:	439d                	li	t2,7
   11172:	00dd4663          	blt	s10,a3,1117e <_vfprintf_r+0xcb0>
   11176:	a889                	j	111c8 <_vfprintf_r+0xcfa>
   11178:	36c1                	addiw	a3,a3,-16
   1117a:	04dd5763          	bge	s10,a3,111c8 <_vfprintf_r+0xcfa>
   1117e:	2705                	addiw	a4,a4,1
   11180:	07c1                	addi	a5,a5,16
   11182:	01133023          	sd	a7,0(t1)
   11186:	01a33423          	sd	s10,8(t1)
   1118a:	f23e                	sd	a5,288(sp)
   1118c:	10e12c23          	sw	a4,280(sp)
   11190:	0341                	addi	t1,t1,16
   11192:	fee3d3e3          	bge	t2,a4,11178 <_vfprintf_r+0xcaa>
   11196:	0a10                	addi	a2,sp,272
   11198:	85d2                	mv	a1,s4
   1119a:	8556                	mv	a0,s5
   1119c:	e4c6                	sd	a7,72(sp)
   1119e:	e0f6                	sd	t4,64(sp)
   111a0:	fc7e                	sd	t6,56(sp)
   111a2:	f816                	sd	t0,48(sp)
   111a4:	e436                	sd	a3,8(sp)
   111a6:	082070ef          	jal	ra,18228 <__sprint_r>
   111aa:	ec0512e3          	bnez	a0,1106e <_vfprintf_r+0xba0>
   111ae:	66a2                	ld	a3,8(sp)
   111b0:	7792                	ld	a5,288(sp)
   111b2:	11812703          	lw	a4,280(sp)
   111b6:	36c1                	addiw	a3,a3,-16
   111b8:	68a6                	ld	a7,72(sp)
   111ba:	6e86                	ld	t4,64(sp)
   111bc:	7fe2                	ld	t6,56(sp)
   111be:	72c2                	ld	t0,48(sp)
   111c0:	835e                	mv	t1,s7
   111c2:	439d                	li	t2,7
   111c4:	fadd4de3          	blt	s10,a3,1117e <_vfprintf_r+0xcb0>
   111c8:	2705                	addiw	a4,a4,1
   111ca:	97b6                	add	a5,a5,a3
   111cc:	00d33423          	sd	a3,8(t1)
   111d0:	01133023          	sd	a7,0(t1)
   111d4:	0007069b          	sext.w	a3,a4
   111d8:	10e12c23          	sw	a4,280(sp)
   111dc:	f23e                	sd	a5,288(sp)
   111de:	471d                	li	a4,7
   111e0:	0341                	addi	t1,t1,16
   111e2:	cad75d63          	bge	a4,a3,1069c <_vfprintf_r+0x1ce>
   111e6:	0a10                	addi	a2,sp,272
   111e8:	85d2                	mv	a1,s4
   111ea:	8556                	mv	a0,s5
   111ec:	fc76                	sd	t4,56(sp)
   111ee:	f87e                	sd	t6,48(sp)
   111f0:	e416                	sd	t0,8(sp)
   111f2:	036070ef          	jal	ra,18228 <__sprint_r>
   111f6:	e6051ce3          	bnez	a0,1106e <_vfprintf_r+0xba0>
   111fa:	7792                	ld	a5,288(sp)
   111fc:	7ee2                	ld	t4,56(sp)
   111fe:	7fc2                	ld	t6,48(sp)
   11200:	62a2                	ld	t0,8(sp)
   11202:	835e                	mv	t1,s7
   11204:	c98ff06f          	j	1069c <_vfprintf_r+0x1ce>
   11208:	0a10                	addi	a2,sp,272
   1120a:	85d2                	mv	a1,s4
   1120c:	8556                	mv	a0,s5
   1120e:	f876                	sd	t4,48(sp)
   11210:	e47e                	sd	t6,8(sp)
   11212:	016070ef          	jal	ra,18228 <__sprint_r>
   11216:	e4051ce3          	bnez	a0,1106e <_vfprintf_r+0xba0>
   1121a:	7792                	ld	a5,288(sp)
   1121c:	7ec2                	ld	t4,48(sp)
   1121e:	6fa2                	ld	t6,8(sp)
   11220:	835e                	mv	t1,s7
   11222:	cd2ff06f          	j	106f4 <_vfprintf_r+0x226>
   11226:	11812703          	lw	a4,280(sp)
   1122a:	0000b897          	auipc	a7,0xb
   1122e:	16e88893          	addi	a7,a7,366 # 1c398 <blanks.4520>
   11232:	4c1d                	li	s8,7
   11234:	009d4663          	blt	s10,s1,11240 <_vfprintf_r+0xd72>
   11238:	a081                	j	11278 <_vfprintf_r+0xdaa>
   1123a:	34c1                	addiw	s1,s1,-16
   1123c:	029d5e63          	bge	s10,s1,11278 <_vfprintf_r+0xdaa>
   11240:	2705                	addiw	a4,a4,1
   11242:	07c1                	addi	a5,a5,16
   11244:	01133023          	sd	a7,0(t1)
   11248:	01a33423          	sd	s10,8(t1)
   1124c:	f23e                	sd	a5,288(sp)
   1124e:	10e12c23          	sw	a4,280(sp)
   11252:	0341                	addi	t1,t1,16
   11254:	feec53e3          	bge	s8,a4,1123a <_vfprintf_r+0xd6c>
   11258:	0a10                	addi	a2,sp,272
   1125a:	85d2                	mv	a1,s4
   1125c:	8556                	mv	a0,s5
   1125e:	e446                	sd	a7,8(sp)
   11260:	7c9060ef          	jal	ra,18228 <__sprint_r>
   11264:	e00515e3          	bnez	a0,1106e <_vfprintf_r+0xba0>
   11268:	34c1                	addiw	s1,s1,-16
   1126a:	7792                	ld	a5,288(sp)
   1126c:	11812703          	lw	a4,280(sp)
   11270:	68a2                	ld	a7,8(sp)
   11272:	835e                	mv	t1,s7
   11274:	fc9d46e3          	blt	s10,s1,11240 <_vfprintf_r+0xd72>
   11278:	0017069b          	addiw	a3,a4,1
   1127c:	97a6                	add	a5,a5,s1
   1127e:	01133023          	sd	a7,0(t1)
   11282:	00933423          	sd	s1,8(t1)
   11286:	f23e                	sd	a5,288(sp)
   11288:	10d12c23          	sw	a3,280(sp)
   1128c:	471d                	li	a4,7
   1128e:	cad75663          	bge	a4,a3,1073a <_vfprintf_r+0x26c>
   11292:	0a10                	addi	a2,sp,272
   11294:	85d2                	mv	a1,s4
   11296:	8556                	mv	a0,s5
   11298:	791060ef          	jal	ra,18228 <__sprint_r>
   1129c:	dc0519e3          	bnez	a0,1106e <_vfprintf_r+0xba0>
   112a0:	7792                	ld	a5,288(sp)
   112a2:	c98ff06f          	j	1073a <_vfprintf_r+0x26c>
   112a6:	562e                	lw	a2,232(sp)
   112a8:	3ec05e63          	blez	a2,116a4 <_vfprintf_r+0x11d6>
   112ac:	6766                	ld	a4,88(sp)
   112ae:	7682                	ld	a3,32(sp)
   112b0:	00070c1b          	sext.w	s8,a4
   112b4:	28e6c263          	blt	a3,a4,11538 <_vfprintf_r+0x106a>
   112b8:	03805263          	blez	s8,112dc <_vfprintf_r+0xe0e>
   112bc:	11812703          	lw	a4,280(sp)
   112c0:	97e2                	add	a5,a5,s8
   112c2:	01933023          	sd	s9,0(t1)
   112c6:	0017069b          	addiw	a3,a4,1
   112ca:	01833423          	sd	s8,8(t1)
   112ce:	f23e                	sd	a5,288(sp)
   112d0:	10d12c23          	sw	a3,280(sp)
   112d4:	471d                	li	a4,7
   112d6:	0341                	addi	t1,t1,16
   112d8:	6ed74d63          	blt	a4,a3,119d2 <_vfprintf_r+0x1504>
   112dc:	fffc4713          	not	a4,s8
   112e0:	977d                	srai	a4,a4,0x3f
   112e2:	00ec7c33          	and	s8,s8,a4
   112e6:	6766                	ld	a4,88(sp)
   112e8:	41870c3b          	subw	s8,a4,s8
   112ec:	33804c63          	bgtz	s8,11624 <_vfprintf_r+0x1156>
   112f0:	66e6                	ld	a3,88(sp)
   112f2:	4004f713          	andi	a4,s1,1024
   112f6:	00dc8db3          	add	s11,s9,a3
   112fa:	54071f63          	bnez	a4,11858 <_vfprintf_r+0x138a>
   112fe:	572e                	lw	a4,232(sp)
   11300:	7682                	ld	a3,32(sp)
   11302:	00d74663          	blt	a4,a3,1130e <_vfprintf_r+0xe40>
   11306:	0014f693          	andi	a3,s1,1
   1130a:	6e068063          	beqz	a3,119ea <_vfprintf_r+0x151c>
   1130e:	76e6                	ld	a3,120(sp)
   11310:	7646                	ld	a2,112(sp)
   11312:	0341                	addi	t1,t1,16
   11314:	fed33823          	sd	a3,-16(t1)
   11318:	11812683          	lw	a3,280(sp)
   1131c:	97b2                	add	a5,a5,a2
   1131e:	fec33c23          	sd	a2,-8(t1)
   11322:	2685                	addiw	a3,a3,1
   11324:	0006861b          	sext.w	a2,a3
   11328:	10d12c23          	sw	a3,280(sp)
   1132c:	f23e                	sd	a5,288(sp)
   1132e:	469d                	li	a3,7
   11330:	22c6c7e3          	blt	a3,a2,11d5e <_vfprintf_r+0x1890>
   11334:	7682                	ld	a3,32(sp)
   11336:	00dc8633          	add	a2,s9,a3
   1133a:	40e6873b          	subw	a4,a3,a4
   1133e:	41b6063b          	subw	a2,a2,s11
   11342:	0007069b          	sext.w	a3,a4
   11346:	00d65363          	bge	a2,a3,1134c <_vfprintf_r+0xe7e>
   1134a:	8732                	mv	a4,a2
   1134c:	00070c9b          	sext.w	s9,a4
   11350:	03905263          	blez	s9,11374 <_vfprintf_r+0xea6>
   11354:	11812603          	lw	a2,280(sp)
   11358:	97e6                	add	a5,a5,s9
   1135a:	01b33023          	sd	s11,0(t1)
   1135e:	0016059b          	addiw	a1,a2,1
   11362:	01933423          	sd	s9,8(t1)
   11366:	f23e                	sd	a5,288(sp)
   11368:	10b12c23          	sw	a1,280(sp)
   1136c:	461d                	li	a2,7
   1136e:	0341                	addi	t1,t1,16
   11370:	26b644e3          	blt	a2,a1,11dd8 <_vfprintf_r+0x190a>
   11374:	fffccc13          	not	s8,s9
   11378:	43fc5c13          	srai	s8,s8,0x3f
   1137c:	018cfc33          	and	s8,s9,s8
   11380:	41868c3b          	subw	s8,a3,s8
   11384:	bb805563          	blez	s8,1072e <_vfprintf_r+0x260>
   11388:	11812703          	lw	a4,280(sp)
   1138c:	3b8d5563          	bge	s10,s8,11736 <_vfprintf_r+0x1268>
   11390:	4c9d                	li	s9,7
   11392:	a021                	j	1139a <_vfprintf_r+0xecc>
   11394:	3c41                	addiw	s8,s8,-16
   11396:	3b8d5063          	bge	s10,s8,11736 <_vfprintf_r+0x1268>
   1139a:	2705                	addiw	a4,a4,1
   1139c:	07c1                	addi	a5,a5,16
   1139e:	01233023          	sd	s2,0(t1)
   113a2:	01a33423          	sd	s10,8(t1)
   113a6:	f23e                	sd	a5,288(sp)
   113a8:	10e12c23          	sw	a4,280(sp)
   113ac:	0341                	addi	t1,t1,16
   113ae:	feecd3e3          	bge	s9,a4,11394 <_vfprintf_r+0xec6>
   113b2:	0a10                	addi	a2,sp,272
   113b4:	85d2                	mv	a1,s4
   113b6:	8556                	mv	a0,s5
   113b8:	671060ef          	jal	ra,18228 <__sprint_r>
   113bc:	ca0519e3          	bnez	a0,1106e <_vfprintf_r+0xba0>
   113c0:	7792                	ld	a5,288(sp)
   113c2:	11812703          	lw	a4,280(sp)
   113c6:	835e                	mv	t1,s7
   113c8:	b7f1                	j	11394 <_vfprintf_r+0xec6>
   113ca:	0014f513          	andi	a0,s1,1
   113ce:	cc0518e3          	bnez	a0,1109e <_vfprintf_r+0xbd0>
   113d2:	00b33423          	sd	a1,8(t1)
   113d6:	f26e                	sd	s11,288(sp)
   113d8:	10e12c23          	sw	a4,280(sp)
   113dc:	469d                	li	a3,7
   113de:	18e6c163          	blt	a3,a4,11560 <_vfprintf_r+0x1092>
   113e2:	2609                	addiw	a2,a2,2
   113e4:	02030313          	addi	t1,t1,32
   113e8:	bb35                	j	11124 <_vfprintf_r+0xc56>
   113ea:	d2d05de3          	blez	a3,11124 <_vfprintf_r+0xc56>
   113ee:	4cdd50e3          	bge	s10,a3,120ae <_vfprintf_r+0x1be0>
   113f2:	4c9d                	li	s9,7
   113f4:	a031                	j	11400 <_vfprintf_r+0xf32>
   113f6:	36c1                	addiw	a3,a3,-16
   113f8:	14dd5563          	bge	s10,a3,11542 <_vfprintf_r+0x1074>
   113fc:	0017089b          	addiw	a7,a4,1
   11400:	0dc1                	addi	s11,s11,16
   11402:	012c3023          	sd	s2,0(s8)
   11406:	01ac3423          	sd	s10,8(s8)
   1140a:	f26e                	sd	s11,288(sp)
   1140c:	0008871b          	sext.w	a4,a7
   11410:	11112c23          	sw	a7,280(sp)
   11414:	0c41                	addi	s8,s8,16
   11416:	feecd0e3          	bge	s9,a4,113f6 <_vfprintf_r+0xf28>
   1141a:	0a10                	addi	a2,sp,272
   1141c:	85d2                	mv	a1,s4
   1141e:	8556                	mv	a0,s5
   11420:	e436                	sd	a3,8(sp)
   11422:	607060ef          	jal	ra,18228 <__sprint_r>
   11426:	c40514e3          	bnez	a0,1106e <_vfprintf_r+0xba0>
   1142a:	7d92                	ld	s11,288(sp)
   1142c:	11812703          	lw	a4,280(sp)
   11430:	66a2                	ld	a3,8(sp)
   11432:	8c5e                	mv	s8,s7
   11434:	b7c9                	j	113f6 <_vfprintf_r+0xf28>
   11436:	01087793          	andi	a5,a6,16
   1143a:	eb8d                	bnez	a5,1146c <_vfprintf_r+0xf9e>
   1143c:	66c2                	ld	a3,16(sp)
   1143e:	04087793          	andi	a5,a6,64
   11442:	0006a983          	lw	s3,0(a3)
   11446:	36078c63          	beqz	a5,117be <_vfprintf_r+0x12f0>
   1144a:	19c2                	slli	s3,s3,0x30
   1144c:	0309d993          	srli	s3,s3,0x30
   11450:	e83a                	sd	a4,16(sp)
   11452:	4785                	li	a5,1
   11454:	c26ff06f          	j	1087a <_vfprintf_r+0x3ac>
   11458:	0014f713          	andi	a4,s1,1
   1145c:	ac070963          	beqz	a4,1072e <_vfprintf_r+0x260>
   11460:	b461                	j	10ee8 <_vfprintf_r+0xa1a>
   11462:	6782                	ld	a5,0(sp)
   11464:	8ca2                	mv	s9,s0
   11466:	e31c                	sd	a5,0(a4)
   11468:	af8ff06f          	j	10760 <_vfprintf_r+0x292>
   1146c:	67c2                	ld	a5,16(sp)
   1146e:	e83a                	sd	a4,16(sp)
   11470:	0007b983          	ld	s3,0(a5)
   11474:	4785                	li	a5,1
   11476:	c04ff06f          	j	1087a <_vfprintf_r+0x3ac>
   1147a:	67c2                	ld	a5,16(sp)
   1147c:	639c                	ld	a5,0(a5)
   1147e:	89be                	mv	s3,a5
   11480:	b90ff06f          	j	10810 <_vfprintf_r+0x342>
   11484:	67c2                	ld	a5,16(sp)
   11486:	0007b983          	ld	s3,0(a5)
   1148a:	be4ff06f          	j	1086e <_vfprintf_r+0x3a0>
   1148e:	67c2                	ld	a5,16(sp)
   11490:	07bd                	addi	a5,a5,15
   11492:	9bc1                	andi	a5,a5,-16
   11494:	6394                	ld	a3,0(a5)
   11496:	6798                	ld	a4,8(a5)
   11498:	07c1                	addi	a5,a5,16
   1149a:	e83e                	sd	a5,16(sp)
   1149c:	e236                	sd	a3,256(sp)
   1149e:	e63a                	sd	a4,264(sp)
   114a0:	c50ff06f          	j	108f0 <_vfprintf_r+0x422>
   114a4:	e83a                	sd	a4,16(sp)
   114a6:	47a5                	li	a5,9
   114a8:	8826                	mv	a6,s1
   114aa:	cb37f3e3          	bgeu	a5,s3,11150 <_vfprintf_r+0xc82>
   114ae:	40087793          	andi	a5,a6,1024
   114b2:	18c10c13          	addi	s8,sp,396
   114b6:	2781                	sext.w	a5,a5
   114b8:	f002                	sd	zero,32(sp)
   114ba:	85e2                	mv	a1,s8
   114bc:	44a9                	li	s1,10
   114be:	4725                	li	a4,9
   114c0:	0ff00693          	li	a3,255
   114c4:	a039                	j	114d2 <_vfprintf_r+0x1004>
   114c6:	0299d633          	divu	a2,s3,s1
   114ca:	9d3771e3          	bgeu	a4,s3,10e8c <_vfprintf_r+0x9be>
   114ce:	89b2                	mv	s3,a2
   114d0:	85e6                	mv	a1,s9
   114d2:	7502                	ld	a0,32(sp)
   114d4:	fff58c93          	addi	s9,a1,-1
   114d8:	2505                	addiw	a0,a0,1
   114da:	f02a                	sd	a0,32(sp)
   114dc:	0299f633          	remu	a2,s3,s1
   114e0:	0306061b          	addiw	a2,a2,48
   114e4:	fec58fa3          	sb	a2,-1(a1)
   114e8:	dff9                	beqz	a5,114c6 <_vfprintf_r+0xff8>
   114ea:	7626                	ld	a2,104(sp)
   114ec:	00064603          	lbu	a2,0(a2)
   114f0:	fcc51be3          	bne	a0,a2,114c6 <_vfprintf_r+0xff8>
   114f4:	fcd609e3          	beq	a2,a3,114c6 <_vfprintf_r+0xff8>
   114f8:	99377ae3          	bgeu	a4,s3,10e8c <_vfprintf_r+0x9be>
   114fc:	fc3e                	sd	a5,56(sp)
   114fe:	67aa                	ld	a5,136(sp)
   11500:	65ca                	ld	a1,144(sp)
   11502:	f81a                	sd	t1,48(sp)
   11504:	40fc8cb3          	sub	s9,s9,a5
   11508:	863e                	mv	a2,a5
   1150a:	8566                	mv	a0,s9
   1150c:	ec76                	sd	t4,24(sp)
   1150e:	e442                	sd	a6,8(sp)
   11510:	016050ef          	jal	ra,16526 <strncpy>
   11514:	77a6                	ld	a5,104(sp)
   11516:	0299d633          	divu	a2,s3,s1
   1151a:	6822                	ld	a6,8(sp)
   1151c:	0017c583          	lbu	a1,1(a5)
   11520:	6ee2                	ld	t4,24(sp)
   11522:	7342                	ld	t1,48(sp)
   11524:	00b035b3          	snez	a1,a1
   11528:	97ae                	add	a5,a5,a1
   1152a:	f4be                	sd	a5,104(sp)
   1152c:	f002                	sd	zero,32(sp)
   1152e:	77e2                	ld	a5,56(sp)
   11530:	4725                	li	a4,9
   11532:	0ff00693          	li	a3,255
   11536:	bf61                	j	114ce <_vfprintf_r+0x1000>
   11538:	00068c1b          	sext.w	s8,a3
   1153c:	d98040e3          	bgtz	s8,112bc <_vfprintf_r+0xdee>
   11540:	bb71                	j	112dc <_vfprintf_r+0xe0e>
   11542:	0017061b          	addiw	a2,a4,1
   11546:	010c0713          	addi	a4,s8,16
   1154a:	9db6                	add	s11,s11,a3
   1154c:	00dc3423          	sd	a3,8(s8)
   11550:	012c3023          	sd	s2,0(s8)
   11554:	f26e                	sd	s11,288(sp)
   11556:	10c12c23          	sw	a2,280(sp)
   1155a:	469d                	li	a3,7
   1155c:	44c6d563          	bge	a3,a2,119a6 <_vfprintf_r+0x14d8>
   11560:	0a10                	addi	a2,sp,272
   11562:	85d2                	mv	a1,s4
   11564:	8556                	mv	a0,s5
   11566:	4c3060ef          	jal	ra,18228 <__sprint_r>
   1156a:	b00512e3          	bnez	a0,1106e <_vfprintf_r+0xba0>
   1156e:	11812603          	lw	a2,280(sp)
   11572:	7d92                	ld	s11,288(sp)
   11574:	1a010313          	addi	t1,sp,416
   11578:	2605                	addiw	a2,a2,1
   1157a:	8c5e                	mv	s8,s7
   1157c:	b665                	j	11124 <_vfprintf_r+0xc56>
   1157e:	8826                	mv	a6,s1
   11580:	825ff06f          	j	10da4 <_vfprintf_r+0x8d6>
   11584:	0000b797          	auipc	a5,0xb
   11588:	c7c78793          	addi	a5,a5,-900 # 1c200 <__clzdi2+0xaa>
   1158c:	f43e                	sd	a5,40(sp)
   1158e:	66c2                	ld	a3,16(sp)
   11590:	0204f793          	andi	a5,s1,32
   11594:	00868713          	addi	a4,a3,8
   11598:	c7f9                	beqz	a5,11666 <_vfprintf_r+0x1198>
   1159a:	0006b983          	ld	s3,0(a3)
   1159e:	0014f793          	andi	a5,s1,1
   115a2:	cf81                	beqz	a5,115ba <_vfprintf_r+0x10ec>
   115a4:	00098b63          	beqz	s3,115ba <_vfprintf_r+0x10ec>
   115a8:	0024e493          	ori	s1,s1,2
   115ac:	03000793          	li	a5,48
   115b0:	0ef10023          	sb	a5,224(sp)
   115b4:	0fb100a3          	sb	s11,225(sp)
   115b8:	2481                	sext.w	s1,s1
   115ba:	bff4f493          	andi	s1,s1,-1025
   115be:	0004881b          	sext.w	a6,s1
   115c2:	e83a                	sd	a4,16(sp)
   115c4:	4789                	li	a5,2
   115c6:	ab4ff06f          	j	1087a <_vfprintf_r+0x3ac>
   115ca:	2004e493          	ori	s1,s1,512
   115ce:	00144f03          	lbu	t5,1(s0)
   115d2:	2481                	sext.w	s1,s1
   115d4:	0405                	addi	s0,s0,1
   115d6:	82cff06f          	j	10602 <_vfprintf_r+0x134>
   115da:	0204e493          	ori	s1,s1,32
   115de:	00144f03          	lbu	t5,1(s0)
   115e2:	2481                	sext.w	s1,s1
   115e4:	0405                	addi	s0,s0,1
   115e6:	81cff06f          	j	10602 <_vfprintf_r+0x134>
   115ea:	0a10                	addi	a2,sp,272
   115ec:	85d2                	mv	a1,s4
   115ee:	8556                	mv	a0,s5
   115f0:	439060ef          	jal	ra,18228 <__sprint_r>
   115f4:	a6051de3          	bnez	a0,1106e <_vfprintf_r+0xba0>
   115f8:	7792                	ld	a5,288(sp)
   115fa:	835e                	mv	t1,s7
   115fc:	ba09                	j	10f0e <_vfprintf_r+0xa40>
   115fe:	0000b797          	auipc	a5,0xb
   11602:	bea78793          	addi	a5,a5,-1046 # 1c1e8 <__clzdi2+0x92>
   11606:	f43e                	sd	a5,40(sp)
   11608:	b759                	j	1158e <_vfprintf_r+0x10c0>
   1160a:	4799                	li	a5,6
   1160c:	000e8c1b          	sext.w	s8,t4
   11610:	3dd7eb63          	bltu	a5,t4,119e6 <_vfprintf_r+0x1518>
   11614:	89e2                	mv	s3,s8
   11616:	e836                	sd	a3,16(sp)
   11618:	0000bc97          	auipc	s9,0xb
   1161c:	c00c8c93          	addi	s9,s9,-1024 # 1c218 <__clzdi2+0xc2>
   11620:	854ff06f          	j	10674 <_vfprintf_r+0x1a6>
   11624:	11812703          	lw	a4,280(sp)
   11628:	218d5063          	bge	s10,s8,11828 <_vfprintf_r+0x135a>
   1162c:	4d9d                	li	s11,7
   1162e:	a021                	j	11636 <_vfprintf_r+0x1168>
   11630:	3c41                	addiw	s8,s8,-16
   11632:	1f8d5b63          	bge	s10,s8,11828 <_vfprintf_r+0x135a>
   11636:	2705                	addiw	a4,a4,1
   11638:	07c1                	addi	a5,a5,16
   1163a:	01233023          	sd	s2,0(t1)
   1163e:	01a33423          	sd	s10,8(t1)
   11642:	f23e                	sd	a5,288(sp)
   11644:	10e12c23          	sw	a4,280(sp)
   11648:	0341                	addi	t1,t1,16
   1164a:	feedd3e3          	bge	s11,a4,11630 <_vfprintf_r+0x1162>
   1164e:	0a10                	addi	a2,sp,272
   11650:	85d2                	mv	a1,s4
   11652:	8556                	mv	a0,s5
   11654:	3d5060ef          	jal	ra,18228 <__sprint_r>
   11658:	a0051be3          	bnez	a0,1106e <_vfprintf_r+0xba0>
   1165c:	7792                	ld	a5,288(sp)
   1165e:	11812703          	lw	a4,280(sp)
   11662:	835e                	mv	t1,s7
   11664:	b7f1                	j	11630 <_vfprintf_r+0x1162>
   11666:	0104f793          	andi	a5,s1,16
   1166a:	c3cd                	beqz	a5,1170c <_vfprintf_r+0x123e>
   1166c:	67c2                	ld	a5,16(sp)
   1166e:	0007b983          	ld	s3,0(a5)
   11672:	b735                	j	1159e <_vfprintf_r+0x10d0>
   11674:	0a10                	addi	a2,sp,272
   11676:	85d2                	mv	a1,s4
   11678:	8556                	mv	a0,s5
   1167a:	3af060ef          	jal	ra,18228 <__sprint_r>
   1167e:	9e0518e3          	bnez	a0,1106e <_vfprintf_r+0xba0>
   11682:	7d92                	ld	s11,288(sp)
   11684:	11812703          	lw	a4,280(sp)
   11688:	8c5e                	mv	s8,s7
   1168a:	b41d                	j	110b0 <_vfprintf_r+0xbe2>
   1168c:	0a10                	addi	a2,sp,272
   1168e:	85d2                	mv	a1,s4
   11690:	8556                	mv	a0,s5
   11692:	397060ef          	jal	ra,18228 <__sprint_r>
   11696:	9c051ce3          	bnez	a0,1106e <_vfprintf_r+0xba0>
   1169a:	7d92                	ld	s11,288(sp)
   1169c:	11812703          	lw	a4,280(sp)
   116a0:	8c5e                	mv	s8,s7
   116a2:	bc0d                	j	110d4 <_vfprintf_r+0xc06>
   116a4:	11812703          	lw	a4,280(sp)
   116a8:	0000b697          	auipc	a3,0xb
   116ac:	b7868693          	addi	a3,a3,-1160 # 1c220 <__clzdi2+0xca>
   116b0:	00d33023          	sd	a3,0(t1)
   116b4:	2705                	addiw	a4,a4,1
   116b6:	4685                	li	a3,1
   116b8:	0785                	addi	a5,a5,1
   116ba:	00d33423          	sd	a3,8(t1)
   116be:	10e12c23          	sw	a4,280(sp)
   116c2:	0007069b          	sext.w	a3,a4
   116c6:	f23e                	sd	a5,288(sp)
   116c8:	471d                	li	a4,7
   116ca:	0341                	addi	t1,t1,16
   116cc:	2ed74363          	blt	a4,a3,119b2 <_vfprintf_r+0x14e4>
   116d0:	c4061363          	bnez	a2,10b16 <_vfprintf_r+0x648>
   116d4:	7682                	ld	a3,32(sp)
   116d6:	0014f713          	andi	a4,s1,1
   116da:	8f55                	or	a4,a4,a3
   116dc:	e319                	bnez	a4,116e2 <_vfprintf_r+0x1214>
   116de:	850ff06f          	j	1072e <_vfprintf_r+0x260>
   116e2:	76e6                	ld	a3,120(sp)
   116e4:	7746                	ld	a4,112(sp)
   116e6:	00d33023          	sd	a3,0(t1)
   116ea:	11812683          	lw	a3,280(sp)
   116ee:	97ba                	add	a5,a5,a4
   116f0:	00e33423          	sd	a4,8(t1)
   116f4:	2685                	addiw	a3,a3,1
   116f6:	0006871b          	sext.w	a4,a3
   116fa:	10d12c23          	sw	a3,280(sp)
   116fe:	f23e                	sd	a5,288(sp)
   11700:	469d                	li	a3,7
   11702:	c2e6cd63          	blt	a3,a4,10b3c <_vfprintf_r+0x66e>
   11706:	0341                	addi	t1,t1,16
   11708:	c54ff06f          	j	10b5c <_vfprintf_r+0x68e>
   1170c:	66c2                	ld	a3,16(sp)
   1170e:	0404f793          	andi	a5,s1,64
   11712:	0006a983          	lw	s3,0(a3)
   11716:	cbe1                	beqz	a5,117e6 <_vfprintf_r+0x1318>
   11718:	19c2                	slli	s3,s3,0x30
   1171a:	0309d993          	srli	s3,s3,0x30
   1171e:	b541                	j	1159e <_vfprintf_r+0x10d0>
   11720:	0a10                	addi	a2,sp,272
   11722:	85d2                	mv	a1,s4
   11724:	8556                	mv	a0,s5
   11726:	303060ef          	jal	ra,18228 <__sprint_r>
   1172a:	940512e3          	bnez	a0,1106e <_vfprintf_r+0xba0>
   1172e:	7792                	ld	a5,288(sp)
   11730:	835e                	mv	t1,s7
   11732:	faeff06f          	j	10ee0 <_vfprintf_r+0xa12>
   11736:	0017069b          	addiw	a3,a4,1
   1173a:	8736                	mv	a4,a3
   1173c:	97e2                	add	a5,a5,s8
   1173e:	01233023          	sd	s2,0(t1)
   11742:	fdbfe06f          	j	1071c <_vfprintf_r+0x24e>
   11746:	6512                	ld	a0,256(sp)
   11748:	65b2                	ld	a1,264(sp)
   1174a:	4601                	li	a2,0
   1174c:	4681                	li	a3,0
   1174e:	e41a                	sd	t1,8(sp)
   11750:	76c090ef          	jal	ra,1aebc <__letf2>
   11754:	6322                	ld	t1,8(sp)
   11756:	54054763          	bltz	a0,11ca4 <_vfprintf_r+0x17d6>
   1175a:	0df14783          	lbu	a5,223(sp)
   1175e:	04700713          	li	a4,71
   11762:	0000bc97          	auipc	s9,0xb
   11766:	a66c8c93          	addi	s9,s9,-1434 # 1c1c8 <__clzdi2+0x72>
   1176a:	25b74f63          	blt	a4,s11,119c8 <_vfprintf_r+0x14fa>
   1176e:	f7f4f493          	andi	s1,s1,-129
   11772:	ec02                	sd	zero,24(sp)
   11774:	e882                	sd	zero,80(sp)
   11776:	f082                	sd	zero,96(sp)
   11778:	ec82                	sd	zero,88(sp)
   1177a:	2481                	sext.w	s1,s1
   1177c:	498d                	li	s3,3
   1177e:	4c0d                	li	s8,3
   11780:	4e81                	li	t4,0
   11782:	8c079863          	bnez	a5,10852 <_vfprintf_r+0x384>
   11786:	ef9fe06f          	j	1067e <_vfprintf_r+0x1b0>
   1178a:	8566                	mv	a0,s9
   1178c:	e41a                	sd	t1,8(sp)
   1178e:	e836                	sd	a3,16(sp)
   11790:	503040ef          	jal	ra,16492 <strlen>
   11794:	00050c1b          	sext.w	s8,a0
   11798:	fffc4993          	not	s3,s8
   1179c:	0df14783          	lbu	a5,223(sp)
   117a0:	43f9d993          	srai	s3,s3,0x3f
   117a4:	013c79b3          	and	s3,s8,s3
   117a8:	ec02                	sd	zero,24(sp)
   117aa:	e882                	sd	zero,80(sp)
   117ac:	f082                	sd	zero,96(sp)
   117ae:	ec82                	sd	zero,88(sp)
   117b0:	6322                	ld	t1,8(sp)
   117b2:	2981                	sext.w	s3,s3
   117b4:	4e81                	li	t4,0
   117b6:	88079e63          	bnez	a5,10852 <_vfprintf_r+0x384>
   117ba:	ec5fe06f          	j	1067e <_vfprintf_r+0x1b0>
   117be:	20087793          	andi	a5,a6,512
   117c2:	26078463          	beqz	a5,11a2a <_vfprintf_r+0x155c>
   117c6:	0ff9f993          	andi	s3,s3,255
   117ca:	e83a                	sd	a4,16(sp)
   117cc:	4785                	li	a5,1
   117ce:	8acff06f          	j	1087a <_vfprintf_r+0x3ac>
   117d2:	2004f793          	andi	a5,s1,512
   117d6:	24078463          	beqz	a5,11a1e <_vfprintf_r+0x1550>
   117da:	67c2                	ld	a5,16(sp)
   117dc:	00078983          	lb	s3,0(a5)
   117e0:	87ce                	mv	a5,s3
   117e2:	82eff06f          	j	10810 <_vfprintf_r+0x342>
   117e6:	2004f793          	andi	a5,s1,512
   117ea:	24078763          	beqz	a5,11a38 <_vfprintf_r+0x156a>
   117ee:	0ff9f993          	andi	s3,s3,255
   117f2:	b375                	j	1159e <_vfprintf_r+0x10d0>
   117f4:	2004f793          	andi	a5,s1,512
   117f8:	20078e63          	beqz	a5,11a14 <_vfprintf_r+0x1546>
   117fc:	0ff9f993          	andi	s3,s3,255
   11800:	86eff06f          	j	1086e <_vfprintf_r+0x3a0>
   11804:	67b2                	ld	a5,264(sp)
   11806:	2207cd63          	bltz	a5,11a40 <_vfprintf_r+0x1572>
   1180a:	0df14783          	lbu	a5,223(sp)
   1180e:	04700713          	li	a4,71
   11812:	0000bc97          	auipc	s9,0xb
   11816:	9c6c8c93          	addi	s9,s9,-1594 # 1c1d8 <__clzdi2+0x82>
   1181a:	f5b75ae3          	bge	a4,s11,1176e <_vfprintf_r+0x12a0>
   1181e:	0000bc97          	auipc	s9,0xb
   11822:	9c2c8c93          	addi	s9,s9,-1598 # 1c1e0 <__clzdi2+0x8a>
   11826:	b7a1                	j	1176e <_vfprintf_r+0x12a0>
   11828:	0017069b          	addiw	a3,a4,1
   1182c:	97e2                	add	a5,a5,s8
   1182e:	01233023          	sd	s2,0(t1)
   11832:	01833423          	sd	s8,8(t1)
   11836:	f23e                	sd	a5,288(sp)
   11838:	10d12c23          	sw	a3,280(sp)
   1183c:	471d                	li	a4,7
   1183e:	0341                	addi	t1,t1,16
   11840:	aad758e3          	bge	a4,a3,112f0 <_vfprintf_r+0xe22>
   11844:	0a10                	addi	a2,sp,272
   11846:	85d2                	mv	a1,s4
   11848:	8556                	mv	a0,s5
   1184a:	1df060ef          	jal	ra,18228 <__sprint_r>
   1184e:	820510e3          	bnez	a0,1106e <_vfprintf_r+0xba0>
   11852:	7792                	ld	a5,288(sp)
   11854:	835e                	mv	t1,s7
   11856:	bc69                	j	112f0 <_vfprintf_r+0xe22>
   11858:	7702                	ld	a4,32(sp)
   1185a:	4c1d                	li	s8,7
   1185c:	9766                	add	a4,a4,s9
   1185e:	f83a                	sd	a4,48(sp)
   11860:	7706                	ld	a4,96(sp)
   11862:	cb49                	beqz	a4,118f4 <_vfprintf_r+0x1426>
   11864:	6746                	ld	a4,80(sp)
   11866:	eb51                	bnez	a4,118fa <_vfprintf_r+0x142c>
   11868:	7726                	ld	a4,104(sp)
   1186a:	177d                	addi	a4,a4,-1
   1186c:	f4ba                	sd	a4,104(sp)
   1186e:	7706                	ld	a4,96(sp)
   11870:	377d                	addiw	a4,a4,-1
   11872:	f0ba                	sd	a4,96(sp)
   11874:	674a                	ld	a4,144(sp)
   11876:	66aa                	ld	a3,136(sp)
   11878:	0341                	addi	t1,t1,16
   1187a:	fee33823          	sd	a4,-16(t1)
   1187e:	11812703          	lw	a4,280(sp)
   11882:	97b6                	add	a5,a5,a3
   11884:	fed33c23          	sd	a3,-8(t1)
   11888:	2705                	addiw	a4,a4,1
   1188a:	f23e                	sd	a5,288(sp)
   1188c:	0007069b          	sext.w	a3,a4
   11890:	10e12c23          	sw	a4,280(sp)
   11894:	0cdc4e63          	blt	s8,a3,11970 <_vfprintf_r+0x14a2>
   11898:	7726                	ld	a4,104(sp)
   1189a:	00074603          	lbu	a2,0(a4)
   1189e:	7742                	ld	a4,48(sp)
   118a0:	41b705bb          	subw	a1,a4,s11
   118a4:	0006071b          	sext.w	a4,a2
   118a8:	0007069b          	sext.w	a3,a4
   118ac:	00e5d463          	bge	a1,a4,118b4 <_vfprintf_r+0x13e6>
   118b0:	0005869b          	sext.w	a3,a1
   118b4:	02d05663          	blez	a3,118e0 <_vfprintf_r+0x1412>
   118b8:	11812703          	lw	a4,280(sp)
   118bc:	97b6                	add	a5,a5,a3
   118be:	01b33023          	sd	s11,0(t1)
   118c2:	0017061b          	addiw	a2,a4,1
   118c6:	00d33423          	sd	a3,8(t1)
   118ca:	f23e                	sd	a5,288(sp)
   118cc:	10c12c23          	sw	a2,280(sp)
   118d0:	0acc4a63          	blt	s8,a2,11984 <_vfprintf_r+0x14b6>
   118d4:	7726                	ld	a4,104(sp)
   118d6:	0341                	addi	t1,t1,16
   118d8:	00074603          	lbu	a2,0(a4)
   118dc:	0006071b          	sext.w	a4,a2
   118e0:	fff6c593          	not	a1,a3
   118e4:	95fd                	srai	a1,a1,0x3f
   118e6:	8eed                	and	a3,a3,a1
   118e8:	9f15                	subw	a4,a4,a3
   118ea:	00e04c63          	bgtz	a4,11902 <_vfprintf_r+0x1434>
   118ee:	9db2                	add	s11,s11,a2
   118f0:	7706                	ld	a4,96(sp)
   118f2:	fb2d                	bnez	a4,11864 <_vfprintf_r+0x1396>
   118f4:	6746                	ld	a4,80(sp)
   118f6:	30070463          	beqz	a4,11bfe <_vfprintf_r+0x1730>
   118fa:	6746                	ld	a4,80(sp)
   118fc:	377d                	addiw	a4,a4,-1
   118fe:	e8ba                	sd	a4,80(sp)
   11900:	bf95                	j	11874 <_vfprintf_r+0x13a6>
   11902:	11812683          	lw	a3,280(sp)
   11906:	00ed4663          	blt	s10,a4,11912 <_vfprintf_r+0x1444>
   1190a:	a081                	j	1194a <_vfprintf_r+0x147c>
   1190c:	3741                	addiw	a4,a4,-16
   1190e:	02ed5e63          	bge	s10,a4,1194a <_vfprintf_r+0x147c>
   11912:	2685                	addiw	a3,a3,1
   11914:	07c1                	addi	a5,a5,16
   11916:	01233023          	sd	s2,0(t1)
   1191a:	01a33423          	sd	s10,8(t1)
   1191e:	f23e                	sd	a5,288(sp)
   11920:	10d12c23          	sw	a3,280(sp)
   11924:	0341                	addi	t1,t1,16
   11926:	fedc53e3          	bge	s8,a3,1190c <_vfprintf_r+0x143e>
   1192a:	0a10                	addi	a2,sp,272
   1192c:	85d2                	mv	a1,s4
   1192e:	8556                	mv	a0,s5
   11930:	e43a                	sd	a4,8(sp)
   11932:	0f7060ef          	jal	ra,18228 <__sprint_r>
   11936:	f2051c63          	bnez	a0,1106e <_vfprintf_r+0xba0>
   1193a:	6722                	ld	a4,8(sp)
   1193c:	7792                	ld	a5,288(sp)
   1193e:	11812683          	lw	a3,280(sp)
   11942:	3741                	addiw	a4,a4,-16
   11944:	835e                	mv	t1,s7
   11946:	fced46e3          	blt	s10,a4,11912 <_vfprintf_r+0x1444>
   1194a:	2685                	addiw	a3,a3,1
   1194c:	97ba                	add	a5,a5,a4
   1194e:	00e33423          	sd	a4,8(t1)
   11952:	01233023          	sd	s2,0(t1)
   11956:	f23e                	sd	a5,288(sp)
   11958:	0006871b          	sext.w	a4,a3
   1195c:	10d12c23          	sw	a3,280(sp)
   11960:	32ec4463          	blt	s8,a4,11c88 <_vfprintf_r+0x17ba>
   11964:	7726                	ld	a4,104(sp)
   11966:	0341                	addi	t1,t1,16
   11968:	00074603          	lbu	a2,0(a4)
   1196c:	9db2                	add	s11,s11,a2
   1196e:	b749                	j	118f0 <_vfprintf_r+0x1422>
   11970:	0a10                	addi	a2,sp,272
   11972:	85d2                	mv	a1,s4
   11974:	8556                	mv	a0,s5
   11976:	0b3060ef          	jal	ra,18228 <__sprint_r>
   1197a:	ee051a63          	bnez	a0,1106e <_vfprintf_r+0xba0>
   1197e:	7792                	ld	a5,288(sp)
   11980:	835e                	mv	t1,s7
   11982:	bf19                	j	11898 <_vfprintf_r+0x13ca>
   11984:	0a10                	addi	a2,sp,272
   11986:	85d2                	mv	a1,s4
   11988:	8556                	mv	a0,s5
   1198a:	e436                	sd	a3,8(sp)
   1198c:	09d060ef          	jal	ra,18228 <__sprint_r>
   11990:	ec051f63          	bnez	a0,1106e <_vfprintf_r+0xba0>
   11994:	77a6                	ld	a5,104(sp)
   11996:	66a2                	ld	a3,8(sp)
   11998:	835e                	mv	t1,s7
   1199a:	0007c603          	lbu	a2,0(a5)
   1199e:	7792                	ld	a5,288(sp)
   119a0:	0006071b          	sext.w	a4,a2
   119a4:	bf35                	j	118e0 <_vfprintf_r+0x1412>
   119a6:	2605                	addiw	a2,a2,1
   119a8:	01070313          	addi	t1,a4,16
   119ac:	8c3a                	mv	s8,a4
   119ae:	f76ff06f          	j	11124 <_vfprintf_r+0xc56>
   119b2:	0a10                	addi	a2,sp,272
   119b4:	85d2                	mv	a1,s4
   119b6:	8556                	mv	a0,s5
   119b8:	071060ef          	jal	ra,18228 <__sprint_r>
   119bc:	ea051963          	bnez	a0,1106e <_vfprintf_r+0xba0>
   119c0:	562e                	lw	a2,232(sp)
   119c2:	7792                	ld	a5,288(sp)
   119c4:	835e                	mv	t1,s7
   119c6:	b329                	j	116d0 <_vfprintf_r+0x1202>
   119c8:	0000bc97          	auipc	s9,0xb
   119cc:	808c8c93          	addi	s9,s9,-2040 # 1c1d0 <__clzdi2+0x7a>
   119d0:	bb79                	j	1176e <_vfprintf_r+0x12a0>
   119d2:	0a10                	addi	a2,sp,272
   119d4:	85d2                	mv	a1,s4
   119d6:	8556                	mv	a0,s5
   119d8:	051060ef          	jal	ra,18228 <__sprint_r>
   119dc:	e8051963          	bnez	a0,1106e <_vfprintf_r+0xba0>
   119e0:	7792                	ld	a5,288(sp)
   119e2:	835e                	mv	t1,s7
   119e4:	b8e5                	j	112dc <_vfprintf_r+0xe0e>
   119e6:	4c19                	li	s8,6
   119e8:	b135                	j	11614 <_vfprintf_r+0x1146>
   119ea:	7682                	ld	a3,32(sp)
   119ec:	00dc8833          	add	a6,s9,a3
   119f0:	40e6873b          	subw	a4,a3,a4
   119f4:	41b80ebb          	subw	t4,a6,s11
   119f8:	0007069b          	sext.w	a3,a4
   119fc:	00ded363          	bge	t4,a3,11a02 <_vfprintf_r+0x1534>
   11a00:	8776                	mv	a4,t4
   11a02:	00070c9b          	sext.w	s9,a4
   11a06:	b2bd                	j	11374 <_vfprintf_r+0xea6>
   11a08:	6782                	ld	a5,0(sp)
   11a0a:	8ca2                	mv	s9,s0
   11a0c:	00f71023          	sh	a5,0(a4)
   11a10:	d51fe06f          	j	10760 <_vfprintf_r+0x292>
   11a14:	1982                	slli	s3,s3,0x20
   11a16:	0209d993          	srli	s3,s3,0x20
   11a1a:	e55fe06f          	j	1086e <_vfprintf_r+0x3a0>
   11a1e:	67c2                	ld	a5,16(sp)
   11a20:	0007a983          	lw	s3,0(a5)
   11a24:	87ce                	mv	a5,s3
   11a26:	debfe06f          	j	10810 <_vfprintf_r+0x342>
   11a2a:	1982                	slli	s3,s3,0x20
   11a2c:	0209d993          	srli	s3,s3,0x20
   11a30:	e83a                	sd	a4,16(sp)
   11a32:	4785                	li	a5,1
   11a34:	e47fe06f          	j	1087a <_vfprintf_r+0x3ac>
   11a38:	1982                	slli	s3,s3,0x20
   11a3a:	0209d993          	srli	s3,s3,0x20
   11a3e:	b685                	j	1159e <_vfprintf_r+0x10d0>
   11a40:	02d00793          	li	a5,45
   11a44:	0cf10fa3          	sb	a5,223(sp)
   11a48:	b3d9                	j	1180e <_vfprintf_r+0x1340>
   11a4a:	0a10                	addi	a2,sp,272
   11a4c:	85d2                	mv	a1,s4
   11a4e:	8556                	mv	a0,s5
   11a50:	7d8060ef          	jal	ra,18228 <__sprint_r>
   11a54:	d1dfe06f          	j	10770 <_vfprintf_r+0x2a2>
   11a58:	03000793          	li	a5,48
   11a5c:	0ef10023          	sb	a5,224(sp)
   11a60:	05800713          	li	a4,88
   11a64:	0024e793          	ori	a5,s1,2
   11a68:	2781                	sext.w	a5,a5
   11a6a:	0ee100a3          	sb	a4,225(sp)
   11a6e:	ed3e                	sd	a5,152(sp)
   11a70:	06300713          	li	a4,99
   11a74:	ec02                	sd	zero,24(sp)
   11a76:	12810c93          	addi	s9,sp,296
   11a7a:	47d74563          	blt	a4,t4,11ee4 <_vfprintf_r+0x1a16>
   11a7e:	69b2                	ld	s3,264(sp)
   11a80:	fdfdf713          	andi	a4,s11,-33
   11a84:	1024e493          	ori	s1,s1,258
   11a88:	f0ba                	sd	a4,96(sp)
   11a8a:	e582                	sd	zero,200(sp)
   11a8c:	6c12                	ld	s8,256(sp)
   11a8e:	2481                	sext.w	s1,s1
   11a90:	1e09c463          	bltz	s3,11c78 <_vfprintf_r+0x17aa>
   11a94:	06100793          	li	a5,97
   11a98:	52fd8c63          	beq	s11,a5,11fd0 <_vfprintf_r+0x1b02>
   11a9c:	04100793          	li	a5,65
   11aa0:	00fd8463          	beq	s11,a5,11aa8 <_vfprintf_r+0x15da>
   11aa4:	eb7fe06f          	j	1095a <_vfprintf_r+0x48c>
   11aa8:	85ce                	mv	a1,s3
   11aaa:	8562                	mv	a0,s8
   11aac:	fc1a                	sd	t1,56(sp)
   11aae:	f876                	sd	t4,48(sp)
   11ab0:	4740a0ef          	jal	ra,1bf24 <__trunctfdf2>
   11ab4:	11a8                	addi	a0,sp,232
   11ab6:	66c040ef          	jal	ra,16122 <frexp>
   11aba:	3aa0a0ef          	jal	ra,1be64 <__extenddftf2>
   11abe:	0000b797          	auipc	a5,0xb
   11ac2:	92278793          	addi	a5,a5,-1758 # 1c3e0 <zeroes.4521+0x38>
   11ac6:	6390                	ld	a2,0(a5)
   11ac8:	6794                	ld	a3,8(a5)
   11aca:	49a090ef          	jal	ra,1af64 <__multf3>
   11ace:	4601                	li	a2,0
   11ad0:	4681                	li	a3,0
   11ad2:	f02a                	sd	a0,32(sp)
   11ad4:	e42e                	sd	a1,8(sp)
   11ad6:	2aa090ef          	jal	ra,1ad80 <__eqtf2>
   11ada:	62a2                	ld	t0,8(sp)
   11adc:	7702                	ld	a4,32(sp)
   11ade:	7ec2                	ld	t4,48(sp)
   11ae0:	7362                	ld	t1,56(sp)
   11ae2:	e119                	bnez	a0,11ae8 <_vfprintf_r+0x161a>
   11ae4:	4785                	li	a5,1
   11ae6:	d5be                	sw	a5,232(sp)
   11ae8:	0000a797          	auipc	a5,0xa
   11aec:	70078793          	addi	a5,a5,1792 # 1c1e8 <__clzdi2+0x92>
   11af0:	e8be                	sd	a5,80(sp)
   11af2:	020e9793          	slli	a5,t4,0x20
   11af6:	0000b697          	auipc	a3,0xb
   11afa:	8ca68693          	addi	a3,a3,-1846 # 1c3c0 <zeroes.4521+0x18>
   11afe:	9381                	srli	a5,a5,0x20
   11b00:	6290                	ld	a2,0(a3)
   11b02:	0785                	addi	a5,a5,1
   11b04:	6694                	ld	a3,8(a3)
   11b06:	97e6                	add	a5,a5,s9
   11b08:	f13e                	sd	a5,160(sp)
   11b0a:	01dc87bb          	addw	a5,s9,t4
   11b0e:	fd32                	sd	a2,184(sp)
   11b10:	e1b6                	sd	a3,192(sp)
   11b12:	8c66                	mv	s8,s9
   11b14:	db3e                	sw	a5,180(sp)
   11b16:	a831                	j	11b32 <_vfprintf_r+0x1664>
   11b18:	4601                	li	a2,0
   11b1a:	4681                	li	a3,0
   11b1c:	e4ae                	sd	a1,72(sp)
   11b1e:	e0aa                	sd	a0,64(sp)
   11b20:	260090ef          	jal	ra,1ad80 <__eqtf2>
   11b24:	7ec2                	ld	t4,48(sp)
   11b26:	7362                	ld	t1,56(sp)
   11b28:	6f86                	ld	t6,64(sp)
   11b2a:	68a6                	ld	a7,72(sp)
   11b2c:	62a2                	ld	t0,8(sp)
   11b2e:	7702                	ld	a4,32(sp)
   11b30:	c135                	beqz	a0,11b94 <_vfprintf_r+0x16c6>
   11b32:	766a                	ld	a2,184(sp)
   11b34:	668e                	ld	a3,192(sp)
   11b36:	853a                	mv	a0,a4
   11b38:	8596                	mv	a1,t0
   11b3a:	fc1a                	sd	t1,56(sp)
   11b3c:	f876                	sd	t4,48(sp)
   11b3e:	426090ef          	jal	ra,1af64 <__multf3>
   11b42:	e42e                	sd	a1,8(sp)
   11b44:	f02a                	sd	a0,32(sp)
   11b46:	22c0a0ef          	jal	ra,1bd72 <__fixtfsi>
   11b4a:	0005099b          	sext.w	s3,a0
   11b4e:	854e                	mv	a0,s3
   11b50:	2b80a0ef          	jal	ra,1be08 <__floatsitf>
   11b54:	7882                	ld	a7,32(sp)
   11b56:	6722                	ld	a4,8(sp)
   11b58:	862a                	mv	a2,a0
   11b5a:	86ae                	mv	a3,a1
   11b5c:	8546                	mv	a0,a7
   11b5e:	85ba                	mv	a1,a4
   11b60:	217090ef          	jal	ra,1b576 <__subtf3>
   11b64:	67c6                	ld	a5,80(sp)
   11b66:	f562                	sd	s8,168(sp)
   11b68:	0c05                	addi	s8,s8,1
   11b6a:	01378733          	add	a4,a5,s3
   11b6e:	57da                	lw	a5,180(sp)
   11b70:	00074703          	lbu	a4,0(a4)
   11b74:	f02a                	sd	a0,32(sp)
   11b76:	418787bb          	subw	a5,a5,s8
   11b7a:	ecbe                	sd	a5,88(sp)
   11b7c:	778a                	ld	a5,160(sp)
   11b7e:	feec0fa3          	sb	a4,-1(s8)
   11b82:	e42e                	sd	a1,8(sp)
   11b84:	7ec2                	ld	t4,48(sp)
   11b86:	7362                	ld	t1,56(sp)
   11b88:	8faa                	mv	t6,a0
   11b8a:	88ae                	mv	a7,a1
   11b8c:	f98796e3          	bne	a5,s8,11b18 <_vfprintf_r+0x164a>
   11b90:	57fd                	li	a5,-1
   11b92:	ecbe                	sd	a5,88(sp)
   11b94:	0000b717          	auipc	a4,0xb
   11b98:	83c70713          	addi	a4,a4,-1988 # 1c3d0 <zeroes.4521+0x28>
   11b9c:	6310                	ld	a2,0(a4)
   11b9e:	6714                	ld	a3,8(a4)
   11ba0:	857e                	mv	a0,t6
   11ba2:	85c6                	mv	a1,a7
   11ba4:	f01a                	sd	t1,32(sp)
   11ba6:	e476                	sd	t4,8(sp)
   11ba8:	e4fe                	sd	t6,72(sp)
   11baa:	e0b2                	sd	a2,64(sp)
   11bac:	fc36                	sd	a3,56(sp)
   11bae:	f846                	sd	a7,48(sp)
   11bb0:	264090ef          	jal	ra,1ae14 <__getf2>
   11bb4:	6ea2                	ld	t4,8(sp)
   11bb6:	7302                	ld	t1,32(sp)
   11bb8:	2ca04f63          	bgtz	a0,11e96 <_vfprintf_r+0x19c8>
   11bbc:	6fa6                	ld	t6,72(sp)
   11bbe:	78c2                	ld	a7,48(sp)
   11bc0:	6606                	ld	a2,64(sp)
   11bc2:	76e2                	ld	a3,56(sp)
   11bc4:	857e                	mv	a0,t6
   11bc6:	85c6                	mv	a1,a7
   11bc8:	1b8090ef          	jal	ra,1ad80 <__eqtf2>
   11bcc:	6ea2                	ld	t4,8(sp)
   11bce:	7302                	ld	t1,32(sp)
   11bd0:	e509                	bnez	a0,11bda <_vfprintf_r+0x170c>
   11bd2:	0019f993          	andi	s3,s3,1
   11bd6:	2c099063          	bnez	s3,11e96 <_vfprintf_r+0x19c8>
   11bda:	67e6                	ld	a5,88(sp)
   11bdc:	03000693          	li	a3,48
   11be0:	00178713          	addi	a4,a5,1
   11be4:	9762                	add	a4,a4,s8
   11be6:	0007c763          	bltz	a5,11bf4 <_vfprintf_r+0x1726>
   11bea:	0c05                	addi	s8,s8,1
   11bec:	fedc0fa3          	sb	a3,-1(s8)
   11bf0:	ff871de3          	bne	a4,s8,11bea <_vfprintf_r+0x171c>
   11bf4:	419c07bb          	subw	a5,s8,s9
   11bf8:	f03e                	sd	a5,32(sp)
   11bfa:	de5fe06f          	j	109de <_vfprintf_r+0x510>
   11bfe:	7702                	ld	a4,32(sp)
   11c00:	9766                	add	a4,a4,s9
   11c02:	efb77e63          	bgeu	a4,s11,112fe <_vfprintf_r+0xe30>
   11c06:	8dba                	mv	s11,a4
   11c08:	ef6ff06f          	j	112fe <_vfprintf_r+0xe30>
   11c0c:	6766                	ld	a4,88(sp)
   11c0e:	57f5                	li	a5,-3
   11c10:	00f74463          	blt	a4,a5,11c18 <_vfprintf_r+0x174a>
   11c14:	00eed863          	bge	t4,a4,11c24 <_vfprintf_r+0x1756>
   11c18:	3df9                	addiw	s11,s11,-2
   11c1a:	fdfdf793          	andi	a5,s11,-33
   11c1e:	f0be                	sd	a5,96(sp)
   11c20:	ddffe06f          	j	109fe <_vfprintf_r+0x530>
   11c24:	7782                	ld	a5,32(sp)
   11c26:	6766                	ld	a4,88(sp)
   11c28:	16f74563          	blt	a4,a5,11d92 <_vfprintf_r+0x18c4>
   11c2c:	67ea                	ld	a5,152(sp)
   11c2e:	8c3a                	mv	s8,a4
   11c30:	8b85                	andi	a5,a5,1
   11c32:	c781                	beqz	a5,11c3a <_vfprintf_r+0x176c>
   11c34:	77c6                	ld	a5,112(sp)
   11c36:	00e78c3b          	addw	s8,a5,a4
   11c3a:	67ea                	ld	a5,152(sp)
   11c3c:	4007f793          	andi	a5,a5,1024
   11c40:	c781                	beqz	a5,11c48 <_vfprintf_r+0x177a>
   11c42:	67e6                	ld	a5,88(sp)
   11c44:	30f04763          	bgtz	a5,11f52 <_vfprintf_r+0x1a84>
   11c48:	fffc4993          	not	s3,s8
   11c4c:	43f9d993          	srai	s3,s3,0x3f
   11c50:	013c79b3          	and	s3,s8,s3
   11c54:	2981                	sext.w	s3,s3
   11c56:	06700d93          	li	s11,103
   11c5a:	e882                	sd	zero,80(sp)
   11c5c:	f082                	sd	zero,96(sp)
   11c5e:	e83fe06f          	j	10ae0 <_vfprintf_r+0x612>
   11c62:	0df14783          	lbu	a5,223(sp)
   11c66:	4e81                	li	t4,0
   11c68:	c399                	beqz	a5,11c6e <_vfprintf_r+0x17a0>
   11c6a:	be9fe06f          	j	10852 <_vfprintf_r+0x384>
   11c6e:	a11fe06f          	j	1067e <_vfprintf_r+0x1b0>
   11c72:	ed26                	sd	s1,152(sp)
   11c74:	ec02                	sd	zero,24(sp)
   11c76:	84fe                	mv	s1,t6
   11c78:	57fd                	li	a5,-1
   11c7a:	17fe                	slli	a5,a5,0x3f
   11c7c:	00f9c9b3          	xor	s3,s3,a5
   11c80:	02d00793          	li	a5,45
   11c84:	e5be                	sd	a5,200(sp)
   11c86:	b539                	j	11a94 <_vfprintf_r+0x15c6>
   11c88:	0a10                	addi	a2,sp,272
   11c8a:	85d2                	mv	a1,s4
   11c8c:	8556                	mv	a0,s5
   11c8e:	59a060ef          	jal	ra,18228 <__sprint_r>
   11c92:	bc051e63          	bnez	a0,1106e <_vfprintf_r+0xba0>
   11c96:	77a6                	ld	a5,104(sp)
   11c98:	835e                	mv	t1,s7
   11c9a:	0007c603          	lbu	a2,0(a5)
   11c9e:	7792                	ld	a5,288(sp)
   11ca0:	9db2                	add	s11,s11,a2
   11ca2:	b1b9                	j	118f0 <_vfprintf_r+0x1422>
   11ca4:	02d00793          	li	a5,45
   11ca8:	0cf10fa3          	sb	a5,223(sp)
   11cac:	bc4d                	j	1175e <_vfprintf_r+0x1290>
   11cae:	8776                	mv	a4,t4
   11cb0:	11bc                	addi	a5,sp,232
   11cb2:	0f810893          	addi	a7,sp,248
   11cb6:	0ec10813          	addi	a6,sp,236
   11cba:	4689                	li	a3,2
   11cbc:	85e2                	mv	a1,s8
   11cbe:	864e                	mv	a2,s3
   11cc0:	8556                	mv	a0,s5
   11cc2:	f01a                	sd	t1,32(sp)
   11cc4:	e476                	sd	t4,8(sp)
   11cc6:	132020ef          	jal	ra,13df8 <_ldtoa_r>
   11cca:	7706                	ld	a4,96(sp)
   11ccc:	04700793          	li	a5,71
   11cd0:	6ea2                	ld	t4,8(sp)
   11cd2:	7302                	ld	t1,32(sp)
   11cd4:	8caa                	mv	s9,a0
   11cd6:	02f71d63          	bne	a4,a5,11d10 <_vfprintf_r+0x1842>
   11cda:	67ea                	ld	a5,152(sp)
   11cdc:	8b85                	andi	a5,a5,1
   11cde:	18079b63          	bnez	a5,11e74 <_vfprintf_r+0x19a6>
   11ce2:	04700713          	li	a4,71
   11ce6:	77ee                	ld	a5,248(sp)
   11ce8:	f0ba                	sd	a4,96(sp)
   11cea:	ceffe06f          	j	109d8 <_vfprintf_r+0x50a>
   11cee:	8776                	mv	a4,t4
   11cf0:	0f810893          	addi	a7,sp,248
   11cf4:	0ec10813          	addi	a6,sp,236
   11cf8:	11bc                	addi	a5,sp,232
   11cfa:	468d                	li	a3,3
   11cfc:	85e2                	mv	a1,s8
   11cfe:	864e                	mv	a2,s3
   11d00:	8556                	mv	a0,s5
   11d02:	f01a                	sd	t1,32(sp)
   11d04:	e476                	sd	t4,8(sp)
   11d06:	0f2020ef          	jal	ra,13df8 <_ldtoa_r>
   11d0a:	6ea2                	ld	t4,8(sp)
   11d0c:	7302                	ld	t1,32(sp)
   11d0e:	8caa                	mv	s9,a0
   11d10:	7706                	ld	a4,96(sp)
   11d12:	04600793          	li	a5,70
   11d16:	01dc88b3          	add	a7,s9,t4
   11d1a:	00f70463          	beq	a4,a5,11d22 <_vfprintf_r+0x1854>
   11d1e:	c85fe06f          	j	109a2 <_vfprintf_r+0x4d4>
   11d22:	000cc703          	lbu	a4,0(s9)
   11d26:	03000793          	li	a5,48
   11d2a:	00f70663          	beq	a4,a5,11d36 <_vfprintf_r+0x1868>
   11d2e:	572e                	lw	a4,232(sp)
   11d30:	98ba                	add	a7,a7,a4
   11d32:	c71fe06f          	j	109a2 <_vfprintf_r+0x4d4>
   11d36:	4601                	li	a2,0
   11d38:	4681                	li	a3,0
   11d3a:	8562                	mv	a0,s8
   11d3c:	85ce                	mv	a1,s3
   11d3e:	f846                	sd	a7,48(sp)
   11d40:	f01a                	sd	t1,32(sp)
   11d42:	e476                	sd	t4,8(sp)
   11d44:	03c090ef          	jal	ra,1ad80 <__eqtf2>
   11d48:	6ea2                	ld	t4,8(sp)
   11d4a:	7302                	ld	t1,32(sp)
   11d4c:	78c2                	ld	a7,48(sp)
   11d4e:	d165                	beqz	a0,11d2e <_vfprintf_r+0x1860>
   11d50:	4785                	li	a5,1
   11d52:	41d7873b          	subw	a4,a5,t4
   11d56:	d5ba                	sw	a4,232(sp)
   11d58:	98ba                	add	a7,a7,a4
   11d5a:	c49fe06f          	j	109a2 <_vfprintf_r+0x4d4>
   11d5e:	0a10                	addi	a2,sp,272
   11d60:	85d2                	mv	a1,s4
   11d62:	8556                	mv	a0,s5
   11d64:	4c4060ef          	jal	ra,18228 <__sprint_r>
   11d68:	b0051363          	bnez	a0,1106e <_vfprintf_r+0xba0>
   11d6c:	572e                	lw	a4,232(sp)
   11d6e:	7792                	ld	a5,288(sp)
   11d70:	835e                	mv	t1,s7
   11d72:	dc2ff06f          	j	11334 <_vfprintf_r+0xe66>
   11d76:	0df14783          	lbu	a5,223(sp)
   11d7a:	e836                	sd	a3,16(sp)
   11d7c:	e882                	sd	zero,80(sp)
   11d7e:	f082                	sd	zero,96(sp)
   11d80:	ec82                	sd	zero,88(sp)
   11d82:	89f6                	mv	s3,t4
   11d84:	8c76                	mv	s8,t4
   11d86:	4e81                	li	t4,0
   11d88:	c399                	beqz	a5,11d8e <_vfprintf_r+0x18c0>
   11d8a:	ac9fe06f          	j	10852 <_vfprintf_r+0x384>
   11d8e:	8f1fe06f          	j	1067e <_vfprintf_r+0x1b0>
   11d92:	7702                	ld	a4,32(sp)
   11d94:	77c6                	ld	a5,112(sp)
   11d96:	06700d93          	li	s11,103
   11d9a:	00e78c3b          	addw	s8,a5,a4
   11d9e:	6766                	ld	a4,88(sp)
   11da0:	2ce05263          	blez	a4,12064 <_vfprintf_r+0x1b96>
   11da4:	67ea                	ld	a5,152(sp)
   11da6:	4007f793          	andi	a5,a5,1024
   11daa:	1a079663          	bnez	a5,11f56 <_vfprintf_r+0x1a88>
   11dae:	fffc4993          	not	s3,s8
   11db2:	43f9d993          	srai	s3,s3,0x3f
   11db6:	013c79b3          	and	s3,s8,s3
   11dba:	2981                	sext.w	s3,s3
   11dbc:	bd79                	j	11c5a <_vfprintf_r+0x178c>
   11dbe:	67ea                	ld	a5,152(sp)
   11dc0:	6766                	ld	a4,88(sp)
   11dc2:	8b85                	andi	a5,a5,1
   11dc4:	00fee7b3          	or	a5,t4,a5
   11dc8:	2ae05c63          	blez	a4,12080 <_vfprintf_r+0x1bb2>
   11dcc:	26079d63          	bnez	a5,12046 <_vfprintf_r+0x1b78>
   11dd0:	6c66                	ld	s8,88(sp)
   11dd2:	06600d93          	li	s11,102
   11dd6:	b7f9                	j	11da4 <_vfprintf_r+0x18d6>
   11dd8:	0a10                	addi	a2,sp,272
   11dda:	85d2                	mv	a1,s4
   11ddc:	8556                	mv	a0,s5
   11dde:	44a060ef          	jal	ra,18228 <__sprint_r>
   11de2:	a8051663          	bnez	a0,1106e <_vfprintf_r+0xba0>
   11de6:	56ae                	lw	a3,232(sp)
   11de8:	7702                	ld	a4,32(sp)
   11dea:	7792                	ld	a5,288(sp)
   11dec:	835e                	mv	t1,s7
   11dee:	40d706bb          	subw	a3,a4,a3
   11df2:	d82ff06f          	j	11374 <_vfprintf_r+0xea6>
   11df6:	57fd                	li	a5,-1
   11df8:	e03e                	sd	a5,0(sp)
   11dfa:	985fe06f          	j	1077e <_vfprintf_r+0x2b0>
   11dfe:	56c1                	li	a3,-16
   11e00:	40c00c3b          	negw	s8,a2
   11e04:	02d65f63          	bge	a2,a3,11e42 <_vfprintf_r+0x1974>
   11e08:	4d9d                	li	s11,7
   11e0a:	a021                	j	11e12 <_vfprintf_r+0x1944>
   11e0c:	3c41                	addiw	s8,s8,-16
   11e0e:	038d5a63          	bge	s10,s8,11e42 <_vfprintf_r+0x1974>
   11e12:	2705                	addiw	a4,a4,1
   11e14:	07c1                	addi	a5,a5,16
   11e16:	01233023          	sd	s2,0(t1)
   11e1a:	01a33423          	sd	s10,8(t1)
   11e1e:	f23e                	sd	a5,288(sp)
   11e20:	10e12c23          	sw	a4,280(sp)
   11e24:	0341                	addi	t1,t1,16
   11e26:	feedd3e3          	bge	s11,a4,11e0c <_vfprintf_r+0x193e>
   11e2a:	0a10                	addi	a2,sp,272
   11e2c:	85d2                	mv	a1,s4
   11e2e:	8556                	mv	a0,s5
   11e30:	3f8060ef          	jal	ra,18228 <__sprint_r>
   11e34:	a2051d63          	bnez	a0,1106e <_vfprintf_r+0xba0>
   11e38:	7792                	ld	a5,288(sp)
   11e3a:	11812703          	lw	a4,280(sp)
   11e3e:	835e                	mv	t1,s7
   11e40:	b7f1                	j	11e0c <_vfprintf_r+0x193e>
   11e42:	2705                	addiw	a4,a4,1
   11e44:	97e2                	add	a5,a5,s8
   11e46:	01233023          	sd	s2,0(t1)
   11e4a:	01833423          	sd	s8,8(t1)
   11e4e:	f23e                	sd	a5,288(sp)
   11e50:	10e12c23          	sw	a4,280(sp)
   11e54:	469d                	li	a3,7
   11e56:	8ae6d8e3          	bge	a3,a4,11706 <_vfprintf_r+0x1238>
   11e5a:	0a10                	addi	a2,sp,272
   11e5c:	85d2                	mv	a1,s4
   11e5e:	8556                	mv	a0,s5
   11e60:	3c8060ef          	jal	ra,18228 <__sprint_r>
   11e64:	a0051563          	bnez	a0,1106e <_vfprintf_r+0xba0>
   11e68:	7792                	ld	a5,288(sp)
   11e6a:	11812703          	lw	a4,280(sp)
   11e6e:	835e                	mv	t1,s7
   11e70:	cedfe06f          	j	10b5c <_vfprintf_r+0x68e>
   11e74:	04700793          	li	a5,71
   11e78:	01dc88b3          	add	a7,s9,t4
   11e7c:	f0be                	sd	a5,96(sp)
   11e7e:	b25fe06f          	j	109a2 <_vfprintf_r+0x4d4>
   11e82:	8826                	mv	a6,s1
   11e84:	accff06f          	j	11150 <_vfprintf_r+0xc82>
   11e88:	03000793          	li	a5,48
   11e8c:	0ef10023          	sb	a5,224(sp)
   11e90:	07800713          	li	a4,120
   11e94:	bec1                	j	11a64 <_vfprintf_r+0x1596>
   11e96:	77aa                	ld	a5,168(sp)
   11e98:	8762                	mv	a4,s8
   11e9a:	fdbe                	sd	a5,248(sp)
   11e9c:	67c6                	ld	a5,80(sp)
   11e9e:	fffc4683          	lbu	a3,-1(s8)
   11ea2:	00f7c603          	lbu	a2,15(a5)
   11ea6:	00d61e63          	bne	a2,a3,11ec2 <_vfprintf_r+0x19f4>
   11eaa:	03000593          	li	a1,48
   11eae:	feb70fa3          	sb	a1,-1(a4)
   11eb2:	776e                	ld	a4,248(sp)
   11eb4:	fff70693          	addi	a3,a4,-1
   11eb8:	fdb6                	sd	a3,248(sp)
   11eba:	fff74683          	lbu	a3,-1(a4)
   11ebe:	fed608e3          	beq	a2,a3,11eae <_vfprintf_r+0x19e0>
   11ec2:	0016861b          	addiw	a2,a3,1
   11ec6:	03900593          	li	a1,57
   11eca:	0ff67613          	andi	a2,a2,255
   11ece:	00b68563          	beq	a3,a1,11ed8 <_vfprintf_r+0x1a0a>
   11ed2:	fec70fa3          	sb	a2,-1(a4)
   11ed6:	bb39                	j	11bf4 <_vfprintf_r+0x1726>
   11ed8:	67c6                	ld	a5,80(sp)
   11eda:	00a7c603          	lbu	a2,10(a5)
   11ede:	fec70fa3          	sb	a2,-1(a4)
   11ee2:	bb09                	j	11bf4 <_vfprintf_r+0x1726>
   11ee4:	001e859b          	addiw	a1,t4,1
   11ee8:	8556                	mv	a0,s5
   11eea:	ec1a                	sd	t1,24(sp)
   11eec:	e476                	sd	t4,8(sp)
   11eee:	771020ef          	jal	ra,14e5e <_malloc_r>
   11ef2:	6ea2                	ld	t4,8(sp)
   11ef4:	6362                	ld	t1,24(sp)
   11ef6:	8caa                	mv	s9,a0
   11ef8:	1e050063          	beqz	a0,120d8 <_vfprintf_r+0x1c0a>
   11efc:	ec2a                	sd	a0,24(sp)
   11efe:	b641                	j	11a7e <_vfprintf_r+0x15b0>
   11f00:	000e9363          	bnez	t4,11f06 <_vfprintf_r+0x1a38>
   11f04:	4e85                	li	t4,1
   11f06:	69b2                	ld	s3,264(sp)
   11f08:	1004ef93          	ori	t6,s1,256
   11f0c:	6c12                	ld	s8,256(sp)
   11f0e:	2f81                	sext.w	t6,t6
   11f10:	d609c1e3          	bltz	s3,11c72 <_vfprintf_r+0x17a4>
   11f14:	8776                	mv	a4,t4
   11f16:	0f810893          	addi	a7,sp,248
   11f1a:	0ec10813          	addi	a6,sp,236
   11f1e:	11bc                	addi	a5,sp,232
   11f20:	4689                	li	a3,2
   11f22:	85e2                	mv	a1,s8
   11f24:	864e                	mv	a2,s3
   11f26:	8556                	mv	a0,s5
   11f28:	ec7e                	sd	t6,24(sp)
   11f2a:	f01a                	sd	t1,32(sp)
   11f2c:	e476                	sd	t4,8(sp)
   11f2e:	6cb010ef          	jal	ra,13df8 <_ldtoa_r>
   11f32:	6fe2                	ld	t6,24(sp)
   11f34:	ed26                	sd	s1,152(sp)
   11f36:	6ea2                	ld	t4,8(sp)
   11f38:	7302                	ld	t1,32(sp)
   11f3a:	8caa                	mv	s9,a0
   11f3c:	84fe                	mv	s1,t6
   11f3e:	ec02                	sd	zero,24(sp)
   11f40:	e582                	sd	zero,200(sp)
   11f42:	bb61                	j	11cda <_vfprintf_r+0x180c>
   11f44:	4e99                	li	t4,6
   11f46:	9fbfe06f          	j	10940 <_vfprintf_r+0x472>
   11f4a:	c31c                	sw	a5,0(a4)
   11f4c:	8ca2                	mv	s9,s0
   11f4e:	813fe06f          	j	10760 <_vfprintf_r+0x292>
   11f52:	06700d93          	li	s11,103
   11f56:	77a6                	ld	a5,104(sp)
   11f58:	0ff00713          	li	a4,255
   11f5c:	e882                	sd	zero,80(sp)
   11f5e:	0007c783          	lbu	a5,0(a5)
   11f62:	f082                	sd	zero,96(sp)
   11f64:	02e78863          	beq	a5,a4,11f94 <_vfprintf_r+0x1ac6>
   11f68:	0ff00693          	li	a3,255
   11f6c:	6666                	ld	a2,88(sp)
   11f6e:	0007871b          	sext.w	a4,a5
   11f72:	02c7d163          	bge	a5,a2,11f94 <_vfprintf_r+0x1ac6>
   11f76:	75a6                	ld	a1,104(sp)
   11f78:	40e6073b          	subw	a4,a2,a4
   11f7c:	ecba                	sd	a4,88(sp)
   11f7e:	0015c783          	lbu	a5,1(a1)
   11f82:	cf8d                	beqz	a5,11fbc <_vfprintf_r+0x1aee>
   11f84:	7706                	ld	a4,96(sp)
   11f86:	2705                	addiw	a4,a4,1
   11f88:	f0ba                	sd	a4,96(sp)
   11f8a:	00158713          	addi	a4,a1,1
   11f8e:	f4ba                	sd	a4,104(sp)
   11f90:	fcd79ee3          	bne	a5,a3,11f6c <_vfprintf_r+0x1a9e>
   11f94:	7706                	ld	a4,96(sp)
   11f96:	67c6                	ld	a5,80(sp)
   11f98:	9fb9                	addw	a5,a5,a4
   11f9a:	672a                	ld	a4,136(sp)
   11f9c:	02e787bb          	mulw	a5,a5,a4
   11fa0:	018787bb          	addw	a5,a5,s8
   11fa4:	00078c1b          	sext.w	s8,a5
   11fa8:	fffc4993          	not	s3,s8
   11fac:	43f9d993          	srai	s3,s3,0x3f
   11fb0:	0137f7b3          	and	a5,a5,s3
   11fb4:	0007899b          	sext.w	s3,a5
   11fb8:	b29fe06f          	j	10ae0 <_vfprintf_r+0x612>
   11fbc:	6746                	ld	a4,80(sp)
   11fbe:	77a6                	ld	a5,104(sp)
   11fc0:	2705                	addiw	a4,a4,1
   11fc2:	0007c783          	lbu	a5,0(a5)
   11fc6:	e8ba                	sd	a4,80(sp)
   11fc8:	b7e1                	j	11f90 <_vfprintf_r+0x1ac2>
   11fca:	ec02                	sd	zero,24(sp)
   11fcc:	84be                	mv	s1,a5
   11fce:	b16d                	j	11c78 <_vfprintf_r+0x17aa>
   11fd0:	85ce                	mv	a1,s3
   11fd2:	8562                	mv	a0,s8
   11fd4:	fc1a                	sd	t1,56(sp)
   11fd6:	f876                	sd	t4,48(sp)
   11fd8:	74d090ef          	jal	ra,1bf24 <__trunctfdf2>
   11fdc:	11a8                	addi	a0,sp,232
   11fde:	144040ef          	jal	ra,16122 <frexp>
   11fe2:	683090ef          	jal	ra,1be64 <__extenddftf2>
   11fe6:	0000a797          	auipc	a5,0xa
   11fea:	3fa78793          	addi	a5,a5,1018 # 1c3e0 <zeroes.4521+0x38>
   11fee:	6390                	ld	a2,0(a5)
   11ff0:	6794                	ld	a3,8(a5)
   11ff2:	773080ef          	jal	ra,1af64 <__multf3>
   11ff6:	4601                	li	a2,0
   11ff8:	4681                	li	a3,0
   11ffa:	f02a                	sd	a0,32(sp)
   11ffc:	e42e                	sd	a1,8(sp)
   11ffe:	583080ef          	jal	ra,1ad80 <__eqtf2>
   12002:	62a2                	ld	t0,8(sp)
   12004:	7702                	ld	a4,32(sp)
   12006:	7ec2                	ld	t4,48(sp)
   12008:	7362                	ld	t1,56(sp)
   1200a:	e119                	bnez	a0,12010 <_vfprintf_r+0x1b42>
   1200c:	4785                	li	a5,1
   1200e:	d5be                	sw	a5,232(sp)
   12010:	0000a797          	auipc	a5,0xa
   12014:	1f078793          	addi	a5,a5,496 # 1c200 <__clzdi2+0xaa>
   12018:	e8be                	sd	a5,80(sp)
   1201a:	bce1                	j	11af2 <_vfprintf_r+0x1624>
   1201c:	0f210713          	addi	a4,sp,242
   12020:	e699                	bnez	a3,1202e <_vfprintf_r+0x1b60>
   12022:	03000713          	li	a4,48
   12026:	0ee10923          	sb	a4,242(sp)
   1202a:	0f310713          	addi	a4,sp,243
   1202e:	0c14                	addi	a3,sp,528
   12030:	0307879b          	addiw	a5,a5,48
   12034:	40d706b3          	sub	a3,a4,a3
   12038:	00f70023          	sb	a5,0(a4)
   1203c:	1216879b          	addiw	a5,a3,289
   12040:	e13e                	sd	a5,128(sp)
   12042:	a65fe06f          	j	10aa6 <_vfprintf_r+0x5d8>
   12046:	77c6                	ld	a5,112(sp)
   12048:	06600d93          	li	s11,102
   1204c:	00e78c3b          	addw	s8,a5,a4
   12050:	01dc0c3b          	addw	s8,s8,t4
   12054:	bb81                	j	11da4 <_vfprintf_r+0x18d6>
   12056:	676a                	ld	a4,152(sp)
   12058:	8b05                	andi	a4,a4,1
   1205a:	e319                	bnez	a4,12060 <_vfprintf_r+0x1b92>
   1205c:	a65fe06f          	j	10ac0 <_vfprintf_r+0x5f2>
   12060:	a5bfe06f          	j	10aba <_vfprintf_r+0x5ec>
   12064:	40ec07bb          	subw	a5,s8,a4
   12068:	2785                	addiw	a5,a5,1
   1206a:	00078c1b          	sext.w	s8,a5
   1206e:	fffc4993          	not	s3,s8
   12072:	43f9d993          	srai	s3,s3,0x3f
   12076:	0137f7b3          	and	a5,a5,s3
   1207a:	0007899b          	sext.w	s3,a5
   1207e:	bef1                	j	11c5a <_vfprintf_r+0x178c>
   12080:	e791                	bnez	a5,1208c <_vfprintf_r+0x1bbe>
   12082:	4985                	li	s3,1
   12084:	06600d93          	li	s11,102
   12088:	4c05                	li	s8,1
   1208a:	bec1                	j	11c5a <_vfprintf_r+0x178c>
   1208c:	77c6                	ld	a5,112(sp)
   1208e:	06600d93          	li	s11,102
   12092:	2785                	addiw	a5,a5,1
   12094:	01d78ebb          	addw	t4,a5,t4
   12098:	000e8c1b          	sext.w	s8,t4
   1209c:	fffc4993          	not	s3,s8
   120a0:	43f9d993          	srai	s3,s3,0x3f
   120a4:	013efeb3          	and	t4,t4,s3
   120a8:	000e899b          	sext.w	s3,t4
   120ac:	b67d                	j	11c5a <_vfprintf_r+0x178c>
   120ae:	871a                	mv	a4,t1
   120b0:	c9aff06f          	j	1154a <_vfprintf_r+0x107c>
   120b4:	66c2                	ld	a3,16(sp)
   120b6:	4298                	lw	a4,0(a3)
   120b8:	06a1                	addi	a3,a3,8
   120ba:	00070e9b          	sext.w	t4,a4
   120be:	00075363          	bgez	a4,120c4 <_vfprintf_r+0x1bf6>
   120c2:	5efd                	li	t4,-1
   120c4:	00144f03          	lbu	t5,1(s0)
   120c8:	e836                	sd	a3,16(sp)
   120ca:	843e                	mv	s0,a5
   120cc:	d36fe06f          	j	10602 <_vfprintf_r+0x134>
   120d0:	4789                	li	a5,2
   120d2:	e13e                	sd	a5,128(sp)
   120d4:	9d3fe06f          	j	10aa6 <_vfprintf_r+0x5d8>
   120d8:	010a5783          	lhu	a5,16(s4)
   120dc:	0407e793          	ori	a5,a5,64
   120e0:	00fa1823          	sh	a5,16(s4)
   120e4:	e8cfe06f          	j	10770 <_vfprintf_r+0x2a2>

00000000000120e8 <vfprintf>:
   120e8:	86b2                	mv	a3,a2
   120ea:	862e                	mv	a2,a1
   120ec:	85aa                	mv	a1,a0
   120ee:	7581b503          	ld	a0,1880(gp) # 1e258 <_impure_ptr>
   120f2:	bdcfe06f          	j	104ce <_vfprintf_r>

00000000000120f6 <__sbprintf>:
   120f6:	0105d783          	lhu	a5,16(a1)
   120fa:	0ac5ae03          	lw	t3,172(a1)
   120fe:	0125d303          	lhu	t1,18(a1)
   12102:	0305b883          	ld	a7,48(a1)
   12106:	0405b803          	ld	a6,64(a1)
   1210a:	b3010113          	addi	sp,sp,-1232
   1210e:	9bf5                	andi	a5,a5,-3
   12110:	40000713          	li	a4,1024
   12114:	4c813023          	sd	s0,1216(sp)
   12118:	00f11823          	sh	a5,16(sp)
   1211c:	842e                	mv	s0,a1
   1211e:	191c                	addi	a5,sp,176
   12120:	858a                	mv	a1,sp
   12122:	4a913c23          	sd	s1,1208(sp)
   12126:	4b213823          	sd	s2,1200(sp)
   1212a:	4c113423          	sd	ra,1224(sp)
   1212e:	892a                	mv	s2,a0
   12130:	d772                	sw	t3,172(sp)
   12132:	00611923          	sh	t1,18(sp)
   12136:	f846                	sd	a7,48(sp)
   12138:	e0c2                	sd	a6,64(sp)
   1213a:	e03e                	sd	a5,0(sp)
   1213c:	ec3e                	sd	a5,24(sp)
   1213e:	c63a                	sw	a4,12(sp)
   12140:	d03a                	sw	a4,32(sp)
   12142:	d402                	sw	zero,40(sp)
   12144:	b8afe0ef          	jal	ra,104ce <_vfprintf_r>
   12148:	84aa                	mv	s1,a0
   1214a:	02055963          	bgez	a0,1217c <__sbprintf+0x86>
   1214e:	01015783          	lhu	a5,16(sp)
   12152:	0407f793          	andi	a5,a5,64
   12156:	c799                	beqz	a5,12164 <__sbprintf+0x6e>
   12158:	01045783          	lhu	a5,16(s0)
   1215c:	0407e793          	ori	a5,a5,64
   12160:	00f41823          	sh	a5,16(s0)
   12164:	4c813083          	ld	ra,1224(sp)
   12168:	4c013403          	ld	s0,1216(sp)
   1216c:	4b013903          	ld	s2,1200(sp)
   12170:	8526                	mv	a0,s1
   12172:	4b813483          	ld	s1,1208(sp)
   12176:	4d010113          	addi	sp,sp,1232
   1217a:	8082                	ret
   1217c:	858a                	mv	a1,sp
   1217e:	854a                	mv	a0,s2
   12180:	354000ef          	jal	ra,124d4 <_fflush_r>
   12184:	d569                	beqz	a0,1214e <__sbprintf+0x58>
   12186:	54fd                	li	s1,-1
   12188:	b7d9                	j	1214e <__sbprintf+0x58>

000000000001218a <__swsetup_r>:
   1218a:	1101                	addi	sp,sp,-32
   1218c:	e822                	sd	s0,16(sp)
   1218e:	e426                	sd	s1,8(sp)
   12190:	ec06                	sd	ra,24(sp)
   12192:	7581b783          	ld	a5,1880(gp) # 1e258 <_impure_ptr>
   12196:	84aa                	mv	s1,a0
   12198:	842e                	mv	s0,a1
   1219a:	c399                	beqz	a5,121a0 <__swsetup_r+0x16>
   1219c:	4bb8                	lw	a4,80(a5)
   1219e:	cf49                	beqz	a4,12238 <__swsetup_r+0xae>
   121a0:	01041703          	lh	a4,16(s0)
   121a4:	03071793          	slli	a5,a4,0x30
   121a8:	00877693          	andi	a3,a4,8
   121ac:	93c1                	srli	a5,a5,0x30
   121ae:	c29d                	beqz	a3,121d4 <__swsetup_r+0x4a>
   121b0:	6c14                	ld	a3,24(s0)
   121b2:	ce9d                	beqz	a3,121f0 <__swsetup_r+0x66>
   121b4:	0017f613          	andi	a2,a5,1
   121b8:	ce39                	beqz	a2,12216 <__swsetup_r+0x8c>
   121ba:	5010                	lw	a2,32(s0)
   121bc:	00042623          	sw	zero,12(s0)
   121c0:	4501                	li	a0,0
   121c2:	40c0063b          	negw	a2,a2
   121c6:	d410                	sw	a2,40(s0)
   121c8:	ceb9                	beqz	a3,12226 <__swsetup_r+0x9c>
   121ca:	60e2                	ld	ra,24(sp)
   121cc:	6442                	ld	s0,16(sp)
   121ce:	64a2                	ld	s1,8(sp)
   121d0:	6105                	addi	sp,sp,32
   121d2:	8082                	ret
   121d4:	0107f693          	andi	a3,a5,16
   121d8:	cac1                	beqz	a3,12268 <__swsetup_r+0xde>
   121da:	8b91                	andi	a5,a5,4
   121dc:	e3b5                	bnez	a5,12240 <__swsetup_r+0xb6>
   121de:	6c14                	ld	a3,24(s0)
   121e0:	00876713          	ori	a4,a4,8
   121e4:	03071793          	slli	a5,a4,0x30
   121e8:	00e41823          	sh	a4,16(s0)
   121ec:	93c1                	srli	a5,a5,0x30
   121ee:	f2f9                	bnez	a3,121b4 <__swsetup_r+0x2a>
   121f0:	2807f613          	andi	a2,a5,640
   121f4:	20000593          	li	a1,512
   121f8:	fab60ee3          	beq	a2,a1,121b4 <__swsetup_r+0x2a>
   121fc:	85a2                	mv	a1,s0
   121fe:	8526                	mv	a0,s1
   12200:	3a3020ef          	jal	ra,14da2 <__smakebuf_r>
   12204:	01041703          	lh	a4,16(s0)
   12208:	6c14                	ld	a3,24(s0)
   1220a:	03071793          	slli	a5,a4,0x30
   1220e:	93c1                	srli	a5,a5,0x30
   12210:	0017f613          	andi	a2,a5,1
   12214:	f25d                	bnez	a2,121ba <__swsetup_r+0x30>
   12216:	0027f613          	andi	a2,a5,2
   1221a:	4581                	li	a1,0
   1221c:	e211                	bnez	a2,12220 <__swsetup_r+0x96>
   1221e:	500c                	lw	a1,32(s0)
   12220:	c44c                	sw	a1,12(s0)
   12222:	4501                	li	a0,0
   12224:	f2dd                	bnez	a3,121ca <__swsetup_r+0x40>
   12226:	0807f793          	andi	a5,a5,128
   1222a:	d3c5                	beqz	a5,121ca <__swsetup_r+0x40>
   1222c:	04076713          	ori	a4,a4,64
   12230:	00e41823          	sh	a4,16(s0)
   12234:	557d                	li	a0,-1
   12236:	bf51                	j	121ca <__swsetup_r+0x40>
   12238:	853e                	mv	a0,a5
   1223a:	52c000ef          	jal	ra,12766 <__sinit>
   1223e:	b78d                	j	121a0 <__swsetup_r+0x16>
   12240:	6c2c                	ld	a1,88(s0)
   12242:	cd81                	beqz	a1,1225a <__swsetup_r+0xd0>
   12244:	07440793          	addi	a5,s0,116
   12248:	00f58763          	beq	a1,a5,12256 <__swsetup_r+0xcc>
   1224c:	8526                	mv	a0,s1
   1224e:	652000ef          	jal	ra,128a0 <_free_r>
   12252:	01041703          	lh	a4,16(s0)
   12256:	04043c23          	sd	zero,88(s0)
   1225a:	6c14                	ld	a3,24(s0)
   1225c:	fdb77713          	andi	a4,a4,-37
   12260:	00042423          	sw	zero,8(s0)
   12264:	e014                	sd	a3,0(s0)
   12266:	bfad                	j	121e0 <__swsetup_r+0x56>
   12268:	47a5                	li	a5,9
   1226a:	c09c                	sw	a5,0(s1)
   1226c:	04076713          	ori	a4,a4,64
   12270:	00e41823          	sh	a4,16(s0)
   12274:	557d                	li	a0,-1
   12276:	bf91                	j	121ca <__swsetup_r+0x40>

0000000000012278 <__call_exitprocs>:
   12278:	715d                	addi	sp,sp,-80
   1227a:	f052                	sd	s4,32(sp)
   1227c:	7481ba03          	ld	s4,1864(gp) # 1e248 <_global_impure_ptr>
   12280:	f84a                	sd	s2,48(sp)
   12282:	1f8a3903          	ld	s2,504(s4)
   12286:	e486                	sd	ra,72(sp)
   12288:	e0a2                	sd	s0,64(sp)
   1228a:	fc26                	sd	s1,56(sp)
   1228c:	f44e                	sd	s3,40(sp)
   1228e:	ec56                	sd	s5,24(sp)
   12290:	e85a                	sd	s6,16(sp)
   12292:	e45e                	sd	s7,8(sp)
   12294:	e062                	sd	s8,0(sp)
   12296:	02090863          	beqz	s2,122c6 <__call_exitprocs+0x4e>
   1229a:	8b2a                	mv	s6,a0
   1229c:	8bae                	mv	s7,a1
   1229e:	4a85                	li	s5,1
   122a0:	59fd                	li	s3,-1
   122a2:	00892483          	lw	s1,8(s2)
   122a6:	fff4841b          	addiw	s0,s1,-1
   122aa:	00044e63          	bltz	s0,122c6 <__call_exitprocs+0x4e>
   122ae:	048e                	slli	s1,s1,0x3
   122b0:	94ca                	add	s1,s1,s2
   122b2:	020b8663          	beqz	s7,122de <__call_exitprocs+0x66>
   122b6:	2084b783          	ld	a5,520(s1)
   122ba:	03778263          	beq	a5,s7,122de <__call_exitprocs+0x66>
   122be:	347d                	addiw	s0,s0,-1
   122c0:	14e1                	addi	s1,s1,-8
   122c2:	ff3418e3          	bne	s0,s3,122b2 <__call_exitprocs+0x3a>
   122c6:	60a6                	ld	ra,72(sp)
   122c8:	6406                	ld	s0,64(sp)
   122ca:	74e2                	ld	s1,56(sp)
   122cc:	7942                	ld	s2,48(sp)
   122ce:	79a2                	ld	s3,40(sp)
   122d0:	7a02                	ld	s4,32(sp)
   122d2:	6ae2                	ld	s5,24(sp)
   122d4:	6b42                	ld	s6,16(sp)
   122d6:	6ba2                	ld	s7,8(sp)
   122d8:	6c02                	ld	s8,0(sp)
   122da:	6161                	addi	sp,sp,80
   122dc:	8082                	ret
   122de:	00892783          	lw	a5,8(s2)
   122e2:	6498                	ld	a4,8(s1)
   122e4:	37fd                	addiw	a5,a5,-1
   122e6:	04878463          	beq	a5,s0,1232e <__call_exitprocs+0xb6>
   122ea:	0004b423          	sd	zero,8(s1)
   122ee:	db61                	beqz	a4,122be <__call_exitprocs+0x46>
   122f0:	31092783          	lw	a5,784(s2)
   122f4:	008a96bb          	sllw	a3,s5,s0
   122f8:	00892c03          	lw	s8,8(s2)
   122fc:	8ff5                	and	a5,a5,a3
   122fe:	2781                	sext.w	a5,a5
   12300:	ef89                	bnez	a5,1231a <__call_exitprocs+0xa2>
   12302:	9702                	jalr	a4
   12304:	00892703          	lw	a4,8(s2)
   12308:	1f8a3783          	ld	a5,504(s4)
   1230c:	01871463          	bne	a4,s8,12314 <__call_exitprocs+0x9c>
   12310:	faf907e3          	beq	s2,a5,122be <__call_exitprocs+0x46>
   12314:	dbcd                	beqz	a5,122c6 <__call_exitprocs+0x4e>
   12316:	893e                	mv	s2,a5
   12318:	b769                	j	122a2 <__call_exitprocs+0x2a>
   1231a:	31492783          	lw	a5,788(s2)
   1231e:	1084b583          	ld	a1,264(s1)
   12322:	8ff5                	and	a5,a5,a3
   12324:	2781                	sext.w	a5,a5
   12326:	e799                	bnez	a5,12334 <__call_exitprocs+0xbc>
   12328:	855a                	mv	a0,s6
   1232a:	9702                	jalr	a4
   1232c:	bfe1                	j	12304 <__call_exitprocs+0x8c>
   1232e:	00892423          	sw	s0,8(s2)
   12332:	bf75                	j	122ee <__call_exitprocs+0x76>
   12334:	852e                	mv	a0,a1
   12336:	9702                	jalr	a4
   12338:	b7f1                	j	12304 <__call_exitprocs+0x8c>

000000000001233a <__sflush_r>:
   1233a:	01059783          	lh	a5,16(a1)
   1233e:	7179                	addi	sp,sp,-48
   12340:	f022                	sd	s0,32(sp)
   12342:	e44e                	sd	s3,8(sp)
   12344:	f406                	sd	ra,40(sp)
   12346:	ec26                	sd	s1,24(sp)
   12348:	e84a                	sd	s2,16(sp)
   1234a:	0087f693          	andi	a3,a5,8
   1234e:	842e                	mv	s0,a1
   12350:	89aa                	mv	s3,a0
   12352:	eecd                	bnez	a3,1240c <__sflush_r+0xd2>
   12354:	6705                	lui	a4,0x1
   12356:	80070713          	addi	a4,a4,-2048 # 800 <main-0xf8b0>
   1235a:	4594                	lw	a3,8(a1)
   1235c:	8fd9                	or	a5,a5,a4
   1235e:	00f59823          	sh	a5,16(a1)
   12362:	10d05363          	blez	a3,12468 <__sflush_r+0x12e>
   12366:	6438                	ld	a4,72(s0)
   12368:	cb51                	beqz	a4,123fc <__sflush_r+0xc2>
   1236a:	0009a483          	lw	s1,0(s3) # 10000 <main-0xb0>
   1236e:	03079693          	slli	a3,a5,0x30
   12372:	0009a023          	sw	zero,0(s3)
   12376:	03379613          	slli	a2,a5,0x33
   1237a:	780c                	ld	a1,48(s0)
   1237c:	92c1                	srli	a3,a3,0x30
   1237e:	0e064963          	bltz	a2,12470 <__sflush_r+0x136>
   12382:	4601                	li	a2,0
   12384:	4685                	li	a3,1
   12386:	854e                	mv	a0,s3
   12388:	9702                	jalr	a4
   1238a:	57fd                	li	a5,-1
   1238c:	862a                	mv	a2,a0
   1238e:	10f50963          	beq	a0,a5,124a0 <__sflush_r+0x166>
   12392:	01045683          	lhu	a3,16(s0)
   12396:	6438                	ld	a4,72(s0)
   12398:	780c                	ld	a1,48(s0)
   1239a:	8a91                	andi	a3,a3,4
   1239c:	c699                	beqz	a3,123aa <__sflush_r+0x70>
   1239e:	4414                	lw	a3,8(s0)
   123a0:	6c3c                	ld	a5,88(s0)
   123a2:	8e15                	sub	a2,a2,a3
   123a4:	c399                	beqz	a5,123aa <__sflush_r+0x70>
   123a6:	583c                	lw	a5,112(s0)
   123a8:	8e1d                	sub	a2,a2,a5
   123aa:	4681                	li	a3,0
   123ac:	854e                	mv	a0,s3
   123ae:	9702                	jalr	a4
   123b0:	57fd                	li	a5,-1
   123b2:	0cf51163          	bne	a0,a5,12474 <__sflush_r+0x13a>
   123b6:	0009a703          	lw	a4,0(s3)
   123ba:	01041783          	lh	a5,16(s0)
   123be:	0e070f63          	beqz	a4,124bc <__sflush_r+0x182>
   123c2:	46f5                	li	a3,29
   123c4:	00d70563          	beq	a4,a3,123ce <__sflush_r+0x94>
   123c8:	46d9                	li	a3,22
   123ca:	0ed71f63          	bne	a4,a3,124c8 <__sflush_r+0x18e>
   123ce:	6c14                	ld	a3,24(s0)
   123d0:	777d                	lui	a4,0xfffff
   123d2:	7ff70713          	addi	a4,a4,2047 # fffffffffffff7ff <__BSS_END__+0xfffffffffffe14ff>
   123d6:	8ff9                	and	a5,a5,a4
   123d8:	00f41823          	sh	a5,16(s0)
   123dc:	00042423          	sw	zero,8(s0)
   123e0:	e014                	sd	a3,0(s0)
   123e2:	6c2c                	ld	a1,88(s0)
   123e4:	0099a023          	sw	s1,0(s3)
   123e8:	c991                	beqz	a1,123fc <__sflush_r+0xc2>
   123ea:	07440793          	addi	a5,s0,116
   123ee:	00f58563          	beq	a1,a5,123f8 <__sflush_r+0xbe>
   123f2:	854e                	mv	a0,s3
   123f4:	4ac000ef          	jal	ra,128a0 <_free_r>
   123f8:	04043c23          	sd	zero,88(s0)
   123fc:	4501                	li	a0,0
   123fe:	70a2                	ld	ra,40(sp)
   12400:	7402                	ld	s0,32(sp)
   12402:	64e2                	ld	s1,24(sp)
   12404:	6942                	ld	s2,16(sp)
   12406:	69a2                	ld	s3,8(sp)
   12408:	6145                	addi	sp,sp,48
   1240a:	8082                	ret
   1240c:	0185b903          	ld	s2,24(a1)
   12410:	fe0906e3          	beqz	s2,123fc <__sflush_r+0xc2>
   12414:	6184                	ld	s1,0(a1)
   12416:	03079713          	slli	a4,a5,0x30
   1241a:	9341                	srli	a4,a4,0x30
   1241c:	8b0d                	andi	a4,a4,3
   1241e:	0125b023          	sd	s2,0(a1)
   12422:	412484bb          	subw	s1,s1,s2
   12426:	4781                	li	a5,0
   12428:	e311                	bnez	a4,1242c <__sflush_r+0xf2>
   1242a:	519c                	lw	a5,32(a1)
   1242c:	c45c                	sw	a5,12(s0)
   1242e:	00904663          	bgtz	s1,1243a <__sflush_r+0x100>
   12432:	b7e9                	j	123fc <__sflush_r+0xc2>
   12434:	992a                	add	s2,s2,a0
   12436:	fc9053e3          	blez	s1,123fc <__sflush_r+0xc2>
   1243a:	603c                	ld	a5,64(s0)
   1243c:	780c                	ld	a1,48(s0)
   1243e:	86a6                	mv	a3,s1
   12440:	864a                	mv	a2,s2
   12442:	854e                	mv	a0,s3
   12444:	9782                	jalr	a5
   12446:	9c89                	subw	s1,s1,a0
   12448:	fea046e3          	bgtz	a0,12434 <__sflush_r+0xfa>
   1244c:	01045783          	lhu	a5,16(s0)
   12450:	70a2                	ld	ra,40(sp)
   12452:	64e2                	ld	s1,24(sp)
   12454:	0407e793          	ori	a5,a5,64
   12458:	00f41823          	sh	a5,16(s0)
   1245c:	7402                	ld	s0,32(sp)
   1245e:	6942                	ld	s2,16(sp)
   12460:	69a2                	ld	s3,8(sp)
   12462:	557d                	li	a0,-1
   12464:	6145                	addi	sp,sp,48
   12466:	8082                	ret
   12468:	59b8                	lw	a4,112(a1)
   1246a:	eee04ee3          	bgtz	a4,12366 <__sflush_r+0x2c>
   1246e:	b779                	j	123fc <__sflush_r+0xc2>
   12470:	6850                	ld	a2,144(s0)
   12472:	b725                	j	1239a <__sflush_r+0x60>
   12474:	01045783          	lhu	a5,16(s0)
   12478:	777d                	lui	a4,0xfffff
   1247a:	7ff70713          	addi	a4,a4,2047 # fffffffffffff7ff <__BSS_END__+0xfffffffffffe14ff>
   1247e:	8ff9                	and	a5,a5,a4
   12480:	6c14                	ld	a3,24(s0)
   12482:	0107979b          	slliw	a5,a5,0x10
   12486:	4107d79b          	sraiw	a5,a5,0x10
   1248a:	00f41823          	sh	a5,16(s0)
   1248e:	00042423          	sw	zero,8(s0)
   12492:	e014                	sd	a3,0(s0)
   12494:	03379713          	slli	a4,a5,0x33
   12498:	f40755e3          	bgez	a4,123e2 <__sflush_r+0xa8>
   1249c:	e848                	sd	a0,144(s0)
   1249e:	b791                	j	123e2 <__sflush_r+0xa8>
   124a0:	0009a783          	lw	a5,0(s3)
   124a4:	ee0787e3          	beqz	a5,12392 <__sflush_r+0x58>
   124a8:	4775                	li	a4,29
   124aa:	00e78563          	beq	a5,a4,124b4 <__sflush_r+0x17a>
   124ae:	4759                	li	a4,22
   124b0:	f8e79ee3          	bne	a5,a4,1244c <__sflush_r+0x112>
   124b4:	0099a023          	sw	s1,0(s3)
   124b8:	4501                	li	a0,0
   124ba:	b791                	j	123fe <__sflush_r+0xc4>
   124bc:	777d                	lui	a4,0xfffff
   124be:	7ff70713          	addi	a4,a4,2047 # fffffffffffff7ff <__BSS_END__+0xfffffffffffe14ff>
   124c2:	6c14                	ld	a3,24(s0)
   124c4:	8ff9                	and	a5,a5,a4
   124c6:	b7d1                	j	1248a <__sflush_r+0x150>
   124c8:	0407e793          	ori	a5,a5,64
   124cc:	00f41823          	sh	a5,16(s0)
   124d0:	557d                	li	a0,-1
   124d2:	b735                	j	123fe <__sflush_r+0xc4>

00000000000124d4 <_fflush_r>:
   124d4:	1101                	addi	sp,sp,-32
   124d6:	e822                	sd	s0,16(sp)
   124d8:	ec06                	sd	ra,24(sp)
   124da:	842a                	mv	s0,a0
   124dc:	c119                	beqz	a0,124e2 <_fflush_r+0xe>
   124de:	493c                	lw	a5,80(a0)
   124e0:	cb89                	beqz	a5,124f2 <_fflush_r+0x1e>
   124e2:	01059783          	lh	a5,16(a1)
   124e6:	ef89                	bnez	a5,12500 <_fflush_r+0x2c>
   124e8:	60e2                	ld	ra,24(sp)
   124ea:	6442                	ld	s0,16(sp)
   124ec:	4501                	li	a0,0
   124ee:	6105                	addi	sp,sp,32
   124f0:	8082                	ret
   124f2:	e42e                	sd	a1,8(sp)
   124f4:	272000ef          	jal	ra,12766 <__sinit>
   124f8:	65a2                	ld	a1,8(sp)
   124fa:	01059783          	lh	a5,16(a1)
   124fe:	d7ed                	beqz	a5,124e8 <_fflush_r+0x14>
   12500:	8522                	mv	a0,s0
   12502:	6442                	ld	s0,16(sp)
   12504:	60e2                	ld	ra,24(sp)
   12506:	6105                	addi	sp,sp,32
   12508:	bd0d                	j	1233a <__sflush_r>

000000000001250a <fflush>:
   1250a:	85aa                	mv	a1,a0
   1250c:	c501                	beqz	a0,12514 <fflush+0xa>
   1250e:	7581b503          	ld	a0,1880(gp) # 1e258 <_impure_ptr>
   12512:	b7c9                	j	124d4 <_fflush_r>
   12514:	00000597          	auipc	a1,0x0
   12518:	fc058593          	addi	a1,a1,-64 # 124d4 <_fflush_r>
   1251c:	7481b503          	ld	a0,1864(gp) # 1e248 <_global_impure_ptr>
   12520:	ad89                	j	12b72 <_fwalk_reent>

0000000000012522 <__fp_lock>:
   12522:	4501                	li	a0,0
   12524:	8082                	ret

0000000000012526 <_cleanup_r>:
   12526:	00007597          	auipc	a1,0x7
   1252a:	b1258593          	addi	a1,a1,-1262 # 19038 <_fclose_r>
   1252e:	a591                	j	12b72 <_fwalk_reent>

0000000000012530 <__sinit.part.0>:
   12530:	7139                	addi	sp,sp,-64
   12532:	fc06                	sd	ra,56(sp)
   12534:	f822                	sd	s0,48(sp)
   12536:	f426                	sd	s1,40(sp)
   12538:	f04a                	sd	s2,32(sp)
   1253a:	ec4e                	sd	s3,24(sp)
   1253c:	e852                	sd	s4,16(sp)
   1253e:	e456                	sd	s5,8(sp)
   12540:	e05a                	sd	s6,0(sp)
   12542:	6500                	ld	s0,8(a0)
   12544:	00000717          	auipc	a4,0x0
   12548:	fe270713          	addi	a4,a4,-30 # 12526 <_cleanup_r>
   1254c:	ed38                	sd	a4,88(a0)
   1254e:	53850793          	addi	a5,a0,1336
   12552:	470d                	li	a4,3
   12554:	52e52423          	sw	a4,1320(a0)
   12558:	52f53823          	sd	a5,1328(a0)
   1255c:	52053023          	sd	zero,1312(a0)
   12560:	4791                	li	a5,4
   12562:	892a                	mv	s2,a0
   12564:	c81c                	sw	a5,16(s0)
   12566:	4621                	li	a2,8
   12568:	4581                	li	a1,0
   1256a:	0a042623          	sw	zero,172(s0)
   1256e:	00043023          	sd	zero,0(s0)
   12572:	00043423          	sd	zero,8(s0)
   12576:	00043c23          	sd	zero,24(s0)
   1257a:	02042023          	sw	zero,32(s0)
   1257e:	02042423          	sw	zero,40(s0)
   12582:	0a440513          	addi	a0,s0,164
   12586:	e27fd0ef          	jal	ra,103ac <memset>
   1258a:	01093483          	ld	s1,16(s2)
   1258e:	00004b17          	auipc	s6,0x4
   12592:	ca0b0b13          	addi	s6,s6,-864 # 1622e <__sread>
   12596:	00004a97          	auipc	s5,0x4
   1259a:	cd4a8a93          	addi	s5,s5,-812 # 1626a <__swrite>
   1259e:	00004a17          	auipc	s4,0x4
   125a2:	d20a0a13          	addi	s4,s4,-736 # 162be <__sseek>
   125a6:	00004997          	auipc	s3,0x4
   125aa:	d5a98993          	addi	s3,s3,-678 # 16300 <__sclose>
   125ae:	67c1                	lui	a5,0x10
   125b0:	03643c23          	sd	s6,56(s0)
   125b4:	05543023          	sd	s5,64(s0)
   125b8:	05443423          	sd	s4,72(s0)
   125bc:	05343823          	sd	s3,80(s0)
   125c0:	f800                	sd	s0,48(s0)
   125c2:	07a5                	addi	a5,a5,9
   125c4:	c89c                	sw	a5,16(s1)
   125c6:	4621                	li	a2,8
   125c8:	4581                	li	a1,0
   125ca:	0a04a623          	sw	zero,172(s1)
   125ce:	0004b023          	sd	zero,0(s1)
   125d2:	0004b423          	sd	zero,8(s1)
   125d6:	0004bc23          	sd	zero,24(s1)
   125da:	0204a023          	sw	zero,32(s1)
   125de:	0204a423          	sw	zero,40(s1)
   125e2:	0a448513          	addi	a0,s1,164
   125e6:	dc7fd0ef          	jal	ra,103ac <memset>
   125ea:	01893403          	ld	s0,24(s2)
   125ee:	000207b7          	lui	a5,0x20
   125f2:	0364bc23          	sd	s6,56(s1)
   125f6:	0554b023          	sd	s5,64(s1)
   125fa:	0544b423          	sd	s4,72(s1)
   125fe:	0534b823          	sd	s3,80(s1)
   12602:	f884                	sd	s1,48(s1)
   12604:	07c9                	addi	a5,a5,18
   12606:	c81c                	sw	a5,16(s0)
   12608:	0a042623          	sw	zero,172(s0)
   1260c:	00043023          	sd	zero,0(s0)
   12610:	00043423          	sd	zero,8(s0)
   12614:	00043c23          	sd	zero,24(s0)
   12618:	02042023          	sw	zero,32(s0)
   1261c:	02042423          	sw	zero,40(s0)
   12620:	0a440513          	addi	a0,s0,164
   12624:	4621                	li	a2,8
   12626:	4581                	li	a1,0
   12628:	d85fd0ef          	jal	ra,103ac <memset>
   1262c:	70e2                	ld	ra,56(sp)
   1262e:	03643c23          	sd	s6,56(s0)
   12632:	05543023          	sd	s5,64(s0)
   12636:	05443423          	sd	s4,72(s0)
   1263a:	05343823          	sd	s3,80(s0)
   1263e:	f800                	sd	s0,48(s0)
   12640:	7442                	ld	s0,48(sp)
   12642:	4785                	li	a5,1
   12644:	04f92823          	sw	a5,80(s2)
   12648:	74a2                	ld	s1,40(sp)
   1264a:	7902                	ld	s2,32(sp)
   1264c:	69e2                	ld	s3,24(sp)
   1264e:	6a42                	ld	s4,16(sp)
   12650:	6aa2                	ld	s5,8(sp)
   12652:	6b02                	ld	s6,0(sp)
   12654:	6121                	addi	sp,sp,64
   12656:	8082                	ret

0000000000012658 <__fp_unlock>:
   12658:	4501                	li	a0,0
   1265a:	8082                	ret

000000000001265c <__sfmoreglue>:
   1265c:	1101                	addi	sp,sp,-32
   1265e:	e426                	sd	s1,8(sp)
   12660:	0b000613          	li	a2,176
   12664:	fff5849b          	addiw	s1,a1,-1
   12668:	02c484b3          	mul	s1,s1,a2
   1266c:	e04a                	sd	s2,0(sp)
   1266e:	892e                	mv	s2,a1
   12670:	e822                	sd	s0,16(sp)
   12672:	ec06                	sd	ra,24(sp)
   12674:	0c848593          	addi	a1,s1,200
   12678:	7e6020ef          	jal	ra,14e5e <_malloc_r>
   1267c:	842a                	mv	s0,a0
   1267e:	cd01                	beqz	a0,12696 <__sfmoreglue+0x3a>
   12680:	0561                	addi	a0,a0,24
   12682:	00043023          	sd	zero,0(s0)
   12686:	01242423          	sw	s2,8(s0)
   1268a:	e808                	sd	a0,16(s0)
   1268c:	0b048613          	addi	a2,s1,176
   12690:	4581                	li	a1,0
   12692:	d1bfd0ef          	jal	ra,103ac <memset>
   12696:	60e2                	ld	ra,24(sp)
   12698:	8522                	mv	a0,s0
   1269a:	6442                	ld	s0,16(sp)
   1269c:	64a2                	ld	s1,8(sp)
   1269e:	6902                	ld	s2,0(sp)
   126a0:	6105                	addi	sp,sp,32
   126a2:	8082                	ret

00000000000126a4 <__sfp>:
   126a4:	7179                	addi	sp,sp,-48
   126a6:	ec26                	sd	s1,24(sp)
   126a8:	7481b483          	ld	s1,1864(gp) # 1e248 <_global_impure_ptr>
   126ac:	48bc                	lw	a5,80(s1)
   126ae:	e84a                	sd	s2,16(sp)
   126b0:	f406                	sd	ra,40(sp)
   126b2:	f022                	sd	s0,32(sp)
   126b4:	e44e                	sd	s3,8(sp)
   126b6:	892a                	mv	s2,a0
   126b8:	c3c9                	beqz	a5,1273a <__sfp+0x96>
   126ba:	52048493          	addi	s1,s1,1312
   126be:	0b000993          	li	s3,176
   126c2:	449c                	lw	a5,8(s1)
   126c4:	6880                	ld	s0,16(s1)
   126c6:	06f05663          	blez	a5,12732 <__sfp+0x8e>
   126ca:	37fd                	addiw	a5,a5,-1
   126cc:	1782                	slli	a5,a5,0x20
   126ce:	9381                	srli	a5,a5,0x20
   126d0:	0785                	addi	a5,a5,1
   126d2:	033787b3          	mul	a5,a5,s3
   126d6:	97a2                	add	a5,a5,s0
   126d8:	a029                	j	126e2 <__sfp+0x3e>
   126da:	0b040413          	addi	s0,s0,176
   126de:	04878a63          	beq	a5,s0,12732 <__sfp+0x8e>
   126e2:	01041703          	lh	a4,16(s0)
   126e6:	fb75                	bnez	a4,126da <__sfp+0x36>
   126e8:	77c1                	lui	a5,0xffff0
   126ea:	0785                	addi	a5,a5,1
   126ec:	0a042623          	sw	zero,172(s0)
   126f0:	00043023          	sd	zero,0(s0)
   126f4:	00043423          	sd	zero,8(s0)
   126f8:	c81c                	sw	a5,16(s0)
   126fa:	00043c23          	sd	zero,24(s0)
   126fe:	02042023          	sw	zero,32(s0)
   12702:	02042423          	sw	zero,40(s0)
   12706:	4621                	li	a2,8
   12708:	4581                	li	a1,0
   1270a:	0a440513          	addi	a0,s0,164
   1270e:	c9ffd0ef          	jal	ra,103ac <memset>
   12712:	04043c23          	sd	zero,88(s0)
   12716:	06042023          	sw	zero,96(s0)
   1271a:	06043c23          	sd	zero,120(s0)
   1271e:	08042023          	sw	zero,128(s0)
   12722:	70a2                	ld	ra,40(sp)
   12724:	8522                	mv	a0,s0
   12726:	7402                	ld	s0,32(sp)
   12728:	64e2                	ld	s1,24(sp)
   1272a:	6942                	ld	s2,16(sp)
   1272c:	69a2                	ld	s3,8(sp)
   1272e:	6145                	addi	sp,sp,48
   12730:	8082                	ret
   12732:	6080                	ld	s0,0(s1)
   12734:	c419                	beqz	s0,12742 <__sfp+0x9e>
   12736:	84a2                	mv	s1,s0
   12738:	b769                	j	126c2 <__sfp+0x1e>
   1273a:	8526                	mv	a0,s1
   1273c:	df5ff0ef          	jal	ra,12530 <__sinit.part.0>
   12740:	bfad                	j	126ba <__sfp+0x16>
   12742:	4591                	li	a1,4
   12744:	854a                	mv	a0,s2
   12746:	f17ff0ef          	jal	ra,1265c <__sfmoreglue>
   1274a:	e088                	sd	a0,0(s1)
   1274c:	842a                	mv	s0,a0
   1274e:	f565                	bnez	a0,12736 <__sfp+0x92>
   12750:	47b1                	li	a5,12
   12752:	00f92023          	sw	a5,0(s2)
   12756:	b7f1                	j	12722 <__sfp+0x7e>

0000000000012758 <_cleanup>:
   12758:	00007597          	auipc	a1,0x7
   1275c:	8e058593          	addi	a1,a1,-1824 # 19038 <_fclose_r>
   12760:	7481b503          	ld	a0,1864(gp) # 1e248 <_global_impure_ptr>
   12764:	a139                	j	12b72 <_fwalk_reent>

0000000000012766 <__sinit>:
   12766:	493c                	lw	a5,80(a0)
   12768:	c391                	beqz	a5,1276c <__sinit+0x6>
   1276a:	8082                	ret
   1276c:	b3d1                	j	12530 <__sinit.part.0>

000000000001276e <__sfp_lock_acquire>:
   1276e:	8082                	ret

0000000000012770 <__sfp_lock_release>:
   12770:	8082                	ret

0000000000012772 <__sinit_lock_acquire>:
   12772:	8082                	ret

0000000000012774 <__sinit_lock_release>:
   12774:	8082                	ret

0000000000012776 <__fp_lock_all>:
   12776:	00000597          	auipc	a1,0x0
   1277a:	dac58593          	addi	a1,a1,-596 # 12522 <__fp_lock>
   1277e:	7581b503          	ld	a0,1880(gp) # 1e258 <_impure_ptr>
   12782:	a6bd                	j	12af0 <_fwalk>

0000000000012784 <__fp_unlock_all>:
   12784:	00000597          	auipc	a1,0x0
   12788:	ed458593          	addi	a1,a1,-300 # 12658 <__fp_unlock>
   1278c:	7581b503          	ld	a0,1880(gp) # 1e258 <_impure_ptr>
   12790:	a685                	j	12af0 <_fwalk>

0000000000012792 <__libc_fini_array>:
   12792:	1101                	addi	sp,sp,-32
   12794:	e822                	sd	s0,16(sp)
   12796:	0000b797          	auipc	a5,0xb
   1279a:	88a78793          	addi	a5,a5,-1910 # 1d020 <__fini_array_end>
   1279e:	0000b417          	auipc	s0,0xb
   127a2:	87a40413          	addi	s0,s0,-1926 # 1d018 <__init_array_end>
   127a6:	8f81                	sub	a5,a5,s0
   127a8:	e426                	sd	s1,8(sp)
   127aa:	ec06                	sd	ra,24(sp)
   127ac:	4037d493          	srai	s1,a5,0x3
   127b0:	c881                	beqz	s1,127c0 <__libc_fini_array+0x2e>
   127b2:	17e1                	addi	a5,a5,-8
   127b4:	943e                	add	s0,s0,a5
   127b6:	601c                	ld	a5,0(s0)
   127b8:	14fd                	addi	s1,s1,-1
   127ba:	1461                	addi	s0,s0,-8
   127bc:	9782                	jalr	a5
   127be:	fce5                	bnez	s1,127b6 <__libc_fini_array+0x24>
   127c0:	60e2                	ld	ra,24(sp)
   127c2:	6442                	ld	s0,16(sp)
   127c4:	64a2                	ld	s1,8(sp)
   127c6:	6105                	addi	sp,sp,32
   127c8:	8082                	ret

00000000000127ca <_malloc_trim_r>:
   127ca:	7179                	addi	sp,sp,-48
   127cc:	f022                	sd	s0,32(sp)
   127ce:	ec26                	sd	s1,24(sp)
   127d0:	e84a                	sd	s2,16(sp)
   127d2:	e44e                	sd	s3,8(sp)
   127d4:	e052                	sd	s4,0(sp)
   127d6:	89ae                	mv	s3,a1
   127d8:	f406                	sd	ra,40(sp)
   127da:	0000ba17          	auipc	s4,0xb
   127de:	226a0a13          	addi	s4,s4,550 # 1da00 <__malloc_av_>
   127e2:	892a                	mv	s2,a0
   127e4:	585020ef          	jal	ra,15568 <__malloc_lock>
   127e8:	010a3703          	ld	a4,16(s4)
   127ec:	6785                	lui	a5,0x1
   127ee:	fdf78413          	addi	s0,a5,-33 # fdf <main-0xf0d1>
   127f2:	6704                	ld	s1,8(a4)
   127f4:	41340433          	sub	s0,s0,s3
   127f8:	98f1                	andi	s1,s1,-4
   127fa:	9426                	add	s0,s0,s1
   127fc:	8031                	srli	s0,s0,0xc
   127fe:	147d                	addi	s0,s0,-1
   12800:	0432                	slli	s0,s0,0xc
   12802:	00f44b63          	blt	s0,a5,12818 <_malloc_trim_r+0x4e>
   12806:	4581                	li	a1,0
   12808:	854a                	mv	a0,s2
   1280a:	0e1030ef          	jal	ra,160ea <_sbrk_r>
   1280e:	010a3783          	ld	a5,16(s4)
   12812:	97a6                	add	a5,a5,s1
   12814:	00f50e63          	beq	a0,a5,12830 <_malloc_trim_r+0x66>
   12818:	854a                	mv	a0,s2
   1281a:	551020ef          	jal	ra,1556a <__malloc_unlock>
   1281e:	70a2                	ld	ra,40(sp)
   12820:	7402                	ld	s0,32(sp)
   12822:	64e2                	ld	s1,24(sp)
   12824:	6942                	ld	s2,16(sp)
   12826:	69a2                	ld	s3,8(sp)
   12828:	6a02                	ld	s4,0(sp)
   1282a:	4501                	li	a0,0
   1282c:	6145                	addi	sp,sp,48
   1282e:	8082                	ret
   12830:	408005b3          	neg	a1,s0
   12834:	854a                	mv	a0,s2
   12836:	0b5030ef          	jal	ra,160ea <_sbrk_r>
   1283a:	57fd                	li	a5,-1
   1283c:	02f50c63          	beq	a0,a5,12874 <_malloc_trim_r+0xaa>
   12840:	0000c717          	auipc	a4,0xc
   12844:	a9070713          	addi	a4,a4,-1392 # 1e2d0 <__malloc_current_mallinfo>
   12848:	431c                	lw	a5,0(a4)
   1284a:	010a3683          	ld	a3,16(s4)
   1284e:	8c81                	sub	s1,s1,s0
   12850:	0014e493          	ori	s1,s1,1
   12854:	4087843b          	subw	s0,a5,s0
   12858:	854a                	mv	a0,s2
   1285a:	e684                	sd	s1,8(a3)
   1285c:	c300                	sw	s0,0(a4)
   1285e:	50d020ef          	jal	ra,1556a <__malloc_unlock>
   12862:	70a2                	ld	ra,40(sp)
   12864:	7402                	ld	s0,32(sp)
   12866:	64e2                	ld	s1,24(sp)
   12868:	6942                	ld	s2,16(sp)
   1286a:	69a2                	ld	s3,8(sp)
   1286c:	6a02                	ld	s4,0(sp)
   1286e:	4505                	li	a0,1
   12870:	6145                	addi	sp,sp,48
   12872:	8082                	ret
   12874:	4581                	li	a1,0
   12876:	854a                	mv	a0,s2
   12878:	073030ef          	jal	ra,160ea <_sbrk_r>
   1287c:	010a3703          	ld	a4,16(s4)
   12880:	46fd                	li	a3,31
   12882:	40e507b3          	sub	a5,a0,a4
   12886:	f8f6d9e3          	bge	a3,a5,12818 <_malloc_trim_r+0x4e>
   1288a:	7601b683          	ld	a3,1888(gp) # 1e260 <__malloc_sbrk_base>
   1288e:	8d15                	sub	a0,a0,a3
   12890:	0017e793          	ori	a5,a5,1
   12894:	0000c697          	auipc	a3,0xc
   12898:	a2a6ae23          	sw	a0,-1476(a3) # 1e2d0 <__malloc_current_mallinfo>
   1289c:	e71c                	sd	a5,8(a4)
   1289e:	bfad                	j	12818 <_malloc_trim_r+0x4e>

00000000000128a0 <_free_r>:
   128a0:	c5f5                	beqz	a1,1298c <_free_r+0xec>
   128a2:	1101                	addi	sp,sp,-32
   128a4:	e822                	sd	s0,16(sp)
   128a6:	e426                	sd	s1,8(sp)
   128a8:	842e                	mv	s0,a1
   128aa:	84aa                	mv	s1,a0
   128ac:	ec06                	sd	ra,24(sp)
   128ae:	4bb020ef          	jal	ra,15568 <__malloc_lock>
   128b2:	ff843583          	ld	a1,-8(s0)
   128b6:	ff040713          	addi	a4,s0,-16
   128ba:	0000b517          	auipc	a0,0xb
   128be:	14650513          	addi	a0,a0,326 # 1da00 <__malloc_av_>
   128c2:	ffe5f793          	andi	a5,a1,-2
   128c6:	00f70633          	add	a2,a4,a5
   128ca:	6614                	ld	a3,8(a2)
   128cc:	01053803          	ld	a6,16(a0)
   128d0:	9af1                	andi	a3,a3,-4
   128d2:	14c80063          	beq	a6,a2,12a12 <_free_r+0x172>
   128d6:	e614                	sd	a3,8(a2)
   128d8:	8985                	andi	a1,a1,1
   128da:	00d60833          	add	a6,a2,a3
   128de:	e1c1                	bnez	a1,1295e <_free_r+0xbe>
   128e0:	ff043303          	ld	t1,-16(s0)
   128e4:	00883583          	ld	a1,8(a6)
   128e8:	0000b897          	auipc	a7,0xb
   128ec:	12888893          	addi	a7,a7,296 # 1da10 <__malloc_av_+0x10>
   128f0:	40670733          	sub	a4,a4,t1
   128f4:	01073803          	ld	a6,16(a4)
   128f8:	979a                	add	a5,a5,t1
   128fa:	8985                	andi	a1,a1,1
   128fc:	0f180863          	beq	a6,a7,129ec <_free_r+0x14c>
   12900:	01873303          	ld	t1,24(a4)
   12904:	00683c23          	sd	t1,24(a6)
   12908:	01033823          	sd	a6,16(t1)
   1290c:	14058d63          	beqz	a1,12a66 <_free_r+0x1c6>
   12910:	0017e693          	ori	a3,a5,1
   12914:	e714                	sd	a3,8(a4)
   12916:	e21c                	sd	a5,0(a2)
   12918:	1ff00693          	li	a3,511
   1291c:	08f6e263          	bltu	a3,a5,129a0 <_free_r+0x100>
   12920:	838d                	srli	a5,a5,0x3
   12922:	0017869b          	addiw	a3,a5,1
   12926:	0016969b          	slliw	a3,a3,0x1
   1292a:	068e                	slli	a3,a3,0x3
   1292c:	00853803          	ld	a6,8(a0)
   12930:	96aa                	add	a3,a3,a0
   12932:	628c                	ld	a1,0(a3)
   12934:	4027d61b          	sraiw	a2,a5,0x2
   12938:	4785                	li	a5,1
   1293a:	00c797b3          	sll	a5,a5,a2
   1293e:	0107e7b3          	or	a5,a5,a6
   12942:	ff068613          	addi	a2,a3,-16
   12946:	ef10                	sd	a2,24(a4)
   12948:	eb0c                	sd	a1,16(a4)
   1294a:	e51c                	sd	a5,8(a0)
   1294c:	e298                	sd	a4,0(a3)
   1294e:	ed98                	sd	a4,24(a1)
   12950:	6442                	ld	s0,16(sp)
   12952:	60e2                	ld	ra,24(sp)
   12954:	8526                	mv	a0,s1
   12956:	64a2                	ld	s1,8(sp)
   12958:	6105                	addi	sp,sp,32
   1295a:	4110206f          	j	1556a <__malloc_unlock>
   1295e:	00883583          	ld	a1,8(a6)
   12962:	8985                	andi	a1,a1,1
   12964:	e58d                	bnez	a1,1298e <_free_r+0xee>
   12966:	97b6                	add	a5,a5,a3
   12968:	0000b897          	auipc	a7,0xb
   1296c:	0a888893          	addi	a7,a7,168 # 1da10 <__malloc_av_+0x10>
   12970:	6a14                	ld	a3,16(a2)
   12972:	0017e813          	ori	a6,a5,1
   12976:	00f705b3          	add	a1,a4,a5
   1297a:	11168063          	beq	a3,a7,12a7a <_free_r+0x1da>
   1297e:	6e10                	ld	a2,24(a2)
   12980:	ee90                	sd	a2,24(a3)
   12982:	ea14                	sd	a3,16(a2)
   12984:	01073423          	sd	a6,8(a4)
   12988:	e19c                	sd	a5,0(a1)
   1298a:	b779                	j	12918 <_free_r+0x78>
   1298c:	8082                	ret
   1298e:	0017e693          	ori	a3,a5,1
   12992:	fed43c23          	sd	a3,-8(s0)
   12996:	e21c                	sd	a5,0(a2)
   12998:	1ff00693          	li	a3,511
   1299c:	f8f6f2e3          	bgeu	a3,a5,12920 <_free_r+0x80>
   129a0:	0097d693          	srli	a3,a5,0x9
   129a4:	4611                	li	a2,4
   129a6:	08d66f63          	bltu	a2,a3,12a44 <_free_r+0x1a4>
   129aa:	0067d693          	srli	a3,a5,0x6
   129ae:	0396859b          	addiw	a1,a3,57
   129b2:	0015959b          	slliw	a1,a1,0x1
   129b6:	0386861b          	addiw	a2,a3,56
   129ba:	058e                	slli	a1,a1,0x3
   129bc:	95aa                	add	a1,a1,a0
   129be:	6194                	ld	a3,0(a1)
   129c0:	15c1                	addi	a1,a1,-16
   129c2:	0cd58663          	beq	a1,a3,12a8e <_free_r+0x1ee>
   129c6:	6690                	ld	a2,8(a3)
   129c8:	9a71                	andi	a2,a2,-4
   129ca:	00c7f563          	bgeu	a5,a2,129d4 <_free_r+0x134>
   129ce:	6a94                	ld	a3,16(a3)
   129d0:	fed59be3          	bne	a1,a3,129c6 <_free_r+0x126>
   129d4:	6e8c                	ld	a1,24(a3)
   129d6:	ef0c                	sd	a1,24(a4)
   129d8:	eb14                	sd	a3,16(a4)
   129da:	6442                	ld	s0,16(sp)
   129dc:	60e2                	ld	ra,24(sp)
   129de:	e998                	sd	a4,16(a1)
   129e0:	8526                	mv	a0,s1
   129e2:	64a2                	ld	s1,8(sp)
   129e4:	ee98                	sd	a4,24(a3)
   129e6:	6105                	addi	sp,sp,32
   129e8:	3830206f          	j	1556a <__malloc_unlock>
   129ec:	0e059d63          	bnez	a1,12ae6 <_free_r+0x246>
   129f0:	6e0c                	ld	a1,24(a2)
   129f2:	6a10                	ld	a2,16(a2)
   129f4:	97b6                	add	a5,a5,a3
   129f6:	6442                	ld	s0,16(sp)
   129f8:	ee0c                	sd	a1,24(a2)
   129fa:	e990                	sd	a2,16(a1)
   129fc:	0017e693          	ori	a3,a5,1
   12a00:	60e2                	ld	ra,24(sp)
   12a02:	e714                	sd	a3,8(a4)
   12a04:	8526                	mv	a0,s1
   12a06:	973e                	add	a4,a4,a5
   12a08:	64a2                	ld	s1,8(sp)
   12a0a:	e31c                	sd	a5,0(a4)
   12a0c:	6105                	addi	sp,sp,32
   12a0e:	35d0206f          	j	1556a <__malloc_unlock>
   12a12:	8985                	andi	a1,a1,1
   12a14:	97b6                	add	a5,a5,a3
   12a16:	e989                	bnez	a1,12a28 <_free_r+0x188>
   12a18:	ff043583          	ld	a1,-16(s0)
   12a1c:	8f0d                	sub	a4,a4,a1
   12a1e:	6f14                	ld	a3,24(a4)
   12a20:	6b10                	ld	a2,16(a4)
   12a22:	97ae                	add	a5,a5,a1
   12a24:	ee14                	sd	a3,24(a2)
   12a26:	ea90                	sd	a2,16(a3)
   12a28:	0017e693          	ori	a3,a5,1
   12a2c:	e714                	sd	a3,8(a4)
   12a2e:	e918                	sd	a4,16(a0)
   12a30:	7681b703          	ld	a4,1896(gp) # 1e268 <__malloc_trim_threshold>
   12a34:	f0e7eee3          	bltu	a5,a4,12950 <_free_r+0xb0>
   12a38:	7881b583          	ld	a1,1928(gp) # 1e288 <__malloc_top_pad>
   12a3c:	8526                	mv	a0,s1
   12a3e:	d8dff0ef          	jal	ra,127ca <_malloc_trim_r>
   12a42:	b739                	j	12950 <_free_r+0xb0>
   12a44:	4651                	li	a2,20
   12a46:	02d67263          	bgeu	a2,a3,12a6a <_free_r+0x1ca>
   12a4a:	05400613          	li	a2,84
   12a4e:	04d66b63          	bltu	a2,a3,12aa4 <_free_r+0x204>
   12a52:	00c7d693          	srli	a3,a5,0xc
   12a56:	06f6859b          	addiw	a1,a3,111
   12a5a:	0015959b          	slliw	a1,a1,0x1
   12a5e:	06e6861b          	addiw	a2,a3,110
   12a62:	058e                	slli	a1,a1,0x3
   12a64:	bfa1                	j	129bc <_free_r+0x11c>
   12a66:	97b6                	add	a5,a5,a3
   12a68:	b721                	j	12970 <_free_r+0xd0>
   12a6a:	05c6859b          	addiw	a1,a3,92
   12a6e:	0015959b          	slliw	a1,a1,0x1
   12a72:	05b6861b          	addiw	a2,a3,91
   12a76:	058e                	slli	a1,a1,0x3
   12a78:	b791                	j	129bc <_free_r+0x11c>
   12a7a:	f518                	sd	a4,40(a0)
   12a7c:	f118                	sd	a4,32(a0)
   12a7e:	01173c23          	sd	a7,24(a4)
   12a82:	01173823          	sd	a7,16(a4)
   12a86:	01073423          	sd	a6,8(a4)
   12a8a:	e19c                	sd	a5,0(a1)
   12a8c:	b5d1                	j	12950 <_free_r+0xb0>
   12a8e:	00853803          	ld	a6,8(a0)
   12a92:	4026561b          	sraiw	a2,a2,0x2
   12a96:	4785                	li	a5,1
   12a98:	00c79633          	sll	a2,a5,a2
   12a9c:	01066633          	or	a2,a2,a6
   12aa0:	e510                	sd	a2,8(a0)
   12aa2:	bf15                	j	129d6 <_free_r+0x136>
   12aa4:	15400613          	li	a2,340
   12aa8:	00d66c63          	bltu	a2,a3,12ac0 <_free_r+0x220>
   12aac:	00f7d693          	srli	a3,a5,0xf
   12ab0:	0786859b          	addiw	a1,a3,120
   12ab4:	0015959b          	slliw	a1,a1,0x1
   12ab8:	0776861b          	addiw	a2,a3,119
   12abc:	058e                	slli	a1,a1,0x3
   12abe:	bdfd                	j	129bc <_free_r+0x11c>
   12ac0:	55400613          	li	a2,1364
   12ac4:	00d66c63          	bltu	a2,a3,12adc <_free_r+0x23c>
   12ac8:	0127d693          	srli	a3,a5,0x12
   12acc:	07d6859b          	addiw	a1,a3,125
   12ad0:	0015959b          	slliw	a1,a1,0x1
   12ad4:	07c6861b          	addiw	a2,a3,124
   12ad8:	058e                	slli	a1,a1,0x3
   12ada:	b5cd                	j	129bc <_free_r+0x11c>
   12adc:	7f000593          	li	a1,2032
   12ae0:	07e00613          	li	a2,126
   12ae4:	bde1                	j	129bc <_free_r+0x11c>
   12ae6:	0017e693          	ori	a3,a5,1
   12aea:	e714                	sd	a3,8(a4)
   12aec:	e21c                	sd	a5,0(a2)
   12aee:	b58d                	j	12950 <_free_r+0xb0>

0000000000012af0 <_fwalk>:
   12af0:	715d                	addi	sp,sp,-80
   12af2:	f84a                	sd	s2,48(sp)
   12af4:	f44e                	sd	s3,40(sp)
   12af6:	f052                	sd	s4,32(sp)
   12af8:	ec56                	sd	s5,24(sp)
   12afa:	e85a                	sd	s6,16(sp)
   12afc:	e45e                	sd	s7,8(sp)
   12afe:	e486                	sd	ra,72(sp)
   12b00:	e0a2                	sd	s0,64(sp)
   12b02:	fc26                	sd	s1,56(sp)
   12b04:	8a2e                	mv	s4,a1
   12b06:	52050913          	addi	s2,a0,1312
   12b0a:	4b01                	li	s6,0
   12b0c:	0b000a93          	li	s5,176
   12b10:	4b85                	li	s7,1
   12b12:	59fd                	li	s3,-1
   12b14:	00892783          	lw	a5,8(s2)
   12b18:	01093403          	ld	s0,16(s2)
   12b1c:	02f05b63          	blez	a5,12b52 <_fwalk+0x62>
   12b20:	fff7849b          	addiw	s1,a5,-1
   12b24:	1482                	slli	s1,s1,0x20
   12b26:	9081                	srli	s1,s1,0x20
   12b28:	0485                	addi	s1,s1,1
   12b2a:	035484b3          	mul	s1,s1,s5
   12b2e:	94a2                	add	s1,s1,s0
   12b30:	01045783          	lhu	a5,16(s0)
   12b34:	00fbfb63          	bgeu	s7,a5,12b4a <_fwalk+0x5a>
   12b38:	01241783          	lh	a5,18(s0)
   12b3c:	8522                	mv	a0,s0
   12b3e:	01378663          	beq	a5,s3,12b4a <_fwalk+0x5a>
   12b42:	9a02                	jalr	s4
   12b44:	01656b33          	or	s6,a0,s6
   12b48:	2b01                	sext.w	s6,s6
   12b4a:	0b040413          	addi	s0,s0,176
   12b4e:	fe8491e3          	bne	s1,s0,12b30 <_fwalk+0x40>
   12b52:	00093903          	ld	s2,0(s2)
   12b56:	fa091fe3          	bnez	s2,12b14 <_fwalk+0x24>
   12b5a:	60a6                	ld	ra,72(sp)
   12b5c:	6406                	ld	s0,64(sp)
   12b5e:	74e2                	ld	s1,56(sp)
   12b60:	7942                	ld	s2,48(sp)
   12b62:	79a2                	ld	s3,40(sp)
   12b64:	7a02                	ld	s4,32(sp)
   12b66:	6ae2                	ld	s5,24(sp)
   12b68:	6ba2                	ld	s7,8(sp)
   12b6a:	855a                	mv	a0,s6
   12b6c:	6b42                	ld	s6,16(sp)
   12b6e:	6161                	addi	sp,sp,80
   12b70:	8082                	ret

0000000000012b72 <_fwalk_reent>:
   12b72:	715d                	addi	sp,sp,-80
   12b74:	f84a                	sd	s2,48(sp)
   12b76:	f44e                	sd	s3,40(sp)
   12b78:	f052                	sd	s4,32(sp)
   12b7a:	ec56                	sd	s5,24(sp)
   12b7c:	e85a                	sd	s6,16(sp)
   12b7e:	e45e                	sd	s7,8(sp)
   12b80:	e062                	sd	s8,0(sp)
   12b82:	e486                	sd	ra,72(sp)
   12b84:	e0a2                	sd	s0,64(sp)
   12b86:	fc26                	sd	s1,56(sp)
   12b88:	8c2a                	mv	s8,a0
   12b8a:	8a2e                	mv	s4,a1
   12b8c:	52050913          	addi	s2,a0,1312
   12b90:	4b01                	li	s6,0
   12b92:	0b000a93          	li	s5,176
   12b96:	4b85                	li	s7,1
   12b98:	59fd                	li	s3,-1
   12b9a:	00892783          	lw	a5,8(s2)
   12b9e:	01093403          	ld	s0,16(s2)
   12ba2:	02f05c63          	blez	a5,12bda <_fwalk_reent+0x68>
   12ba6:	fff7849b          	addiw	s1,a5,-1
   12baa:	1482                	slli	s1,s1,0x20
   12bac:	9081                	srli	s1,s1,0x20
   12bae:	0485                	addi	s1,s1,1
   12bb0:	035484b3          	mul	s1,s1,s5
   12bb4:	94a2                	add	s1,s1,s0
   12bb6:	01045783          	lhu	a5,16(s0)
   12bba:	00fbfc63          	bgeu	s7,a5,12bd2 <_fwalk_reent+0x60>
   12bbe:	01241783          	lh	a5,18(s0)
   12bc2:	85a2                	mv	a1,s0
   12bc4:	8562                	mv	a0,s8
   12bc6:	01378663          	beq	a5,s3,12bd2 <_fwalk_reent+0x60>
   12bca:	9a02                	jalr	s4
   12bcc:	01656b33          	or	s6,a0,s6
   12bd0:	2b01                	sext.w	s6,s6
   12bd2:	0b040413          	addi	s0,s0,176
   12bd6:	fe8490e3          	bne	s1,s0,12bb6 <_fwalk_reent+0x44>
   12bda:	00093903          	ld	s2,0(s2)
   12bde:	fa091ee3          	bnez	s2,12b9a <_fwalk_reent+0x28>
   12be2:	60a6                	ld	ra,72(sp)
   12be4:	6406                	ld	s0,64(sp)
   12be6:	74e2                	ld	s1,56(sp)
   12be8:	7942                	ld	s2,48(sp)
   12bea:	79a2                	ld	s3,40(sp)
   12bec:	7a02                	ld	s4,32(sp)
   12bee:	6ae2                	ld	s5,24(sp)
   12bf0:	6ba2                	ld	s7,8(sp)
   12bf2:	6c02                	ld	s8,0(sp)
   12bf4:	855a                	mv	a0,s6
   12bf6:	6b42                	ld	s6,16(sp)
   12bf8:	6161                	addi	sp,sp,80
   12bfa:	8082                	ret

0000000000012bfc <eshdn1>:
   12bfc:	00450693          	addi	a3,a0,4
   12c00:	4781                	li	a5,0
   12c02:	0569                	addi	a0,a0,26
   12c04:	7861                	lui	a6,0xffff8
   12c06:	a811                	j	12c1a <eshdn1+0x1e>
   12c08:	0017979b          	slliw	a5,a5,0x1
   12c0c:	00e69023          	sh	a4,0(a3)
   12c10:	17c2                	slli	a5,a5,0x30
   12c12:	0689                	addi	a3,a3,2
   12c14:	93c1                	srli	a5,a5,0x30
   12c16:	02d50863          	beq	a0,a3,12c46 <eshdn1+0x4a>
   12c1a:	0006d703          	lhu	a4,0(a3)
   12c1e:	00177613          	andi	a2,a4,1
   12c22:	c219                	beqz	a2,12c28 <eshdn1+0x2c>
   12c24:	0017e793          	ori	a5,a5,1
   12c28:	8305                	srli	a4,a4,0x1
   12c2a:	0027f613          	andi	a2,a5,2
   12c2e:	010765b3          	or	a1,a4,a6
   12c32:	da79                	beqz	a2,12c08 <eshdn1+0xc>
   12c34:	0017979b          	slliw	a5,a5,0x1
   12c38:	00b69023          	sh	a1,0(a3)
   12c3c:	17c2                	slli	a5,a5,0x30
   12c3e:	0689                	addi	a3,a3,2
   12c40:	93c1                	srli	a5,a5,0x30
   12c42:	fcd51ce3          	bne	a0,a3,12c1a <eshdn1+0x1e>
   12c46:	8082                	ret

0000000000012c48 <eshup1>:
   12c48:	01850693          	addi	a3,a0,24
   12c4c:	4701                	li	a4,0
   12c4e:	0509                	addi	a0,a0,2
   12c50:	a811                	j	12c64 <eshup1+0x1c>
   12c52:	0017171b          	slliw	a4,a4,0x1
   12c56:	00f69023          	sh	a5,0(a3)
   12c5a:	1742                	slli	a4,a4,0x30
   12c5c:	16f9                	addi	a3,a3,-2
   12c5e:	9341                	srli	a4,a4,0x30
   12c60:	04d50063          	beq	a0,a3,12ca0 <eshup1+0x58>
   12c64:	0006d783          	lhu	a5,0(a3)
   12c68:	0107961b          	slliw	a2,a5,0x10
   12c6c:	4106561b          	sraiw	a2,a2,0x10
   12c70:	02061593          	slli	a1,a2,0x20
   12c74:	0017979b          	slliw	a5,a5,0x1
   12c78:	0005d463          	bgez	a1,12c80 <eshup1+0x38>
   12c7c:	00176713          	ori	a4,a4,1
   12c80:	17c2                	slli	a5,a5,0x30
   12c82:	93c1                	srli	a5,a5,0x30
   12c84:	00277613          	andi	a2,a4,2
   12c88:	0017e593          	ori	a1,a5,1
   12c8c:	d279                	beqz	a2,12c52 <eshup1+0xa>
   12c8e:	0017171b          	slliw	a4,a4,0x1
   12c92:	00b69023          	sh	a1,0(a3)
   12c96:	1742                	slli	a4,a4,0x30
   12c98:	16f9                	addi	a3,a3,-2
   12c9a:	9341                	srli	a4,a4,0x30
   12c9c:	fcd514e3          	bne	a0,a3,12c64 <eshup1+0x1c>
   12ca0:	8082                	ret

0000000000012ca2 <m16m>:
   12ca2:	1101                	addi	sp,sp,-32
   12ca4:	6e41                	lui	t3,0x10
   12ca6:	00011b23          	sh	zero,22(sp)
   12caa:	00011c23          	sh	zero,24(sp)
   12cae:	05e1                	addi	a1,a1,24
   12cb0:	083c                	addi	a5,sp,24
   12cb2:	00410813          	addi	a6,sp,4
   12cb6:	1e7d                	addi	t3,t3,-1
   12cb8:	0005d703          	lhu	a4,0(a1)
   12cbc:	17f9                	addi	a5,a5,-2
   12cbe:	15f9                	addi	a1,a1,-2
   12cc0:	e315                	bnez	a4,12ce4 <m16m+0x42>
   12cc2:	fe079f23          	sh	zero,-2(a5)
   12cc6:	ff0799e3          	bne	a5,a6,12cb8 <m16m+0x16>
   12cca:	0611                	addi	a2,a2,4
   12ccc:	01a10693          	addi	a3,sp,26
   12cd0:	0007d703          	lhu	a4,0(a5)
   12cd4:	0789                	addi	a5,a5,2
   12cd6:	0609                	addi	a2,a2,2
   12cd8:	fee61f23          	sh	a4,-2(a2)
   12cdc:	fed79ae3          	bne	a5,a3,12cd0 <m16m+0x2e>
   12ce0:	6105                	addi	sp,sp,32
   12ce2:	8082                	ret
   12ce4:	02a70733          	mul	a4,a4,a0
   12ce8:	0027d883          	lhu	a7,2(a5)
   12cec:	0007d303          	lhu	t1,0(a5)
   12cf0:	01c776b3          	and	a3,a4,t3
   12cf4:	96c6                	add	a3,a3,a7
   12cf6:	8341                	srli	a4,a4,0x10
   12cf8:	0106d893          	srli	a7,a3,0x10
   12cfc:	971a                	add	a4,a4,t1
   12cfe:	9746                	add	a4,a4,a7
   12d00:	01075893          	srli	a7,a4,0x10
   12d04:	00d79123          	sh	a3,2(a5)
   12d08:	00e79023          	sh	a4,0(a5)
   12d0c:	ff179f23          	sh	a7,-2(a5)
   12d10:	fb0794e3          	bne	a5,a6,12cb8 <m16m+0x16>
   12d14:	bf5d                	j	12cca <m16m+0x28>

0000000000012d16 <eisnan.part.0>:
   12d16:	01250713          	addi	a4,a0,18
   12d1a:	00055783          	lhu	a5,0(a0)
   12d1e:	0509                	addi	a0,a0,2
   12d20:	e789                	bnez	a5,12d2a <eisnan.part.0+0x14>
   12d22:	fee51ce3          	bne	a0,a4,12d1a <eisnan.part.0+0x4>
   12d26:	4501                	li	a0,0
   12d28:	8082                	ret
   12d2a:	4505                	li	a0,1
   12d2c:	8082                	ret

0000000000012d2e <eneg>:
   12d2e:	1101                	addi	sp,sp,-32
   12d30:	e426                	sd	s1,8(sp)
   12d32:	01255483          	lhu	s1,18(a0)
   12d36:	e822                	sd	s0,16(sp)
   12d38:	ec06                	sd	ra,24(sp)
   12d3a:	fff4c793          	not	a5,s1
   12d3e:	03179713          	slli	a4,a5,0x31
   12d42:	842a                	mv	s0,a0
   12d44:	e701                	bnez	a4,12d4c <eneg+0x1e>
   12d46:	fd1ff0ef          	jal	ra,12d16 <eisnan.part.0>
   12d4a:	e509                	bnez	a0,12d54 <eneg+0x26>
   12d4c:	77e1                	lui	a5,0xffff8
   12d4e:	8cbd                	xor	s1,s1,a5
   12d50:	00941923          	sh	s1,18(s0)
   12d54:	60e2                	ld	ra,24(sp)
   12d56:	6442                	ld	s0,16(sp)
   12d58:	64a2                	ld	s1,8(sp)
   12d5a:	6105                	addi	sp,sp,32
   12d5c:	8082                	ret

0000000000012d5e <eisneg>:
   12d5e:	1141                	addi	sp,sp,-16
   12d60:	e022                	sd	s0,0(sp)
   12d62:	01255403          	lhu	s0,18(a0)
   12d66:	e406                	sd	ra,8(sp)
   12d68:	fff44793          	not	a5,s0
   12d6c:	03179713          	slli	a4,a5,0x31
   12d70:	e711                	bnez	a4,12d7c <eisneg+0x1e>
   12d72:	fa5ff0ef          	jal	ra,12d16 <eisnan.part.0>
   12d76:	87aa                	mv	a5,a0
   12d78:	4501                	li	a0,0
   12d7a:	e399                	bnez	a5,12d80 <eisneg+0x22>
   12d7c:	00f45513          	srli	a0,s0,0xf
   12d80:	60a2                	ld	ra,8(sp)
   12d82:	6402                	ld	s0,0(sp)
   12d84:	0141                	addi	sp,sp,16
   12d86:	8082                	ret

0000000000012d88 <emovi>:
   12d88:	01255783          	lhu	a5,18(a0)
   12d8c:	7139                	addi	sp,sp,-64
   12d8e:	f822                	sd	s0,48(sp)
   12d90:	00f7d79b          	srliw	a5,a5,0xf
   12d94:	f426                	sd	s1,40(sp)
   12d96:	fc06                	sd	ra,56(sp)
   12d98:	f04a                	sd	s2,32(sp)
   12d9a:	ec4e                	sd	s3,24(sp)
   12d9c:	40f007bb          	negw	a5,a5
   12da0:	00f59023          	sh	a5,0(a1)
   12da4:	01255783          	lhu	a5,18(a0)
   12da8:	6721                	lui	a4,0x8
   12daa:	177d                	addi	a4,a4,-1
   12dac:	8ff9                	and	a5,a5,a4
   12dae:	00f59123          	sh	a5,2(a1)
   12db2:	84aa                	mv	s1,a0
   12db4:	01050413          	addi	s0,a0,16
   12db8:	02e78863          	beq	a5,a4,12de8 <emovi+0x60>
   12dbc:	00658793          	addi	a5,a1,6
   12dc0:	00059223          	sh	zero,4(a1)
   12dc4:	1579                	addi	a0,a0,-2
   12dc6:	00045703          	lhu	a4,0(s0)
   12dca:	1479                	addi	s0,s0,-2
   12dcc:	0789                	addi	a5,a5,2
   12dce:	fee79f23          	sh	a4,-2(a5) # ffffffffffff7ffe <__BSS_END__+0xfffffffffffd9cfe>
   12dd2:	fe851ae3          	bne	a0,s0,12dc6 <emovi+0x3e>
   12dd6:	00059c23          	sh	zero,24(a1)
   12dda:	70e2                	ld	ra,56(sp)
   12ddc:	7442                	ld	s0,48(sp)
   12dde:	74a2                	ld	s1,40(sp)
   12de0:	7902                	ld	s2,32(sp)
   12de2:	69e2                	ld	s3,24(sp)
   12de4:	6121                	addi	sp,sp,64
   12de6:	8082                	ret
   12de8:	0007869b          	sext.w	a3,a5
   12dec:	01255783          	lhu	a5,18(a0)
   12df0:	00458913          	addi	s2,a1,4
   12df4:	8ff5                	and	a5,a5,a3
   12df6:	02d79663          	bne	a5,a3,12e22 <emovi+0x9a>
   12dfa:	e42e                	sd	a1,8(sp)
   12dfc:	f1bff0ef          	jal	ra,12d16 <eisnan.part.0>
   12e00:	65a2                	ld	a1,8(sp)
   12e02:	c105                	beqz	a0,12e22 <emovi+0x9a>
   12e04:	00658793          	addi	a5,a1,6
   12e08:	00059223          	sh	zero,4(a1)
   12e0c:	ffc48513          	addi	a0,s1,-4
   12e10:	00045703          	lhu	a4,0(s0)
   12e14:	1479                	addi	s0,s0,-2
   12e16:	0789                	addi	a5,a5,2
   12e18:	fee79f23          	sh	a4,-2(a5)
   12e1c:	fe851ae3          	bne	a0,s0,12e10 <emovi+0x88>
   12e20:	bf6d                	j	12dda <emovi+0x52>
   12e22:	01a58993          	addi	s3,a1,26
   12e26:	0909                	addi	s2,s2,2
   12e28:	fe091f23          	sh	zero,-2(s2)
   12e2c:	ff299de3          	bne	s3,s2,12e26 <emovi+0x9e>
   12e30:	70e2                	ld	ra,56(sp)
   12e32:	7442                	ld	s0,48(sp)
   12e34:	74a2                	ld	s1,40(sp)
   12e36:	7902                	ld	s2,32(sp)
   12e38:	69e2                	ld	s3,24(sp)
   12e3a:	6121                	addi	sp,sp,64
   12e3c:	8082                	ret

0000000000012e3e <ecmp>:
   12e3e:	01255783          	lhu	a5,18(a0)
   12e42:	711d                	addi	sp,sp,-96
   12e44:	e8a2                	sd	s0,80(sp)
   12e46:	fff7c793          	not	a5,a5
   12e4a:	e4a6                	sd	s1,72(sp)
   12e4c:	ec86                	sd	ra,88(sp)
   12e4e:	03179713          	slli	a4,a5,0x31
   12e52:	84aa                	mv	s1,a0
   12e54:	842e                	mv	s0,a1
   12e56:	e701                	bnez	a4,12e5e <ecmp+0x20>
   12e58:	ebfff0ef          	jal	ra,12d16 <eisnan.part.0>
   12e5c:	ed39                	bnez	a0,12eba <ecmp+0x7c>
   12e5e:	01245783          	lhu	a5,18(s0)
   12e62:	fff7c793          	not	a5,a5
   12e66:	03179713          	slli	a4,a5,0x31
   12e6a:	c721                	beqz	a4,12eb2 <ecmp+0x74>
   12e6c:	858a                	mv	a1,sp
   12e6e:	8526                	mv	a0,s1
   12e70:	f19ff0ef          	jal	ra,12d88 <emovi>
   12e74:	100c                	addi	a1,sp,32
   12e76:	8522                	mv	a0,s0
   12e78:	f11ff0ef          	jal	ra,12d88 <emovi>
   12e7c:	00015583          	lhu	a1,0(sp)
   12e80:	02015783          	lhu	a5,32(sp)
   12e84:	02b78d63          	beq	a5,a1,12ebe <ecmp+0x80>
   12e88:	00210793          	addi	a5,sp,2
   12e8c:	02210713          	addi	a4,sp,34
   12e90:	0830                	addi	a2,sp,24
   12e92:	0007d683          	lhu	a3,0(a5)
   12e96:	0789                	addi	a5,a5,2
   12e98:	e2ad                	bnez	a3,12efa <ecmp+0xbc>
   12e9a:	00075683          	lhu	a3,0(a4) # 8000 <main-0x80b0>
   12e9e:	0709                	addi	a4,a4,2
   12ea0:	eea9                	bnez	a3,12efa <ecmp+0xbc>
   12ea2:	fec798e3          	bne	a5,a2,12e92 <ecmp+0x54>
   12ea6:	4501                	li	a0,0
   12ea8:	60e6                	ld	ra,88(sp)
   12eaa:	6446                	ld	s0,80(sp)
   12eac:	64a6                	ld	s1,72(sp)
   12eae:	6125                	addi	sp,sp,96
   12eb0:	8082                	ret
   12eb2:	8522                	mv	a0,s0
   12eb4:	e63ff0ef          	jal	ra,12d16 <eisnan.part.0>
   12eb8:	d955                	beqz	a0,12e6c <ecmp+0x2e>
   12eba:	5579                	li	a0,-2
   12ebc:	b7f5                	j	12ea8 <ecmp+0x6a>
   12ebe:	4505                	li	a0,1
   12ec0:	e1a9                	bnez	a1,12f02 <ecmp+0xc4>
   12ec2:	00215603          	lhu	a2,2(sp)
   12ec6:	02215683          	lhu	a3,34(sp)
   12eca:	00210713          	addi	a4,sp,2
   12ece:	02210793          	addi	a5,sp,34
   12ed2:	182c                	addi	a1,sp,56
   12ed4:	0789                	addi	a5,a5,2
   12ed6:	0709                	addi	a4,a4,2
   12ed8:	00d61c63          	bne	a2,a3,12ef0 <ecmp+0xb2>
   12edc:	fcb785e3          	beq	a5,a1,12ea6 <ecmp+0x68>
   12ee0:	00075603          	lhu	a2,0(a4)
   12ee4:	0007d683          	lhu	a3,0(a5)
   12ee8:	0709                	addi	a4,a4,2
   12eea:	0789                	addi	a5,a5,2
   12eec:	fed608e3          	beq	a2,a3,12edc <ecmp+0x9e>
   12ef0:	fac6ece3          	bltu	a3,a2,12ea8 <ecmp+0x6a>
   12ef4:	40a0053b          	negw	a0,a0
   12ef8:	bf45                	j	12ea8 <ecmp+0x6a>
   12efa:	4505                	li	a0,1
   12efc:	d5d5                	beqz	a1,12ea8 <ecmp+0x6a>
   12efe:	557d                	li	a0,-1
   12f00:	b765                	j	12ea8 <ecmp+0x6a>
   12f02:	557d                	li	a0,-1
   12f04:	bf7d                	j	12ec2 <ecmp+0x84>

0000000000012f06 <eisinf.part.0>:
   12f06:	1141                	addi	sp,sp,-16
   12f08:	e406                	sd	ra,8(sp)
   12f0a:	e0dff0ef          	jal	ra,12d16 <eisnan.part.0>
   12f0e:	60a2                	ld	ra,8(sp)
   12f10:	00153513          	seqz	a0,a0
   12f14:	0141                	addi	sp,sp,16
   12f16:	8082                	ret

0000000000012f18 <eshift.part.0>:
   12f18:	7179                	addi	sp,sp,-48
   12f1a:	f022                	sd	s0,32(sp)
   12f1c:	ec26                	sd	s1,24(sp)
   12f1e:	f406                	sd	ra,40(sp)
   12f20:	e84a                	sd	s2,16(sp)
   12f22:	e44e                	sd	s3,8(sp)
   12f24:	84ae                	mv	s1,a1
   12f26:	842a                	mv	s0,a0
   12f28:	0605cb63          	bltz	a1,12f9e <eshift.part.0+0x86>
   12f2c:	47bd                	li	a5,15
   12f2e:	862e                	mv	a2,a1
   12f30:	0511                	addi	a0,a0,4
   12f32:	01840693          	addi	a3,s0,24
   12f36:	45bd                	li	a1,15
   12f38:	0297d063          	bge	a5,s1,12f58 <eshift.part.0+0x40>
   12f3c:	87aa                	mv	a5,a0
   12f3e:	0027d703          	lhu	a4,2(a5)
   12f42:	0789                	addi	a5,a5,2
   12f44:	fee79f23          	sh	a4,-2(a5)
   12f48:	fed79be3          	bne	a5,a3,12f3e <eshift.part.0+0x26>
   12f4c:	00041c23          	sh	zero,24(s0)
   12f50:	3641                	addiw	a2,a2,-16
   12f52:	fec5c5e3          	blt	a1,a2,12f3c <eshift.part.0+0x24>
   12f56:	88bd                	andi	s1,s1,15
   12f58:	479d                	li	a5,7
   12f5a:	0297d463          	bge	a5,s1,12f82 <eshift.part.0+0x6a>
   12f5e:	01840713          	addi	a4,s0,24
   12f62:	00240593          	addi	a1,s0,2
   12f66:	4781                	li	a5,0
   12f68:	00075683          	lhu	a3,0(a4)
   12f6c:	1779                	addi	a4,a4,-2
   12f6e:	00869613          	slli	a2,a3,0x8
   12f72:	8fd1                	or	a5,a5,a2
   12f74:	00f71123          	sh	a5,2(a4)
   12f78:	0086d793          	srli	a5,a3,0x8
   12f7c:	feb716e3          	bne	a4,a1,12f68 <eshift.part.0+0x50>
   12f80:	34e1                	addiw	s1,s1,-8
   12f82:	c491                	beqz	s1,12f8e <eshift.part.0+0x76>
   12f84:	34fd                	addiw	s1,s1,-1
   12f86:	8522                	mv	a0,s0
   12f88:	cc1ff0ef          	jal	ra,12c48 <eshup1>
   12f8c:	fce5                	bnez	s1,12f84 <eshift.part.0+0x6c>
   12f8e:	4501                	li	a0,0
   12f90:	70a2                	ld	ra,40(sp)
   12f92:	7402                	ld	s0,32(sp)
   12f94:	64e2                	ld	s1,24(sp)
   12f96:	6942                	ld	s2,16(sp)
   12f98:	69a2                	ld	s3,8(sp)
   12f9a:	6145                	addi	sp,sp,48
   12f9c:	8082                	ret
   12f9e:	57c5                	li	a5,-15
   12fa0:	40b0093b          	negw	s2,a1
   12fa4:	0ef5d463          	bge	a1,a5,1308c <eshift.part.0+0x174>
   12fa8:	01850593          	addi	a1,a0,24
   12fac:	4981                	li	s3,0
   12fae:	00450693          	addi	a3,a0,4
   12fb2:	463d                	li	a2,15
   12fb4:	01845703          	lhu	a4,24(s0)
   12fb8:	87ae                	mv	a5,a1
   12fba:	00e9e9b3          	or	s3,s3,a4
   12fbe:	ffe7d703          	lhu	a4,-2(a5)
   12fc2:	17f9                	addi	a5,a5,-2
   12fc4:	00e79123          	sh	a4,2(a5)
   12fc8:	fed79be3          	bne	a5,a3,12fbe <eshift.part.0+0xa6>
   12fcc:	00041223          	sh	zero,4(s0)
   12fd0:	3941                	addiw	s2,s2,-16
   12fd2:	ff2641e3          	blt	a2,s2,12fb4 <eshift.part.0+0x9c>
   12fd6:	57c1                	li	a5,-16
   12fd8:	5745                	li	a4,-15
   12fda:	9f85                	subw	a5,a5,s1
   12fdc:	4901                	li	s2,0
   12fde:	08e4c063          	blt	s1,a4,1305e <eshift.part.0+0x146>
   12fe2:	00f9093b          	addw	s2,s2,a5
   12fe6:	479d                	li	a5,7
   12fe8:	0327df63          	bge	a5,s2,13026 <eshift.part.0+0x10e>
   12fec:	0109999b          	slliw	s3,s3,0x10
   12ff0:	4109d99b          	sraiw	s3,s3,0x10
   12ff4:	01844783          	lbu	a5,24(s0)
   12ff8:	01a40593          	addi	a1,s0,26
   12ffc:	00f9e9b3          	or	s3,s3,a5
   13000:	19c2                	slli	s3,s3,0x30
   13002:	0309d993          	srli	s3,s3,0x30
   13006:	4781                	li	a5,0
   13008:	0006d603          	lhu	a2,0(a3)
   1300c:	0689                	addi	a3,a3,2
   1300e:	0086571b          	srliw	a4,a2,0x8
   13012:	8f5d                	or	a4,a4,a5
   13014:	0086179b          	slliw	a5,a2,0x8
   13018:	17c2                	slli	a5,a5,0x30
   1301a:	fee69f23          	sh	a4,-2(a3)
   1301e:	93c1                	srli	a5,a5,0x30
   13020:	feb694e3          	bne	a3,a1,13008 <eshift.part.0+0xf0>
   13024:	3961                	addiw	s2,s2,-8
   13026:	04090b63          	beqz	s2,1307c <eshift.part.0+0x164>
   1302a:	01845783          	lhu	a5,24(s0)
   1302e:	397d                	addiw	s2,s2,-1
   13030:	8522                	mv	a0,s0
   13032:	8b85                	andi	a5,a5,1
   13034:	0137e9b3          	or	s3,a5,s3
   13038:	bc5ff0ef          	jal	ra,12bfc <eshdn1>
   1303c:	fe0917e3          	bnez	s2,1302a <eshift.part.0+0x112>
   13040:	0109979b          	slliw	a5,s3,0x10
   13044:	4107d79b          	sraiw	a5,a5,0x10
   13048:	e78d                	bnez	a5,13072 <eshift.part.0+0x15a>
   1304a:	03099513          	slli	a0,s3,0x30
   1304e:	9141                	srli	a0,a0,0x30
   13050:	70a2                	ld	ra,40(sp)
   13052:	7402                	ld	s0,32(sp)
   13054:	64e2                	ld	s1,24(sp)
   13056:	6942                	ld	s2,16(sp)
   13058:	69a2                	ld	s3,8(sp)
   1305a:	6145                	addi	sp,sp,48
   1305c:	8082                	ret
   1305e:	ff07f913          	andi	s2,a5,-16
   13062:	4120093b          	negw	s2,s2
   13066:	00f9093b          	addw	s2,s2,a5
   1306a:	479d                	li	a5,7
   1306c:	fb27dde3          	bge	a5,s2,13026 <eshift.part.0+0x10e>
   13070:	bfb5                	j	12fec <eshift.part.0+0xd4>
   13072:	4985                	li	s3,1
   13074:	03099513          	slli	a0,s3,0x30
   13078:	9141                	srli	a0,a0,0x30
   1307a:	bfd9                	j	13050 <eshift.part.0+0x138>
   1307c:	854e                	mv	a0,s3
   1307e:	00099563          	bnez	s3,13088 <eshift.part.0+0x170>
   13082:	1542                	slli	a0,a0,0x30
   13084:	9141                	srli	a0,a0,0x30
   13086:	b729                	j	12f90 <eshift.part.0+0x78>
   13088:	4505                	li	a0,1
   1308a:	bfe5                	j	13082 <eshift.part.0+0x16a>
   1308c:	57e5                	li	a5,-7
   1308e:	4981                	li	s3,0
   13090:	f8f5dde3          	bge	a1,a5,1302a <eshift.part.0+0x112>
   13094:	00440693          	addi	a3,s0,4
   13098:	bfb1                	j	12ff4 <eshift.part.0+0xdc>

000000000001309a <enormlz>:
   1309a:	00455783          	lhu	a5,4(a0)
   1309e:	1101                	addi	sp,sp,-32
   130a0:	e426                	sd	s1,8(sp)
   130a2:	ec06                	sd	ra,24(sp)
   130a4:	e822                	sd	s0,16(sp)
   130a6:	e04a                	sd	s2,0(sp)
   130a8:	84aa                	mv	s1,a0
   130aa:	ebc5                	bnez	a5,1315a <enormlz+0xc0>
   130ac:	00655703          	lhu	a4,6(a0)
   130b0:	4401                	li	s0,0
   130b2:	0107179b          	slliw	a5,a4,0x10
   130b6:	4107d79b          	sraiw	a5,a5,0x10
   130ba:	02079693          	slli	a3,a5,0x20
   130be:	0806c763          	bltz	a3,1314c <enormlz+0xb2>
   130c2:	01a50693          	addi	a3,a0,26
   130c6:	0a000613          	li	a2,160
   130ca:	e31d                	bnez	a4,130f0 <enormlz+0x56>
   130cc:	00648793          	addi	a5,s1,6
   130d0:	a019                	j	130d6 <enormlz+0x3c>
   130d2:	0007d703          	lhu	a4,0(a5)
   130d6:	0789                	addi	a5,a5,2
   130d8:	fee79e23          	sh	a4,-4(a5)
   130dc:	fef69be3          	bne	a3,a5,130d2 <enormlz+0x38>
   130e0:	00049c23          	sh	zero,24(s1)
   130e4:	2441                	addiw	s0,s0,16
   130e6:	06c40363          	beq	s0,a2,1314c <enormlz+0xb2>
   130ea:	0064d703          	lhu	a4,6(s1)
   130ee:	df79                	beqz	a4,130cc <enormlz+0x32>
   130f0:	f0077793          	andi	a5,a4,-256
   130f4:	eb8d                	bnez	a5,13126 <enormlz+0x8c>
   130f6:	01848513          	addi	a0,s1,24
   130fa:	00248593          	addi	a1,s1,2
   130fe:	4781                	li	a5,0
   13100:	872a                	mv	a4,a0
   13102:	00075683          	lhu	a3,0(a4)
   13106:	1779                	addi	a4,a4,-2
   13108:	00869613          	slli	a2,a3,0x8
   1310c:	8fd1                	or	a5,a5,a2
   1310e:	00f71123          	sh	a5,2(a4)
   13112:	0086d793          	srli	a5,a3,0x8
   13116:	fee596e3          	bne	a1,a4,13102 <enormlz+0x68>
   1311a:	0064d703          	lhu	a4,6(s1)
   1311e:	2421                	addiw	s0,s0,8
   13120:	f0077793          	andi	a5,a4,-256
   13124:	dfe9                	beqz	a5,130fe <enormlz+0x64>
   13126:	0a000913          	li	s2,160
   1312a:	a801                	j	1313a <enormlz+0xa0>
   1312c:	2405                	addiw	s0,s0,1
   1312e:	b1bff0ef          	jal	ra,12c48 <eshup1>
   13132:	00894d63          	blt	s2,s0,1314c <enormlz+0xb2>
   13136:	0064d703          	lhu	a4,6(s1)
   1313a:	0107171b          	slliw	a4,a4,0x10
   1313e:	4107571b          	sraiw	a4,a4,0x10
   13142:	02071793          	slli	a5,a4,0x20
   13146:	8526                	mv	a0,s1
   13148:	fe07d2e3          	bgez	a5,1312c <enormlz+0x92>
   1314c:	60e2                	ld	ra,24(sp)
   1314e:	8522                	mv	a0,s0
   13150:	6442                	ld	s0,16(sp)
   13152:	64a2                	ld	s1,8(sp)
   13154:	6902                	ld	s2,0(sp)
   13156:	6105                	addi	sp,sp,32
   13158:	8082                	ret
   1315a:	f007f713          	andi	a4,a5,-256
   1315e:	4401                	li	s0,0
   13160:	e705                	bnez	a4,13188 <enormlz+0xee>
   13162:	f6f00913          	li	s2,-145
   13166:	a801                	j	13176 <enormlz+0xdc>
   13168:	347d                	addiw	s0,s0,-1
   1316a:	a93ff0ef          	jal	ra,12bfc <eshdn1>
   1316e:	fd240fe3          	beq	s0,s2,1314c <enormlz+0xb2>
   13172:	0044d783          	lhu	a5,4(s1)
   13176:	8526                	mv	a0,s1
   13178:	fbe5                	bnez	a5,13168 <enormlz+0xce>
   1317a:	60e2                	ld	ra,24(sp)
   1317c:	8522                	mv	a0,s0
   1317e:	6442                	ld	s0,16(sp)
   13180:	64a2                	ld	s1,8(sp)
   13182:	6902                	ld	s2,0(sp)
   13184:	6105                	addi	sp,sp,32
   13186:	8082                	ret
   13188:	00450693          	addi	a3,a0,4
   1318c:	01a50593          	addi	a1,a0,26
   13190:	4701                	li	a4,0
   13192:	a019                	j	13198 <enormlz+0xfe>
   13194:	0006d783          	lhu	a5,0(a3)
   13198:	0087d61b          	srliw	a2,a5,0x8
   1319c:	8f51                	or	a4,a4,a2
   1319e:	0087979b          	slliw	a5,a5,0x8
   131a2:	00e69023          	sh	a4,0(a3)
   131a6:	03079713          	slli	a4,a5,0x30
   131aa:	0689                	addi	a3,a3,2
   131ac:	9341                	srli	a4,a4,0x30
   131ae:	feb693e3          	bne	a3,a1,13194 <enormlz+0xfa>
   131b2:	0044d783          	lhu	a5,4(s1)
   131b6:	5461                	li	s0,-8
   131b8:	b76d                	j	13162 <enormlz+0xc8>

00000000000131ba <emdnorm>:
   131ba:	7139                	addi	sp,sp,-64
   131bc:	f822                	sd	s0,48(sp)
   131be:	f426                	sd	s1,40(sp)
   131c0:	f04a                	sd	s2,32(sp)
   131c2:	ec4e                	sd	s3,24(sp)
   131c4:	e852                	sd	s4,16(sp)
   131c6:	e456                	sd	s5,8(sp)
   131c8:	8936                	mv	s2,a3
   131ca:	84be                	mv	s1,a5
   131cc:	fc06                	sd	ra,56(sp)
   131ce:	842a                	mv	s0,a0
   131d0:	89ae                	mv	s3,a1
   131d2:	8a32                	mv	s4,a2
   131d4:	8aba                	mv	s5,a4
   131d6:	ec5ff0ef          	jal	ra,1309a <enormlz>
   131da:	09000793          	li	a5,144
   131de:	40a90933          	sub	s2,s2,a0
   131e2:	12a7db63          	bge	a5,a0,13318 <emdnorm+0x15e>
   131e6:	67a1                	lui	a5,0x8
   131e8:	17f9                	addi	a5,a5,-2
   131ea:	1927dd63          	bge	a5,s2,13384 <emdnorm+0x1ca>
   131ee:	160a8b63          	beqz	s5,13364 <emdnorm+0x1aa>
   131f2:	40c8                	lw	a0,4(s1)
   131f4:	409c                	lw	a5,0(s1)
   131f6:	04a78e63          	beq	a5,a0,13252 <emdnorm+0x98>
   131fa:	01a48713          	addi	a4,s1,26
   131fe:	03448793          	addi	a5,s1,52
   13202:	0709                	addi	a4,a4,2
   13204:	fe071f23          	sh	zero,-2(a4)
   13208:	fef71de3          	bne	a4,a5,13202 <emdnorm+0x48>
   1320c:	03800793          	li	a5,56
   13210:	28f50263          	beq	a0,a5,13494 <emdnorm+0x2da>
   13214:	12a7d163          	bge	a5,a0,13336 <emdnorm+0x17c>
   13218:	04000793          	li	a5,64
   1321c:	24f50c63          	beq	a0,a5,13474 <emdnorm+0x2ba>
   13220:	07100793          	li	a5,113
   13224:	28f51163          	bne	a0,a5,134a6 <emdnorm+0x2ec>
   13228:	47a9                	li	a5,10
   1322a:	40008737          	lui	a4,0x40008
   1322e:	177d                	addi	a4,a4,-1
   13230:	1782                	slli	a5,a5,0x20
   13232:	07a9                	addi	a5,a5,10
   13234:	c8d8                	sw	a4,20(s1)
   13236:	7761                	lui	a4,0xffff8
   13238:	00e49c23          	sh	a4,24(s1)
   1323c:	e49c                	sd	a5,8(s1)
   1323e:	6721                	lui	a4,0x8
   13240:	47a9                	li	a5,10
   13242:	07a1                	addi	a5,a5,8
   13244:	0786                	slli	a5,a5,0x1
   13246:	97a6                	add	a5,a5,s1
   13248:	00e79523          	sh	a4,10(a5) # 800a <main-0x80a6>
   1324c:	c088                	sw	a0,0(s1)
   1324e:	17205163          	blez	s2,133b0 <emdnorm+0x1f6>
   13252:	4494                	lw	a3,8(s1)
   13254:	0144d603          	lhu	a2,20(s1)
   13258:	08f00793          	li	a5,143
   1325c:	00169713          	slli	a4,a3,0x1
   13260:	00e40833          	add	a6,s0,a4
   13264:	00085883          	lhu	a7,0(a6) # ffffffffffff8000 <__BSS_END__+0xfffffffffffd9d00>
   13268:	00c8f5b3          	and	a1,a7,a2
   1326c:	02a7ce63          	blt	a5,a0,132a8 <emdnorm+0xee>
   13270:	47ad                	li	a5,11
   13272:	02d7cb63          	blt	a5,a3,132a8 <emdnorm+0xee>
   13276:	9f95                	subw	a5,a5,a3
   13278:	1782                	slli	a5,a5,0x20
   1327a:	9381                	srli	a5,a5,0x20
   1327c:	97b6                	add	a5,a5,a3
   1327e:	00179693          	slli	a3,a5,0x1
   13282:	0709                	addi	a4,a4,2
   13284:	00440793          	addi	a5,s0,4
   13288:	9722                	add	a4,a4,s0
   1328a:	97b6                	add	a5,a5,a3
   1328c:	00075683          	lhu	a3,0(a4) # 8000 <main-0x80b0>
   13290:	c299                	beqz	a3,13296 <emdnorm+0xdc>
   13292:	0015e593          	ori	a1,a1,1
   13296:	00071023          	sh	zero,0(a4)
   1329a:	0709                	addi	a4,a4,2
   1329c:	fee798e3          	bne	a5,a4,1328c <emdnorm+0xd2>
   132a0:	00085883          	lhu	a7,0(a6)
   132a4:	0144d603          	lhu	a2,20(s1)
   132a8:	fff64613          	not	a2,a2
   132ac:	01167633          	and	a2,a2,a7
   132b0:	00c81023          	sh	a2,0(a6)
   132b4:	0164d783          	lhu	a5,22(s1)
   132b8:	00b7f733          	and	a4,a5,a1
   132bc:	cb05                	beqz	a4,132ec <emdnorm+0x132>
   132be:	12b78f63          	beq	a5,a1,133fc <emdnorm+0x242>
   132c2:	03248613          	addi	a2,s1,50
   132c6:	01840693          	addi	a3,s0,24
   132ca:	04f1                	addi	s1,s1,28
   132cc:	4701                	li	a4,0
   132ce:	00065783          	lhu	a5,0(a2)
   132d2:	0006d583          	lhu	a1,0(a3)
   132d6:	16f9                	addi	a3,a3,-2
   132d8:	1679                	addi	a2,a2,-2
   132da:	97ae                	add	a5,a5,a1
   132dc:	97ba                	add	a5,a5,a4
   132de:	0107d713          	srli	a4,a5,0x10
   132e2:	00f69123          	sh	a5,2(a3)
   132e6:	8b05                	andi	a4,a4,1
   132e8:	fe9613e3          	bne	a2,s1,132ce <emdnorm+0x114>
   132ec:	13205663          	blez	s2,13418 <emdnorm+0x25e>
   132f0:	00445783          	lhu	a5,4(s0)
   132f4:	e7ed                	bnez	a5,133de <emdnorm+0x224>
   132f6:	67a1                	lui	a5,0x8
   132f8:	00041c23          	sh	zero,24(s0)
   132fc:	17f9                	addi	a5,a5,-2
   132fe:	0727c563          	blt	a5,s2,13368 <emdnorm+0x1ae>
   13302:	01241123          	sh	s2,2(s0)
   13306:	70e2                	ld	ra,56(sp)
   13308:	7442                	ld	s0,48(sp)
   1330a:	74a2                	ld	s1,40(sp)
   1330c:	7902                	ld	s2,32(sp)
   1330e:	69e2                	ld	s3,24(sp)
   13310:	6a42                	ld	s4,16(sp)
   13312:	6aa2                	ld	s5,8(sp)
   13314:	6121                	addi	sp,sp,64
   13316:	8082                	ret
   13318:	0a095a63          	bgez	s2,133cc <emdnorm+0x212>
   1331c:	f7000793          	li	a5,-144
   13320:	06f95b63          	bge	s2,a5,13396 <emdnorm+0x1dc>
   13324:	00240793          	addi	a5,s0,2
   13328:	0469                	addi	s0,s0,26
   1332a:	0789                	addi	a5,a5,2
   1332c:	fe079f23          	sh	zero,-2(a5) # 7ffe <main-0x80b2>
   13330:	fe879de3          	bne	a5,s0,1332a <emdnorm+0x170>
   13334:	bfc9                	j	13306 <emdnorm+0x14c>
   13336:	47e1                	li	a5,24
   13338:	10f50f63          	beq	a0,a5,13456 <emdnorm+0x29c>
   1333c:	03500793          	li	a5,53
   13340:	16f51363          	bne	a0,a5,134a6 <emdnorm+0x2ec>
   13344:	040006b7          	lui	a3,0x4000
   13348:	6705                	lui	a4,0x1
   1334a:	7ff68693          	addi	a3,a3,2047 # 40007ff <__BSS_END__+0x3fe24ff>
   1334e:	4799                	li	a5,6
   13350:	80070713          	addi	a4,a4,-2048 # 800 <main-0xf8b0>
   13354:	c8d4                	sw	a3,20(s1)
   13356:	1782                	slli	a5,a5,0x20
   13358:	0799                	addi	a5,a5,6
   1335a:	e49c                	sd	a5,8(s1)
   1335c:	00e49c23          	sh	a4,24(s1)
   13360:	4799                	li	a5,6
   13362:	b5c5                	j	13242 <emdnorm+0x88>
   13364:	00041c23          	sh	zero,24(s0)
   13368:	77e1                	lui	a5,0xffff8
   1336a:	fff7c793          	not	a5,a5
   1336e:	00f41123          	sh	a5,2(s0)
   13372:	00440793          	addi	a5,s0,4
   13376:	0461                	addi	s0,s0,24
   13378:	00079023          	sh	zero,0(a5) # ffffffffffff8000 <__BSS_END__+0xfffffffffffd9d00>
   1337c:	0789                	addi	a5,a5,2
   1337e:	fef41de3          	bne	s0,a5,13378 <emdnorm+0x1be>
   13382:	b751                	j	13306 <emdnorm+0x14c>
   13384:	00240793          	addi	a5,s0,2
   13388:	0469                	addi	s0,s0,26
   1338a:	0789                	addi	a5,a5,2
   1338c:	fe079f23          	sh	zero,-2(a5)
   13390:	fe879de3          	bne	a5,s0,1338a <emdnorm+0x1d0>
   13394:	bf8d                	j	13306 <emdnorm+0x14c>
   13396:	0009059b          	sext.w	a1,s2
   1339a:	8522                	mv	a0,s0
   1339c:	b7dff0ef          	jal	ra,12f18 <eshift.part.0>
   133a0:	c111                	beqz	a0,133a4 <emdnorm+0x1ea>
   133a2:	4985                	li	s3,1
   133a4:	0a0a8463          	beqz	s5,1344c <emdnorm+0x292>
   133a8:	40c8                	lw	a0,4(s1)
   133aa:	409c                	lw	a5,0(s1)
   133ac:	e4a797e3          	bne	a5,a0,131fa <emdnorm+0x40>
   133b0:	09000793          	li	a5,144
   133b4:	08f50163          	beq	a0,a5,13436 <emdnorm+0x27c>
   133b8:	01845783          	lhu	a5,24(s0)
   133bc:	8522                	mv	a0,s0
   133be:	8b85                	andi	a5,a5,1
   133c0:	00f9e9b3          	or	s3,s3,a5
   133c4:	839ff0ef          	jal	ra,12bfc <eshdn1>
   133c8:	40c8                	lw	a0,4(s1)
   133ca:	b561                	j	13252 <emdnorm+0x98>
   133cc:	f20a85e3          	beqz	s5,132f6 <emdnorm+0x13c>
   133d0:	40c8                	lw	a0,4(s1)
   133d2:	409c                	lw	a5,0(s1)
   133d4:	e2a793e3          	bne	a5,a0,131fa <emdnorm+0x40>
   133d8:	e7204de3          	bgtz	s2,13252 <emdnorm+0x98>
   133dc:	bfd1                	j	133b0 <emdnorm+0x1f6>
   133de:	8522                	mv	a0,s0
   133e0:	81dff0ef          	jal	ra,12bfc <eshdn1>
   133e4:	67a1                	lui	a5,0x8
   133e6:	0905                	addi	s2,s2,1
   133e8:	00041c23          	sh	zero,24(s0)
   133ec:	17f9                	addi	a5,a5,-2
   133ee:	f727cde3          	blt	a5,s2,13368 <emdnorm+0x1ae>
   133f2:	f00958e3          	bgez	s2,13302 <emdnorm+0x148>
   133f6:	00041123          	sh	zero,2(s0)
   133fa:	b731                	j	13306 <emdnorm+0x14c>
   133fc:	08099963          	bnez	s3,1348e <emdnorm+0x2d4>
   13400:	44dc                	lw	a5,12(s1)
   13402:	0184d703          	lhu	a4,24(s1)
   13406:	0786                	slli	a5,a5,0x1
   13408:	97a2                	add	a5,a5,s0
   1340a:	0007d783          	lhu	a5,0(a5) # 8000 <main-0x80b0>
   1340e:	8ff9                	and	a5,a5,a4
   13410:	ea0799e3          	bnez	a5,132c2 <emdnorm+0x108>
   13414:	ed204ee3          	bgtz	s2,132f0 <emdnorm+0x136>
   13418:	09000793          	li	a5,144
   1341c:	00f50563          	beq	a0,a5,13426 <emdnorm+0x26c>
   13420:	8522                	mv	a0,s0
   13422:	827ff0ef          	jal	ra,12c48 <eshup1>
   13426:	00445783          	lhu	a5,4(s0)
   1342a:	fbd5                	bnez	a5,133de <emdnorm+0x224>
   1342c:	00041c23          	sh	zero,24(s0)
   13430:	fc0943e3          	bltz	s2,133f6 <emdnorm+0x23c>
   13434:	b5f9                	j	13302 <emdnorm+0x148>
   13436:	0084a803          	lw	a6,8(s1)
   1343a:	0144d603          	lhu	a2,20(s1)
   1343e:	0806                	slli	a6,a6,0x1
   13440:	9822                	add	a6,a6,s0
   13442:	00085883          	lhu	a7,0(a6)
   13446:	011675b3          	and	a1,a2,a7
   1344a:	bdb9                	j	132a8 <emdnorm+0xee>
   1344c:	00041c23          	sh	zero,24(s0)
   13450:	00041123          	sh	zero,2(s0)
   13454:	bd4d                	j	13306 <emdnorm+0x14c>
   13456:	4791                	li	a5,4
   13458:	00800737          	lui	a4,0x800
   1345c:	0ff70713          	addi	a4,a4,255 # 8000ff <__BSS_END__+0x7e1dff>
   13460:	1782                	slli	a5,a5,0x20
   13462:	0791                	addi	a5,a5,4
   13464:	c8d8                	sw	a4,20(s1)
   13466:	10000713          	li	a4,256
   1346a:	e49c                	sd	a5,8(s1)
   1346c:	00e49c23          	sh	a4,24(s1)
   13470:	4791                	li	a5,4
   13472:	bbc1                	j	13242 <emdnorm+0x88>
   13474:	478d                	li	a5,3
   13476:	80010737          	lui	a4,0x80010
   1347a:	177d                	addi	a4,a4,-1
   1347c:	1786                	slli	a5,a5,0x21
   1347e:	079d                	addi	a5,a5,7
   13480:	c8d8                	sw	a4,20(s1)
   13482:	4705                	li	a4,1
   13484:	e49c                	sd	a5,8(s1)
   13486:	00e49c23          	sh	a4,24(s1)
   1348a:	4799                	li	a5,6
   1348c:	bb5d                	j	13242 <emdnorm+0x88>
   1348e:	e20a0ae3          	beqz	s4,132c2 <emdnorm+0x108>
   13492:	bda9                	j	132ec <emdnorm+0x132>
   13494:	00800737          	lui	a4,0x800
   13498:	0ff70713          	addi	a4,a4,255 # 8000ff <__BSS_END__+0x7e1dff>
   1349c:	c8d8                	sw	a4,20(s1)
   1349e:	4799                	li	a5,6
   134a0:	10000713          	li	a4,256
   134a4:	bd4d                	j	13356 <emdnorm+0x19c>
   134a6:	47ad                	li	a5,11
   134a8:	80010737          	lui	a4,0x80010
   134ac:	177d                	addi	a4,a4,-1
   134ae:	1782                	slli	a5,a5,0x20
   134b0:	07b1                	addi	a5,a5,12
   134b2:	c8d8                	sw	a4,20(s1)
   134b4:	4705                	li	a4,1
   134b6:	e49c                	sd	a5,8(s1)
   134b8:	00e49c23          	sh	a4,24(s1)
   134bc:	47ad                	li	a5,11
   134be:	b351                	j	13242 <emdnorm+0x88>

00000000000134c0 <eiremain>:
   134c0:	711d                	addi	sp,sp,-96
   134c2:	e4a6                	sd	s1,72(sp)
   134c4:	fc4e                	sd	s3,56(sp)
   134c6:	84ae                	mv	s1,a1
   134c8:	00255983          	lhu	s3,2(a0)
   134cc:	ec86                	sd	ra,88(sp)
   134ce:	e8a2                	sd	s0,80(sp)
   134d0:	e0ca                	sd	s2,64(sp)
   134d2:	f852                	sd	s4,48(sp)
   134d4:	8932                	mv	s2,a2
   134d6:	f456                	sd	s5,40(sp)
   134d8:	f05a                	sd	s6,32(sp)
   134da:	ec5e                	sd	s7,24(sp)
   134dc:	e862                	sd	s8,16(sp)
   134de:	e466                	sd	s9,8(sp)
   134e0:	e06a                	sd	s10,0(sp)
   134e2:	8a2a                	mv	s4,a0
   134e4:	bb7ff0ef          	jal	ra,1309a <enormlz>
   134e8:	0024d403          	lhu	s0,2(s1)
   134ec:	87aa                	mv	a5,a0
   134ee:	8526                	mv	a0,s1
   134f0:	40f989b3          	sub	s3,s3,a5
   134f4:	03490a93          	addi	s5,s2,52
   134f8:	ba3ff0ef          	jal	ra,1309a <enormlz>
   134fc:	8c09                	sub	s0,s0,a0
   134fe:	04e90713          	addi	a4,s2,78
   13502:	87d6                	mv	a5,s5
   13504:	0789                	addi	a5,a5,2
   13506:	fe079f23          	sh	zero,-2(a5)
   1350a:	fee79de3          	bne	a5,a4,13504 <eiremain+0x44>
   1350e:	07344b63          	blt	s0,s3,13584 <eiremain+0xc4>
   13512:	004a0b93          	addi	s7,s4,4
   13516:	00448b13          	addi	s6,s1,4
   1351a:	19fd                	addi	s3,s3,-1
   1351c:	01aa0c93          	addi	s9,s4,26
   13520:	00248c13          	addi	s8,s1,2
   13524:	875a                	mv	a4,s6
   13526:	87de                	mv	a5,s7
   13528:	0007d603          	lhu	a2,0(a5)
   1352c:	00075683          	lhu	a3,0(a4) # ffffffff80010000 <__BSS_END__+0xffffffff7fff1d00>
   13530:	0789                	addi	a5,a5,2
   13532:	0709                	addi	a4,a4,2
   13534:	06d61c63          	bne	a2,a3,135ac <eiremain+0xec>
   13538:	fefc98e3          	bne	s9,a5,13528 <eiremain+0x68>
   1353c:	018a0613          	addi	a2,s4,24
   13540:	01848713          	addi	a4,s1,24
   13544:	4681                	li	a3,0
   13546:	00075783          	lhu	a5,0(a4)
   1354a:	00065583          	lhu	a1,0(a2)
   1354e:	1779                	addi	a4,a4,-2
   13550:	8f95                	sub	a5,a5,a3
   13552:	8f8d                	sub	a5,a5,a1
   13554:	0107d693          	srli	a3,a5,0x10
   13558:	00f71123          	sh	a5,2(a4)
   1355c:	8a85                	andi	a3,a3,1
   1355e:	1679                	addi	a2,a2,-2
   13560:	feec13e3          	bne	s8,a4,13546 <eiremain+0x86>
   13564:	4d05                	li	s10,1
   13566:	8556                	mv	a0,s5
   13568:	ee0ff0ef          	jal	ra,12c48 <eshup1>
   1356c:	04c95783          	lhu	a5,76(s2)
   13570:	147d                	addi	s0,s0,-1
   13572:	8526                	mv	a0,s1
   13574:	00fd6d33          	or	s10,s10,a5
   13578:	05a91623          	sh	s10,76(s2)
   1357c:	eccff0ef          	jal	ra,12c48 <eshup1>
   13580:	fb3412e3          	bne	s0,s3,13524 <eiremain+0x64>
   13584:	86a2                	mv	a3,s0
   13586:	6446                	ld	s0,80(sp)
   13588:	60e6                	ld	ra,88(sp)
   1358a:	79e2                	ld	s3,56(sp)
   1358c:	7a42                	ld	s4,48(sp)
   1358e:	7aa2                	ld	s5,40(sp)
   13590:	7b02                	ld	s6,32(sp)
   13592:	6be2                	ld	s7,24(sp)
   13594:	6c42                	ld	s8,16(sp)
   13596:	6ca2                	ld	s9,8(sp)
   13598:	6d02                	ld	s10,0(sp)
   1359a:	87ca                	mv	a5,s2
   1359c:	8526                	mv	a0,s1
   1359e:	6906                	ld	s2,64(sp)
   135a0:	64a6                	ld	s1,72(sp)
   135a2:	4701                	li	a4,0
   135a4:	4601                	li	a2,0
   135a6:	4581                	li	a1,0
   135a8:	6125                	addi	sp,sp,96
   135aa:	b901                	j	131ba <emdnorm>
   135ac:	4d01                	li	s10,0
   135ae:	fac6ece3          	bltu	a3,a2,13566 <eiremain+0xa6>
   135b2:	b769                	j	1353c <eiremain+0x7c>

00000000000135b4 <emovo.isra.0>:
   135b4:	00055703          	lhu	a4,0(a0)
   135b8:	00255783          	lhu	a5,2(a0)
   135bc:	c319                	beqz	a4,135c2 <emovo.isra.0+0xe>
   135be:	6721                	lui	a4,0x8
   135c0:	8fd9                	or	a5,a5,a4
   135c2:	00f59923          	sh	a5,18(a1)
   135c6:	00255703          	lhu	a4,2(a0)
   135ca:	67a1                	lui	a5,0x8
   135cc:	17fd                	addi	a5,a5,-1
   135ce:	00f70f63          	beq	a4,a5,135ec <emovo.isra.0+0x38>
   135d2:	00650793          	addi	a5,a0,6
   135d6:	05c1                	addi	a1,a1,16
   135d8:	0561                	addi	a0,a0,24
   135da:	0007d703          	lhu	a4,0(a5) # 8000 <main-0x80b0>
   135de:	0789                	addi	a5,a5,2
   135e0:	15f9                	addi	a1,a1,-2
   135e2:	00e59123          	sh	a4,2(a1)
   135e6:	fea79ae3          	bne	a5,a0,135da <emovo.isra.0+0x26>
   135ea:	8082                	ret
   135ec:	00650793          	addi	a5,a0,6
   135f0:	0569                	addi	a0,a0,26
   135f2:	0007d703          	lhu	a4,0(a5)
   135f6:	0789                	addi	a5,a5,2
   135f8:	e31d                	bnez	a4,1361e <emovo.isra.0+0x6a>
   135fa:	fea79ce3          	bne	a5,a0,135f2 <emovo.isra.0+0x3e>
   135fe:	01258713          	addi	a4,a1,18
   13602:	87ae                	mv	a5,a1
   13604:	0789                	addi	a5,a5,2
   13606:	fe079f23          	sh	zero,-2(a5)
   1360a:	fef71de3          	bne	a4,a5,13604 <emovo.isra.0+0x50>
   1360e:	0125d783          	lhu	a5,18(a1)
   13612:	6721                	lui	a4,0x8
   13614:	177d                	addi	a4,a4,-1
   13616:	8fd9                	or	a5,a5,a4
   13618:	00f59923          	sh	a5,18(a1)
   1361c:	8082                	ret
   1361e:	01058713          	addi	a4,a1,16
   13622:	87ae                	mv	a5,a1
   13624:	0789                	addi	a5,a5,2
   13626:	fe079f23          	sh	zero,-2(a5)
   1362a:	fef71de3          	bne	a4,a5,13624 <emovo.isra.0+0x70>
   1362e:	7fffc7b7          	lui	a5,0x7fffc
   13632:	c99c                	sw	a5,16(a1)
   13634:	8082                	ret

0000000000013636 <emul>:
   13636:	7131                	addi	sp,sp,-192
   13638:	e556                	sd	s5,136(sp)
   1363a:	01255a83          	lhu	s5,18(a0)
   1363e:	67a1                	lui	a5,0x8
   13640:	17fd                	addi	a5,a5,-1
   13642:	f922                	sd	s0,176(sp)
   13644:	f526                	sd	s1,168(sp)
   13646:	f14a                	sd	s2,160(sp)
   13648:	ed4e                	sd	s3,152(sp)
   1364a:	e15a                	sd	s6,128(sp)
   1364c:	fd06                	sd	ra,184(sp)
   1364e:	e952                	sd	s4,144(sp)
   13650:	fcde                	sd	s7,120(sp)
   13652:	f8e2                	sd	s8,112(sp)
   13654:	f4e6                	sd	s9,104(sp)
   13656:	0157fb33          	and	s6,a5,s5
   1365a:	84aa                	mv	s1,a0
   1365c:	892e                	mv	s2,a1
   1365e:	8432                	mv	s0,a2
   13660:	89b6                	mv	s3,a3
   13662:	0cfb1263          	bne	s6,a5,13726 <emul+0xf0>
   13666:	eb0ff0ef          	jal	ra,12d16 <eisnan.part.0>
   1366a:	1e051863          	bnez	a0,1385a <emul+0x224>
   1366e:	01295a03          	lhu	s4,18(s2)
   13672:	014b77b3          	and	a5,s6,s4
   13676:	1f678d63          	beq	a5,s6,13870 <emul+0x23a>
   1367a:	8526                	mv	a0,s1
   1367c:	88bff0ef          	jal	ra,12f06 <eisinf.part.0>
   13680:	22050c63          	beqz	a0,138b8 <emul+0x282>
   13684:	00009597          	auipc	a1,0x9
   13688:	da458593          	addi	a1,a1,-604 # 1c428 <ezero>
   1368c:	854a                	mv	a0,s2
   1368e:	fb0ff0ef          	jal	ra,12e3e <ecmp>
   13692:	28050963          	beqz	a0,13924 <emul+0x2ee>
   13696:	01295a03          	lhu	s4,18(s2)
   1369a:	67a1                	lui	a5,0x8
   1369c:	17fd                	addi	a5,a5,-1
   1369e:	0147fa33          	and	s4,a5,s4
   136a2:	1a42                	slli	s4,s4,0x30
   136a4:	030a5a13          	srli	s4,s4,0x30
   136a8:	20fa1663          	bne	s4,a5,138b4 <emul+0x27e>
   136ac:	854a                	mv	a0,s2
   136ae:	859ff0ef          	jal	ra,12f06 <eisinf.part.0>
   136b2:	24051a63          	bnez	a0,13906 <emul+0x2d0>
   136b6:	0124d783          	lhu	a5,18(s1)
   136ba:	00fa77b3          	and	a5,s4,a5
   136be:	07479a63          	bne	a5,s4,13732 <emul+0xfc>
   136c2:	8526                	mv	a0,s1
   136c4:	843ff0ef          	jal	ra,12f06 <eisinf.part.0>
   136c8:	e509                	bnez	a0,136d2 <emul+0x9c>
   136ca:	854a                	mv	a0,s2
   136cc:	83bff0ef          	jal	ra,12f06 <eisinf.part.0>
   136d0:	c12d                	beqz	a0,13732 <emul+0xfc>
   136d2:	8526                	mv	a0,s1
   136d4:	e8aff0ef          	jal	ra,12d5e <eisneg>
   136d8:	84aa                	mv	s1,a0
   136da:	854a                	mv	a0,s2
   136dc:	e82ff0ef          	jal	ra,12d5e <eisneg>
   136e0:	40a48533          	sub	a0,s1,a0
   136e4:	00a03533          	snez	a0,a0
   136e8:	053e                	slli	a0,a0,0xf
   136ea:	00a41923          	sh	a0,18(s0)
   136ee:	01240713          	addi	a4,s0,18
   136f2:	87a2                	mv	a5,s0
   136f4:	0789                	addi	a5,a5,2
   136f6:	fe079f23          	sh	zero,-2(a5) # 7ffe <main-0x80b2>
   136fa:	fef71de3          	bne	a4,a5,136f4 <emul+0xbe>
   136fe:	01245783          	lhu	a5,18(s0)
   13702:	6721                	lui	a4,0x8
   13704:	177d                	addi	a4,a4,-1
   13706:	8fd9                	or	a5,a5,a4
   13708:	00f41923          	sh	a5,18(s0)
   1370c:	70ea                	ld	ra,184(sp)
   1370e:	744a                	ld	s0,176(sp)
   13710:	74aa                	ld	s1,168(sp)
   13712:	790a                	ld	s2,160(sp)
   13714:	69ea                	ld	s3,152(sp)
   13716:	6a4a                	ld	s4,144(sp)
   13718:	6aaa                	ld	s5,136(sp)
   1371a:	6b0a                	ld	s6,128(sp)
   1371c:	7be6                	ld	s7,120(sp)
   1371e:	7c46                	ld	s8,112(sp)
   13720:	7ca6                	ld	s9,104(sp)
   13722:	6129                	addi	sp,sp,192
   13724:	8082                	ret
   13726:	0125da03          	lhu	s4,18(a1)
   1372a:	0147f733          	and	a4,a5,s4
   1372e:	02f70f63          	beq	a4,a5,1376c <emul+0x136>
   13732:	8526                	mv	a0,s1
   13734:	858a                	mv	a1,sp
   13736:	e52ff0ef          	jal	ra,12d88 <emovi>
   1373a:	854a                	mv	a0,s2
   1373c:	100c                	addi	a1,sp,32
   1373e:	e4aff0ef          	jal	ra,12d88 <emovi>
   13742:	00215483          	lhu	s1,2(sp)
   13746:	02215903          	lhu	s2,34(sp)
   1374a:	e0a1                	bnez	s1,1378a <emul+0x154>
   1374c:	005c                	addi	a5,sp,4
   1374e:	0834                	addi	a3,sp,24
   13750:	18f68b63          	beq	a3,a5,138e6 <emul+0x2b0>
   13754:	0007d703          	lhu	a4,0(a5)
   13758:	0789                	addi	a5,a5,2
   1375a:	db7d                	beqz	a4,13750 <emul+0x11a>
   1375c:	850a                	mv	a0,sp
   1375e:	93dff0ef          	jal	ra,1309a <enormlz>
   13762:	02215703          	lhu	a4,34(sp)
   13766:	40a004b3          	neg	s1,a0
   1376a:	a00d                	j	1378c <emul+0x156>
   1376c:	852e                	mv	a0,a1
   1376e:	da8ff0ef          	jal	ra,12d16 <eisnan.part.0>
   13772:	d505                	beqz	a0,1369a <emul+0x64>
   13774:	01490713          	addi	a4,s2,20
   13778:	00095783          	lhu	a5,0(s2)
   1377c:	0909                	addi	s2,s2,2
   1377e:	0409                	addi	s0,s0,2
   13780:	fef41f23          	sh	a5,-2(s0)
   13784:	fee91ae3          	bne	s2,a4,13778 <emul+0x142>
   13788:	b751                	j	1370c <emul+0xd6>
   1378a:	874a                	mv	a4,s2
   1378c:	8aca                	mv	s5,s2
   1378e:	105c                	addi	a5,sp,36
   13790:	1834                	addi	a3,sp,56
   13792:	ef11                	bnez	a4,137ae <emul+0x178>
   13794:	16f68163          	beq	a3,a5,138f6 <emul+0x2c0>
   13798:	0007d703          	lhu	a4,0(a5)
   1379c:	0789                	addi	a5,a5,2
   1379e:	db7d                	beqz	a4,13794 <emul+0x15e>
   137a0:	1008                	addi	a0,sp,32
   137a2:	8f9ff0ef          	jal	ra,1309a <enormlz>
   137a6:	02215703          	lhu	a4,34(sp)
   137aa:	40a90ab3          	sub	s5,s2,a0
   137ae:	02015783          	lhu	a5,32(sp)
   137b2:	03898c13          	addi	s8,s3,56
   137b6:	02e99b23          	sh	a4,54(s3)
   137ba:	02f99a23          	sh	a5,52(s3)
   137be:	04e98713          	addi	a4,s3,78
   137c2:	87e2                	mv	a5,s8
   137c4:	00079023          	sh	zero,0(a5)
   137c8:	0789                	addi	a5,a5,2
   137ca:	fef71de3          	bne	a4,a5,137c4 <emul+0x18e>
   137ce:	04c98a13          	addi	s4,s3,76
   137d2:	4b81                	li	s7,0
   137d4:	01810913          	addi	s2,sp,24
   137d8:	00410c93          	addi	s9,sp,4
   137dc:	04210b13          	addi	s6,sp,66
   137e0:	00095503          	lhu	a0,0(s2)
   137e4:	1979                	addi	s2,s2,-2
   137e6:	e145                	bnez	a0,13886 <emul+0x250>
   137e8:	04c9d703          	lhu	a4,76(s3)
   137ec:	87d2                	mv	a5,s4
   137ee:	00ebebb3          	or	s7,s7,a4
   137f2:	ffe7d703          	lhu	a4,-2(a5)
   137f6:	17f9                	addi	a5,a5,-2
   137f8:	00e79123          	sh	a4,2(a5)
   137fc:	ff879be3          	bne	a5,s8,137f2 <emul+0x1bc>
   13800:	02099c23          	sh	zero,56(s3)
   13804:	fd991ee3          	bne	s2,s9,137e0 <emul+0x1aa>
   13808:	03498713          	addi	a4,s3,52
   1380c:	101c                	addi	a5,sp,32
   1380e:	03a10593          	addi	a1,sp,58
   13812:	00075603          	lhu	a2,0(a4) # 8000 <main-0x80b0>
   13816:	0789                	addi	a5,a5,2
   13818:	0709                	addi	a4,a4,2
   1381a:	fec79f23          	sh	a2,-2(a5)
   1381e:	fef59ae3          	bne	a1,a5,13812 <emul+0x1dc>
   13822:	76f1                	lui	a3,0xffffc
   13824:	94d6                	add	s1,s1,s5
   13826:	0689                	addi	a3,a3,2
   13828:	85de                	mv	a1,s7
   1382a:	1008                	addi	a0,sp,32
   1382c:	87ce                	mv	a5,s3
   1382e:	04000713          	li	a4,64
   13832:	96a6                	add	a3,a3,s1
   13834:	4601                	li	a2,0
   13836:	985ff0ef          	jal	ra,131ba <emdnorm>
   1383a:	02015703          	lhu	a4,32(sp)
   1383e:	00015783          	lhu	a5,0(sp)
   13842:	85a2                	mv	a1,s0
   13844:	1008                	addi	a0,sp,32
   13846:	8f99                	sub	a5,a5,a4
   13848:	00f037b3          	snez	a5,a5
   1384c:	40f007bb          	negw	a5,a5
   13850:	02f11023          	sh	a5,32(sp)
   13854:	d61ff0ef          	jal	ra,135b4 <emovo.isra.0>
   13858:	bd55                	j	1370c <emul+0xd6>
   1385a:	01448713          	addi	a4,s1,20
   1385e:	0004d783          	lhu	a5,0(s1)
   13862:	0489                	addi	s1,s1,2
   13864:	0409                	addi	s0,s0,2
   13866:	fef41f23          	sh	a5,-2(s0)
   1386a:	fee49ae3          	bne	s1,a4,1385e <emul+0x228>
   1386e:	bd79                	j	1370c <emul+0xd6>
   13870:	854a                	mv	a0,s2
   13872:	ca4ff0ef          	jal	ra,12d16 <eisnan.part.0>
   13876:	ee051fe3          	bnez	a0,13774 <emul+0x13e>
   1387a:	8526                	mv	a0,s1
   1387c:	e8aff0ef          	jal	ra,12f06 <eisinf.part.0>
   13880:	e0050de3          	beqz	a0,1369a <emul+0x64>
   13884:	b501                	j	13684 <emul+0x4e>
   13886:	0090                	addi	a2,sp,64
   13888:	100c                	addi	a1,sp,32
   1388a:	c18ff0ef          	jal	ra,12ca2 <m16m>
   1388e:	85d2                	mv	a1,s4
   13890:	4601                	li	a2,0
   13892:	08b8                	addi	a4,sp,88
   13894:	0005d803          	lhu	a6,0(a1)
   13898:	00075783          	lhu	a5,0(a4)
   1389c:	15f9                	addi	a1,a1,-2
   1389e:	1779                	addi	a4,a4,-2
   138a0:	97c2                	add	a5,a5,a6
   138a2:	97b2                	add	a5,a5,a2
   138a4:	0107d613          	srli	a2,a5,0x10
   138a8:	00f59123          	sh	a5,2(a1)
   138ac:	8a05                	andi	a2,a2,1
   138ae:	ff6713e3          	bne	a4,s6,13894 <emul+0x25e>
   138b2:	bf1d                	j	137e8 <emul+0x1b2>
   138b4:	0124da83          	lhu	s5,18(s1)
   138b8:	67a1                	lui	a5,0x8
   138ba:	17fd                	addi	a5,a5,-1
   138bc:	0157fab3          	and	s5,a5,s5
   138c0:	1ac2                	slli	s5,s5,0x30
   138c2:	030ada93          	srli	s5,s5,0x30
   138c6:	e6fa96e3          	bne	s5,a5,13732 <emul+0xfc>
   138ca:	8526                	mv	a0,s1
   138cc:	e3aff0ef          	jal	ra,12f06 <eisinf.part.0>
   138d0:	e00511e3          	bnez	a0,136d2 <emul+0x9c>
   138d4:	01295783          	lhu	a5,18(s2)
   138d8:	fff7c793          	not	a5,a5
   138dc:	03179713          	slli	a4,a5,0x31
   138e0:	e40719e3          	bnez	a4,13732 <emul+0xfc>
   138e4:	b3dd                	j	136ca <emul+0x94>
   138e6:	01440793          	addi	a5,s0,20
   138ea:	0409                	addi	s0,s0,2
   138ec:	fe041f23          	sh	zero,-2(s0)
   138f0:	fef41de3          	bne	s0,a5,138ea <emul+0x2b4>
   138f4:	bd21                	j	1370c <emul+0xd6>
   138f6:	01440793          	addi	a5,s0,20
   138fa:	0409                	addi	s0,s0,2
   138fc:	fe041f23          	sh	zero,-2(s0)
   13900:	fef41de3          	bne	s0,a5,138fa <emul+0x2c4>
   13904:	b521                	j	1370c <emul+0xd6>
   13906:	00009597          	auipc	a1,0x9
   1390a:	b2258593          	addi	a1,a1,-1246 # 1c428 <ezero>
   1390e:	8526                	mv	a0,s1
   13910:	d2eff0ef          	jal	ra,12e3e <ecmp>
   13914:	c901                	beqz	a0,13924 <emul+0x2ee>
   13916:	0124d783          	lhu	a5,18(s1)
   1391a:	00fa77b3          	and	a5,s4,a5
   1391e:	fb4786e3          	beq	a5,s4,138ca <emul+0x294>
   13922:	bf4d                	j	138d4 <emul+0x29e>
   13924:	01040713          	addi	a4,s0,16
   13928:	87a2                	mv	a5,s0
   1392a:	0789                	addi	a5,a5,2
   1392c:	fe079f23          	sh	zero,-2(a5) # 7ffe <main-0x80b2>
   13930:	fee79de3          	bne	a5,a4,1392a <emul+0x2f4>
   13934:	7fffc7b7          	lui	a5,0x7fffc
   13938:	c81c                	sw	a5,16(s0)
   1393a:	bbc9                	j	1370c <emul+0xd6>

000000000001393c <ediv>:
   1393c:	01255783          	lhu	a5,18(a0)
   13940:	7115                	addi	sp,sp,-224
   13942:	e9a2                	sd	s0,208(sp)
   13944:	fff7c793          	not	a5,a5
   13948:	e5a6                	sd	s1,200(sp)
   1394a:	e1ca                	sd	s2,192(sp)
   1394c:	fd4e                	sd	s3,184(sp)
   1394e:	ed86                	sd	ra,216(sp)
   13950:	f952                	sd	s4,176(sp)
   13952:	f556                	sd	s5,168(sp)
   13954:	f15a                	sd	s6,160(sp)
   13956:	ed5e                	sd	s7,152(sp)
   13958:	e962                	sd	s8,144(sp)
   1395a:	e566                	sd	s9,136(sp)
   1395c:	e16a                	sd	s10,128(sp)
   1395e:	fcee                	sd	s11,120(sp)
   13960:	03179713          	slli	a4,a5,0x31
   13964:	892a                	mv	s2,a0
   13966:	89ae                	mv	s3,a1
   13968:	8432                	mv	s0,a2
   1396a:	84b6                	mv	s1,a3
   1396c:	e709                	bnez	a4,13976 <ediv+0x3a>
   1396e:	ba8ff0ef          	jal	ra,12d16 <eisnan.part.0>
   13972:	2a051463          	bnez	a0,13c1a <ediv+0x2de>
   13976:	0129d783          	lhu	a5,18(s3)
   1397a:	fff7c793          	not	a5,a5
   1397e:	03179713          	slli	a4,a5,0x31
   13982:	c72d                	beqz	a4,139ec <ediv+0xb0>
   13984:	00009597          	auipc	a1,0x9
   13988:	aa458593          	addi	a1,a1,-1372 # 1c428 <ezero>
   1398c:	854a                	mv	a0,s2
   1398e:	cb0ff0ef          	jal	ra,12e3e <ecmp>
   13992:	cd55                	beqz	a0,13a4e <ediv+0x112>
   13994:	01295a03          	lhu	s4,18(s2)
   13998:	0129d703          	lhu	a4,18(s3)
   1399c:	67a1                	lui	a5,0x8
   1399e:	17fd                	addi	a5,a5,-1
   139a0:	0147fa33          	and	s4,a5,s4
   139a4:	00e7fab3          	and	s5,a5,a4
   139a8:	06fa1163          	bne	s4,a5,13a0a <ediv+0xce>
   139ac:	854a                	mv	a0,s2
   139ae:	d58ff0ef          	jal	ra,12f06 <eisinf.part.0>
   139b2:	c171                	beqz	a0,13a76 <ediv+0x13a>
   139b4:	014a9663          	bne	s5,s4,139c0 <ediv+0x84>
   139b8:	854e                	mv	a0,s3
   139ba:	d4cff0ef          	jal	ra,12f06 <eisinf.part.0>
   139be:	e145                	bnez	a0,13a5e <ediv+0x122>
   139c0:	01440793          	addi	a5,s0,20
   139c4:	0409                	addi	s0,s0,2
   139c6:	fe041f23          	sh	zero,-2(s0)
   139ca:	fef41de3          	bne	s0,a5,139c4 <ediv+0x88>
   139ce:	60ee                	ld	ra,216(sp)
   139d0:	644e                	ld	s0,208(sp)
   139d2:	64ae                	ld	s1,200(sp)
   139d4:	690e                	ld	s2,192(sp)
   139d6:	79ea                	ld	s3,184(sp)
   139d8:	7a4a                	ld	s4,176(sp)
   139da:	7aaa                	ld	s5,168(sp)
   139dc:	7b0a                	ld	s6,160(sp)
   139de:	6bea                	ld	s7,152(sp)
   139e0:	6c4a                	ld	s8,144(sp)
   139e2:	6caa                	ld	s9,136(sp)
   139e4:	6d0a                	ld	s10,128(sp)
   139e6:	7de6                	ld	s11,120(sp)
   139e8:	612d                	addi	sp,sp,224
   139ea:	8082                	ret
   139ec:	854e                	mv	a0,s3
   139ee:	b28ff0ef          	jal	ra,12d16 <eisnan.part.0>
   139f2:	d949                	beqz	a0,13984 <ediv+0x48>
   139f4:	01498713          	addi	a4,s3,20
   139f8:	0009d783          	lhu	a5,0(s3)
   139fc:	0989                	addi	s3,s3,2
   139fe:	0409                	addi	s0,s0,2
   13a00:	fef41f23          	sh	a5,-2(s0)
   13a04:	fee99ae3          	bne	s3,a4,139f8 <ediv+0xbc>
   13a08:	b7d9                	j	139ce <ediv+0x92>
   13a0a:	06fa8863          	beq	s5,a5,13a7a <ediv+0x13e>
   13a0e:	854a                	mv	a0,s2
   13a10:	080c                	addi	a1,sp,16
   13a12:	b76ff0ef          	jal	ra,12d88 <emovi>
   13a16:	180c                	addi	a1,sp,48
   13a18:	854e                	mv	a0,s3
   13a1a:	b6eff0ef          	jal	ra,12d88 <emovi>
   13a1e:	03215b83          	lhu	s7,50(sp)
   13a22:	01215903          	lhu	s2,18(sp)
   13a26:	080b9c63          	bnez	s7,13abe <ediv+0x182>
   13a2a:	185c                	addi	a5,sp,52
   13a2c:	04810d93          	addi	s11,sp,72
   13a30:	28fd8563          	beq	s11,a5,13cba <ediv+0x37e>
   13a34:	0007d703          	lhu	a4,0(a5) # 8000 <main-0x80b0>
   13a38:	0789                	addi	a5,a5,2
   13a3a:	db7d                	beqz	a4,13a30 <ediv+0xf4>
   13a3c:	1808                	addi	a0,sp,48
   13a3e:	e5cff0ef          	jal	ra,1309a <enormlz>
   13a42:	40a007b3          	neg	a5,a0
   13a46:	01215603          	lhu	a2,18(sp)
   13a4a:	e43e                	sd	a5,8(sp)
   13a4c:	a89d                	j	13ac2 <ediv+0x186>
   13a4e:	00009597          	auipc	a1,0x9
   13a52:	9da58593          	addi	a1,a1,-1574 # 1c428 <ezero>
   13a56:	854e                	mv	a0,s3
   13a58:	be6ff0ef          	jal	ra,12e3e <ecmp>
   13a5c:	fd05                	bnez	a0,13994 <ediv+0x58>
   13a5e:	01040713          	addi	a4,s0,16
   13a62:	87a2                	mv	a5,s0
   13a64:	0789                	addi	a5,a5,2
   13a66:	fe079f23          	sh	zero,-2(a5)
   13a6a:	fee79de3          	bne	a5,a4,13a64 <ediv+0x128>
   13a6e:	7fffc7b7          	lui	a5,0x7fffc
   13a72:	c81c                	sw	a5,16(s0)
   13a74:	bfa9                	j	139ce <ediv+0x92>
   13a76:	f94a9ce3          	bne	s5,s4,13a0e <ediv+0xd2>
   13a7a:	854e                	mv	a0,s3
   13a7c:	c8aff0ef          	jal	ra,12f06 <eisinf.part.0>
   13a80:	d559                	beqz	a0,13a0e <ediv+0xd2>
   13a82:	854a                	mv	a0,s2
   13a84:	adaff0ef          	jal	ra,12d5e <eisneg>
   13a88:	84aa                	mv	s1,a0
   13a8a:	854e                	mv	a0,s3
   13a8c:	ad2ff0ef          	jal	ra,12d5e <eisneg>
   13a90:	40a487b3          	sub	a5,s1,a0
   13a94:	00f037b3          	snez	a5,a5
   13a98:	07be                	slli	a5,a5,0xf
   13a9a:	00f41923          	sh	a5,18(s0)
   13a9e:	01240713          	addi	a4,s0,18
   13aa2:	87a2                	mv	a5,s0
   13aa4:	0789                	addi	a5,a5,2
   13aa6:	fe079f23          	sh	zero,-2(a5) # 7fffbffe <__BSS_END__+0x7ffddcfe>
   13aaa:	fee79de3          	bne	a5,a4,13aa4 <ediv+0x168>
   13aae:	01245783          	lhu	a5,18(s0)
   13ab2:	6721                	lui	a4,0x8
   13ab4:	177d                	addi	a4,a4,-1
   13ab6:	8fd9                	or	a5,a5,a4
   13ab8:	00f41923          	sh	a5,18(s0)
   13abc:	bf09                	j	139ce <ediv+0x92>
   13abe:	e45e                	sd	s7,8(sp)
   13ac0:	864a                	mv	a2,s2
   13ac2:	e04a                	sd	s2,0(sp)
   13ac4:	085c                	addi	a5,sp,20
   13ac6:	1034                	addi	a3,sp,40
   13ac8:	ee09                	bnez	a2,13ae2 <ediv+0x1a6>
   13aca:	20f68063          	beq	a3,a5,13cca <ediv+0x38e>
   13ace:	0007d703          	lhu	a4,0(a5)
   13ad2:	0789                	addi	a5,a5,2
   13ad4:	db7d                	beqz	a4,13aca <ediv+0x18e>
   13ad6:	0808                	addi	a0,sp,16
   13ad8:	dc2ff0ef          	jal	ra,1309a <enormlz>
   13adc:	40a907b3          	sub	a5,s2,a0
   13ae0:	e03e                	sd	a5,0(sp)
   13ae2:	5742                	lw	a4,48(sp)
   13ae4:	03848d13          	addi	s10,s1,56
   13ae8:	87ea                	mv	a5,s10
   13aea:	d8d8                	sw	a4,52(s1)
   13aec:	04e48913          	addi	s2,s1,78
   13af0:	0789                	addi	a5,a5,2
   13af2:	fe079f23          	sh	zero,-2(a5)
   13af6:	fef91de3          	bne	s2,a5,13af0 <ediv+0x1b4>
   13afa:	1808                	addi	a0,sp,48
   13afc:	900ff0ef          	jal	ra,12bfc <eshdn1>
   13b00:	01615c03          	lhu	s8,22(sp)
   13b04:	6a41                	lui	s4,0x10
   13b06:	04810d93          	addi	s11,sp,72
   13b0a:	010c1a93          	slli	s5,s8,0x10
   13b0e:	418a8ab3          	sub	s5,s5,s8
   13b12:	03210b13          	addi	s6,sp,50
   13b16:	1a7d                	addi	s4,s4,-1
   13b18:	06a10c93          	addi	s9,sp,106
   13b1c:	05210993          	addi	s3,sp,82
   13b20:	03415783          	lhu	a5,52(sp)
   13b24:	03615703          	lhu	a4,54(sp)
   13b28:	8bd2                	mv	s7,s4
   13b2a:	07c2                	slli	a5,a5,0x10
   13b2c:	97ba                	add	a5,a5,a4
   13b2e:	00fae863          	bltu	s5,a5,13b3e <ediv+0x202>
   13b32:	0387d7b3          	divu	a5,a5,s8
   13b36:	03079b93          	slli	s7,a5,0x30
   13b3a:	030bdb93          	srli	s7,s7,0x30
   13b3e:	0890                	addi	a2,sp,80
   13b40:	080c                	addi	a1,sp,16
   13b42:	855e                	mv	a0,s7
   13b44:	95eff0ef          	jal	ra,12ca2 <m16m>
   13b48:	1858                	addi	a4,sp,52
   13b4a:	08dc                	addi	a5,sp,84
   13b4c:	0007d583          	lhu	a1,0(a5)
   13b50:	00075603          	lhu	a2,0(a4) # 8000 <main-0x80b0>
   13b54:	0789                	addi	a5,a5,2
   13b56:	0709                	addi	a4,a4,2
   13b58:	0cc59c63          	bne	a1,a2,13c30 <ediv+0x2f4>
   13b5c:	ff9798e3          	bne	a5,s9,13b4c <ediv+0x210>
   13b60:	4781                	li	a5,0
   13b62:	10ac                	addi	a1,sp,104
   13b64:	866e                	mv	a2,s11
   13b66:	00065703          	lhu	a4,0(a2)
   13b6a:	0005d803          	lhu	a6,0(a1)
   13b6e:	1679                	addi	a2,a2,-2
   13b70:	8f1d                	sub	a4,a4,a5
   13b72:	41070733          	sub	a4,a4,a6
   13b76:	01075793          	srli	a5,a4,0x10
   13b7a:	00e61123          	sh	a4,2(a2)
   13b7e:	8b85                	andi	a5,a5,1
   13b80:	15f9                	addi	a1,a1,-2
   13b82:	ff6612e3          	bne	a2,s6,13b66 <ediv+0x22a>
   13b86:	017d1023          	sh	s7,0(s10)
   13b8a:	185c                	addi	a5,sp,52
   13b8c:	0027d703          	lhu	a4,2(a5)
   13b90:	0789                	addi	a5,a5,2
   13b92:	fee79f23          	sh	a4,-2(a5)
   13b96:	ffb79be3          	bne	a5,s11,13b8c <ediv+0x250>
   13b9a:	04011423          	sh	zero,72(sp)
   13b9e:	0d09                	addi	s10,s10,2
   13ba0:	f9a910e3          	bne	s2,s10,13b20 <ediv+0x1e4>
   13ba4:	4581                	li	a1,0
   13ba6:	185c                	addi	a5,sp,52
   13ba8:	04a10693          	addi	a3,sp,74
   13bac:	0007d703          	lhu	a4,0(a5)
   13bb0:	0789                	addi	a5,a5,2
   13bb2:	8dd9                	or	a1,a1,a4
   13bb4:	fed79ce3          	bne	a5,a3,13bac <ediv+0x270>
   13bb8:	0105979b          	slliw	a5,a1,0x10
   13bbc:	4107d79b          	sraiw	a5,a5,0x10
   13bc0:	c391                	beqz	a5,13bc4 <ediv+0x288>
   13bc2:	4585                	li	a1,1
   13bc4:	15c2                	slli	a1,a1,0x30
   13bc6:	91c1                	srli	a1,a1,0x30
   13bc8:	03448713          	addi	a4,s1,52
   13bcc:	181c                	addi	a5,sp,48
   13bce:	00075603          	lhu	a2,0(a4)
   13bd2:	0789                	addi	a5,a5,2
   13bd4:	0709                	addi	a4,a4,2
   13bd6:	fec79f23          	sh	a2,-2(a5)
   13bda:	fef69ae3          	bne	a3,a5,13bce <ediv+0x292>
   13bde:	67a2                	ld	a5,8(sp)
   13be0:	6702                	ld	a4,0(sp)
   13be2:	6691                	lui	a3,0x4
   13be4:	16fd                	addi	a3,a3,-1
   13be6:	40e78bb3          	sub	s7,a5,a4
   13bea:	1808                	addi	a0,sp,48
   13bec:	87a6                	mv	a5,s1
   13bee:	04000713          	li	a4,64
   13bf2:	96de                	add	a3,a3,s7
   13bf4:	4601                	li	a2,0
   13bf6:	dc4ff0ef          	jal	ra,131ba <emdnorm>
   13bfa:	03015703          	lhu	a4,48(sp)
   13bfe:	01015783          	lhu	a5,16(sp)
   13c02:	85a2                	mv	a1,s0
   13c04:	1808                	addi	a0,sp,48
