
aes:     file format elf64-littleriscv


Disassembly of section .text:

00000000000100b0 <.text>:
   100b0:	7179                	addi	sp,sp,-48
   100b2:	f022                	sd	s0,32(sp)
   100b4:	842a                	mv	s0,a0
   100b6:	00021537          	lui	a0,0x21
   100ba:	96050513          	addi	a0,a0,-1696 # 0x20960
   100be:	ec26                	sd	s1,24(sp)
   100c0:	f406                	sd	ra,40(sp)
   100c2:	e84a                	sd	s2,16(sp)
   100c4:	e44e                	sd	s3,8(sp)
   100c6:	e052                	sd	s4,0(sp)
   100c8:	84ae                	mv	s1,a1
   100ca:	6c1020ef          	jal	ra,0x12f8a
   100ce:	4791                	li	a5,4
   100d0:	1287c263          	blt	a5,s0,0x101f4
   100d4:	4785                	li	a5,1
   100d6:	0e87da63          	bge	a5,s0,0x101ca
   100da:	0084ba03          	ld	s4,8(s1)
   100de:	4789                	li	a5,2
   100e0:	0e87c263          	blt	a5,s0,0x101c4
   100e4:	000219b7          	lui	s3,0x21
   100e8:	94098993          	addi	s3,s3,-1728 # 0x20940
   100ec:	4791                	li	a5,4
   100ee:	0ef40363          	beq	s0,a5,0x101d4
   100f2:	000214b7          	lui	s1,0x21
   100f6:	95048493          	addi	s1,s1,-1712 # 0x20950
   100fa:	7481a503          	lw	a0,1864(gp)
   100fe:	5f6020ef          	jal	ra,0x126f4
   10102:	842a                	mv	s0,a0
   10104:	10050563          	beqz	a0,0x1020e
   10108:	4581                	li	a1,0
   1010a:	8552                	mv	a0,s4
   1010c:	0f0040ef          	jal	ra,0x141fc
   10110:	10a05d63          	blez	a0,0x1022a
   10114:	85a2                	mv	a1,s0
   10116:	2a8010ef          	jal	ra,0x113be
   1011a:	00021537          	lui	a0,0x21
   1011e:	a2050513          	addi	a0,a0,-1504 # 0x20a20
   10122:	669020ef          	jal	ra,0x12f8a
   10126:	8522                	mv	a0,s0
   10128:	28c010ef          	jal	ra,0x113b4
   1012c:	00021537          	lui	a0,0x21
   10130:	a4850513          	addi	a0,a0,-1464 # 0x20a48
   10134:	657020ef          	jal	ra,0x12f8a
   10138:	8526                	mv	a0,s1
   1013a:	1b600613          	li	a2,438
   1013e:	60100593          	li	a1,1537
   10142:	0ba040ef          	jal	ra,0x141fc
   10146:	84aa                	mv	s1,a0
   10148:	0ea05f63          	blez	a0,0x10246
   1014c:	85a2                	mv	a1,s0
   1014e:	338010ef          	jal	ra,0x11486
   10152:	8526                	mv	a0,s1
   10154:	092040ef          	jal	ra,0x141e6
   10158:	00021537          	lui	a0,0x21
   1015c:	a9050513          	addi	a0,a0,-1392 # 0x20a90
   10160:	62b020ef          	jal	ra,0x12f8a
   10164:	7481a503          	lw	a0,1864(gp)
   10168:	58c020ef          	jal	ra,0x126f4
   1016c:	84aa                	mv	s1,a0
   1016e:	0e050a63          	beqz	a0,0x10262
   10172:	4581                	li	a1,0
   10174:	854e                	mv	a0,s3
   10176:	086040ef          	jal	ra,0x141fc
   1017a:	10a05263          	blez	a0,0x1027e
   1017e:	85a6                	mv	a1,s1
   10180:	2c8010ef          	jal	ra,0x11448
   10184:	00021537          	lui	a0,0x21
   10188:	af850513          	addi	a0,a0,-1288 # 0x20af8
   1018c:	5ff020ef          	jal	ra,0x12f8a
   10190:	85a6                	mv	a1,s1
   10192:	8522                	mv	a0,s0
   10194:	316010ef          	jal	ra,0x114aa
   10198:	c121                	beqz	a0,0x101d8
   1019a:	8522                	mv	a0,s0
   1019c:	560020ef          	jal	ra,0x126fc
   101a0:	8526                	mv	a0,s1
   101a2:	55a020ef          	jal	ra,0x126fc
   101a6:	00021537          	lui	a0,0x21
   101aa:	b3850513          	addi	a0,a0,-1224 # 0x20b38
   101ae:	5dd020ef          	jal	ra,0x12f8a
   101b2:	4501                	li	a0,0
   101b4:	70a2                	ld	ra,40(sp)
   101b6:	7402                	ld	s0,32(sp)
   101b8:	64e2                	ld	s1,24(sp)
   101ba:	6942                	ld	s2,16(sp)
   101bc:	69a2                	ld	s3,8(sp)
   101be:	6a02                	ld	s4,0(sp)
   101c0:	6145                	addi	sp,sp,48
   101c2:	8082                	ret
   101c4:	0104b983          	ld	s3,16(s1)
   101c8:	b715                	j	0x100ec
   101ca:	00021a37          	lui	s4,0x21
   101ce:	930a0a13          	addi	s4,s4,-1744 # 0x20930
   101d2:	b731                	j	0x100de
   101d4:	6c84                	ld	s1,24(s1)
   101d6:	b715                	j	0x100fa
   101d8:	7501b783          	ld	a5,1872(gp)
   101dc:	00021537          	lui	a0,0x21
   101e0:	02000613          	li	a2,32
   101e4:	6f94                	ld	a3,24(a5)
   101e6:	4585                	li	a1,1
   101e8:	b1050513          	addi	a0,a0,-1264 # 0x20b10
   101ec:	490020ef          	jal	ra,0x1267c
   101f0:	557d                	li	a0,-1
   101f2:	b7c9                	j	0x101b4
   101f4:	000216b7          	lui	a3,0x21
   101f8:	00021537          	lui	a0,0x21
   101fc:	97068693          	addi	a3,a3,-1680 # 0x20970
   10200:	73018613          	addi	a2,gp,1840
   10204:	45dd                	li	a1,23
   10206:	9b850513          	addi	a0,a0,-1608 # 0x209b8
   1020a:	2f8020ef          	jal	ra,0x12502
   1020e:	000216b7          	lui	a3,0x21
   10212:	00021537          	lui	a0,0x21
   10216:	9d068693          	addi	a3,a3,-1584 # 0x209d0
   1021a:	73018613          	addi	a2,gp,1840
   1021e:	02a00593          	li	a1,42
   10222:	9b850513          	addi	a0,a0,-1608 # 0x209b8
   10226:	2dc020ef          	jal	ra,0x12502
   1022a:	000216b7          	lui	a3,0x21
   1022e:	00021537          	lui	a0,0x21
   10232:	9f068693          	addi	a3,a3,-1552 # 0x209f0
   10236:	73018613          	addi	a2,gp,1840
   1023a:	02c00593          	li	a1,44
   1023e:	9b850513          	addi	a0,a0,-1608 # 0x209b8
   10242:	2c0020ef          	jal	ra,0x12502
   10246:	000216b7          	lui	a3,0x21
   1024a:	00021537          	lui	a0,0x21
   1024e:	a6068693          	addi	a3,a3,-1440 # 0x20a60
   10252:	73018613          	addi	a2,gp,1840
   10256:	03800593          	li	a1,56
   1025a:	9b850513          	addi	a0,a0,-1608 # 0x209b8
   1025e:	2a4020ef          	jal	ra,0x12502
   10262:	000216b7          	lui	a3,0x21
   10266:	00021537          	lui	a0,0x21
   1026a:	aa868693          	addi	a3,a3,-1368 # 0x20aa8
   1026e:	73018613          	addi	a2,gp,1840
   10272:	04300593          	li	a1,67
   10276:	9b850513          	addi	a0,a0,-1608 # 0x209b8
   1027a:	288020ef          	jal	ra,0x12502
   1027e:	000216b7          	lui	a3,0x21
   10282:	00021537          	lui	a0,0x21
   10286:	ac868693          	addi	a3,a3,-1336 # 0x20ac8
   1028a:	73018613          	addi	a2,gp,1840
   1028e:	04500593          	li	a1,69
   10292:	9b850513          	addi	a0,a0,-1608 # 0x209b8
   10296:	26c020ef          	jal	ra,0x12502
   1029a:	ffff0797          	auipc	a5,0xffff0
   1029e:	d6678793          	addi	a5,a5,-666 # 0x0
   102a2:	c799                	beqz	a5,0x102b0
   102a4:	00007517          	auipc	a0,0x7
   102a8:	10650513          	addi	a0,a0,262 # 0x173aa
   102ac:	3cf0d06f          	j	0x1de7a
   102b0:	8082                	ret
   102b2:	00013197          	auipc	gp,0x13
   102b6:	29e18193          	addi	gp,gp,670 # 0x23550
   102ba:	76a18513          	addi	a0,gp,1898
   102be:	00014617          	auipc	a2,0x14
   102c2:	a9260613          	addi	a2,a2,-1390 # 0x23d50
   102c6:	8e09                	sub	a2,a2,a0
   102c8:	4581                	li	a1,0
   102ca:	393020ef          	jal	ra,0x12e5c
   102ce:	0000e517          	auipc	a0,0xe
   102d2:	bac50513          	addi	a0,a0,-1108 # 0x1de7a
   102d6:	c519                	beqz	a0,0x102e4
   102d8:	00007517          	auipc	a0,0x7
   102dc:	0d250513          	addi	a0,a0,210 # 0x173aa
   102e0:	39b0d0ef          	jal	ra,0x1de7a
   102e4:	3a6020ef          	jal	ra,0x1268a
   102e8:	4502                	lw	a0,0(sp)
   102ea:	002c                	addi	a1,sp,8
   102ec:	4601                	li	a2,0
   102ee:	dc3ff0ef          	jal	ra,0x100b0
   102f2:	25c0206f          	j	0x1254e
   102f6:	79818793          	addi	a5,gp,1944
   102fa:	0007c703          	lbu	a4,0(a5)
   102fe:	eb0d                	bnez	a4,0x10330
   10300:	1141                	addi	sp,sp,-16
   10302:	e022                	sd	s0,0(sp)
   10304:	e406                	sd	ra,8(sp)
   10306:	843e                	mv	s0,a5
   10308:	ffff0797          	auipc	a5,0xffff0
   1030c:	cf878793          	addi	a5,a5,-776 # 0x0
   10310:	cb89                	beqz	a5,0x10322
   10312:	00012517          	auipc	a0,0x12
   10316:	7ce50513          	addi	a0,a0,1998 # 0x22ae0
   1031a:	00000097          	auipc	ra,0x0
   1031e:	000000e7          	jalr	zero # 0x0
   10322:	4785                	li	a5,1
   10324:	60a2                	ld	ra,8(sp)
   10326:	00f40023          	sb	a5,0(s0)
   1032a:	6402                	ld	s0,0(sp)
   1032c:	0141                	addi	sp,sp,16
   1032e:	8082                	ret
   10330:	8082                	ret
   10332:	ffff0797          	auipc	a5,0xffff0
   10336:	cce78793          	addi	a5,a5,-818 # 0x0
   1033a:	cb99                	beqz	a5,0x10350
   1033c:	7a018593          	addi	a1,gp,1952
   10340:	00012517          	auipc	a0,0x12
   10344:	7a050513          	addi	a0,a0,1952 # 0x22ae0
   10348:	00000317          	auipc	t1,0x0
   1034c:	00000067          	jr	zero # 0x0
   10350:	8082                	ret
   10352:	0185179b          	slliw	a5,a0,0x18
   10356:	4187d79b          	sraiw	a5,a5,0x18
   1035a:	0007c763          	bltz	a5,0x10368
   1035e:	0015151b          	slliw	a0,a0,0x1
   10362:	0ff57513          	andi	a0,a0,255
   10366:	8082                	ret
   10368:	0506                	slli	a0,a0,0x1
   1036a:	01b54513          	xori	a0,a0,27
   1036e:	0ff57513          	andi	a0,a0,255
   10372:	8082                	ret
   10374:	00f54f83          	lbu	t6,15(a0)
   10378:	00e54f03          	lbu	t5,14(a0)
   1037c:	00d54e83          	lbu	t4,13(a0)
   10380:	00c54e03          	lbu	t3,12(a0)
   10384:	00b54303          	lbu	t1,11(a0)
   10388:	00a54883          	lbu	a7,10(a0)
   1038c:	00954803          	lbu	a6,9(a0)
   10390:	00854583          	lbu	a1,8(a0)
   10394:	00754603          	lbu	a2,7(a0)
   10398:	00654683          	lbu	a3,6(a0)
   1039c:	00554703          	lbu	a4,5(a0)
   103a0:	000207b7          	lui	a5,0x20
   103a4:	3a078793          	addi	a5,a5,928 # 0x203a0
   103a8:	9fbe                	add	t6,t6,a5
   103aa:	9f3e                	add	t5,t5,a5
   103ac:	9ebe                	add	t4,t4,a5
   103ae:	9e3e                	add	t3,t3,a5
   103b0:	933e                	add	t1,t1,a5
   103b2:	98be                	add	a7,a7,a5
   103b4:	983e                	add	a6,a6,a5
   103b6:	95be                	add	a1,a1,a5
   103b8:	963e                	add	a2,a2,a5
   103ba:	96be                	add	a3,a3,a5
   103bc:	00084803          	lbu	a6,0(a6)
   103c0:	0005c583          	lbu	a1,0(a1)
   103c4:	00064603          	lbu	a2,0(a2)
   103c8:	0006c683          	lbu	a3,0(a3)
   103cc:	000fcf83          	lbu	t6,0(t6)
   103d0:	000f4f03          	lbu	t5,0(t5)
   103d4:	000ece83          	lbu	t4,0(t4)
   103d8:	000e4e03          	lbu	t3,0(t3)
   103dc:	00034303          	lbu	t1,0(t1) # 0x10348
   103e0:	0008c883          	lbu	a7,0(a7)
   103e4:	973e                	add	a4,a4,a5
   103e6:	00074703          	lbu	a4,0(a4)
   103ea:	010504a3          	sb	a6,9(a0)
   103ee:	00b50423          	sb	a1,8(a0)
   103f2:	00c503a3          	sb	a2,7(a0)
   103f6:	00d50323          	sb	a3,6(a0)
   103fa:	01f507a3          	sb	t6,15(a0)
   103fe:	01e50723          	sb	t5,14(a0)
   10402:	01d506a3          	sb	t4,13(a0)
   10406:	01c50623          	sb	t3,12(a0)
   1040a:	006505a3          	sb	t1,11(a0)
   1040e:	01150523          	sb	a7,10(a0)
   10412:	00e502a3          	sb	a4,5(a0)
   10416:	00454583          	lbu	a1,4(a0)
   1041a:	00354603          	lbu	a2,3(a0)
   1041e:	00254683          	lbu	a3,2(a0)
   10422:	00154703          	lbu	a4,1(a0)
   10426:	00054803          	lbu	a6,0(a0)
   1042a:	95be                	add	a1,a1,a5
   1042c:	963e                	add	a2,a2,a5
   1042e:	96be                	add	a3,a3,a5
   10430:	973e                	add	a4,a4,a5
   10432:	97c2                	add	a5,a5,a6
   10434:	0005c583          	lbu	a1,0(a1)
   10438:	00064603          	lbu	a2,0(a2)
   1043c:	0006c683          	lbu	a3,0(a3)
   10440:	00074703          	lbu	a4,0(a4)
   10444:	0007c783          	lbu	a5,0(a5)
   10448:	00b50223          	sb	a1,4(a0)
   1044c:	00c501a3          	sb	a2,3(a0)
   10450:	00d50123          	sb	a3,2(a0)
   10454:	00e500a3          	sb	a4,1(a0)
   10458:	00f50023          	sb	a5,0(a0)
   1045c:	8082                	ret
   1045e:	00f5c603          	lbu	a2,15(a1)
   10462:	00f54783          	lbu	a5,15(a0)
   10466:	00e54683          	lbu	a3,14(a0)
   1046a:	00d54703          	lbu	a4,13(a0)
   1046e:	8fb1                	xor	a5,a5,a2
   10470:	00f507a3          	sb	a5,15(a0)
   10474:	00e5c603          	lbu	a2,14(a1)
   10478:	00c54783          	lbu	a5,12(a0)
   1047c:	00b54303          	lbu	t1,11(a0)
   10480:	8eb1                	xor	a3,a3,a2
   10482:	00d50723          	sb	a3,14(a0)
   10486:	00d5c683          	lbu	a3,13(a1)
   1048a:	00a54883          	lbu	a7,10(a0)
   1048e:	00954803          	lbu	a6,9(a0)
   10492:	8f35                	xor	a4,a4,a3
   10494:	00e506a3          	sb	a4,13(a0)
   10498:	00c5c703          	lbu	a4,12(a1)
   1049c:	00854603          	lbu	a2,8(a0)
   104a0:	00754683          	lbu	a3,7(a0)
   104a4:	8fb9                	xor	a5,a5,a4
   104a6:	00f50623          	sb	a5,12(a0)
   104aa:	00b5ce03          	lbu	t3,11(a1)
   104ae:	00654703          	lbu	a4,6(a0)
   104b2:	00554783          	lbu	a5,5(a0)
   104b6:	01c34333          	xor	t1,t1,t3
   104ba:	006505a3          	sb	t1,11(a0)
   104be:	00a5c303          	lbu	t1,10(a1)
   104c2:	0068c8b3          	xor	a7,a7,t1
   104c6:	01150523          	sb	a7,10(a0)
   104ca:	0095c883          	lbu	a7,9(a1)
   104ce:	01184833          	xor	a6,a6,a7
   104d2:	010504a3          	sb	a6,9(a0)
   104d6:	0085c803          	lbu	a6,8(a1)
   104da:	01064633          	xor	a2,a2,a6
   104de:	00c50423          	sb	a2,8(a0)
   104e2:	0075c603          	lbu	a2,7(a1)
   104e6:	8eb1                	xor	a3,a3,a2
   104e8:	00d503a3          	sb	a3,7(a0)
   104ec:	0065c683          	lbu	a3,6(a1)
   104f0:	8f35                	xor	a4,a4,a3
   104f2:	00e50323          	sb	a4,6(a0)
   104f6:	0055c703          	lbu	a4,5(a1)
   104fa:	8fb9                	xor	a5,a5,a4
   104fc:	00f502a3          	sb	a5,5(a0)
   10500:	0045c703          	lbu	a4,4(a1)
   10504:	00454783          	lbu	a5,4(a0)
   10508:	00354603          	lbu	a2,3(a0)
   1050c:	00254683          	lbu	a3,2(a0)
   10510:	8fb9                	xor	a5,a5,a4
   10512:	00f50223          	sb	a5,4(a0)
   10516:	0035c803          	lbu	a6,3(a1)
   1051a:	00154703          	lbu	a4,1(a0)
   1051e:	00054783          	lbu	a5,0(a0)
   10522:	01064633          	xor	a2,a2,a6
   10526:	00c501a3          	sb	a2,3(a0)
   1052a:	0025c603          	lbu	a2,2(a1)
   1052e:	8eb1                	xor	a3,a3,a2
   10530:	00d50123          	sb	a3,2(a0)
   10534:	0015c683          	lbu	a3,1(a1)
   10538:	8f35                	xor	a4,a4,a3
   1053a:	00e500a3          	sb	a4,1(a0)
   1053e:	0005c703          	lbu	a4,0(a1)
   10542:	8fb9                	xor	a5,a5,a4
   10544:	00f50023          	sb	a5,0(a0)
   10548:	8082                	ret
   1054a:	00f5c783          	lbu	a5,15(a1)
   1054e:	00f607a3          	sb	a5,15(a2)
   10552:	00f54703          	lbu	a4,15(a0)
   10556:	8fb9                	xor	a5,a5,a4
   10558:	00f507a3          	sb	a5,15(a0)
   1055c:	01f5c783          	lbu	a5,31(a1)
   10560:	00f60fa3          	sb	a5,31(a2)
   10564:	00e5c783          	lbu	a5,14(a1)
   10568:	00f60723          	sb	a5,14(a2)
   1056c:	00e54703          	lbu	a4,14(a0)
   10570:	8fb9                	xor	a5,a5,a4
   10572:	00f50723          	sb	a5,14(a0)
   10576:	01e5c783          	lbu	a5,30(a1)
   1057a:	00f60f23          	sb	a5,30(a2)
   1057e:	00d5c783          	lbu	a5,13(a1)
   10582:	00f606a3          	sb	a5,13(a2)
   10586:	00d54703          	lbu	a4,13(a0)
   1058a:	8fb9                	xor	a5,a5,a4
   1058c:	00f506a3          	sb	a5,13(a0)
   10590:	01d5c783          	lbu	a5,29(a1)
   10594:	00f60ea3          	sb	a5,29(a2)
   10598:	00c5c783          	lbu	a5,12(a1)
   1059c:	00f60623          	sb	a5,12(a2)
   105a0:	00c54703          	lbu	a4,12(a0)
   105a4:	8fb9                	xor	a5,a5,a4
   105a6:	00f50623          	sb	a5,12(a0)
   105aa:	01c5c783          	lbu	a5,28(a1)
   105ae:	00f60e23          	sb	a5,28(a2)
   105b2:	00b5c783          	lbu	a5,11(a1)
   105b6:	00f605a3          	sb	a5,11(a2)
   105ba:	00b54703          	lbu	a4,11(a0)
   105be:	8fb9                	xor	a5,a5,a4
   105c0:	00f505a3          	sb	a5,11(a0)
   105c4:	01b5c783          	lbu	a5,27(a1)
   105c8:	00f60da3          	sb	a5,27(a2)
   105cc:	00a5c783          	lbu	a5,10(a1)
   105d0:	00f60523          	sb	a5,10(a2)
   105d4:	00a54703          	lbu	a4,10(a0)
   105d8:	8fb9                	xor	a5,a5,a4
   105da:	00f50523          	sb	a5,10(a0)
   105de:	01a5c783          	lbu	a5,26(a1)
   105e2:	00f60d23          	sb	a5,26(a2)
   105e6:	0095c783          	lbu	a5,9(a1)
   105ea:	00f604a3          	sb	a5,9(a2)
   105ee:	00954703          	lbu	a4,9(a0)
   105f2:	8fb9                	xor	a5,a5,a4
   105f4:	00f504a3          	sb	a5,9(a0)
   105f8:	0195c783          	lbu	a5,25(a1)
   105fc:	00f60ca3          	sb	a5,25(a2)
   10600:	0085c783          	lbu	a5,8(a1)
   10604:	00f60423          	sb	a5,8(a2)
   10608:	00854703          	lbu	a4,8(a0)
   1060c:	8fb9                	xor	a5,a5,a4
   1060e:	00f50423          	sb	a5,8(a0)
   10612:	0185c783          	lbu	a5,24(a1)
   10616:	00f60c23          	sb	a5,24(a2)
   1061a:	0075c783          	lbu	a5,7(a1)
   1061e:	00f603a3          	sb	a5,7(a2)
   10622:	00754703          	lbu	a4,7(a0)
   10626:	8fb9                	xor	a5,a5,a4
   10628:	00f503a3          	sb	a5,7(a0)
   1062c:	0175c783          	lbu	a5,23(a1)
   10630:	00f60ba3          	sb	a5,23(a2)
   10634:	0065c783          	lbu	a5,6(a1)
   10638:	00f60323          	sb	a5,6(a2)
   1063c:	00654703          	lbu	a4,6(a0)
   10640:	8fb9                	xor	a5,a5,a4
   10642:	00f50323          	sb	a5,6(a0)
   10646:	0165c783          	lbu	a5,22(a1)
   1064a:	00f60b23          	sb	a5,22(a2)
   1064e:	0055c783          	lbu	a5,5(a1)
   10652:	00f602a3          	sb	a5,5(a2)
   10656:	00554703          	lbu	a4,5(a0)
   1065a:	8fb9                	xor	a5,a5,a4
   1065c:	00f502a3          	sb	a5,5(a0)
   10660:	0155c783          	lbu	a5,21(a1)
   10664:	00f60aa3          	sb	a5,21(a2)
   10668:	0045c783          	lbu	a5,4(a1)
   1066c:	00f60223          	sb	a5,4(a2)
   10670:	00454703          	lbu	a4,4(a0)
   10674:	8fb9                	xor	a5,a5,a4
   10676:	00f50223          	sb	a5,4(a0)
   1067a:	0145c783          	lbu	a5,20(a1)
   1067e:	00f60a23          	sb	a5,20(a2)
   10682:	0035c783          	lbu	a5,3(a1)
   10686:	00f601a3          	sb	a5,3(a2)
   1068a:	00354703          	lbu	a4,3(a0)
   1068e:	8fb9                	xor	a5,a5,a4
   10690:	00f501a3          	sb	a5,3(a0)
   10694:	0135c783          	lbu	a5,19(a1)
   10698:	00f609a3          	sb	a5,19(a2)
   1069c:	0025c783          	lbu	a5,2(a1)
   106a0:	00f60123          	sb	a5,2(a2)
   106a4:	00254703          	lbu	a4,2(a0)
   106a8:	8fb9                	xor	a5,a5,a4
   106aa:	00f50123          	sb	a5,2(a0)
   106ae:	0125c783          	lbu	a5,18(a1)
   106b2:	00f60923          	sb	a5,18(a2)
   106b6:	0015c783          	lbu	a5,1(a1)
   106ba:	00f600a3          	sb	a5,1(a2)
   106be:	00154703          	lbu	a4,1(a0)
   106c2:	8fb9                	xor	a5,a5,a4
   106c4:	00f500a3          	sb	a5,1(a0)
   106c8:	0115c783          	lbu	a5,17(a1)
   106cc:	00f608a3          	sb	a5,17(a2)
   106d0:	0005c783          	lbu	a5,0(a1)
   106d4:	00f60023          	sb	a5,0(a2)
   106d8:	00054703          	lbu	a4,0(a0)
   106dc:	8fb9                	xor	a5,a5,a4
   106de:	00f50023          	sb	a5,0(a0)
   106e2:	0105c783          	lbu	a5,16(a1)
   106e6:	00f60823          	sb	a5,16(a2)
   106ea:	8082                	ret
   106ec:	00154e03          	lbu	t3,1(a0)
   106f0:	00554f83          	lbu	t6,5(a0)
   106f4:	00954f03          	lbu	t5,9(a0)
   106f8:	00d54e83          	lbu	t4,13(a0)
   106fc:	00a54883          	lbu	a7,10(a0)
   10700:	00254303          	lbu	t1,2(a0)
   10704:	00354683          	lbu	a3,3(a0)
   10708:	00f54803          	lbu	a6,15(a0)
   1070c:	00b54583          	lbu	a1,11(a0)
   10710:	00754603          	lbu	a2,7(a0)
   10714:	00e54783          	lbu	a5,14(a0)
   10718:	00654703          	lbu	a4,6(a0)
   1071c:	01f500a3          	sb	t6,1(a0)
   10720:	01e502a3          	sb	t5,5(a0)
   10724:	01d504a3          	sb	t4,9(a0)
   10728:	01c506a3          	sb	t3,13(a0)
   1072c:	00650523          	sb	t1,10(a0)
   10730:	01150123          	sb	a7,2(a0)
   10734:	010501a3          	sb	a6,3(a0)
   10738:	00b507a3          	sb	a1,15(a0)
   1073c:	00c505a3          	sb	a2,11(a0)
   10740:	00d503a3          	sb	a3,7(a0)
   10744:	00e50723          	sb	a4,14(a0)
   10748:	00f50323          	sb	a5,6(a0)
   1074c:	8082                	ret
   1074e:	00054783          	lbu	a5,0(a0)
   10752:	00154883          	lbu	a7,1(a0)
   10756:	00254583          	lbu	a1,2(a0)
   1075a:	00354803          	lbu	a6,3(a0)
   1075e:	0117c6b3          	xor	a3,a5,a7
   10762:	0186961b          	slliw	a2,a3,0x18
   10766:	0105c733          	xor	a4,a1,a6
   1076a:	4186561b          	sraiw	a2,a2,0x18
   1076e:	00e6c333          	xor	t1,a3,a4
   10772:	2e064e63          	bltz	a2,0x10a6e
   10776:	0016969b          	slliw	a3,a3,0x1
   1077a:	0ff6f693          	andi	a3,a3,255
   1077e:	0066c6b3          	xor	a3,a3,t1
   10782:	8ebd                	xor	a3,a3,a5
   10784:	00b8c633          	xor	a2,a7,a1
   10788:	00d50023          	sb	a3,0(a0)
   1078c:	0186169b          	slliw	a3,a2,0x18
   10790:	4186d69b          	sraiw	a3,a3,0x18
   10794:	2c06c663          	bltz	a3,0x10a60
   10798:	0016169b          	slliw	a3,a2,0x1
   1079c:	0ff6f693          	andi	a3,a3,255
   107a0:	0066c6b3          	xor	a3,a3,t1
   107a4:	0116c6b3          	xor	a3,a3,a7
   107a8:	00d500a3          	sb	a3,1(a0)
   107ac:	0187169b          	slliw	a3,a4,0x18
   107b0:	4186d69b          	sraiw	a3,a3,0x18
   107b4:	2a06c063          	bltz	a3,0x10a54
   107b8:	0017171b          	slliw	a4,a4,0x1
   107bc:	0ff77713          	andi	a4,a4,255
   107c0:	00674733          	xor	a4,a4,t1
   107c4:	8f2d                	xor	a4,a4,a1
   107c6:	0107c7b3          	xor	a5,a5,a6
   107ca:	00e50123          	sb	a4,2(a0)
   107ce:	0187971b          	slliw	a4,a5,0x18
   107d2:	4187571b          	sraiw	a4,a4,0x18
   107d6:	26074963          	bltz	a4,0x10a48
   107da:	0017979b          	slliw	a5,a5,0x1
   107de:	0ff7f793          	andi	a5,a5,255
   107e2:	00454603          	lbu	a2,4(a0)
   107e6:	00554e03          	lbu	t3,5(a0)
   107ea:	0067c7b3          	xor	a5,a5,t1
   107ee:	00654883          	lbu	a7,6(a0)
   107f2:	00754583          	lbu	a1,7(a0)
   107f6:	00ce46b3          	xor	a3,t3,a2
   107fa:	0107c7b3          	xor	a5,a5,a6
   107fe:	00f501a3          	sb	a5,3(a0)
   10802:	0186979b          	slliw	a5,a3,0x18
   10806:	0115c733          	xor	a4,a1,a7
   1080a:	4187d79b          	sraiw	a5,a5,0x18
   1080e:	00d74333          	xor	t1,a4,a3
   10812:	2207c563          	bltz	a5,0x10a3c
   10816:	0016969b          	slliw	a3,a3,0x1
   1081a:	0ff6f693          	andi	a3,a3,255
   1081e:	00d346b3          	xor	a3,t1,a3
   10822:	01c8c833          	xor	a6,a7,t3
   10826:	8eb1                	xor	a3,a3,a2
   10828:	0188179b          	slliw	a5,a6,0x18
   1082c:	00d50223          	sb	a3,4(a0)
   10830:	4187d79b          	sraiw	a5,a5,0x18
   10834:	1e07cd63          	bltz	a5,0x10a2e
   10838:	0018169b          	slliw	a3,a6,0x1
   1083c:	0ff6f693          	andi	a3,a3,255
   10840:	00d346b3          	xor	a3,t1,a3
   10844:	01c6c6b3          	xor	a3,a3,t3
   10848:	0187179b          	slliw	a5,a4,0x18
   1084c:	00d502a3          	sb	a3,5(a0)
   10850:	4187d79b          	sraiw	a5,a5,0x18
   10854:	1c07c663          	bltz	a5,0x10a20
   10858:	0017179b          	slliw	a5,a4,0x1
   1085c:	0ff7f793          	andi	a5,a5,255
   10860:	00f347b3          	xor	a5,t1,a5
   10864:	0117c7b3          	xor	a5,a5,a7
   10868:	8e2d                	xor	a2,a2,a1
   1086a:	00f50323          	sb	a5,6(a0)
   1086e:	0186179b          	slliw	a5,a2,0x18
   10872:	4187d79b          	sraiw	a5,a5,0x18
   10876:	1807cf63          	bltz	a5,0x10a14
   1087a:	0016161b          	slliw	a2,a2,0x1
   1087e:	0ff67613          	andi	a2,a2,255
   10882:	00854683          	lbu	a3,8(a0)
   10886:	00954e03          	lbu	t3,9(a0)
   1088a:	00a54883          	lbu	a7,10(a0)
   1088e:	00b54803          	lbu	a6,11(a0)
   10892:	00c34633          	xor	a2,t1,a2
   10896:	01c6c733          	xor	a4,a3,t3
   1089a:	8db1                	xor	a1,a1,a2
   1089c:	0187161b          	slliw	a2,a4,0x18
   108a0:	0108c7b3          	xor	a5,a7,a6
   108a4:	00b503a3          	sb	a1,7(a0)
   108a8:	4186561b          	sraiw	a2,a2,0x18
   108ac:	00f745b3          	xor	a1,a4,a5
   108b0:	14064c63          	bltz	a2,0x10a08
   108b4:	0017171b          	slliw	a4,a4,0x1
   108b8:	0ff77713          	andi	a4,a4,255
   108bc:	8f2d                	xor	a4,a4,a1
   108be:	8f35                	xor	a4,a4,a3
   108c0:	011e4633          	xor	a2,t3,a7
   108c4:	00e50423          	sb	a4,8(a0)
   108c8:	0186171b          	slliw	a4,a2,0x18
   108cc:	4187571b          	sraiw	a4,a4,0x18
   108d0:	12074563          	bltz	a4,0x109fa
   108d4:	0016171b          	slliw	a4,a2,0x1
   108d8:	0ff77713          	andi	a4,a4,255
   108dc:	8f2d                	xor	a4,a4,a1
   108de:	01c74733          	xor	a4,a4,t3
   108e2:	00e504a3          	sb	a4,9(a0)
   108e6:	0187971b          	slliw	a4,a5,0x18
   108ea:	4187571b          	sraiw	a4,a4,0x18
   108ee:	10074063          	bltz	a4,0x109ee
   108f2:	0017979b          	slliw	a5,a5,0x1
   108f6:	0ff7f793          	andi	a5,a5,255
   108fa:	8fad                	xor	a5,a5,a1
   108fc:	0117c7b3          	xor	a5,a5,a7
   10900:	0106c6b3          	xor	a3,a3,a6
   10904:	00f50523          	sb	a5,10(a0)
   10908:	0186979b          	slliw	a5,a3,0x18
   1090c:	4187d79b          	sraiw	a5,a5,0x18
   10910:	0c07c963          	bltz	a5,0x109e2
   10914:	0016969b          	slliw	a3,a3,0x1
   10918:	0ff6f693          	andi	a3,a3,255
   1091c:	00c54703          	lbu	a4,12(a0)
   10920:	00d54303          	lbu	t1,13(a0)
   10924:	00e54e83          	lbu	t4,14(a0)
   10928:	00f54e03          	lbu	t3,15(a0)
   1092c:	8ead                	xor	a3,a3,a1
   1092e:	00e347b3          	xor	a5,t1,a4
   10932:	0106c833          	xor	a6,a3,a6
   10936:	0187961b          	slliw	a2,a5,0x18
   1093a:	0017969b          	slliw	a3,a5,0x1
   1093e:	01de48b3          	xor	a7,t3,t4
   10942:	010505a3          	sb	a6,11(a0)
   10946:	4186561b          	sraiw	a2,a2,0x18
   1094a:	00f8c7b3          	xor	a5,a7,a5
   1094e:	0ff6f593          	andi	a1,a3,255
   10952:	00065663          	bgez	a2,0x1095e
   10956:	01b6c593          	xori	a1,a3,27
   1095a:	0ff5f593          	andi	a1,a1,255
   1095e:	006ec6b3          	xor	a3,t4,t1
   10962:	8dbd                	xor	a1,a1,a5
   10964:	0016981b          	slliw	a6,a3,0x1
   10968:	8db9                	xor	a1,a1,a4
   1096a:	0186969b          	slliw	a3,a3,0x18
   1096e:	00b50623          	sb	a1,12(a0)
   10972:	4186d69b          	sraiw	a3,a3,0x18
   10976:	0ff87613          	andi	a2,a6,255
   1097a:	0006d663          	bgez	a3,0x10986
   1097e:	01b84613          	xori	a2,a6,27
   10982:	0ff67613          	andi	a2,a2,255
   10986:	8e3d                	xor	a2,a2,a5
   10988:	0018959b          	slliw	a1,a7,0x1
   1098c:	00664633          	xor	a2,a2,t1
   10990:	0188989b          	slliw	a7,a7,0x18
   10994:	00c506a3          	sb	a2,13(a0)
   10998:	4188d89b          	sraiw	a7,a7,0x18
   1099c:	0ff5f693          	andi	a3,a1,255
   109a0:	0008d663          	bgez	a7,0x109ac
   109a4:	01b5c693          	xori	a3,a1,27
   109a8:	0ff6f693          	andi	a3,a3,255
   109ac:	00ee4733          	xor	a4,t3,a4
   109b0:	8ebd                	xor	a3,a3,a5
   109b2:	01d6c6b3          	xor	a3,a3,t4
   109b6:	0017161b          	slliw	a2,a4,0x1
   109ba:	0187171b          	slliw	a4,a4,0x18
   109be:	00d50723          	sb	a3,14(a0)
   109c2:	4187571b          	sraiw	a4,a4,0x18
   109c6:	0ff67693          	andi	a3,a2,255
   109ca:	00075663          	bgez	a4,0x109d6
   109ce:	01b64613          	xori	a2,a2,27
   109d2:	0ff67693          	andi	a3,a2,255
   109d6:	8fb5                	xor	a5,a5,a3
   109d8:	01c7c7b3          	xor	a5,a5,t3
   109dc:	00f507a3          	sb	a5,15(a0)
   109e0:	8082                	ret
   109e2:	0686                	slli	a3,a3,0x1
   109e4:	01b6c693          	xori	a3,a3,27
   109e8:	0ff6f693          	andi	a3,a3,255
   109ec:	bf05                	j	0x1091c
   109ee:	0786                	slli	a5,a5,0x1
   109f0:	01b7c793          	xori	a5,a5,27
   109f4:	0ff7f793          	andi	a5,a5,255
   109f8:	b709                	j	0x108fa
   109fa:	00161713          	slli	a4,a2,0x1
   109fe:	01b74713          	xori	a4,a4,27
   10a02:	0ff77713          	andi	a4,a4,255
   10a06:	bdd9                	j	0x108dc
   10a08:	0706                	slli	a4,a4,0x1
   10a0a:	01b74713          	xori	a4,a4,27
   10a0e:	0ff77713          	andi	a4,a4,255
   10a12:	b56d                	j	0x108bc
   10a14:	0606                	slli	a2,a2,0x1
   10a16:	01b64613          	xori	a2,a2,27
   10a1a:	0ff67613          	andi	a2,a2,255
   10a1e:	b595                	j	0x10882
   10a20:	00171793          	slli	a5,a4,0x1
   10a24:	01b7c793          	xori	a5,a5,27
   10a28:	0ff7f793          	andi	a5,a5,255
   10a2c:	bd15                	j	0x10860
   10a2e:	00181693          	slli	a3,a6,0x1
   10a32:	01b6c693          	xori	a3,a3,27
   10a36:	0ff6f693          	andi	a3,a3,255
   10a3a:	b519                	j	0x10840
   10a3c:	0686                	slli	a3,a3,0x1
   10a3e:	01b6c693          	xori	a3,a3,27
   10a42:	0ff6f693          	andi	a3,a3,255
   10a46:	bbe1                	j	0x1081e
   10a48:	0786                	slli	a5,a5,0x1
   10a4a:	01b7c793          	xori	a5,a5,27
   10a4e:	0ff7f793          	andi	a5,a5,255
   10a52:	bb41                	j	0x107e2
   10a54:	0706                	slli	a4,a4,0x1
   10a56:	01b74713          	xori	a4,a4,27
   10a5a:	0ff77713          	andi	a4,a4,255
   10a5e:	b38d                	j	0x107c0
   10a60:	00161693          	slli	a3,a2,0x1
   10a64:	01b6c693          	xori	a3,a3,27
   10a68:	0ff6f693          	andi	a3,a3,255
   10a6c:	bb15                	j	0x107a0
   10a6e:	0686                	slli	a3,a3,0x1
   10a70:	01b6c693          	xori	a3,a3,27
   10a74:	0ff6f693          	andi	a3,a3,255
   10a78:	b319                	j	0x1077e
   10a7a:	01d54883          	lbu	a7,29(a0)
   10a7e:	01e54803          	lbu	a6,30(a0)
   10a82:	01f54603          	lbu	a2,31(a0)
   10a86:	01c54683          	lbu	a3,28(a0)
   10a8a:	7179                	addi	sp,sp,-48
   10a8c:	000207b7          	lui	a5,0x20
   10a90:	f422                	sd	s0,40(sp)
   10a92:	f026                	sd	s1,32(sp)
   10a94:	ec4a                	sd	s2,24(sp)
   10a96:	e84e                	sd	s3,16(sp)
   10a98:	e452                	sd	s4,8(sp)
   10a9a:	3a078793          	addi	a5,a5,928 # 0x203a0
   10a9e:	0005cf03          	lbu	t5,0(a1)
   10aa2:	00054703          	lbu	a4,0(a0)
   10aa6:	98be                	add	a7,a7,a5
   10aa8:	983e                	add	a6,a6,a5
   10aaa:	963e                	add	a2,a2,a5
   10aac:	96be                	add	a3,a3,a5
   10aae:	00154e83          	lbu	t4,1(a0)
   10ab2:	00254e03          	lbu	t3,2(a0)
   10ab6:	00354303          	lbu	t1,3(a0)
   10aba:	0008c883          	lbu	a7,0(a7)
   10abe:	00084803          	lbu	a6,0(a6)
   10ac2:	00064603          	lbu	a2,0(a2)
   10ac6:	0006c683          	lbu	a3,0(a3)
   10aca:	01e74733          	xor	a4,a4,t5
   10ace:	01174733          	xor	a4,a4,a7
   10ad2:	01d84833          	xor	a6,a6,t4
   10ad6:	01c64633          	xor	a2,a2,t3
   10ada:	0066c6b3          	xor	a3,a3,t1
   10ade:	00e50023          	sb	a4,0(a0)
   10ae2:	00c50123          	sb	a2,2(a0)
   10ae6:	010500a3          	sb	a6,1(a0)
   10aea:	00d501a3          	sb	a3,3(a0)
   10aee:	0005c683          	lbu	a3,0(a1)
   10af2:	0076d61b          	srliw	a2,a3,0x7
   10af6:	0036171b          	slliw	a4,a2,0x3
   10afa:	9f11                	subw	a4,a4,a2
   10afc:	0027171b          	slliw	a4,a4,0x2
   10b00:	9f11                	subw	a4,a4,a2
   10b02:	0686                	slli	a3,a3,0x1
   10b04:	8f35                	xor	a4,a4,a3
   10b06:	00e58023          	sb	a4,0(a1)
   10b0a:	00454583          	lbu	a1,4(a0)
   10b0e:	00054703          	lbu	a4,0(a0)
   10b12:	00554883          	lbu	a7,5(a0)
   10b16:	00654603          	lbu	a2,6(a0)
   10b1a:	00754683          	lbu	a3,7(a0)
   10b1e:	00354f03          	lbu	t5,3(a0)
   10b22:	00254383          	lbu	t2,2(a0)
   10b26:	00154403          	lbu	s0,1(a0)
   10b2a:	00854803          	lbu	a6,8(a0)
   10b2e:	8f2d                	xor	a4,a4,a1
   10b30:	00954583          	lbu	a1,9(a0)
   10b34:	00d54283          	lbu	t0,13(a0)
   10b38:	00c3c3b3          	xor	t2,t2,a2
   10b3c:	01074833          	xor	a6,a4,a6
   10b40:	00a54603          	lbu	a2,10(a0)
   10b44:	00e50223          	sb	a4,4(a0)
   10b48:	00c54703          	lbu	a4,12(a0)
   10b4c:	00e54f83          	lbu	t6,14(a0)
   10b50:	01144433          	xor	s0,s0,a7
   10b54:	00df4f33          	xor	t5,t5,a3
   10b58:	00b54683          	lbu	a3,11(a0)
   10b5c:	008502a3          	sb	s0,5(a0)
   10b60:	8c2d                	xor	s0,s0,a1
   10b62:	005442b3          	xor	t0,s0,t0
   10b66:	00f54e83          	lbu	t4,15(a0)
   10b6a:	00750323          	sb	t2,6(a0)
   10b6e:	01050423          	sb	a6,8(a0)
   10b72:	00c3c3b3          	xor	t2,t2,a2
   10b76:	00e84833          	xor	a6,a6,a4
   10b7a:	010785b3          	add	a1,a5,a6
   10b7e:	01f3cfb3          	xor	t6,t2,t6
   10b82:	01e503a3          	sb	t5,7(a0)
   10b86:	00df4f33          	xor	t5,t5,a3
   10b8a:	0ff2f693          	andi	a3,t0,255
   10b8e:	01054a03          	lbu	s4,16(a0)
   10b92:	0005ce03          	lbu	t3,0(a1)
   10b96:	96be                	add	a3,a3,a5
   10b98:	0ffff713          	andi	a4,t6,255
   10b9c:	01df4eb3          	xor	t4,t5,t4
   10ba0:	01154983          	lbu	s3,17(a0)
   10ba4:	0006c303          	lbu	t1,0(a3)
   10ba8:	973e                	add	a4,a4,a5
   10baa:	01254903          	lbu	s2,18(a0)
   10bae:	00074883          	lbu	a7,0(a4)
   10bb2:	0ffef613          	andi	a2,t4,255
   10bb6:	014e4e33          	xor	t3,t3,s4
   10bba:	01654703          	lbu	a4,22(a0)
   10bbe:	97b2                	add	a5,a5,a2
   10bc0:	01334333          	xor	t1,t1,s3
   10bc4:	01354483          	lbu	s1,19(a0)
   10bc8:	0007c583          	lbu	a1,0(a5)
   10bcc:	01454603          	lbu	a2,20(a0)
   10bd0:	01554683          	lbu	a3,21(a0)
   10bd4:	008504a3          	sb	s0,9(a0)
   10bd8:	01e505a3          	sb	t5,11(a0)
   10bdc:	01050623          	sb	a6,12(a0)
   10be0:	005506a3          	sb	t0,13(a0)
   10be4:	01f50723          	sb	t6,14(a0)
   10be8:	01d507a3          	sb	t4,15(a0)
   10bec:	01c50823          	sb	t3,16(a0)
   10bf0:	00750523          	sb	t2,10(a0)
   10bf4:	006508a3          	sb	t1,17(a0)
   10bf8:	0128c8b3          	xor	a7,a7,s2
   10bfc:	01754283          	lbu	t0,23(a0)
   10c00:	01b54803          	lbu	a6,27(a0)
   10c04:	00e8c7b3          	xor	a5,a7,a4
   10c08:	01854f83          	lbu	t6,24(a0)
   10c0c:	01954703          	lbu	a4,25(a0)
   10c10:	01a54f03          	lbu	t5,26(a0)
   10c14:	00d346b3          	xor	a3,t1,a3
   10c18:	01c54e83          	lbu	t4,28(a0)
   10c1c:	01e54303          	lbu	t1,30(a0)
   10c20:	8da5                	xor	a1,a1,s1
   10c22:	00ce4633          	xor	a2,t3,a2
   10c26:	01150923          	sb	a7,18(a0)
   10c2a:	01d54e03          	lbu	t3,29(a0)
   10c2e:	01f54883          	lbu	a7,31(a0)
   10c32:	00b509a3          	sb	a1,19(a0)
   10c36:	0055c5b3          	xor	a1,a1,t0
   10c3a:	8f35                	xor	a4,a4,a3
   10c3c:	7422                	ld	s0,40(sp)
   10c3e:	00c50a23          	sb	a2,20(a0)
   10c42:	00d50aa3          	sb	a3,21(a0)
   10c46:	00f50b23          	sb	a5,22(a0)
   10c4a:	01f64633          	xor	a2,a2,t6
   10c4e:	01e7c7b3          	xor	a5,a5,t5
   10c52:	0105c6b3          	xor	a3,a1,a6
   10c56:	01d64eb3          	xor	t4,a2,t4
   10c5a:	01c74e33          	xor	t3,a4,t3
   10c5e:	0067c333          	xor	t1,a5,t1
   10c62:	0116c833          	xor	a6,a3,a7
   10c66:	00b50ba3          	sb	a1,23(a0)
   10c6a:	00c50c23          	sb	a2,24(a0)
   10c6e:	00e50ca3          	sb	a4,25(a0)
   10c72:	00f50d23          	sb	a5,26(a0)
   10c76:	00d50da3          	sb	a3,27(a0)
   10c7a:	01d50e23          	sb	t4,28(a0)
   10c7e:	01c50ea3          	sb	t3,29(a0)
   10c82:	00650f23          	sb	t1,30(a0)
   10c86:	01050fa3          	sb	a6,31(a0)
   10c8a:	7482                	ld	s1,32(sp)
   10c8c:	6962                	ld	s2,24(sp)
   10c8e:	69c2                	ld	s3,16(sp)
   10c90:	6a22                	ld	s4,8(sp)
   10c92:	6145                	addi	sp,sp,48
   10c94:	8082                	ret
   10c96:	02050793          	addi	a5,a0,32
   10c9a:	04850693          	addi	a3,a0,72
   10c9e:	00858713          	addi	a4,a1,8
   10ca2:	715d                	addi	sp,sp,-80
   10ca4:	00e7b733          	sltu	a4,a5,a4
   10ca8:	00d5b6b3          	sltu	a3,a1,a3
   10cac:	fc26                	sd	s1,56(sp)
   10cae:	00174713          	xori	a4,a4,1
   10cb2:	84aa                	mv	s1,a0
   10cb4:	0016c693          	xori	a3,a3,1
   10cb8:	4505                	li	a0,1
   10cba:	e0a2                	sd	s0,64(sp)
   10cbc:	f44e                	sd	s3,40(sp)
   10cbe:	e486                	sd	ra,72(sp)
   10cc0:	f84a                	sd	s2,48(sp)
   10cc2:	f052                	sd	s4,32(sp)
   10cc4:	ec56                	sd	s5,24(sp)
   10cc6:	00a107a3          	sb	a0,15(sp)
   10cca:	8f55                	or	a4,a4,a3
   10ccc:	8432                	mv	s0,a2
   10cce:	04048993          	addi	s3,s1,64
   10cd2:	6c070563          	beqz	a4,0x1139c
   10cd6:	0137e733          	or	a4,a5,s3
   10cda:	8f4d                	or	a4,a4,a1
   10cdc:	8b1d                	andi	a4,a4,7
   10cde:	6a071f63          	bnez	a4,0x1139c
   10ce2:	619c                	ld	a5,0(a1)
   10ce4:	e0bc                	sd	a5,64(s1)
   10ce6:	f09c                	sd	a5,32(s1)
   10ce8:	659c                	ld	a5,8(a1)
   10cea:	e4bc                	sd	a5,72(s1)
   10cec:	f49c                	sd	a5,40(s1)
   10cee:	699c                	ld	a5,16(a1)
   10cf0:	e8bc                	sd	a5,80(s1)
   10cf2:	f89c                	sd	a5,48(s1)
   10cf4:	6d9c                	ld	a5,24(a1)
   10cf6:	ecbc                	sd	a5,88(s1)
   10cf8:	fc9c                	sd	a5,56(s1)
   10cfa:	491d                	li	s2,7
   10cfc:	397d                	addiw	s2,s2,-1
   10cfe:	00f10593          	addi	a1,sp,15
   10d02:	854e                	mv	a0,s3
   10d04:	0ff97913          	andi	s2,s2,255
   10d08:	d73ff0ef          	jal	ra,0x10a7a
   10d0c:	fe0918e3          	bnez	s2,0x10cfc
   10d10:	02f4c783          	lbu	a5,47(s1)
   10d14:	00020937          	lui	s2,0x20
   10d18:	4a05                	li	s4,1
   10d1a:	00f487a3          	sb	a5,15(s1)
   10d1e:	00f44703          	lbu	a4,15(s0)
   10d22:	3a090913          	addi	s2,s2,928 # 0x203a0
   10d26:	49b9                	li	s3,14
   10d28:	8fb9                	xor	a5,a5,a4
   10d2a:	00f407a3          	sb	a5,15(s0)
   10d2e:	02e4c783          	lbu	a5,46(s1)
   10d32:	03f4c703          	lbu	a4,63(s1)
   10d36:	00f48723          	sb	a5,14(s1)
   10d3a:	00e48fa3          	sb	a4,31(s1)
   10d3e:	00e44703          	lbu	a4,14(s0)
   10d42:	8fb9                	xor	a5,a5,a4
   10d44:	00f40723          	sb	a5,14(s0)
   10d48:	02d4c783          	lbu	a5,45(s1)
   10d4c:	03e4c703          	lbu	a4,62(s1)
   10d50:	00f486a3          	sb	a5,13(s1)
   10d54:	00e48f23          	sb	a4,30(s1)
   10d58:	00d44703          	lbu	a4,13(s0)
   10d5c:	8fb9                	xor	a5,a5,a4
   10d5e:	00f406a3          	sb	a5,13(s0)
   10d62:	02c4c783          	lbu	a5,44(s1)
   10d66:	03d4c703          	lbu	a4,61(s1)
   10d6a:	00f48623          	sb	a5,12(s1)
   10d6e:	00e48ea3          	sb	a4,29(s1)
   10d72:	00c44703          	lbu	a4,12(s0)
   10d76:	8fb9                	xor	a5,a5,a4
   10d78:	00f40623          	sb	a5,12(s0)
   10d7c:	02b4c783          	lbu	a5,43(s1)
   10d80:	03c4c703          	lbu	a4,60(s1)
   10d84:	00f485a3          	sb	a5,11(s1)
   10d88:	00e48e23          	sb	a4,28(s1)
   10d8c:	00b44703          	lbu	a4,11(s0)
   10d90:	8fb9                	xor	a5,a5,a4
   10d92:	00f405a3          	sb	a5,11(s0)
   10d96:	02a4c783          	lbu	a5,42(s1)
   10d9a:	03b4c703          	lbu	a4,59(s1)
   10d9e:	00f48523          	sb	a5,10(s1)
   10da2:	00e48da3          	sb	a4,27(s1)
   10da6:	00a44703          	lbu	a4,10(s0)
   10daa:	8fb9                	xor	a5,a5,a4
   10dac:	00f40523          	sb	a5,10(s0)
   10db0:	0294c783          	lbu	a5,41(s1)
   10db4:	03a4c703          	lbu	a4,58(s1)
   10db8:	00f484a3          	sb	a5,9(s1)
   10dbc:	00e48d23          	sb	a4,26(s1)
   10dc0:	00944703          	lbu	a4,9(s0)
   10dc4:	8fb9                	xor	a5,a5,a4
   10dc6:	00f404a3          	sb	a5,9(s0)
   10dca:	0284c783          	lbu	a5,40(s1)
   10dce:	0394c703          	lbu	a4,57(s1)
   10dd2:	00f48423          	sb	a5,8(s1)
   10dd6:	00e48ca3          	sb	a4,25(s1)
   10dda:	00844703          	lbu	a4,8(s0)
   10dde:	8fb9                	xor	a5,a5,a4
   10de0:	00f40423          	sb	a5,8(s0)
   10de4:	0274c783          	lbu	a5,39(s1)
   10de8:	0384c703          	lbu	a4,56(s1)
   10dec:	00f483a3          	sb	a5,7(s1)
   10df0:	00e48c23          	sb	a4,24(s1)
   10df4:	00744703          	lbu	a4,7(s0)
   10df8:	8fb9                	xor	a5,a5,a4
   10dfa:	00f403a3          	sb	a5,7(s0)
   10dfe:	0264c783          	lbu	a5,38(s1)
   10e02:	0374c703          	lbu	a4,55(s1)
   10e06:	00f48323          	sb	a5,6(s1)
   10e0a:	00e48ba3          	sb	a4,23(s1)
   10e0e:	00644703          	lbu	a4,6(s0)
   10e12:	8fb9                	xor	a5,a5,a4
   10e14:	00f40323          	sb	a5,6(s0)
   10e18:	0254c783          	lbu	a5,37(s1)
   10e1c:	0364c703          	lbu	a4,54(s1)
   10e20:	00f482a3          	sb	a5,5(s1)
   10e24:	00e48b23          	sb	a4,22(s1)
   10e28:	00544703          	lbu	a4,5(s0)
   10e2c:	8fb9                	xor	a5,a5,a4
   10e2e:	00f402a3          	sb	a5,5(s0)
   10e32:	0354c703          	lbu	a4,53(s1)
   10e36:	0244c783          	lbu	a5,36(s1)
   10e3a:	00e48aa3          	sb	a4,21(s1)
   10e3e:	00f48223          	sb	a5,4(s1)
   10e42:	00444703          	lbu	a4,4(s0)
   10e46:	8fb9                	xor	a5,a5,a4
   10e48:	00f40223          	sb	a5,4(s0)
   10e4c:	0234c783          	lbu	a5,35(s1)
   10e50:	0344c703          	lbu	a4,52(s1)
   10e54:	00f481a3          	sb	a5,3(s1)
   10e58:	00e48a23          	sb	a4,20(s1)
   10e5c:	00344703          	lbu	a4,3(s0)
   10e60:	8fb9                	xor	a5,a5,a4
   10e62:	00f401a3          	sb	a5,3(s0)
   10e66:	0224c783          	lbu	a5,34(s1)
   10e6a:	0334c703          	lbu	a4,51(s1)
   10e6e:	00f48123          	sb	a5,2(s1)
   10e72:	00e489a3          	sb	a4,19(s1)
   10e76:	00244703          	lbu	a4,2(s0)
   10e7a:	8fb9                	xor	a5,a5,a4
   10e7c:	00f40123          	sb	a5,2(s0)
   10e80:	0214c783          	lbu	a5,33(s1)
   10e84:	0324c703          	lbu	a4,50(s1)
   10e88:	00f480a3          	sb	a5,1(s1)
   10e8c:	00e48923          	sb	a4,18(s1)
   10e90:	00144703          	lbu	a4,1(s0)
   10e94:	8fb9                	xor	a5,a5,a4
   10e96:	00f400a3          	sb	a5,1(s0)
   10e9a:	0204c783          	lbu	a5,32(s1)
   10e9e:	0314c703          	lbu	a4,49(s1)
   10ea2:	00f48023          	sb	a5,0(s1)
   10ea6:	00e488a3          	sb	a4,17(s1)
   10eaa:	00044703          	lbu	a4,0(s0)
   10eae:	8fb9                	xor	a5,a5,a4
   10eb0:	00f40023          	sb	a5,0(s0)
   10eb4:	0304c783          	lbu	a5,48(s1)
   10eb8:	00f48823          	sb	a5,16(s1)
   10ebc:	4785                	li	a5,1
   10ebe:	00f107a3          	sb	a5,15(sp)
   10ec2:	00f44083          	lbu	ra,15(s0)
   10ec6:	00e44383          	lbu	t2,14(s0)
   10eca:	00d44283          	lbu	t0,13(s0)
   10ece:	00c44f83          	lbu	t6,12(s0)
   10ed2:	00b44f03          	lbu	t5,11(s0)
   10ed6:	00a44e83          	lbu	t4,10(s0)
   10eda:	00944e03          	lbu	t3,9(s0)
   10ede:	00844303          	lbu	t1,8(s0)
   10ee2:	00744883          	lbu	a7,7(s0)
   10ee6:	00644803          	lbu	a6,6(s0)
   10eea:	00544503          	lbu	a0,5(s0)
   10eee:	00444583          	lbu	a1,4(s0)
   10ef2:	00344603          	lbu	a2,3(s0)
   10ef6:	00244683          	lbu	a3,2(s0)
   10efa:	00144703          	lbu	a4,1(s0)
   10efe:	00044783          	lbu	a5,0(s0)
   10f02:	a209                	j	0x11004
   10f04:	01f4c783          	lbu	a5,31(s1)
   10f08:	00f44083          	lbu	ra,15(s0)
   10f0c:	00e44383          	lbu	t2,14(s0)
   10f10:	00d44283          	lbu	t0,13(s0)
   10f14:	00f0c0b3          	xor	ra,ra,a5
   10f18:	001407a3          	sb	ra,15(s0)
   10f1c:	01e4c783          	lbu	a5,30(s1)
   10f20:	00c44f83          	lbu	t6,12(s0)
   10f24:	00b44f03          	lbu	t5,11(s0)
   10f28:	00f3c3b3          	xor	t2,t2,a5
   10f2c:	00740723          	sb	t2,14(s0)
   10f30:	01d4c783          	lbu	a5,29(s1)
   10f34:	00a44e83          	lbu	t4,10(s0)
   10f38:	00944e03          	lbu	t3,9(s0)
   10f3c:	00f2c2b3          	xor	t0,t0,a5
   10f40:	005406a3          	sb	t0,13(s0)
   10f44:	01c4c783          	lbu	a5,28(s1)
   10f48:	00844303          	lbu	t1,8(s0)
   10f4c:	00744883          	lbu	a7,7(s0)
   10f50:	00ffcfb3          	xor	t6,t6,a5
   10f54:	01f40623          	sb	t6,12(s0)
   10f58:	01b4c783          	lbu	a5,27(s1)
   10f5c:	00644803          	lbu	a6,6(s0)
   10f60:	00544503          	lbu	a0,5(s0)
   10f64:	00ff4f33          	xor	t5,t5,a5
   10f68:	01e405a3          	sb	t5,11(s0)
   10f6c:	01a4c783          	lbu	a5,26(s1)
   10f70:	2a05                	addiw	s4,s4,1
   10f72:	0ffa7a13          	andi	s4,s4,255
   10f76:	00feceb3          	xor	t4,t4,a5
   10f7a:	01d40523          	sb	t4,10(s0)
   10f7e:	0194c783          	lbu	a5,25(s1)
   10f82:	00fe4e33          	xor	t3,t3,a5
   10f86:	01c404a3          	sb	t3,9(s0)
   10f8a:	0184c783          	lbu	a5,24(s1)
   10f8e:	00f34333          	xor	t1,t1,a5
   10f92:	00640423          	sb	t1,8(s0)
   10f96:	0174c783          	lbu	a5,23(s1)
   10f9a:	00f8c8b3          	xor	a7,a7,a5
   10f9e:	011403a3          	sb	a7,7(s0)
   10fa2:	0164c783          	lbu	a5,22(s1)
   10fa6:	00f84833          	xor	a6,a6,a5
   10faa:	01040323          	sb	a6,6(s0)
   10fae:	0154c783          	lbu	a5,21(s1)
   10fb2:	8d3d                	xor	a0,a0,a5
   10fb4:	00a402a3          	sb	a0,5(s0)
   10fb8:	0144c783          	lbu	a5,20(s1)
   10fbc:	00444583          	lbu	a1,4(s0)
   10fc0:	00344603          	lbu	a2,3(s0)
   10fc4:	00244683          	lbu	a3,2(s0)
   10fc8:	8dbd                	xor	a1,a1,a5
   10fca:	00b40223          	sb	a1,4(s0)
   10fce:	0134c783          	lbu	a5,19(s1)
   10fd2:	00144703          	lbu	a4,1(s0)
   10fd6:	00044a83          	lbu	s5,0(s0)
   10fda:	8e3d                	xor	a2,a2,a5
   10fdc:	00c401a3          	sb	a2,3(s0)
   10fe0:	0124c783          	lbu	a5,18(s1)
   10fe4:	8ebd                	xor	a3,a3,a5
   10fe6:	00d40123          	sb	a3,2(s0)
   10fea:	0114c783          	lbu	a5,17(s1)
   10fee:	8f3d                	xor	a4,a4,a5
   10ff0:	00e400a3          	sb	a4,1(s0)
   10ff4:	0104c783          	lbu	a5,16(s1)
   10ff8:	00fac7b3          	xor	a5,s5,a5
   10ffc:	00f40023          	sb	a5,0(s0)
   11000:	1b3a0e63          	beq	s4,s3,0x111bc
   11004:	90ca                	add	ra,ra,s2
   11006:	93ca                	add	t2,t2,s2
   11008:	92ca                	add	t0,t0,s2
   1100a:	9fca                	add	t6,t6,s2
   1100c:	9f4a                	add	t5,t5,s2
   1100e:	9eca                	add	t4,t4,s2
   11010:	9e4a                	add	t3,t3,s2
   11012:	934a                	add	t1,t1,s2
   11014:	98ca                	add	a7,a7,s2
   11016:	984a                	add	a6,a6,s2
   11018:	954a                	add	a0,a0,s2
   1101a:	95ca                	add	a1,a1,s2
   1101c:	964a                	add	a2,a2,s2
   1101e:	96ca                	add	a3,a3,s2
   11020:	974a                	add	a4,a4,s2
   11022:	97ca                	add	a5,a5,s2
   11024:	00054503          	lbu	a0,0(a0)
   11028:	0007c783          	lbu	a5,0(a5)
   1102c:	0000c083          	lbu	ra,0(ra) # 0x1031a
   11030:	0003c383          	lbu	t2,0(t2)
   11034:	0002c283          	lbu	t0,0(t0)
   11038:	000fcf83          	lbu	t6,0(t6)
   1103c:	000f4f03          	lbu	t5,0(t5)
   11040:	000ece83          	lbu	t4,0(t4)
   11044:	000e4e03          	lbu	t3,0(t3)
   11048:	00034303          	lbu	t1,0(t1)
   1104c:	0008c883          	lbu	a7,0(a7)
   11050:	00084803          	lbu	a6,0(a6)
   11054:	0005c583          	lbu	a1,0(a1)
   11058:	00064603          	lbu	a2,0(a2)
   1105c:	0006c683          	lbu	a3,0(a3)
   11060:	00074703          	lbu	a4,0(a4)
   11064:	00f40023          	sb	a5,0(s0)
   11068:	00a400a3          	sb	a0,1(s0)
   1106c:	01f40623          	sb	t6,12(s0)
   11070:	00640423          	sb	t1,8(s0)
   11074:	00b40223          	sb	a1,4(s0)
   11078:	01c402a3          	sb	t3,5(s0)
   1107c:	005404a3          	sb	t0,9(s0)
   11080:	00e406a3          	sb	a4,13(s0)
   11084:	00d40523          	sb	a3,10(s0)
   11088:	01d40123          	sb	t4,2(s0)
   1108c:	001401a3          	sb	ra,3(s0)
   11090:	01e407a3          	sb	t5,15(s0)
   11094:	011405a3          	sb	a7,11(s0)
   11098:	00c403a3          	sb	a2,7(s0)
   1109c:	01040723          	sb	a6,14(s0)
   110a0:	00740323          	sb	t2,6(s0)
   110a4:	8522                	mv	a0,s0
   110a6:	ea8ff0ef          	jal	ra,0x1074e
   110aa:	001a7793          	andi	a5,s4,1
   110ae:	e4079be3          	bnez	a5,0x10f04
   110b2:	00f10593          	addi	a1,sp,15
   110b6:	8526                	mv	a0,s1
   110b8:	9c3ff0ef          	jal	ra,0x10a7a
   110bc:	00f4c783          	lbu	a5,15(s1)
   110c0:	00f44083          	lbu	ra,15(s0)
   110c4:	00e44383          	lbu	t2,14(s0)
   110c8:	00d44283          	lbu	t0,13(s0)
   110cc:	00f0c0b3          	xor	ra,ra,a5
   110d0:	001407a3          	sb	ra,15(s0)
   110d4:	00e4c783          	lbu	a5,14(s1)
   110d8:	00c44f83          	lbu	t6,12(s0)
   110dc:	00b44f03          	lbu	t5,11(s0)
   110e0:	00f3c3b3          	xor	t2,t2,a5
   110e4:	00740723          	sb	t2,14(s0)
   110e8:	00d4c783          	lbu	a5,13(s1)
   110ec:	00a44e83          	lbu	t4,10(s0)
   110f0:	00944e03          	lbu	t3,9(s0)
   110f4:	00f2c2b3          	xor	t0,t0,a5
   110f8:	005406a3          	sb	t0,13(s0)
   110fc:	00c4c783          	lbu	a5,12(s1)
   11100:	00844303          	lbu	t1,8(s0)
   11104:	00744883          	lbu	a7,7(s0)
   11108:	00ffcfb3          	xor	t6,t6,a5
   1110c:	01f40623          	sb	t6,12(s0)
   11110:	00b4c783          	lbu	a5,11(s1)
   11114:	00644803          	lbu	a6,6(s0)
   11118:	00544503          	lbu	a0,5(s0)
   1111c:	00ff4f33          	xor	t5,t5,a5
   11120:	01e405a3          	sb	t5,11(s0)
   11124:	00a4c783          	lbu	a5,10(s1)
   11128:	2a05                	addiw	s4,s4,1
   1112a:	0ffa7a13          	andi	s4,s4,255
   1112e:	00feceb3          	xor	t4,t4,a5
   11132:	01d40523          	sb	t4,10(s0)
   11136:	0094c783          	lbu	a5,9(s1)
   1113a:	00fe4e33          	xor	t3,t3,a5
   1113e:	01c404a3          	sb	t3,9(s0)
   11142:	0084c783          	lbu	a5,8(s1)
   11146:	00f34333          	xor	t1,t1,a5
   1114a:	00640423          	sb	t1,8(s0)
   1114e:	0074c783          	lbu	a5,7(s1)
   11152:	00f8c8b3          	xor	a7,a7,a5
   11156:	011403a3          	sb	a7,7(s0)
   1115a:	0064c783          	lbu	a5,6(s1)
   1115e:	00f84833          	xor	a6,a6,a5
   11162:	01040323          	sb	a6,6(s0)
   11166:	0054c783          	lbu	a5,5(s1)
   1116a:	8d3d                	xor	a0,a0,a5
   1116c:	00a402a3          	sb	a0,5(s0)
   11170:	0044c783          	lbu	a5,4(s1)
   11174:	00444583          	lbu	a1,4(s0)
   11178:	00344603          	lbu	a2,3(s0)
   1117c:	00244683          	lbu	a3,2(s0)
   11180:	8dbd                	xor	a1,a1,a5
   11182:	00b40223          	sb	a1,4(s0)
   11186:	0034c783          	lbu	a5,3(s1)
   1118a:	00144703          	lbu	a4,1(s0)
   1118e:	00044a83          	lbu	s5,0(s0)
   11192:	8e3d                	xor	a2,a2,a5
   11194:	00c401a3          	sb	a2,3(s0)
   11198:	0024c783          	lbu	a5,2(s1)
   1119c:	8ebd                	xor	a3,a3,a5
   1119e:	00d40123          	sb	a3,2(s0)
   111a2:	0014c783          	lbu	a5,1(s1)
   111a6:	8f3d                	xor	a4,a4,a5
   111a8:	00e400a3          	sb	a4,1(s0)
   111ac:	0004c783          	lbu	a5,0(s1)
   111b0:	00fac7b3          	xor	a5,s5,a5
   111b4:	00f40023          	sb	a5,0(s0)
   111b8:	e53a16e3          	bne	s4,s3,0x11004
   111bc:	00c44383          	lbu	t2,12(s0)
   111c0:	00844283          	lbu	t0,8(s0)
   111c4:	00444f83          	lbu	t6,4(s0)
   111c8:	00044f03          	lbu	t5,0(s0)
   111cc:	00144083          	lbu	ra,1(s0)
   111d0:	00f44e83          	lbu	t4,15(s0)
   111d4:	00e44783          	lbu	a5,14(s0)
   111d8:	00d44e03          	lbu	t3,13(s0)
   111dc:	00b44303          	lbu	t1,11(s0)
   111e0:	00a44683          	lbu	a3,10(s0)
   111e4:	00944883          	lbu	a7,9(s0)
   111e8:	00744803          	lbu	a6,7(s0)
   111ec:	00644503          	lbu	a0,6(s0)
   111f0:	00544583          	lbu	a1,5(s0)
   111f4:	00344703          	lbu	a4,3(s0)
   111f8:	00244603          	lbu	a2,2(s0)
   111fc:	93ca                	add	t2,t2,s2
   111fe:	92ca                	add	t0,t0,s2
   11200:	9fca                	add	t6,t6,s2
   11202:	9f4a                	add	t5,t5,s2
   11204:	0003c383          	lbu	t2,0(t2)
   11208:	0002c283          	lbu	t0,0(t0)
   1120c:	000fcf83          	lbu	t6,0(t6)
   11210:	000f4f03          	lbu	t5,0(t5)
   11214:	95ca                	add	a1,a1,s2
   11216:	9eca                	add	t4,t4,s2
   11218:	97ca                	add	a5,a5,s2
   1121a:	9e4a                	add	t3,t3,s2
   1121c:	934a                	add	t1,t1,s2
   1121e:	96ca                	add	a3,a3,s2
   11220:	98ca                	add	a7,a7,s2
   11222:	984a                	add	a6,a6,s2
   11224:	954a                	add	a0,a0,s2
   11226:	974a                	add	a4,a4,s2
   11228:	964a                	add	a2,a2,s2
   1122a:	9906                	add	s2,s2,ra
   1122c:	0008c883          	lbu	a7,0(a7)
   11230:	00084803          	lbu	a6,0(a6)
   11234:	0005c083          	lbu	ra,0(a1)
   11238:	00064603          	lbu	a2,0(a2)
   1123c:	000ece83          	lbu	t4,0(t4)
   11240:	000e4e03          	lbu	t3,0(t3)
   11244:	00034303          	lbu	t1,0(t1)
   11248:	00054503          	lbu	a0,0(a0)
   1124c:	00740623          	sb	t2,12(s0)
   11250:	00540423          	sb	t0,8(s0)
   11254:	01f40223          	sb	t6,4(s0)
   11258:	01e40023          	sb	t5,0(s0)
   1125c:	00094583          	lbu	a1,0(s2)
   11260:	0006c683          	lbu	a3,0(a3)
   11264:	00074703          	lbu	a4,0(a4)
   11268:	0007c783          	lbu	a5,0(a5)
   1126c:	001400a3          	sb	ra,1(s0)
   11270:	011402a3          	sb	a7,5(s0)
   11274:	00b406a3          	sb	a1,13(s0)
   11278:	00c40523          	sb	a2,10(s0)
   1127c:	00d40123          	sb	a3,2(s0)
   11280:	010405a3          	sb	a6,11(s0)
   11284:	00e403a3          	sb	a4,7(s0)
   11288:	00a40723          	sb	a0,14(s0)
   1128c:	00f40323          	sb	a5,6(s0)
   11290:	00f10593          	addi	a1,sp,15
   11294:	8526                	mv	a0,s1
   11296:	01c404a3          	sb	t3,9(s0)
   1129a:	01d401a3          	sb	t4,3(s0)
   1129e:	006407a3          	sb	t1,15(s0)
   112a2:	fd8ff0ef          	jal	ra,0x10a7a
   112a6:	00f4c703          	lbu	a4,15(s1)
   112aa:	00f44783          	lbu	a5,15(s0)
   112ae:	00e44603          	lbu	a2,14(s0)
   112b2:	00d44683          	lbu	a3,13(s0)
   112b6:	8fb9                	xor	a5,a5,a4
   112b8:	00f407a3          	sb	a5,15(s0)
   112bc:	00e4c783          	lbu	a5,14(s1)
   112c0:	00c44703          	lbu	a4,12(s0)
   112c4:	00b44883          	lbu	a7,11(s0)
   112c8:	8fb1                	xor	a5,a5,a2
   112ca:	00f40723          	sb	a5,14(s0)
   112ce:	00d4c783          	lbu	a5,13(s1)
   112d2:	00a44803          	lbu	a6,10(s0)
   112d6:	00944503          	lbu	a0,9(s0)
   112da:	8fb5                	xor	a5,a5,a3
   112dc:	00f406a3          	sb	a5,13(s0)
   112e0:	00c4c783          	lbu	a5,12(s1)
   112e4:	00844603          	lbu	a2,8(s0)
   112e8:	00744683          	lbu	a3,7(s0)
   112ec:	8fb9                	xor	a5,a5,a4
   112ee:	00f40623          	sb	a5,12(s0)
   112f2:	00b4c583          	lbu	a1,11(s1)
   112f6:	00644703          	lbu	a4,6(s0)
   112fa:	00544783          	lbu	a5,5(s0)
   112fe:	0115c5b3          	xor	a1,a1,a7
   11302:	00b405a3          	sb	a1,11(s0)
   11306:	00a4c583          	lbu	a1,10(s1)
   1130a:	0105c5b3          	xor	a1,a1,a6
   1130e:	00b40523          	sb	a1,10(s0)
   11312:	0094c583          	lbu	a1,9(s1)
   11316:	8da9                	xor	a1,a1,a0
   11318:	00b404a3          	sb	a1,9(s0)
   1131c:	0084c583          	lbu	a1,8(s1)
   11320:	8e2d                	xor	a2,a2,a1
   11322:	00c40423          	sb	a2,8(s0)
   11326:	0074c603          	lbu	a2,7(s1)
   1132a:	8eb1                	xor	a3,a3,a2
   1132c:	00d403a3          	sb	a3,7(s0)
   11330:	0064c683          	lbu	a3,6(s1)
   11334:	8f35                	xor	a4,a4,a3
   11336:	00e40323          	sb	a4,6(s0)
   1133a:	0054c703          	lbu	a4,5(s1)
   1133e:	8fb9                	xor	a5,a5,a4
   11340:	00f402a3          	sb	a5,5(s0)
   11344:	0044c703          	lbu	a4,4(s1)
   11348:	00444783          	lbu	a5,4(s0)
   1134c:	00344603          	lbu	a2,3(s0)
   11350:	00244683          	lbu	a3,2(s0)
   11354:	8fb9                	xor	a5,a5,a4
   11356:	00f40223          	sb	a5,4(s0)
   1135a:	0034c583          	lbu	a1,3(s1)
   1135e:	00144703          	lbu	a4,1(s0)
   11362:	00044783          	lbu	a5,0(s0)
   11366:	8e2d                	xor	a2,a2,a1
   11368:	00c401a3          	sb	a2,3(s0)
   1136c:	0024c603          	lbu	a2,2(s1)
   11370:	8eb1                	xor	a3,a3,a2
   11372:	00d40123          	sb	a3,2(s0)
   11376:	0014c683          	lbu	a3,1(s1)
   1137a:	8f35                	xor	a4,a4,a3
   1137c:	00e400a3          	sb	a4,1(s0)
   11380:	0004c703          	lbu	a4,0(s1)
   11384:	8fb9                	xor	a5,a5,a4
   11386:	00f40023          	sb	a5,0(s0)
   1138a:	60a6                	ld	ra,72(sp)
   1138c:	6406                	ld	s0,64(sp)
   1138e:	74e2                	ld	s1,56(sp)
   11390:	7942                	ld	s2,48(sp)
   11392:	79a2                	ld	s3,40(sp)
   11394:	7a02                	ld	s4,32(sp)
   11396:	6ae2                	ld	s5,24(sp)
   11398:	6161                	addi	sp,sp,80
   1139a:	8082                	ret
   1139c:	872e                	mv	a4,a1
   1139e:	00074683          	lbu	a3,0(a4)
   113a2:	0785                	addi	a5,a5,1
   113a4:	0705                	addi	a4,a4,1
   113a6:	00d78fa3          	sb	a3,31(a5)
   113aa:	fed78fa3          	sb	a3,-1(a5)
   113ae:	fef998e3          	bne	s3,a5,0x1139e
   113b2:	b2a1                	j	0x10cfa
   113b4:	08050613          	addi	a2,a0,128
   113b8:	06050593          	addi	a1,a0,96
   113bc:	b8e9                	j	0x10c96
   113be:	1101                	addi	sp,sp,-32
   113c0:	e822                	sd	s0,16(sp)
   113c2:	842e                	mv	s0,a1
   113c4:	e426                	sd	s1,8(sp)
   113c6:	09000613          	li	a2,144
   113ca:	4581                	li	a1,0
   113cc:	84aa                	mv	s1,a0
   113ce:	8522                	mv	a0,s0
   113d0:	ec06                	sd	ra,24(sp)
   113d2:	28b010ef          	jal	ra,0x12e5c
   113d6:	8526                	mv	a0,s1
   113d8:	1b8000ef          	jal	ra,0x11590
   113dc:	4585                	li	a1,1
   113de:	84aa                	mv	s1,a0
   113e0:	292000ef          	jal	ra,0x11672
   113e4:	02000613          	li	a2,32
   113e8:	06040593          	addi	a1,s0,96
   113ec:	38e000ef          	jal	ra,0x1177a
   113f0:	4589                	li	a1,2
   113f2:	8526                	mv	a0,s1
   113f4:	27e000ef          	jal	ra,0x11672
   113f8:	08040593          	addi	a1,s0,128
   113fc:	4641                	li	a2,16
   113fe:	37c000ef          	jal	ra,0x1177a
   11402:	6442                	ld	s0,16(sp)
   11404:	60e2                	ld	ra,24(sp)
   11406:	8526                	mv	a0,s1
   11408:	64a2                	ld	s1,8(sp)
   1140a:	6105                	addi	sp,sp,32
   1140c:	2f00106f          	j	0x126fc
   11410:	1101                	addi	sp,sp,-32
   11412:	ec06                	sd	ra,24(sp)
   11414:	e822                	sd	s0,16(sp)
   11416:	e426                	sd	s1,8(sp)
   11418:	842a                	mv	s0,a0
   1141a:	84ae                	mv	s1,a1
   1141c:	0a8010ef          	jal	ra,0x124c4
   11420:	06048593          	addi	a1,s1,96
   11424:	02000613          	li	a2,32
   11428:	8522                	mv	a0,s0
   1142a:	441000ef          	jal	ra,0x1206a
   1142e:	8522                	mv	a0,s0
   11430:	094010ef          	jal	ra,0x124c4
   11434:	8522                	mv	a0,s0
   11436:	6442                	ld	s0,16(sp)
   11438:	60e2                	ld	ra,24(sp)
   1143a:	08048593          	addi	a1,s1,128
   1143e:	64a2                	ld	s1,8(sp)
   11440:	4641                	li	a2,16
   11442:	6105                	addi	sp,sp,32
   11444:	4270006f          	j	0x1206a
   11448:	1101                	addi	sp,sp,-32
   1144a:	e822                	sd	s0,16(sp)
   1144c:	842e                	mv	s0,a1
   1144e:	e426                	sd	s1,8(sp)
   11450:	09000613          	li	a2,144
   11454:	4581                	li	a1,0
   11456:	84aa                	mv	s1,a0
   11458:	8522                	mv	a0,s0
   1145a:	ec06                	sd	ra,24(sp)
   1145c:	201010ef          	jal	ra,0x12e5c
   11460:	8526                	mv	a0,s1
   11462:	12e000ef          	jal	ra,0x11590
   11466:	4585                	li	a1,1
   11468:	84aa                	mv	s1,a0
   1146a:	208000ef          	jal	ra,0x11672
   1146e:	08040593          	addi	a1,s0,128
   11472:	4641                	li	a2,16
   11474:	306000ef          	jal	ra,0x1177a
   11478:	6442                	ld	s0,16(sp)
   1147a:	60e2                	ld	ra,24(sp)
   1147c:	8526                	mv	a0,s1
   1147e:	64a2                	ld	s1,8(sp)
   11480:	6105                	addi	sp,sp,32
   11482:	27a0106f          	j	0x126fc
   11486:	1101                	addi	sp,sp,-32
   11488:	e822                	sd	s0,16(sp)
   1148a:	e426                	sd	s1,8(sp)
   1148c:	ec06                	sd	ra,24(sp)
   1148e:	842a                	mv	s0,a0
   11490:	84ae                	mv	s1,a1
   11492:	032010ef          	jal	ra,0x124c4
   11496:	8522                	mv	a0,s0
   11498:	6442                	ld	s0,16(sp)
   1149a:	60e2                	ld	ra,24(sp)
   1149c:	08048593          	addi	a1,s1,128
   114a0:	64a2                	ld	s1,8(sp)
   114a2:	4641                	li	a2,16
   114a4:	6105                	addi	sp,sp,32
   114a6:	3c50006f          	j	0x1206a
   114aa:	1141                	addi	sp,sp,-16
   114ac:	4641                	li	a2,16
   114ae:	08058593          	addi	a1,a1,128
   114b2:	08050513          	addi	a0,a0,128
   114b6:	e406                	sd	ra,8(sp)
   114b8:	075010ef          	jal	ra,0x12d2c
   114bc:	60a2                	ld	ra,8(sp)
   114be:	00153513          	seqz	a0,a0
   114c2:	0141                	addi	sp,sp,16
   114c4:	8082                	ret
   114c6:	710d                	addi	sp,sp,-352
   114c8:	13010313          	addi	t1,sp,304
   114cc:	ea4a                	sd	s2,272(sp)
   114ce:	fa32                	sd	a2,304(sp)
   114d0:	fe36                	sd	a3,312(sp)
   114d2:	862e                	mv	a2,a1
   114d4:	892a                	mv	s2,a0
   114d6:	869a                	mv	a3,t1
   114d8:	10000593          	li	a1,256
   114dc:	0808                	addi	a0,sp,16
   114de:	e6be                	sd	a5,328(sp)
   114e0:	f606                	sd	ra,296(sp)
   114e2:	f222                	sd	s0,288(sp)
   114e4:	ee26                	sd	s1,280(sp)
   114e6:	e2ba                	sd	a4,320(sp)
   114e8:	eac2                	sd	a6,336(sp)
   114ea:	eec6                	sd	a7,344(sp)
   114ec:	e41a                	sd	t1,8(sp)
   114ee:	017050ef          	jal	ra,0x16d04
   114f2:	0ff00793          	li	a5,255
   114f6:	04a7cf63          	blt	a5,a0,0x11554
   114fa:	84aa                	mv	s1,a0
   114fc:	4401                	li	s0,0
   114fe:	02a05363          	blez	a0,0x11524
   11502:	081c                	addi	a5,sp,16
   11504:	008785b3          	add	a1,a5,s0
   11508:	4084863b          	subw	a2,s1,s0
   1150c:	854a                	mv	a0,s2
   1150e:	527020ef          	jal	ra,0x14234
   11512:	02051713          	slli	a4,a0,0x20
   11516:	0005079b          	sext.w	a5,a0
   1151a:	00074e63          	bltz	a4,0x11536
   1151e:	9c3d                	addw	s0,s0,a5
   11520:	fe9441e3          	blt	s0,s1,0x11502
   11524:	04849763          	bne	s1,s0,0x11572
   11528:	70b2                	ld	ra,296(sp)
   1152a:	7412                	ld	s0,288(sp)
   1152c:	6952                	ld	s2,272(sp)
   1152e:	8526                	mv	a0,s1
   11530:	64f2                	ld	s1,280(sp)
   11532:	6135                	addi	sp,sp,352
   11534:	8082                	ret
   11536:	000206b7          	lui	a3,0x20
   1153a:	00020637          	lui	a2,0x20
   1153e:	00020537          	lui	a0,0x20
   11542:	51868693          	addi	a3,a3,1304 # 0x20518
   11546:	6e060613          	addi	a2,a2,1760 # 0x206e0
   1154a:	45e9                	li	a1,26
   1154c:	50050513          	addi	a0,a0,1280 # 0x20500
   11550:	7b3000ef          	jal	ra,0x12502
   11554:	000206b7          	lui	a3,0x20
   11558:	00020637          	lui	a2,0x20
   1155c:	00020537          	lui	a0,0x20
   11560:	4a068693          	addi	a3,a3,1184 # 0x204a0
   11564:	6e060613          	addi	a2,a2,1760 # 0x206e0
   11568:	45d9                	li	a1,22
   1156a:	50050513          	addi	a0,a0,1280 # 0x20500
   1156e:	795000ef          	jal	ra,0x12502
   11572:	000206b7          	lui	a3,0x20
   11576:	00020637          	lui	a2,0x20
   1157a:	00020537          	lui	a0,0x20
   1157e:	53868693          	addi	a3,a3,1336 # 0x20538
   11582:	6e060613          	addi	a2,a2,1760 # 0x206e0
   11586:	45f5                	li	a1,29
   11588:	50050513          	addi	a0,a0,1280 # 0x20500
   1158c:	777000ef          	jal	ra,0x12502
   11590:	7135                	addi	sp,sp,-160
   11592:	ed06                	sd	ra,152(sp)
   11594:	e922                	sd	s0,144(sp)
   11596:	e526                	sd	s1,136(sp)
   11598:	e14a                	sd	s2,128(sp)
   1159a:	fcce                	sd	s3,120(sp)
   1159c:	4785                	li	a5,1
   1159e:	0aa7da63          	bge	a5,a0,0x11652
   115a2:	002c                	addi	a1,sp,8
   115a4:	89aa                	mv	s3,a0
   115a6:	44b020ef          	jal	ra,0x141f0
   115aa:	e541                	bnez	a0,0x11632
   115ac:	64e2                	ld	s1,24(sp)
   115ae:	06905263          	blez	s1,0x11612
   115b2:	00148513          	addi	a0,s1,1
   115b6:	13e010ef          	jal	ra,0x126f4
   115ba:	892a                	mv	s2,a0
   115bc:	4401                	li	s0,0
   115be:	40848633          	sub	a2,s1,s0
   115c2:	008905b3          	add	a1,s2,s0
   115c6:	854e                	mv	a0,s3
   115c8:	45f020ef          	jal	ra,0x14226
   115cc:	02054363          	bltz	a0,0x115f2
   115d0:	942a                	add	s0,s0,a0
   115d2:	fe9446e3          	blt	s0,s1,0x115be
   115d6:	94ca                	add	s1,s1,s2
   115d8:	854e                	mv	a0,s3
   115da:	00048023          	sb	zero,0(s1)
   115de:	409020ef          	jal	ra,0x141e6
   115e2:	60ea                	ld	ra,152(sp)
   115e4:	644a                	ld	s0,144(sp)
   115e6:	64aa                	ld	s1,136(sp)
   115e8:	79e6                	ld	s3,120(sp)
   115ea:	854a                	mv	a0,s2
   115ec:	690a                	ld	s2,128(sp)
   115ee:	610d                	addi	sp,sp,160
   115f0:	8082                	ret
   115f2:	000206b7          	lui	a3,0x20
   115f6:	00020637          	lui	a2,0x20
   115fa:	00020537          	lui	a0,0x20
   115fe:	5f068693          	addi	a3,a3,1520 # 0x205f0
   11602:	6f060613          	addi	a2,a2,1776 # 0x206f0
   11606:	03000593          	li	a1,48
   1160a:	50050513          	addi	a0,a0,1280 # 0x20500
   1160e:	6f5000ef          	jal	ra,0x12502
   11612:	000206b7          	lui	a3,0x20
   11616:	00020637          	lui	a2,0x20
   1161a:	00020537          	lui	a0,0x20
   1161e:	5d068693          	addi	a3,a3,1488 # 0x205d0
   11622:	6f060613          	addi	a2,a2,1776 # 0x206f0
   11626:	02b00593          	li	a1,43
   1162a:	50050513          	addi	a0,a0,1280 # 0x20500
   1162e:	6d5000ef          	jal	ra,0x12502
   11632:	000206b7          	lui	a3,0x20
   11636:	00020637          	lui	a2,0x20
   1163a:	00020537          	lui	a0,0x20
   1163e:	59868693          	addi	a3,a3,1432 # 0x20598
   11642:	6f060613          	addi	a2,a2,1776 # 0x206f0
   11646:	02900593          	li	a1,41
   1164a:	50050513          	addi	a0,a0,1280 # 0x20500
   1164e:	6b5000ef          	jal	ra,0x12502
   11652:	000206b7          	lui	a3,0x20
   11656:	00020637          	lui	a2,0x20
   1165a:	00020537          	lui	a0,0x20
   1165e:	57068693          	addi	a3,a3,1392 # 0x20570
   11662:	6f060613          	addi	a2,a2,1776 # 0x206f0
   11666:	02800593          	li	a1,40
   1166a:	50050513          	addi	a0,a0,1280 # 0x20500
   1166e:	695000ef          	jal	ra,0x12502
   11672:	0405c663          	bltz	a1,0x116be
   11676:	87aa                	mv	a5,a0
   11678:	c1a1                	beqz	a1,0x116b8
   1167a:	4801                	li	a6,0
   1167c:	02500693          	li	a3,37
   11680:	48a9                	li	a7,10
   11682:	a031                	j	0x1168e
   11684:	00178513          	addi	a0,a5,1
   11688:	02b85563          	bge	a6,a1,0x116b2
   1168c:	87aa                	mv	a5,a0
   1168e:	0007c703          	lbu	a4,0(a5)
   11692:	c705                	beqz	a4,0x116ba
   11694:	0017c603          	lbu	a2,1(a5)
   11698:	fed716e3          	bne	a4,a3,0x11684
   1169c:	fed614e3          	bne	a2,a3,0x11684
   116a0:	0027c703          	lbu	a4,2(a5)
   116a4:	ff1710e3          	bne	a4,a7,0x11684
   116a8:	2805                	addiw	a6,a6,1
   116aa:	00178513          	addi	a0,a5,1
   116ae:	fcb84fe3          	blt	a6,a1,0x1168c
   116b2:	c219                	beqz	a2,0x116b8
   116b4:	00378513          	addi	a0,a5,3
   116b8:	8082                	ret
   116ba:	853e                	mv	a0,a5
   116bc:	8082                	ret
   116be:	000206b7          	lui	a3,0x20
   116c2:	00020637          	lui	a2,0x20
   116c6:	00020537          	lui	a0,0x20
   116ca:	1141                	addi	sp,sp,-16
   116cc:	61068693          	addi	a3,a3,1552 # 0x20610
   116d0:	70060613          	addi	a2,a2,1792 # 0x20700
   116d4:	03b00593          	li	a1,59
   116d8:	50050513          	addi	a0,a0,1280 # 0x20500
   116dc:	e406                	sd	ra,8(sp)
   116de:	625000ef          	jal	ra,0x12502
   116e2:	1141                	addi	sp,sp,-16
   116e4:	e406                	sd	ra,8(sp)
   116e6:	e022                	sd	s0,0(sp)
   116e8:	88aa                	mv	a7,a0
   116ea:	c925                	beqz	a0,0x1175a
   116ec:	852e                	mv	a0,a1
   116ee:	00064a63          	bltz	a2,0x11702
   116f2:	85c6                	mv	a1,a7
   116f4:	68a010ef          	jal	ra,0x12d7e
   116f8:	60a2                	ld	ra,8(sp)
   116fa:	6402                	ld	s0,0(sp)
   116fc:	4501                	li	a0,0
   116fe:	0141                	addi	sp,sp,16
   11700:	8082                	ret
   11702:	0008c703          	lbu	a4,0(a7)
   11706:	00188793          	addi	a5,a7,1
   1170a:	4601                	li	a2,0
   1170c:	4e29                	li	t3,10
   1170e:	02500593          	li	a1,37
   11712:	842a                	mv	s0,a0
   11714:	e719                	bnez	a4,0x11722
   11716:	a805                	j	0x11746
   11718:	0007c703          	lbu	a4,0(a5)
   1171c:	0605                	addi	a2,a2,1
   1171e:	0785                	addi	a5,a5,1
   11720:	c30d                	beqz	a4,0x11742
   11722:	0007c683          	lbu	a3,0(a5)
   11726:	0006031b          	sext.w	t1,a2
   1172a:	ca99                	beqz	a3,0x11740
   1172c:	0017c803          	lbu	a6,1(a5)
   11730:	00080863          	beqz	a6,0x11740
   11734:	ffc712e3          	bne	a4,t3,0x11718
   11738:	feb690e3          	bne	a3,a1,0x11718
   1173c:	fcb81ee3          	bne	a6,a1,0x11718
   11740:	861a                	mv	a2,t1
   11742:	00c50433          	add	s0,a0,a2
   11746:	85c6                	mv	a1,a7
   11748:	636010ef          	jal	ra,0x12d7e
   1174c:	00040023          	sb	zero,0(s0)
   11750:	60a2                	ld	ra,8(sp)
   11752:	6402                	ld	s0,0(sp)
   11754:	4501                	li	a0,0
   11756:	0141                	addi	sp,sp,16
   11758:	8082                	ret
   1175a:	000206b7          	lui	a3,0x20
   1175e:	00020637          	lui	a2,0x20
   11762:	00020537          	lui	a0,0x20
   11766:	63868693          	addi	a3,a3,1592 # 0x20638
   1176a:	71860613          	addi	a2,a2,1816 # 0x20718
   1176e:	04f00593          	li	a1,79
   11772:	50050513          	addi	a0,a0,1280 # 0x20500
   11776:	58d000ef          	jal	ra,0x12502
   1177a:	711d                	addi	sp,sp,-96
   1177c:	ec86                	sd	ra,88(sp)
   1177e:	e8a2                	sd	s0,80(sp)
   11780:	e4a6                	sd	s1,72(sp)
   11782:	e0ca                	sd	s2,64(sp)
   11784:	fc4e                	sd	s3,56(sp)
   11786:	f852                	sd	s4,48(sp)
   11788:	f456                	sd	s5,40(sp)
   1178a:	f05a                	sd	s6,32(sp)
   1178c:	ec5e                	sd	s7,24(sp)
   1178e:	cd49                	beqz	a0,0x11828
   11790:	00020ab7          	lui	s5,0x20
   11794:	892e                	mv	s2,a1
   11796:	660a8593          	addi	a1,s5,1632 # 0x20660
   1179a:	8a32                	mv	s4,a2
   1179c:	055020ef          	jal	ra,0x13ff0
   117a0:	842a                	mv	s0,a0
   117a2:	c53d                	beqz	a0,0x11810
   117a4:	05405f63          	blez	s4,0x11802
   117a8:	4981                	li	s3,0
   117aa:	00020b37          	lui	s6,0x20
   117ae:	a02d                	j	0x117d8
   117b0:	8522                	mv	a0,s0
   117b2:	00990023          	sb	s1,0(s2)
   117b6:	015010ef          	jal	ra,0x12fca
   117ba:	9522                	add	a0,a0,s0
   117bc:	47a9                	li	a5,10
   117be:	00f50023          	sb	a5,0(a0)
   117c2:	660a8593          	addi	a1,s5,1632
   117c6:	4501                	li	a0,0
   117c8:	029020ef          	jal	ra,0x13ff0
   117cc:	842a                	mv	s0,a0
   117ce:	2985                	addiw	s3,s3,1
   117d0:	c121                	beqz	a0,0x11810
   117d2:	0905                	addi	s2,s2,1
   117d4:	033a0763          	beq	s4,s3,0x11802
   117d8:	4629                	li	a2,10
   117da:	002c                	addi	a1,sp,8
   117dc:	8522                	mv	a0,s0
   117de:	e422                	sd	s0,8(sp)
   117e0:	1fb020ef          	jal	ra,0x141da
   117e4:	67a2                	ld	a5,8(sp)
   117e6:	0ff57493          	andi	s1,a0,255
   117ea:	0007c783          	lbu	a5,0(a5)
   117ee:	d3e9                	beqz	a5,0x117b0
   117f0:	7501b783          	ld	a5,1872(gp)
   117f4:	864e                	mv	a2,s3
   117f6:	668b0593          	addi	a1,s6,1640 # 0x20668
   117fa:	6f88                	ld	a0,24(a5)
   117fc:	5db000ef          	jal	ra,0x125d6
   11800:	bf45                	j	0x117b0
   11802:	8522                	mv	a0,s0
   11804:	7c6010ef          	jal	ra,0x12fca
   11808:	9522                	add	a0,a0,s0
   1180a:	47a9                	li	a5,10
   1180c:	00f50023          	sb	a5,0(a0)
   11810:	60e6                	ld	ra,88(sp)
   11812:	6446                	ld	s0,80(sp)
   11814:	64a6                	ld	s1,72(sp)
   11816:	6906                	ld	s2,64(sp)
   11818:	79e2                	ld	s3,56(sp)
   1181a:	7a42                	ld	s4,48(sp)
   1181c:	7aa2                	ld	s5,40(sp)
   1181e:	7b02                	ld	s6,32(sp)
   11820:	6be2                	ld	s7,24(sp)
   11822:	4501                	li	a0,0
   11824:	6125                	addi	sp,sp,96
   11826:	8082                	ret
   11828:	000206b7          	lui	a3,0x20
   1182c:	00020637          	lui	a2,0x20
   11830:	00020537          	lui	a0,0x20
   11834:	63868693          	addi	a3,a3,1592 # 0x20638
   11838:	72860613          	addi	a2,a2,1832 # 0x20728
   1183c:	08400593          	li	a1,132
   11840:	50050513          	addi	a0,a0,1280 # 0x20500
   11844:	4bf000ef          	jal	ra,0x12502
   11848:	711d                	addi	sp,sp,-96
   1184a:	ec86                	sd	ra,88(sp)
   1184c:	e8a2                	sd	s0,80(sp)
   1184e:	e4a6                	sd	s1,72(sp)
   11850:	e0ca                	sd	s2,64(sp)
   11852:	fc4e                	sd	s3,56(sp)
   11854:	f852                	sd	s4,48(sp)
   11856:	f456                	sd	s5,40(sp)
   11858:	f05a                	sd	s6,32(sp)
   1185a:	ec5e                	sd	s7,24(sp)
   1185c:	cd51                	beqz	a0,0x118f8
   1185e:	00020ab7          	lui	s5,0x20
   11862:	892e                	mv	s2,a1
   11864:	660a8593          	addi	a1,s5,1632 # 0x20660
   11868:	8a32                	mv	s4,a2
   1186a:	786020ef          	jal	ra,0x13ff0
   1186e:	842a                	mv	s0,a0
   11870:	c925                	beqz	a0,0x118e0
   11872:	07405063          	blez	s4,0x118d2
   11876:	4981                	li	s3,0
   11878:	00020b37          	lui	s6,0x20
   1187c:	a02d                	j	0x118a6
   1187e:	8522                	mv	a0,s0
   11880:	00991023          	sh	s1,0(s2)
   11884:	746010ef          	jal	ra,0x12fca
   11888:	9522                	add	a0,a0,s0
   1188a:	47a9                	li	a5,10
   1188c:	00f50023          	sb	a5,0(a0)
   11890:	660a8593          	addi	a1,s5,1632
   11894:	4501                	li	a0,0
   11896:	75a020ef          	jal	ra,0x13ff0
   1189a:	842a                	mv	s0,a0
   1189c:	2985                	addiw	s3,s3,1
   1189e:	c129                	beqz	a0,0x118e0
   118a0:	0909                	addi	s2,s2,2
   118a2:	033a0863          	beq	s4,s3,0x118d2
   118a6:	4629                	li	a2,10
   118a8:	002c                	addi	a1,sp,8
   118aa:	8522                	mv	a0,s0
   118ac:	e422                	sd	s0,8(sp)
   118ae:	12d020ef          	jal	ra,0x141da
   118b2:	67a2                	ld	a5,8(sp)
   118b4:	03051493          	slli	s1,a0,0x30
   118b8:	90c1                	srli	s1,s1,0x30
   118ba:	0007c783          	lbu	a5,0(a5)
   118be:	d3e1                	beqz	a5,0x1187e
   118c0:	7501b783          	ld	a5,1872(gp)
   118c4:	864e                	mv	a2,s3
   118c6:	668b0593          	addi	a1,s6,1640 # 0x20668
   118ca:	6f88                	ld	a0,24(a5)
   118cc:	50b000ef          	jal	ra,0x125d6
   118d0:	b77d                	j	0x1187e
   118d2:	8522                	mv	a0,s0
   118d4:	6f6010ef          	jal	ra,0x12fca
   118d8:	9522                	add	a0,a0,s0
   118da:	47a9                	li	a5,10
   118dc:	00f50023          	sb	a5,0(a0)
   118e0:	60e6                	ld	ra,88(sp)
   118e2:	6446                	ld	s0,80(sp)
   118e4:	64a6                	ld	s1,72(sp)
   118e6:	6906                	ld	s2,64(sp)
   118e8:	79e2                	ld	s3,56(sp)
   118ea:	7a42                	ld	s4,48(sp)
   118ec:	7aa2                	ld	s5,40(sp)
   118ee:	7b02                	ld	s6,32(sp)
   118f0:	6be2                	ld	s7,24(sp)
   118f2:	4501                	li	a0,0
   118f4:	6125                	addi	sp,sp,96
   118f6:	8082                	ret
   118f8:	000206b7          	lui	a3,0x20
   118fc:	00020637          	lui	a2,0x20
   11900:	00020537          	lui	a0,0x20
   11904:	63868693          	addi	a3,a3,1592 # 0x20638
   11908:	74060613          	addi	a2,a2,1856 # 0x20740
   1190c:	08500593          	li	a1,133
   11910:	50050513          	addi	a0,a0,1280 # 0x20500
   11914:	3ef000ef          	jal	ra,0x12502
   11918:	711d                	addi	sp,sp,-96
   1191a:	ec86                	sd	ra,88(sp)
   1191c:	e8a2                	sd	s0,80(sp)
   1191e:	e4a6                	sd	s1,72(sp)
   11920:	e0ca                	sd	s2,64(sp)
   11922:	fc4e                	sd	s3,56(sp)
   11924:	f852                	sd	s4,48(sp)
   11926:	f456                	sd	s5,40(sp)
   11928:	f05a                	sd	s6,32(sp)
   1192a:	ec5e                	sd	s7,24(sp)
   1192c:	cd49                	beqz	a0,0x119c6
   1192e:	00020ab7          	lui	s5,0x20
   11932:	892e                	mv	s2,a1
   11934:	660a8593          	addi	a1,s5,1632 # 0x20660
   11938:	8a32                	mv	s4,a2
   1193a:	6b6020ef          	jal	ra,0x13ff0
   1193e:	842a                	mv	s0,a0
   11940:	c53d                	beqz	a0,0x119ae
   11942:	05405f63          	blez	s4,0x119a0
   11946:	4981                	li	s3,0
   11948:	00020b37          	lui	s6,0x20
   1194c:	a02d                	j	0x11976
   1194e:	8522                	mv	a0,s0
   11950:	00992023          	sw	s1,0(s2)
   11954:	676010ef          	jal	ra,0x12fca
   11958:	9522                	add	a0,a0,s0
   1195a:	47a9                	li	a5,10
   1195c:	00f50023          	sb	a5,0(a0)
   11960:	660a8593          	addi	a1,s5,1632
   11964:	4501                	li	a0,0
   11966:	68a020ef          	jal	ra,0x13ff0
   1196a:	842a                	mv	s0,a0
   1196c:	2985                	addiw	s3,s3,1
   1196e:	c121                	beqz	a0,0x119ae
   11970:	0911                	addi	s2,s2,4
   11972:	033a0763          	beq	s4,s3,0x119a0
   11976:	4629                	li	a2,10
   11978:	002c                	addi	a1,sp,8
   1197a:	8522                	mv	a0,s0
   1197c:	e422                	sd	s0,8(sp)
   1197e:	05d020ef          	jal	ra,0x141da
   11982:	67a2                	ld	a5,8(sp)
   11984:	0005049b          	sext.w	s1,a0
   11988:	0007c783          	lbu	a5,0(a5)
   1198c:	d3e9                	beqz	a5,0x1194e
   1198e:	7501b783          	ld	a5,1872(gp)
   11992:	864e                	mv	a2,s3
   11994:	668b0593          	addi	a1,s6,1640 # 0x20668
   11998:	6f88                	ld	a0,24(a5)
   1199a:	43d000ef          	jal	ra,0x125d6
   1199e:	bf45                	j	0x1194e
   119a0:	8522                	mv	a0,s0
   119a2:	628010ef          	jal	ra,0x12fca
   119a6:	9522                	add	a0,a0,s0
   119a8:	47a9                	li	a5,10
   119aa:	00f50023          	sb	a5,0(a0)
   119ae:	60e6                	ld	ra,88(sp)
   119b0:	6446                	ld	s0,80(sp)
   119b2:	64a6                	ld	s1,72(sp)
   119b4:	6906                	ld	s2,64(sp)
   119b6:	79e2                	ld	s3,56(sp)
   119b8:	7a42                	ld	s4,48(sp)
   119ba:	7aa2                	ld	s5,40(sp)
   119bc:	7b02                	ld	s6,32(sp)
   119be:	6be2                	ld	s7,24(sp)
   119c0:	4501                	li	a0,0
   119c2:	6125                	addi	sp,sp,96
   119c4:	8082                	ret
   119c6:	000206b7          	lui	a3,0x20
   119ca:	00020637          	lui	a2,0x20
   119ce:	00020537          	lui	a0,0x20
   119d2:	63868693          	addi	a3,a3,1592 # 0x20638
   119d6:	75860613          	addi	a2,a2,1880 # 0x20758
   119da:	08600593          	li	a1,134
   119de:	50050513          	addi	a0,a0,1280 # 0x20500
   119e2:	321000ef          	jal	ra,0x12502
   119e6:	711d                	addi	sp,sp,-96
   119e8:	ec86                	sd	ra,88(sp)
   119ea:	e8a2                	sd	s0,80(sp)
   119ec:	e4a6                	sd	s1,72(sp)
   119ee:	e0ca                	sd	s2,64(sp)
   119f0:	fc4e                	sd	s3,56(sp)
   119f2:	f852                	sd	s4,48(sp)
   119f4:	f456                	sd	s5,40(sp)
   119f6:	f05a                	sd	s6,32(sp)
   119f8:	ec5e                	sd	s7,24(sp)
   119fa:	cd41                	beqz	a0,0x11a92
   119fc:	00020ab7          	lui	s5,0x20
   11a00:	892e                	mv	s2,a1
   11a02:	660a8593          	addi	a1,s5,1632 # 0x20660
   11a06:	8a32                	mv	s4,a2
   11a08:	5e8020ef          	jal	ra,0x13ff0
   11a0c:	842a                	mv	s0,a0
   11a0e:	c535                	beqz	a0,0x11a7a
   11a10:	05405e63          	blez	s4,0x11a6c
   11a14:	4981                	li	s3,0
   11a16:	00020b37          	lui	s6,0x20
   11a1a:	a02d                	j	0x11a44
   11a1c:	8522                	mv	a0,s0
   11a1e:	00993023          	sd	s1,0(s2)
   11a22:	5a8010ef          	jal	ra,0x12fca
   11a26:	9522                	add	a0,a0,s0
   11a28:	47a9                	li	a5,10
   11a2a:	00f50023          	sb	a5,0(a0)
   11a2e:	660a8593          	addi	a1,s5,1632
   11a32:	4501                	li	a0,0
   11a34:	5bc020ef          	jal	ra,0x13ff0
   11a38:	842a                	mv	s0,a0
   11a3a:	2985                	addiw	s3,s3,1
   11a3c:	cd1d                	beqz	a0,0x11a7a
   11a3e:	0921                	addi	s2,s2,8
   11a40:	033a0663          	beq	s4,s3,0x11a6c
   11a44:	4629                	li	a2,10
   11a46:	002c                	addi	a1,sp,8
   11a48:	8522                	mv	a0,s0
   11a4a:	e422                	sd	s0,8(sp)
   11a4c:	78e020ef          	jal	ra,0x141da
   11a50:	67a2                	ld	a5,8(sp)
   11a52:	84aa                	mv	s1,a0
   11a54:	0007c783          	lbu	a5,0(a5)
   11a58:	d3f1                	beqz	a5,0x11a1c
   11a5a:	7501b783          	ld	a5,1872(gp)
   11a5e:	864e                	mv	a2,s3
   11a60:	668b0593          	addi	a1,s6,1640 # 0x20668
   11a64:	6f88                	ld	a0,24(a5)
   11a66:	371000ef          	jal	ra,0x125d6
   11a6a:	bf4d                	j	0x11a1c
   11a6c:	8522                	mv	a0,s0
   11a6e:	55c010ef          	jal	ra,0x12fca
   11a72:	9522                	add	a0,a0,s0
   11a74:	47a9                	li	a5,10
   11a76:	00f50023          	sb	a5,0(a0)
   11a7a:	60e6                	ld	ra,88(sp)
   11a7c:	6446                	ld	s0,80(sp)
   11a7e:	64a6                	ld	s1,72(sp)
   11a80:	6906                	ld	s2,64(sp)
   11a82:	79e2                	ld	s3,56(sp)
   11a84:	7a42                	ld	s4,48(sp)
   11a86:	7aa2                	ld	s5,40(sp)
   11a88:	7b02                	ld	s6,32(sp)
   11a8a:	6be2                	ld	s7,24(sp)
   11a8c:	4501                	li	a0,0
   11a8e:	6125                	addi	sp,sp,96
   11a90:	8082                	ret
   11a92:	000206b7          	lui	a3,0x20
   11a96:	00020637          	lui	a2,0x20
   11a9a:	00020537          	lui	a0,0x20
   11a9e:	63868693          	addi	a3,a3,1592 # 0x20638
   11aa2:	77060613          	addi	a2,a2,1904 # 0x20770
   11aa6:	08700593          	li	a1,135
   11aaa:	50050513          	addi	a0,a0,1280 # 0x20500
   11aae:	255000ef          	jal	ra,0x12502
   11ab2:	711d                	addi	sp,sp,-96
   11ab4:	ec86                	sd	ra,88(sp)
   11ab6:	e8a2                	sd	s0,80(sp)
   11ab8:	e4a6                	sd	s1,72(sp)
   11aba:	e0ca                	sd	s2,64(sp)
   11abc:	fc4e                	sd	s3,56(sp)
   11abe:	f852                	sd	s4,48(sp)
   11ac0:	f456                	sd	s5,40(sp)
   11ac2:	f05a                	sd	s6,32(sp)
   11ac4:	ec5e                	sd	s7,24(sp)
   11ac6:	cd59                	beqz	a0,0x11b64
   11ac8:	00020ab7          	lui	s5,0x20
   11acc:	892e                	mv	s2,a1
   11ace:	660a8593          	addi	a1,s5,1632 # 0x20660
   11ad2:	8a32                	mv	s4,a2
   11ad4:	51c020ef          	jal	ra,0x13ff0
   11ad8:	842a                	mv	s0,a0
   11ada:	c92d                	beqz	a0,0x11b4c
   11adc:	07405163          	blez	s4,0x11b3e
   11ae0:	4981                	li	s3,0
   11ae2:	00020b37          	lui	s6,0x20
   11ae6:	a02d                	j	0x11b10
   11ae8:	8522                	mv	a0,s0
   11aea:	00990023          	sb	s1,0(s2)
   11aee:	4dc010ef          	jal	ra,0x12fca
   11af2:	9522                	add	a0,a0,s0
   11af4:	47a9                	li	a5,10
   11af6:	00f50023          	sb	a5,0(a0)
   11afa:	660a8593          	addi	a1,s5,1632
   11afe:	4501                	li	a0,0
   11b00:	4f0020ef          	jal	ra,0x13ff0
   11b04:	842a                	mv	s0,a0
   11b06:	2985                	addiw	s3,s3,1
   11b08:	c131                	beqz	a0,0x11b4c
   11b0a:	0905                	addi	s2,s2,1
   11b0c:	033a0963          	beq	s4,s3,0x11b3e
   11b10:	4629                	li	a2,10
   11b12:	002c                	addi	a1,sp,8
   11b14:	8522                	mv	a0,s0
   11b16:	e422                	sd	s0,8(sp)
   11b18:	6c2020ef          	jal	ra,0x141da
   11b1c:	67a2                	ld	a5,8(sp)
   11b1e:	0185149b          	slliw	s1,a0,0x18
   11b22:	4184d49b          	sraiw	s1,s1,0x18
   11b26:	0007c783          	lbu	a5,0(a5)
   11b2a:	dfdd                	beqz	a5,0x11ae8
   11b2c:	7501b783          	ld	a5,1872(gp)
   11b30:	864e                	mv	a2,s3
   11b32:	668b0593          	addi	a1,s6,1640 # 0x20668
   11b36:	6f88                	ld	a0,24(a5)
   11b38:	29f000ef          	jal	ra,0x125d6
   11b3c:	b775                	j	0x11ae8
   11b3e:	8522                	mv	a0,s0
   11b40:	48a010ef          	jal	ra,0x12fca
   11b44:	9522                	add	a0,a0,s0
   11b46:	47a9                	li	a5,10
   11b48:	00f50023          	sb	a5,0(a0)
   11b4c:	60e6                	ld	ra,88(sp)
   11b4e:	6446                	ld	s0,80(sp)
   11b50:	64a6                	ld	s1,72(sp)
   11b52:	6906                	ld	s2,64(sp)
   11b54:	79e2                	ld	s3,56(sp)
   11b56:	7a42                	ld	s4,48(sp)
   11b58:	7aa2                	ld	s5,40(sp)
   11b5a:	7b02                	ld	s6,32(sp)
   11b5c:	6be2                	ld	s7,24(sp)
   11b5e:	4501                	li	a0,0
   11b60:	6125                	addi	sp,sp,96
   11b62:	8082                	ret
   11b64:	000206b7          	lui	a3,0x20
   11b68:	00020637          	lui	a2,0x20
   11b6c:	00020537          	lui	a0,0x20
   11b70:	63868693          	addi	a3,a3,1592 # 0x20638
   11b74:	78860613          	addi	a2,a2,1928 # 0x20788
   11b78:	08800593          	li	a1,136
   11b7c:	50050513          	addi	a0,a0,1280 # 0x20500
   11b80:	183000ef          	jal	ra,0x12502
   11b84:	711d                	addi	sp,sp,-96
   11b86:	ec86                	sd	ra,88(sp)
   11b88:	e8a2                	sd	s0,80(sp)
   11b8a:	e4a6                	sd	s1,72(sp)
   11b8c:	e0ca                	sd	s2,64(sp)
   11b8e:	fc4e                	sd	s3,56(sp)
   11b90:	f852                	sd	s4,48(sp)
   11b92:	f456                	sd	s5,40(sp)
   11b94:	f05a                	sd	s6,32(sp)
   11b96:	ec5e                	sd	s7,24(sp)
   11b98:	cd59                	beqz	a0,0x11c36
   11b9a:	00020ab7          	lui	s5,0x20
   11b9e:	892e                	mv	s2,a1
   11ba0:	660a8593          	addi	a1,s5,1632 # 0x20660
   11ba4:	8a32                	mv	s4,a2
   11ba6:	44a020ef          	jal	ra,0x13ff0
   11baa:	842a                	mv	s0,a0
   11bac:	c92d                	beqz	a0,0x11c1e
   11bae:	07405163          	blez	s4,0x11c10
   11bb2:	4981                	li	s3,0
   11bb4:	00020b37          	lui	s6,0x20
   11bb8:	a02d                	j	0x11be2
   11bba:	8522                	mv	a0,s0
   11bbc:	00991023          	sh	s1,0(s2)
   11bc0:	40a010ef          	jal	ra,0x12fca
   11bc4:	9522                	add	a0,a0,s0
   11bc6:	47a9                	li	a5,10
   11bc8:	00f50023          	sb	a5,0(a0)
   11bcc:	660a8593          	addi	a1,s5,1632
   11bd0:	4501                	li	a0,0
   11bd2:	41e020ef          	jal	ra,0x13ff0
   11bd6:	842a                	mv	s0,a0
   11bd8:	2985                	addiw	s3,s3,1
   11bda:	c131                	beqz	a0,0x11c1e
   11bdc:	0909                	addi	s2,s2,2
   11bde:	033a0963          	beq	s4,s3,0x11c10
   11be2:	4629                	li	a2,10
   11be4:	002c                	addi	a1,sp,8
   11be6:	8522                	mv	a0,s0
   11be8:	e422                	sd	s0,8(sp)
   11bea:	5f0020ef          	jal	ra,0x141da
   11bee:	67a2                	ld	a5,8(sp)
   11bf0:	0105149b          	slliw	s1,a0,0x10
   11bf4:	4104d49b          	sraiw	s1,s1,0x10
   11bf8:	0007c783          	lbu	a5,0(a5)
   11bfc:	dfdd                	beqz	a5,0x11bba
   11bfe:	7501b783          	ld	a5,1872(gp)
   11c02:	864e                	mv	a2,s3
   11c04:	668b0593          	addi	a1,s6,1640 # 0x20668
   11c08:	6f88                	ld	a0,24(a5)
   11c0a:	1cd000ef          	jal	ra,0x125d6
   11c0e:	b775                	j	0x11bba
   11c10:	8522                	mv	a0,s0
   11c12:	3b8010ef          	jal	ra,0x12fca
   11c16:	9522                	add	a0,a0,s0
   11c18:	47a9                	li	a5,10
   11c1a:	00f50023          	sb	a5,0(a0)
   11c1e:	60e6                	ld	ra,88(sp)
   11c20:	6446                	ld	s0,80(sp)
   11c22:	64a6                	ld	s1,72(sp)
   11c24:	6906                	ld	s2,64(sp)
   11c26:	79e2                	ld	s3,56(sp)
   11c28:	7a42                	ld	s4,48(sp)
   11c2a:	7aa2                	ld	s5,40(sp)
   11c2c:	7b02                	ld	s6,32(sp)
   11c2e:	6be2                	ld	s7,24(sp)
   11c30:	4501                	li	a0,0
   11c32:	6125                	addi	sp,sp,96
   11c34:	8082                	ret
   11c36:	000206b7          	lui	a3,0x20
   11c3a:	00020637          	lui	a2,0x20
   11c3e:	00020537          	lui	a0,0x20
   11c42:	63868693          	addi	a3,a3,1592 # 0x20638
   11c46:	7a060613          	addi	a2,a2,1952 # 0x207a0
   11c4a:	08900593          	li	a1,137
   11c4e:	50050513          	addi	a0,a0,1280 # 0x20500
   11c52:	0b1000ef          	jal	ra,0x12502
   11c56:	711d                	addi	sp,sp,-96
   11c58:	ec86                	sd	ra,88(sp)
   11c5a:	e8a2                	sd	s0,80(sp)
   11c5c:	e4a6                	sd	s1,72(sp)
   11c5e:	e0ca                	sd	s2,64(sp)
   11c60:	fc4e                	sd	s3,56(sp)
   11c62:	f852                	sd	s4,48(sp)
   11c64:	f456                	sd	s5,40(sp)
   11c66:	f05a                	sd	s6,32(sp)
   11c68:	ec5e                	sd	s7,24(sp)
   11c6a:	cd49                	beqz	a0,0x11d04
   11c6c:	00020ab7          	lui	s5,0x20
   11c70:	892e                	mv	s2,a1
   11c72:	660a8593          	addi	a1,s5,1632 # 0x20660
   11c76:	8a32                	mv	s4,a2
   11c78:	378020ef          	jal	ra,0x13ff0
   11c7c:	842a                	mv	s0,a0
   11c7e:	c53d                	beqz	a0,0x11cec
   11c80:	05405f63          	blez	s4,0x11cde
   11c84:	4981                	li	s3,0
   11c86:	00020b37          	lui	s6,0x20
   11c8a:	a02d                	j	0x11cb4
   11c8c:	8522                	mv	a0,s0
   11c8e:	00992023          	sw	s1,0(s2)
   11c92:	338010ef          	jal	ra,0x12fca
   11c96:	9522                	add	a0,a0,s0
   11c98:	47a9                	li	a5,10
   11c9a:	00f50023          	sb	a5,0(a0)
   11c9e:	660a8593          	addi	a1,s5,1632
   11ca2:	4501                	li	a0,0
   11ca4:	34c020ef          	jal	ra,0x13ff0
   11ca8:	842a                	mv	s0,a0
   11caa:	2985                	addiw	s3,s3,1
   11cac:	c121                	beqz	a0,0x11cec
   11cae:	0911                	addi	s2,s2,4
   11cb0:	033a0763          	beq	s4,s3,0x11cde
   11cb4:	4629                	li	a2,10
   11cb6:	002c                	addi	a1,sp,8
   11cb8:	8522                	mv	a0,s0
   11cba:	e422                	sd	s0,8(sp)
   11cbc:	51e020ef          	jal	ra,0x141da
   11cc0:	67a2                	ld	a5,8(sp)
   11cc2:	0005049b          	sext.w	s1,a0
   11cc6:	0007c783          	lbu	a5,0(a5)
   11cca:	d3e9                	beqz	a5,0x11c8c
   11ccc:	7501b783          	ld	a5,1872(gp)
   11cd0:	864e                	mv	a2,s3
   11cd2:	668b0593          	addi	a1,s6,1640 # 0x20668
   11cd6:	6f88                	ld	a0,24(a5)
   11cd8:	0ff000ef          	jal	ra,0x125d6
   11cdc:	bf45                	j	0x11c8c
   11cde:	8522                	mv	a0,s0
   11ce0:	2ea010ef          	jal	ra,0x12fca
   11ce4:	9522                	add	a0,a0,s0
   11ce6:	47a9                	li	a5,10
   11ce8:	00f50023          	sb	a5,0(a0)
   11cec:	60e6                	ld	ra,88(sp)
   11cee:	6446                	ld	s0,80(sp)
   11cf0:	64a6                	ld	s1,72(sp)
   11cf2:	6906                	ld	s2,64(sp)
   11cf4:	79e2                	ld	s3,56(sp)
   11cf6:	7a42                	ld	s4,48(sp)
   11cf8:	7aa2                	ld	s5,40(sp)
   11cfa:	7b02                	ld	s6,32(sp)
   11cfc:	6be2                	ld	s7,24(sp)
   11cfe:	4501                	li	a0,0
   11d00:	6125                	addi	sp,sp,96
   11d02:	8082                	ret
   11d04:	000206b7          	lui	a3,0x20
   11d08:	00020637          	lui	a2,0x20
   11d0c:	00020537          	lui	a0,0x20
   11d10:	63868693          	addi	a3,a3,1592 # 0x20638
   11d14:	7b860613          	addi	a2,a2,1976 # 0x207b8
   11d18:	08a00593          	li	a1,138
   11d1c:	50050513          	addi	a0,a0,1280 # 0x20500
   11d20:	7e2000ef          	jal	ra,0x12502
   11d24:	711d                	addi	sp,sp,-96
   11d26:	ec86                	sd	ra,88(sp)
   11d28:	e8a2                	sd	s0,80(sp)
   11d2a:	e4a6                	sd	s1,72(sp)
   11d2c:	e0ca                	sd	s2,64(sp)
   11d2e:	fc4e                	sd	s3,56(sp)
   11d30:	f852                	sd	s4,48(sp)
   11d32:	f456                	sd	s5,40(sp)
   11d34:	f05a                	sd	s6,32(sp)
   11d36:	ec5e                	sd	s7,24(sp)
   11d38:	cd41                	beqz	a0,0x11dd0
   11d3a:	00020ab7          	lui	s5,0x20
   11d3e:	892e                	mv	s2,a1
   11d40:	660a8593          	addi	a1,s5,1632 # 0x20660
   11d44:	8a32                	mv	s4,a2
   11d46:	2aa020ef          	jal	ra,0x13ff0
   11d4a:	842a                	mv	s0,a0
   11d4c:	c535                	beqz	a0,0x11db8
   11d4e:	05405e63          	blez	s4,0x11daa
   11d52:	4981                	li	s3,0
   11d54:	00020b37          	lui	s6,0x20
   11d58:	a02d                	j	0x11d82
   11d5a:	8522                	mv	a0,s0
   11d5c:	00993023          	sd	s1,0(s2)
   11d60:	26a010ef          	jal	ra,0x12fca
   11d64:	9522                	add	a0,a0,s0
   11d66:	47a9                	li	a5,10
   11d68:	00f50023          	sb	a5,0(a0)
   11d6c:	660a8593          	addi	a1,s5,1632
   11d70:	4501                	li	a0,0
   11d72:	27e020ef          	jal	ra,0x13ff0
   11d76:	842a                	mv	s0,a0
   11d78:	2985                	addiw	s3,s3,1
   11d7a:	cd1d                	beqz	a0,0x11db8
   11d7c:	0921                	addi	s2,s2,8
   11d7e:	033a0663          	beq	s4,s3,0x11daa
   11d82:	4629                	li	a2,10
   11d84:	002c                	addi	a1,sp,8
   11d86:	8522                	mv	a0,s0
   11d88:	e422                	sd	s0,8(sp)
   11d8a:	450020ef          	jal	ra,0x141da
   11d8e:	67a2                	ld	a5,8(sp)
   11d90:	84aa                	mv	s1,a0
   11d92:	0007c783          	lbu	a5,0(a5)
   11d96:	d3f1                	beqz	a5,0x11d5a
   11d98:	7501b783          	ld	a5,1872(gp)
   11d9c:	864e                	mv	a2,s3
   11d9e:	668b0593          	addi	a1,s6,1640 # 0x20668
   11da2:	6f88                	ld	a0,24(a5)
   11da4:	033000ef          	jal	ra,0x125d6
   11da8:	bf4d                	j	0x11d5a
   11daa:	8522                	mv	a0,s0
   11dac:	21e010ef          	jal	ra,0x12fca
   11db0:	9522                	add	a0,a0,s0
   11db2:	47a9                	li	a5,10
   11db4:	00f50023          	sb	a5,0(a0)
   11db8:	60e6                	ld	ra,88(sp)
   11dba:	6446                	ld	s0,80(sp)
   11dbc:	64a6                	ld	s1,72(sp)
   11dbe:	6906                	ld	s2,64(sp)
   11dc0:	79e2                	ld	s3,56(sp)
   11dc2:	7a42                	ld	s4,48(sp)
   11dc4:	7aa2                	ld	s5,40(sp)
   11dc6:	7b02                	ld	s6,32(sp)
   11dc8:	6be2                	ld	s7,24(sp)
   11dca:	4501                	li	a0,0
   11dcc:	6125                	addi	sp,sp,96
   11dce:	8082                	ret
   11dd0:	000206b7          	lui	a3,0x20
   11dd4:	00020637          	lui	a2,0x20
   11dd8:	00020537          	lui	a0,0x20
   11ddc:	63868693          	addi	a3,a3,1592 # 0x20638
   11de0:	7d060613          	addi	a2,a2,2000 # 0x207d0
   11de4:	08b00593          	li	a1,139
   11de8:	50050513          	addi	a0,a0,1280 # 0x20500
   11dec:	716000ef          	jal	ra,0x12502
   11df0:	7159                	addi	sp,sp,-112
   11df2:	f486                	sd	ra,104(sp)
   11df4:	f0a2                	sd	s0,96(sp)
   11df6:	eca6                	sd	s1,88(sp)
   11df8:	e8ca                	sd	s2,80(sp)
   11dfa:	e4ce                	sd	s3,72(sp)
   11dfc:	e0d2                	sd	s4,64(sp)
   11dfe:	fc56                	sd	s5,56(sp)
   11e00:	f85a                	sd	s6,48(sp)
   11e02:	f45e                	sd	s7,40(sp)
   11e04:	ac22                	fsd	fs0,24(sp)
   11e06:	cd49                	beqz	a0,0x11ea0
   11e08:	00020a37          	lui	s4,0x20
   11e0c:	84ae                	mv	s1,a1
   11e0e:	660a0593          	addi	a1,s4,1632 # 0x20660
   11e12:	89b2                	mv	s3,a2
   11e14:	1dc020ef          	jal	ra,0x13ff0
   11e18:	842a                	mv	s0,a0
   11e1a:	c535                	beqz	a0,0x11e86
   11e1c:	05305e63          	blez	s3,0x11e78
   11e20:	4901                	li	s2,0
   11e22:	00020b37          	lui	s6,0x20
   11e26:	4aa9                	li	s5,10
   11e28:	a025                	j	0x11e50
   11e2a:	8522                	mv	a0,s0
   11e2c:	0084a027          	fsw	fs0,0(s1)
   11e30:	19a010ef          	jal	ra,0x12fca
   11e34:	9522                	add	a0,a0,s0
   11e36:	01550023          	sb	s5,0(a0)
   11e3a:	660a0593          	addi	a1,s4,1632
   11e3e:	4501                	li	a0,0
   11e40:	1b0020ef          	jal	ra,0x13ff0
   11e44:	842a                	mv	s0,a0
   11e46:	2905                	addiw	s2,s2,1
   11e48:	cd1d                	beqz	a0,0x11e86
   11e4a:	0491                	addi	s1,s1,4
   11e4c:	03298663          	beq	s3,s2,0x11e78
   11e50:	002c                	addi	a1,sp,8
   11e52:	8522                	mv	a0,s0
   11e54:	e422                	sd	s0,8(sp)
   11e56:	10a020ef          	jal	ra,0x13f60
   11e5a:	67a2                	ld	a5,8(sp)
   11e5c:	20a50453          	fmv.s	fs0,fa0
   11e60:	0007c783          	lbu	a5,0(a5)
   11e64:	d3f9                	beqz	a5,0x11e2a
   11e66:	7501b783          	ld	a5,1872(gp)
   11e6a:	864a                	mv	a2,s2
   11e6c:	668b0593          	addi	a1,s6,1640 # 0x20668
   11e70:	6f88                	ld	a0,24(a5)
   11e72:	764000ef          	jal	ra,0x125d6
   11e76:	bf55                	j	0x11e2a
   11e78:	8522                	mv	a0,s0
   11e7a:	150010ef          	jal	ra,0x12fca
   11e7e:	9522                	add	a0,a0,s0
   11e80:	47a9                	li	a5,10
   11e82:	00f50023          	sb	a5,0(a0)
   11e86:	70a6                	ld	ra,104(sp)
   11e88:	7406                	ld	s0,96(sp)
   11e8a:	64e6                	ld	s1,88(sp)
   11e8c:	6946                	ld	s2,80(sp)
   11e8e:	69a6                	ld	s3,72(sp)
   11e90:	6a06                	ld	s4,64(sp)
   11e92:	7ae2                	ld	s5,56(sp)
   11e94:	7b42                	ld	s6,48(sp)
   11e96:	7ba2                	ld	s7,40(sp)
   11e98:	2462                	fld	fs0,24(sp)
   11e9a:	4501                	li	a0,0
   11e9c:	6165                	addi	sp,sp,112
   11e9e:	8082                	ret
   11ea0:	000206b7          	lui	a3,0x20
   11ea4:	00020637          	lui	a2,0x20
   11ea8:	00020537          	lui	a0,0x20
   11eac:	63868693          	addi	a3,a3,1592 # 0x20638
   11eb0:	7e860613          	addi	a2,a2,2024 # 0x207e8
   11eb4:	08d00593          	li	a1,141
   11eb8:	50050513          	addi	a0,a0,1280 # 0x20500
   11ebc:	646000ef          	jal	ra,0x12502
   11ec0:	7159                	addi	sp,sp,-112
   11ec2:	f486                	sd	ra,104(sp)
   11ec4:	f0a2                	sd	s0,96(sp)
   11ec6:	eca6                	sd	s1,88(sp)
   11ec8:	e8ca                	sd	s2,80(sp)
   11eca:	e4ce                	sd	s3,72(sp)
   11ecc:	e0d2                	sd	s4,64(sp)
   11ece:	fc56                	sd	s5,56(sp)
   11ed0:	f85a                	sd	s6,48(sp)
   11ed2:	f45e                	sd	s7,40(sp)
   11ed4:	ac22                	fsd	fs0,24(sp)
   11ed6:	cd41                	beqz	a0,0x11f6e
   11ed8:	00020a37          	lui	s4,0x20
   11edc:	84ae                	mv	s1,a1
   11ede:	660a0593          	addi	a1,s4,1632 # 0x20660
   11ee2:	89b2                	mv	s3,a2
   11ee4:	10c020ef          	jal	ra,0x13ff0
   11ee8:	842a                	mv	s0,a0
   11eea:	c52d                	beqz	a0,0x11f54
   11eec:	05305d63          	blez	s3,0x11f46
   11ef0:	4901                	li	s2,0
   11ef2:	00020b37          	lui	s6,0x20
   11ef6:	4aa9                	li	s5,10
   11ef8:	a01d                	j	0x11f1e
   11efa:	8522                	mv	a0,s0
   11efc:	a080                	fsd	fs0,0(s1)
   11efe:	0cc010ef          	jal	ra,0x12fca
   11f02:	9522                	add	a0,a0,s0
   11f04:	01550023          	sb	s5,0(a0)
   11f08:	660a0593          	addi	a1,s4,1632
   11f0c:	4501                	li	a0,0
   11f0e:	0e2020ef          	jal	ra,0x13ff0
   11f12:	842a                	mv	s0,a0
   11f14:	2905                	addiw	s2,s2,1
   11f16:	cd1d                	beqz	a0,0x11f54
   11f18:	04a1                	addi	s1,s1,8
   11f1a:	03298663          	beq	s3,s2,0x11f46
   11f1e:	002c                	addi	a1,sp,8
   11f20:	8522                	mv	a0,s0
   11f22:	e422                	sd	s0,8(sp)
   11f24:	79f010ef          	jal	ra,0x13ec2
   11f28:	67a2                	ld	a5,8(sp)
   11f2a:	22a50453          	fmv.d	fs0,fa0
   11f2e:	0007c783          	lbu	a5,0(a5)
   11f32:	d7e1                	beqz	a5,0x11efa
   11f34:	7501b783          	ld	a5,1872(gp)
   11f38:	864a                	mv	a2,s2
   11f3a:	668b0593          	addi	a1,s6,1640 # 0x20668
   11f3e:	6f88                	ld	a0,24(a5)
   11f40:	696000ef          	jal	ra,0x125d6
   11f44:	bf5d                	j	0x11efa
   11f46:	8522                	mv	a0,s0
   11f48:	082010ef          	jal	ra,0x12fca
   11f4c:	9522                	add	a0,a0,s0
   11f4e:	47a9                	li	a5,10
   11f50:	00f50023          	sb	a5,0(a0)
   11f54:	70a6                	ld	ra,104(sp)
   11f56:	7406                	ld	s0,96(sp)
   11f58:	64e6                	ld	s1,88(sp)
   11f5a:	6946                	ld	s2,80(sp)
   11f5c:	69a6                	ld	s3,72(sp)
   11f5e:	6a06                	ld	s4,64(sp)
   11f60:	7ae2                	ld	s5,56(sp)
   11f62:	7b42                	ld	s6,48(sp)
   11f64:	7ba2                	ld	s7,40(sp)
   11f66:	2462                	fld	fs0,24(sp)
   11f68:	4501                	li	a0,0
   11f6a:	6165                	addi	sp,sp,112
   11f6c:	8082                	ret
   11f6e:	000206b7          	lui	a3,0x20
   11f72:	00021637          	lui	a2,0x21
   11f76:	00020537          	lui	a0,0x20
   11f7a:	63868693          	addi	a3,a3,1592 # 0x20638
   11f7e:	80060613          	addi	a2,a2,-2048 # 0x20800
   11f82:	08e00593          	li	a1,142
   11f86:	50050513          	addi	a0,a0,1280 # 0x20500
   11f8a:	578000ef          	jal	ra,0x12502
   11f8e:	7179                	addi	sp,sp,-48
   11f90:	f406                	sd	ra,40(sp)
   11f92:	f022                	sd	s0,32(sp)
   11f94:	ec26                	sd	s1,24(sp)
   11f96:	e84a                	sd	s2,16(sp)
   11f98:	e44e                	sd	s3,8(sp)
   11f9a:	4785                	li	a5,1
   11f9c:	0aa7d763          	bge	a5,a0,0x1204a
   11fa0:	892a                	mv	s2,a0
   11fa2:	89ae                	mv	s3,a1
   11fa4:	84b2                	mv	s1,a2
   11fa6:	04064c63          	bltz	a2,0x11ffe
   11faa:	02905363          	blez	s1,0x11fd0
   11fae:	4401                	li	s0,0
   11fb0:	4084863b          	subw	a2,s1,s0
   11fb4:	008985b3          	add	a1,s3,s0
   11fb8:	854a                	mv	a0,s2
   11fba:	27a020ef          	jal	ra,0x14234
   11fbe:	02051713          	slli	a4,a0,0x20
   11fc2:	0005079b          	sext.w	a5,a0
   11fc6:	06074263          	bltz	a4,0x1202a
   11fca:	9c3d                	addw	s0,s0,a5
   11fcc:	fe9442e3          	blt	s0,s1,0x11fb0
   11fd0:	00020437          	lui	s0,0x20
   11fd4:	4605                	li	a2,1
   11fd6:	66040593          	addi	a1,s0,1632 # 0x20660
   11fda:	854a                	mv	a0,s2
   11fdc:	258020ef          	jal	ra,0x14234
   11fe0:	02051713          	slli	a4,a0,0x20
   11fe4:	0005079b          	sext.w	a5,a0
   11fe8:	02074163          	bltz	a4,0x1200a
   11fec:	d7e5                	beqz	a5,0x11fd4
   11fee:	70a2                	ld	ra,40(sp)
   11ff0:	7402                	ld	s0,32(sp)
   11ff2:	64e2                	ld	s1,24(sp)
   11ff4:	6942                	ld	s2,16(sp)
   11ff6:	69a2                	ld	s3,8(sp)
   11ff8:	4501                	li	a0,0
   11ffa:	6145                	addi	sp,sp,48
   11ffc:	8082                	ret
   11ffe:	852e                	mv	a0,a1
   12000:	7cb000ef          	jal	ra,0x12fca
   12004:	0005049b          	sext.w	s1,a0
   12008:	b74d                	j	0x11faa
   1200a:	000206b7          	lui	a3,0x20
   1200e:	00021637          	lui	a2,0x21
   12012:	00020537          	lui	a0,0x20
   12016:	51868693          	addi	a3,a3,1304 # 0x20518
   1201a:	81860613          	addi	a2,a2,-2024 # 0x20818
   1201e:	0a000593          	li	a1,160
   12022:	50050513          	addi	a0,a0,1280 # 0x20500
   12026:	4dc000ef          	jal	ra,0x12502
   1202a:	000206b7          	lui	a3,0x20
   1202e:	00021637          	lui	a2,0x21
   12032:	00020537          	lui	a0,0x20
   12036:	51868693          	addi	a3,a3,1304 # 0x20518
   1203a:	81860613          	addi	a2,a2,-2024 # 0x20818
   1203e:	09a00593          	li	a1,154
   12042:	50050513          	addi	a0,a0,1280 # 0x20500
   12046:	4bc000ef          	jal	ra,0x12502
   1204a:	000206b7          	lui	a3,0x20
   1204e:	00021637          	lui	a2,0x21
   12052:	00020537          	lui	a0,0x20
   12056:	57068693          	addi	a3,a3,1392 # 0x20570
   1205a:	81860613          	addi	a2,a2,-2024 # 0x20818
   1205e:	09300593          	li	a1,147
   12062:	50050513          	addi	a0,a0,1280 # 0x20500
   12066:	49c000ef          	jal	ra,0x12502
   1206a:	7179                	addi	sp,sp,-48
   1206c:	f406                	sd	ra,40(sp)
   1206e:	f022                	sd	s0,32(sp)
   12070:	ec26                	sd	s1,24(sp)
   12072:	e84a                	sd	s2,16(sp)
   12074:	e44e                	sd	s3,8(sp)
   12076:	4785                	li	a5,1
   12078:	04a7d063          	bge	a5,a0,0x120b8
   1207c:	02c05663          	blez	a2,0x120a8
   12080:	367d                	addiw	a2,a2,-1
   12082:	1602                	slli	a2,a2,0x20
   12084:	00158913          	addi	s2,a1,1
   12088:	9201                	srli	a2,a2,0x20
   1208a:	84aa                	mv	s1,a0
   1208c:	842e                	mv	s0,a1
   1208e:	9932                	add	s2,s2,a2
   12090:	000209b7          	lui	s3,0x20
   12094:	00044603          	lbu	a2,0(s0)
   12098:	69098593          	addi	a1,s3,1680 # 0x20690
   1209c:	0405                	addi	s0,s0,1
   1209e:	8526                	mv	a0,s1
   120a0:	c26ff0ef          	jal	ra,0x114c6
   120a4:	ff2418e3          	bne	s0,s2,0x12094
   120a8:	70a2                	ld	ra,40(sp)
   120aa:	7402                	ld	s0,32(sp)
   120ac:	64e2                	ld	s1,24(sp)
   120ae:	6942                	ld	s2,16(sp)
   120b0:	69a2                	ld	s3,8(sp)
   120b2:	4501                	li	a0,0
   120b4:	6145                	addi	sp,sp,48
   120b6:	8082                	ret
   120b8:	000206b7          	lui	a3,0x20
   120bc:	00021637          	lui	a2,0x21
   120c0:	00020537          	lui	a0,0x20
   120c4:	57068693          	addi	a3,a3,1392 # 0x20570
   120c8:	82860613          	addi	a2,a2,-2008 # 0x20828
   120cc:	0b100593          	li	a1,177
   120d0:	50050513          	addi	a0,a0,1280 # 0x20500
   120d4:	42e000ef          	jal	ra,0x12502
   120d8:	7179                	addi	sp,sp,-48
   120da:	f406                	sd	ra,40(sp)
   120dc:	f022                	sd	s0,32(sp)
   120de:	ec26                	sd	s1,24(sp)
   120e0:	e84a                	sd	s2,16(sp)
   120e2:	e44e                	sd	s3,8(sp)
   120e4:	4785                	li	a5,1
   120e6:	04a7d163          	bge	a5,a0,0x12128
   120ea:	02c05763          	blez	a2,0x12118
   120ee:	fff6049b          	addiw	s1,a2,-1
   120f2:	1482                	slli	s1,s1,0x20
   120f4:	80fd                	srli	s1,s1,0x1f
   120f6:	00258793          	addi	a5,a1,2
   120fa:	892a                	mv	s2,a0
   120fc:	842e                	mv	s0,a1
   120fe:	94be                	add	s1,s1,a5
   12100:	000209b7          	lui	s3,0x20
   12104:	00045603          	lhu	a2,0(s0)
   12108:	69898593          	addi	a1,s3,1688 # 0x20698
   1210c:	0409                	addi	s0,s0,2
   1210e:	854a                	mv	a0,s2
   12110:	bb6ff0ef          	jal	ra,0x114c6
   12114:	fe8498e3          	bne	s1,s0,0x12104
   12118:	70a2                	ld	ra,40(sp)
   1211a:	7402                	ld	s0,32(sp)
   1211c:	64e2                	ld	s1,24(sp)
   1211e:	6942                	ld	s2,16(sp)
   12120:	69a2                	ld	s3,8(sp)
   12122:	4501                	li	a0,0
   12124:	6145                	addi	sp,sp,48
   12126:	8082                	ret
   12128:	000206b7          	lui	a3,0x20
   1212c:	00021637          	lui	a2,0x21
   12130:	00020537          	lui	a0,0x20
   12134:	57068693          	addi	a3,a3,1392 # 0x20570
   12138:	84060613          	addi	a2,a2,-1984 # 0x20840
   1213c:	0b200593          	li	a1,178
   12140:	50050513          	addi	a0,a0,1280 # 0x20500
   12144:	3be000ef          	jal	ra,0x12502
   12148:	7179                	addi	sp,sp,-48
   1214a:	f406                	sd	ra,40(sp)
   1214c:	f022                	sd	s0,32(sp)
   1214e:	ec26                	sd	s1,24(sp)
   12150:	e84a                	sd	s2,16(sp)
   12152:	e44e                	sd	s3,8(sp)
   12154:	4785                	li	a5,1
   12156:	04a7d063          	bge	a5,a0,0x12196
   1215a:	02c05663          	blez	a2,0x12186
   1215e:	fff6049b          	addiw	s1,a2,-1
   12162:	1482                	slli	s1,s1,0x20
   12164:	80f9                	srli	s1,s1,0x1e
   12166:	00458793          	addi	a5,a1,4
   1216a:	892a                	mv	s2,a0
   1216c:	842e                	mv	s0,a1
   1216e:	94be                	add	s1,s1,a5
   12170:	000209b7          	lui	s3,0x20
   12174:	4010                	lw	a2,0(s0)
   12176:	6a098593          	addi	a1,s3,1696 # 0x206a0
   1217a:	0411                	addi	s0,s0,4
   1217c:	854a                	mv	a0,s2
   1217e:	b48ff0ef          	jal	ra,0x114c6
   12182:	fe9419e3          	bne	s0,s1,0x12174
   12186:	70a2                	ld	ra,40(sp)
   12188:	7402                	ld	s0,32(sp)
   1218a:	64e2                	ld	s1,24(sp)
   1218c:	6942                	ld	s2,16(sp)
   1218e:	69a2                	ld	s3,8(sp)
   12190:	4501                	li	a0,0
   12192:	6145                	addi	sp,sp,48
   12194:	8082                	ret
   12196:	000206b7          	lui	a3,0x20
   1219a:	00021637          	lui	a2,0x21
   1219e:	00020537          	lui	a0,0x20
   121a2:	57068693          	addi	a3,a3,1392 # 0x20570
   121a6:	85860613          	addi	a2,a2,-1960 # 0x20858
   121aa:	0b300593          	li	a1,179
   121ae:	50050513          	addi	a0,a0,1280 # 0x20500
   121b2:	350000ef          	jal	ra,0x12502
   121b6:	7179                	addi	sp,sp,-48
   121b8:	f406                	sd	ra,40(sp)
   121ba:	f022                	sd	s0,32(sp)
   121bc:	ec26                	sd	s1,24(sp)
   121be:	e84a                	sd	s2,16(sp)
   121c0:	e44e                	sd	s3,8(sp)
   121c2:	4785                	li	a5,1
   121c4:	04a7d063          	bge	a5,a0,0x12204
   121c8:	02c05663          	blez	a2,0x121f4
   121cc:	fff6049b          	addiw	s1,a2,-1
   121d0:	1482                	slli	s1,s1,0x20
   121d2:	80f5                	srli	s1,s1,0x1d
   121d4:	00858793          	addi	a5,a1,8
   121d8:	892a                	mv	s2,a0
   121da:	842e                	mv	s0,a1
   121dc:	94be                	add	s1,s1,a5
   121de:	000209b7          	lui	s3,0x20
   121e2:	6010                	ld	a2,0(s0)
   121e4:	6a898593          	addi	a1,s3,1704 # 0x206a8
   121e8:	0421                	addi	s0,s0,8
   121ea:	854a                	mv	a0,s2
   121ec:	adaff0ef          	jal	ra,0x114c6
   121f0:	fe9419e3          	bne	s0,s1,0x121e2
   121f4:	70a2                	ld	ra,40(sp)
   121f6:	7402                	ld	s0,32(sp)
   121f8:	64e2                	ld	s1,24(sp)
   121fa:	6942                	ld	s2,16(sp)
   121fc:	69a2                	ld	s3,8(sp)
   121fe:	4501                	li	a0,0
   12200:	6145                	addi	sp,sp,48
   12202:	8082                	ret
   12204:	000206b7          	lui	a3,0x20
   12208:	00021637          	lui	a2,0x21
   1220c:	00020537          	lui	a0,0x20
   12210:	57068693          	addi	a3,a3,1392 # 0x20570
   12214:	87060613          	addi	a2,a2,-1936 # 0x20870
   12218:	0b400593          	li	a1,180
   1221c:	50050513          	addi	a0,a0,1280 # 0x20500
   12220:	2e2000ef          	jal	ra,0x12502
   12224:	7179                	addi	sp,sp,-48
   12226:	f406                	sd	ra,40(sp)
   12228:	f022                	sd	s0,32(sp)
   1222a:	ec26                	sd	s1,24(sp)
   1222c:	e84a                	sd	s2,16(sp)
   1222e:	e44e                	sd	s3,8(sp)
   12230:	4785                	li	a5,1
   12232:	04a7d063          	bge	a5,a0,0x12272
   12236:	02c05663          	blez	a2,0x12262
   1223a:	367d                	addiw	a2,a2,-1
   1223c:	1602                	slli	a2,a2,0x20
   1223e:	00158913          	addi	s2,a1,1
   12242:	9201                	srli	a2,a2,0x20
   12244:	84aa                	mv	s1,a0
   12246:	842e                	mv	s0,a1
   12248:	9932                	add	s2,s2,a2
   1224a:	000209b7          	lui	s3,0x20
   1224e:	00040603          	lb	a2,0(s0)
   12252:	6b098593          	addi	a1,s3,1712 # 0x206b0
   12256:	0405                	addi	s0,s0,1
   12258:	8526                	mv	a0,s1
   1225a:	a6cff0ef          	jal	ra,0x114c6
   1225e:	ff2418e3          	bne	s0,s2,0x1224e
   12262:	70a2                	ld	ra,40(sp)
   12264:	7402                	ld	s0,32(sp)
   12266:	64e2                	ld	s1,24(sp)
   12268:	6942                	ld	s2,16(sp)
   1226a:	69a2                	ld	s3,8(sp)
   1226c:	4501                	li	a0,0
   1226e:	6145                	addi	sp,sp,48
   12270:	8082                	ret
   12272:	000206b7          	lui	a3,0x20
   12276:	00021637          	lui	a2,0x21
   1227a:	00020537          	lui	a0,0x20
   1227e:	57068693          	addi	a3,a3,1392 # 0x20570
   12282:	88860613          	addi	a2,a2,-1912 # 0x20888
   12286:	0b500593          	li	a1,181
   1228a:	50050513          	addi	a0,a0,1280 # 0x20500
   1228e:	274000ef          	jal	ra,0x12502
   12292:	7179                	addi	sp,sp,-48
   12294:	f406                	sd	ra,40(sp)
   12296:	f022                	sd	s0,32(sp)
   12298:	ec26                	sd	s1,24(sp)
   1229a:	e84a                	sd	s2,16(sp)
   1229c:	e44e                	sd	s3,8(sp)
   1229e:	4785                	li	a5,1
   122a0:	04a7d163          	bge	a5,a0,0x122e2
   122a4:	02c05763          	blez	a2,0x122d2
   122a8:	fff6049b          	addiw	s1,a2,-1
   122ac:	1482                	slli	s1,s1,0x20
   122ae:	80fd                	srli	s1,s1,0x1f
   122b0:	00258793          	addi	a5,a1,2
   122b4:	892a                	mv	s2,a0
   122b6:	842e                	mv	s0,a1
   122b8:	94be                	add	s1,s1,a5
   122ba:	000209b7          	lui	s3,0x20
   122be:	00041603          	lh	a2,0(s0)
   122c2:	6b898593          	addi	a1,s3,1720 # 0x206b8
   122c6:	0409                	addi	s0,s0,2
   122c8:	854a                	mv	a0,s2
   122ca:	9fcff0ef          	jal	ra,0x114c6
   122ce:	fe8498e3          	bne	s1,s0,0x122be
   122d2:	70a2                	ld	ra,40(sp)
   122d4:	7402                	ld	s0,32(sp)
   122d6:	64e2                	ld	s1,24(sp)
   122d8:	6942                	ld	s2,16(sp)
   122da:	69a2                	ld	s3,8(sp)
   122dc:	4501                	li	a0,0
   122de:	6145                	addi	sp,sp,48
   122e0:	8082                	ret
   122e2:	000206b7          	lui	a3,0x20
   122e6:	00021637          	lui	a2,0x21
   122ea:	00020537          	lui	a0,0x20
   122ee:	57068693          	addi	a3,a3,1392 # 0x20570
   122f2:	8a060613          	addi	a2,a2,-1888 # 0x208a0
   122f6:	0b600593          	li	a1,182
   122fa:	50050513          	addi	a0,a0,1280 # 0x20500
   122fe:	204000ef          	jal	ra,0x12502
   12302:	7179                	addi	sp,sp,-48
   12304:	f406                	sd	ra,40(sp)
   12306:	f022                	sd	s0,32(sp)
   12308:	ec26                	sd	s1,24(sp)
   1230a:	e84a                	sd	s2,16(sp)
   1230c:	e44e                	sd	s3,8(sp)
   1230e:	4785                	li	a5,1
   12310:	04a7d063          	bge	a5,a0,0x12350
   12314:	02c05663          	blez	a2,0x12340
   12318:	fff6049b          	addiw	s1,a2,-1
   1231c:	1482                	slli	s1,s1,0x20
   1231e:	80f9                	srli	s1,s1,0x1e
   12320:	00458793          	addi	a5,a1,4
   12324:	892a                	mv	s2,a0
   12326:	842e                	mv	s0,a1
   12328:	94be                	add	s1,s1,a5
   1232a:	000209b7          	lui	s3,0x20
   1232e:	4010                	lw	a2,0(s0)
   12330:	6c098593          	addi	a1,s3,1728 # 0x206c0
   12334:	0411                	addi	s0,s0,4
   12336:	854a                	mv	a0,s2
   12338:	98eff0ef          	jal	ra,0x114c6
   1233c:	fe9419e3          	bne	s0,s1,0x1232e
   12340:	70a2                	ld	ra,40(sp)
   12342:	7402                	ld	s0,32(sp)
   12344:	64e2                	ld	s1,24(sp)
   12346:	6942                	ld	s2,16(sp)
   12348:	69a2                	ld	s3,8(sp)
   1234a:	4501                	li	a0,0
   1234c:	6145                	addi	sp,sp,48
   1234e:	8082                	ret
   12350:	000206b7          	lui	a3,0x20
   12354:	00021637          	lui	a2,0x21
   12358:	00020537          	lui	a0,0x20
   1235c:	57068693          	addi	a3,a3,1392 # 0x20570
   12360:	8b860613          	addi	a2,a2,-1864 # 0x208b8
   12364:	0b700593          	li	a1,183
   12368:	50050513          	addi	a0,a0,1280 # 0x20500
   1236c:	196000ef          	jal	ra,0x12502
   12370:	7179                	addi	sp,sp,-48
   12372:	f406                	sd	ra,40(sp)
   12374:	f022                	sd	s0,32(sp)
   12376:	ec26                	sd	s1,24(sp)
   12378:	e84a                	sd	s2,16(sp)
   1237a:	e44e                	sd	s3,8(sp)
   1237c:	4785                	li	a5,1
   1237e:	04a7d063          	bge	a5,a0,0x123be
   12382:	02c05663          	blez	a2,0x123ae
   12386:	fff6049b          	addiw	s1,a2,-1
   1238a:	1482                	slli	s1,s1,0x20
   1238c:	80f5                	srli	s1,s1,0x1d
   1238e:	00858793          	addi	a5,a1,8
   12392:	892a                	mv	s2,a0
   12394:	842e                	mv	s0,a1
   12396:	94be                	add	s1,s1,a5
   12398:	000209b7          	lui	s3,0x20
   1239c:	6010                	ld	a2,0(s0)
   1239e:	6c898593          	addi	a1,s3,1736 # 0x206c8
   123a2:	0421                	addi	s0,s0,8
   123a4:	854a                	mv	a0,s2
   123a6:	920ff0ef          	jal	ra,0x114c6
   123aa:	fe9419e3          	bne	s0,s1,0x1239c
   123ae:	70a2                	ld	ra,40(sp)
   123b0:	7402                	ld	s0,32(sp)
   123b2:	64e2                	ld	s1,24(sp)
   123b4:	6942                	ld	s2,16(sp)
   123b6:	69a2                	ld	s3,8(sp)
   123b8:	4501                	li	a0,0
   123ba:	6145                	addi	sp,sp,48
   123bc:	8082                	ret
   123be:	000206b7          	lui	a3,0x20
   123c2:	00021637          	lui	a2,0x21
   123c6:	00020537          	lui	a0,0x20
   123ca:	57068693          	addi	a3,a3,1392 # 0x20570
   123ce:	8d060613          	addi	a2,a2,-1840 # 0x208d0
   123d2:	0b800593          	li	a1,184
   123d6:	50050513          	addi	a0,a0,1280 # 0x20500
   123da:	128000ef          	jal	ra,0x12502
   123de:	7179                	addi	sp,sp,-48
   123e0:	f406                	sd	ra,40(sp)
   123e2:	f022                	sd	s0,32(sp)
   123e4:	ec26                	sd	s1,24(sp)
   123e6:	e84a                	sd	s2,16(sp)
   123e8:	e44e                	sd	s3,8(sp)
   123ea:	4785                	li	a5,1
   123ec:	04a7d563          	bge	a5,a0,0x12436
   123f0:	02c05b63          	blez	a2,0x12426
   123f4:	fff6049b          	addiw	s1,a2,-1
   123f8:	1482                	slli	s1,s1,0x20
   123fa:	80f9                	srli	s1,s1,0x1e
   123fc:	00458793          	addi	a5,a1,4
   12400:	892a                	mv	s2,a0
   12402:	842e                	mv	s0,a1
   12404:	94be                	add	s1,s1,a5
   12406:	000209b7          	lui	s3,0x20
   1240a:	00042787          	flw	fa5,0(s0)
   1240e:	6d098593          	addi	a1,s3,1744 # 0x206d0
   12412:	0411                	addi	s0,s0,4
   12414:	420787d3          	fcvt.d.s	fa5,fa5
   12418:	854a                	mv	a0,s2
   1241a:	e2078653          	fmv.x.d	a2,fa5
   1241e:	8a8ff0ef          	jal	ra,0x114c6
   12422:	fe8494e3          	bne	s1,s0,0x1240a
   12426:	70a2                	ld	ra,40(sp)
   12428:	7402                	ld	s0,32(sp)
   1242a:	64e2                	ld	s1,24(sp)
   1242c:	6942                	ld	s2,16(sp)
   1242e:	69a2                	ld	s3,8(sp)
   12430:	4501                	li	a0,0
   12432:	6145                	addi	sp,sp,48
   12434:	8082                	ret
   12436:	000206b7          	lui	a3,0x20
   1243a:	00021637          	lui	a2,0x21
   1243e:	00020537          	lui	a0,0x20
   12442:	57068693          	addi	a3,a3,1392 # 0x20570
   12446:	8e860613          	addi	a2,a2,-1816 # 0x208e8
   1244a:	0ba00593          	li	a1,186
   1244e:	50050513          	addi	a0,a0,1280 # 0x20500
   12452:	0b0000ef          	jal	ra,0x12502
   12456:	7179                	addi	sp,sp,-48
   12458:	f406                	sd	ra,40(sp)
   1245a:	f022                	sd	s0,32(sp)
   1245c:	ec26                	sd	s1,24(sp)
   1245e:	e84a                	sd	s2,16(sp)
   12460:	e44e                	sd	s3,8(sp)
   12462:	4785                	li	a5,1
   12464:	04a7d063          	bge	a5,a0,0x124a4
   12468:	02c05663          	blez	a2,0x12494
   1246c:	fff6049b          	addiw	s1,a2,-1
   12470:	1482                	slli	s1,s1,0x20
   12472:	80f5                	srli	s1,s1,0x1d
   12474:	00858793          	addi	a5,a1,8
   12478:	892a                	mv	s2,a0
   1247a:	842e                	mv	s0,a1
   1247c:	94be                	add	s1,s1,a5
   1247e:	000209b7          	lui	s3,0x20
   12482:	6010                	ld	a2,0(s0)
   12484:	6d098593          	addi	a1,s3,1744 # 0x206d0
   12488:	0421                	addi	s0,s0,8
   1248a:	854a                	mv	a0,s2
   1248c:	83aff0ef          	jal	ra,0x114c6
   12490:	fe9419e3          	bne	s0,s1,0x12482
   12494:	70a2                	ld	ra,40(sp)
   12496:	7402                	ld	s0,32(sp)
   12498:	64e2                	ld	s1,24(sp)
   1249a:	6942                	ld	s2,16(sp)
   1249c:	69a2                	ld	s3,8(sp)
   1249e:	4501                	li	a0,0
   124a0:	6145                	addi	sp,sp,48
   124a2:	8082                	ret
   124a4:	000206b7          	lui	a3,0x20
   124a8:	00021637          	lui	a2,0x21
   124ac:	00020537          	lui	a0,0x20
   124b0:	57068693          	addi	a3,a3,1392 # 0x20570
   124b4:	90060613          	addi	a2,a2,-1792 # 0x20900
   124b8:	0bb00593          	li	a1,187
   124bc:	50050513          	addi	a0,a0,1280 # 0x20500
   124c0:	042000ef          	jal	ra,0x12502
   124c4:	1141                	addi	sp,sp,-16
   124c6:	e406                	sd	ra,8(sp)
   124c8:	4785                	li	a5,1
   124ca:	00a7dc63          	bge	a5,a0,0x124e2
   124ce:	000205b7          	lui	a1,0x20
   124d2:	6d858593          	addi	a1,a1,1752 # 0x206d8
   124d6:	ff1fe0ef          	jal	ra,0x114c6
   124da:	60a2                	ld	ra,8(sp)
   124dc:	4501                	li	a0,0
   124de:	0141                	addi	sp,sp,16
   124e0:	8082                	ret
   124e2:	000206b7          	lui	a3,0x20
   124e6:	00021637          	lui	a2,0x21
   124ea:	00020537          	lui	a0,0x20
   124ee:	57068693          	addi	a3,a3,1392 # 0x20570
   124f2:	91860613          	addi	a2,a2,-1768 # 0x20918
   124f6:	0be00593          	li	a1,190
   124fa:	50050513          	addi	a0,a0,1280 # 0x20500
   124fe:	004000ef          	jal	ra,0x12502
   12502:	1141                	addi	sp,sp,-16
   12504:	87b6                	mv	a5,a3
   12506:	7501b703          	ld	a4,1872(gp)
   1250a:	8832                	mv	a6,a2
   1250c:	e406                	sd	ra,8(sp)
   1250e:	01873883          	ld	a7,24(a4)
   12512:	863e                	mv	a2,a5
   12514:	86aa                	mv	a3,a0
   12516:	872e                	mv	a4,a1
   12518:	0000e797          	auipc	a5,0xe
   1251c:	63078793          	addi	a5,a5,1584 # 0x20b48
   12520:	00080b63          	beqz	a6,0x12536
   12524:	0000e597          	auipc	a1,0xe
   12528:	63458593          	addi	a1,a1,1588 # 0x20b58
   1252c:	8546                	mv	a0,a7
   1252e:	05e000ef          	jal	ra,0x1258c
   12532:	10d040ef          	jal	ra,0x16e3e
   12536:	0000e797          	auipc	a5,0xe
   1253a:	5fa78793          	addi	a5,a5,1530 # 0x20b30
   1253e:	883e                	mv	a6,a5
   12540:	b7d5                	j	0x12524
   12542:	1141                	addi	sp,sp,-16
   12544:	86b2                	mv	a3,a2
   12546:	4601                	li	a2,0
   12548:	e406                	sd	ra,8(sp)
   1254a:	fb9ff0ef          	jal	ra,0x12502
   1254e:	1141                	addi	sp,sp,-16
   12550:	4581                	li	a1,0
   12552:	e022                	sd	s0,0(sp)
   12554:	e406                	sd	ra,8(sp)
   12556:	842a                	mv	s0,a0
   12558:	0f7040ef          	jal	ra,0x16e4e
   1255c:	7381b503          	ld	a0,1848(gp)
   12560:	6d3c                	ld	a5,88(a0)
   12562:	c391                	beqz	a5,0x12566
   12564:	9782                	jalr	a5
   12566:	8522                	mv	a0,s0
   12568:	7ea0c0ef          	jal	ra,0x1ed52
   1256c:	715d                	addi	sp,sp,-80
   1256e:	02810313          	addi	t1,sp,40
   12572:	f436                	sd	a3,40(sp)
   12574:	869a                	mv	a3,t1
   12576:	ec06                	sd	ra,24(sp)
   12578:	f83a                	sd	a4,48(sp)
   1257a:	fc3e                	sd	a5,56(sp)
   1257c:	e0c2                	sd	a6,64(sp)
   1257e:	e4c6                	sd	a7,72(sp)
   12580:	e41a                	sd	t1,8(sp)
   12582:	573010ef          	jal	ra,0x142f4
   12586:	60e2                	ld	ra,24(sp)
   12588:	6161                	addi	sp,sp,80
   1258a:	8082                	ret
   1258c:	715d                	addi	sp,sp,-80
   1258e:	02010313          	addi	t1,sp,32
   12592:	f032                	sd	a2,32(sp)
   12594:	f436                	sd	a3,40(sp)
   12596:	862e                	mv	a2,a1
   12598:	869a                	mv	a3,t1
   1259a:	85aa                	mv	a1,a0
   1259c:	7501b503          	ld	a0,1872(gp)
   125a0:	ec06                	sd	ra,24(sp)
   125a2:	f83a                	sd	a4,48(sp)
   125a4:	fc3e                	sd	a5,56(sp)
   125a6:	e0c2                	sd	a6,64(sp)
   125a8:	e4c6                	sd	a7,72(sp)
   125aa:	e41a                	sd	t1,8(sp)
   125ac:	549010ef          	jal	ra,0x142f4
   125b0:	60e2                	ld	ra,24(sp)
   125b2:	6161                	addi	sp,sp,80
   125b4:	8082                	ret
   125b6:	715d                	addi	sp,sp,-80
   125b8:	02810313          	addi	t1,sp,40
   125bc:	f436                	sd	a3,40(sp)
   125be:	869a                	mv	a3,t1
   125c0:	ec06                	sd	ra,24(sp)
   125c2:	f83a                	sd	a4,48(sp)
   125c4:	fc3e                	sd	a5,56(sp)
   125c6:	e0c2                	sd	a6,64(sp)
   125c8:	e4c6                	sd	a7,72(sp)
   125ca:	e41a                	sd	t1,8(sp)
   125cc:	1f9020ef          	jal	ra,0x14fc4
   125d0:	60e2                	ld	ra,24(sp)
   125d2:	6161                	addi	sp,sp,80
   125d4:	8082                	ret
   125d6:	715d                	addi	sp,sp,-80
   125d8:	02010313          	addi	t1,sp,32
   125dc:	f032                	sd	a2,32(sp)
   125de:	f436                	sd	a3,40(sp)
   125e0:	862e                	mv	a2,a1
   125e2:	869a                	mv	a3,t1
   125e4:	85aa                	mv	a1,a0
   125e6:	7501b503          	ld	a0,1872(gp)
   125ea:	ec06                	sd	ra,24(sp)
   125ec:	f83a                	sd	a4,48(sp)
   125ee:	fc3e                	sd	a5,56(sp)
   125f0:	e0c2                	sd	a6,64(sp)
   125f2:	e4c6                	sd	a7,72(sp)
   125f4:	e41a                	sd	t1,8(sp)
   125f6:	1cf020ef          	jal	ra,0x14fc4
   125fa:	60e2                	ld	ra,24(sp)
   125fc:	6161                	addi	sp,sp,80
   125fe:	8082                	ret
   12600:	7159                	addi	sp,sp,-112
   12602:	e8ca                	sd	s2,80(sp)
   12604:	02c68933          	mul	s2,a3,a2
   12608:	083c                	addi	a5,sp,24
   1260a:	f43e                	sd	a5,40(sp)
   1260c:	4785                	li	a5,1
   1260e:	f0a2                	sd	s0,96(sp)
   12610:	eca6                	sd	s1,88(sp)
   12612:	e4ce                	sd	s3,72(sp)
   12614:	ec2e                	sd	a1,24(sp)
   12616:	f486                	sd	ra,104(sp)
   12618:	d83e                	sw	a5,48(sp)
   1261a:	f04a                	sd	s2,32(sp)
   1261c:	fc4a                	sd	s2,56(sp)
   1261e:	89b2                	mv	s3,a2
   12620:	8436                	mv	s0,a3
   12622:	84aa                	mv	s1,a0
   12624:	85ba                	mv	a1,a4
   12626:	c119                	beqz	a0,0x1262c
   12628:	493c                	lw	a5,80(a0)
   1262a:	c7a1                	beqz	a5,0x12672
   1262c:	01059783          	lh	a5,16(a1)
   12630:	03279713          	slli	a4,a5,0x32
   12634:	00074d63          	bltz	a4,0x1264e
   12638:	0ac5a703          	lw	a4,172(a1)
   1263c:	6689                	lui	a3,0x2
   1263e:	8fd5                	or	a5,a5,a3
   12640:	76f9                	lui	a3,0xffffe
   12642:	16fd                	addi	a3,a3,-1
   12644:	8f75                	and	a4,a4,a3
   12646:	00f59823          	sh	a5,16(a1)
   1264a:	0ae5a623          	sw	a4,172(a1)
   1264e:	1030                	addi	a2,sp,40
   12650:	8526                	mv	a0,s1
   12652:	230050ef          	jal	ra,0x17882
   12656:	c511                	beqz	a0,0x12662
   12658:	7462                	ld	s0,56(sp)
   1265a:	40890433          	sub	s0,s2,s0
   1265e:	03345433          	divu	s0,s0,s3
   12662:	70a6                	ld	ra,104(sp)
   12664:	8522                	mv	a0,s0
   12666:	7406                	ld	s0,96(sp)
   12668:	64e6                	ld	s1,88(sp)
   1266a:	6946                	ld	s2,80(sp)
   1266c:	69a6                	ld	s3,72(sp)
   1266e:	6165                	addi	sp,sp,112
   12670:	8082                	ret
   12672:	e43a                	sd	a4,8(sp)
   12674:	507040ef          	jal	ra,0x1737a
   12678:	65a2                	ld	a1,8(sp)
   1267a:	bf4d                	j	0x1262c
   1267c:	8736                	mv	a4,a3
   1267e:	86b2                	mv	a3,a2
   12680:	862e                	mv	a2,a1
   12682:	85aa                	mv	a1,a0
   12684:	7501b503          	ld	a0,1872(gp)
   12688:	bfa5                	j	0x12600
   1268a:	1101                	addi	sp,sp,-32
   1268c:	e822                	sd	s0,16(sp)
   1268e:	e04a                	sd	s2,0(sp)
   12690:	00010417          	auipc	s0,0x10
   12694:	45440413          	addi	s0,s0,1108 # 0x22ae4
   12698:	00010917          	auipc	s2,0x10
   1269c:	44c90913          	addi	s2,s2,1100 # 0x22ae4
   126a0:	40890933          	sub	s2,s2,s0
   126a4:	ec06                	sd	ra,24(sp)
   126a6:	e426                	sd	s1,8(sp)
   126a8:	40395913          	srai	s2,s2,0x3
   126ac:	00090963          	beqz	s2,0x126be
   126b0:	4481                	li	s1,0
   126b2:	601c                	ld	a5,0(s0)
   126b4:	0485                	addi	s1,s1,1
   126b6:	0421                	addi	s0,s0,8
   126b8:	9782                	jalr	a5
   126ba:	fe991ce3          	bne	s2,s1,0x126b2
   126be:	00010417          	auipc	s0,0x10
   126c2:	42a40413          	addi	s0,s0,1066 # 0x22ae8
   126c6:	00010917          	auipc	s2,0x10
   126ca:	43290913          	addi	s2,s2,1074 # 0x22af8
   126ce:	40890933          	sub	s2,s2,s0
   126d2:	40395913          	srai	s2,s2,0x3
   126d6:	00090963          	beqz	s2,0x126e8
   126da:	4481                	li	s1,0
   126dc:	601c                	ld	a5,0(s0)
   126de:	0485                	addi	s1,s1,1
   126e0:	0421                	addi	s0,s0,8
   126e2:	9782                	jalr	a5
   126e4:	fe991ce3          	bne	s2,s1,0x126dc
   126e8:	60e2                	ld	ra,24(sp)
   126ea:	6442                	ld	s0,16(sp)
   126ec:	64a2                	ld	s1,8(sp)
   126ee:	6902                	ld	s2,0(sp)
   126f0:	6105                	addi	sp,sp,32
   126f2:	8082                	ret
   126f4:	85aa                	mv	a1,a0
   126f6:	7501b503          	ld	a0,1872(gp)
   126fa:	a031                	j	0x12706
   126fc:	85aa                	mv	a1,a0
   126fe:	7501b503          	ld	a0,1872(gp)
   12702:	6f50406f          	j	0x175f6
   12706:	711d                	addi	sp,sp,-96
   12708:	e4a6                	sd	s1,72(sp)
   1270a:	e0ca                	sd	s2,64(sp)
   1270c:	ec86                	sd	ra,88(sp)
   1270e:	e8a2                	sd	s0,80(sp)
   12710:	fc4e                	sd	s3,56(sp)
   12712:	f852                	sd	s4,48(sp)
   12714:	f456                	sd	s5,40(sp)
   12716:	f05a                	sd	s6,32(sp)
   12718:	ec5e                	sd	s7,24(sp)
   1271a:	e862                	sd	s8,16(sp)
   1271c:	e466                	sd	s9,8(sp)
   1271e:	01758493          	addi	s1,a1,23
   12722:	02e00793          	li	a5,46
   12726:	892a                	mv	s2,a0
   12728:	0497e863          	bltu	a5,s1,0x12778
   1272c:	02000793          	li	a5,32
   12730:	1eb7e663          	bltu	a5,a1,0x1291c
   12734:	7d2000ef          	jal	ra,0x12f06
   12738:	02000493          	li	s1,32
   1273c:	4611                	li	a2,4
   1273e:	05000793          	li	a5,80
   12742:	00011997          	auipc	s3,0x11
   12746:	b0698993          	addi	s3,s3,-1274 # 0x23248
   1274a:	97ce                	add	a5,a5,s3
   1274c:	6780                	ld	s0,8(a5)
   1274e:	ff078713          	addi	a4,a5,-16
   12752:	1ee40663          	beq	s0,a4,0x1293e
   12756:	641c                	ld	a5,8(s0)
   12758:	6c14                	ld	a3,24(s0)
   1275a:	6810                	ld	a2,16(s0)
   1275c:	9bf1                	andi	a5,a5,-4
   1275e:	97a2                	add	a5,a5,s0
   12760:	6798                	ld	a4,8(a5)
   12762:	ee14                	sd	a3,24(a2)
   12764:	ea90                	sd	a2,16(a3)
   12766:	00176713          	ori	a4,a4,1
   1276a:	854a                	mv	a0,s2
   1276c:	e798                	sd	a4,8(a5)
   1276e:	79a000ef          	jal	ra,0x12f08
   12772:	01040513          	addi	a0,s0,16
   12776:	a27d                	j	0x12924
   12778:	800007b7          	lui	a5,0x80000
   1277c:	98c1                	andi	s1,s1,-16
   1277e:	fff7c793          	not	a5,a5
   12782:	1897ed63          	bltu	a5,s1,0x1291c
   12786:	18b4eb63          	bltu	s1,a1,0x1291c
   1278a:	77c000ef          	jal	ra,0x12f06
   1278e:	1f700793          	li	a5,503
   12792:	3a97f563          	bgeu	a5,s1,0x12b3c
   12796:	0094d793          	srli	a5,s1,0x9
   1279a:	28078163          	beqz	a5,0x12a1c
   1279e:	4711                	li	a4,4
   127a0:	30f76563          	bltu	a4,a5,0x12aaa
   127a4:	0064d793          	srli	a5,s1,0x6
   127a8:	0397861b          	addiw	a2,a5,57
   127ac:	0016169b          	slliw	a3,a2,0x1
   127b0:	0387851b          	addiw	a0,a5,56
   127b4:	068e                	slli	a3,a3,0x3
   127b6:	00011997          	auipc	s3,0x11
   127ba:	a9298993          	addi	s3,s3,-1390 # 0x23248
   127be:	96ce                	add	a3,a3,s3
   127c0:	6680                	ld	s0,8(a3)
   127c2:	16c1                	addi	a3,a3,-16
   127c4:	18868163          	beq	a3,s0,0x12946
   127c8:	45fd                	li	a1,31
   127ca:	a031                	j	0x127d6
   127cc:	28075963          	bgez	a4,0x12a5e
   127d0:	6c00                	ld	s0,24(s0)
   127d2:	16868a63          	beq	a3,s0,0x12946
   127d6:	641c                	ld	a5,8(s0)
   127d8:	9bf1                	andi	a5,a5,-4
   127da:	40978733          	sub	a4,a5,s1
   127de:	fee5d7e3          	bge	a1,a4,0x127cc
   127e2:	0209b403          	ld	s0,32(s3)
   127e6:	00011897          	auipc	a7,0x11
   127ea:	a7288893          	addi	a7,a7,-1422 # 0x23258
   127ee:	862a                	mv	a2,a0
   127f0:	17141363          	bne	s0,a7,0x12956
   127f4:	0089b783          	ld	a5,8(s3)
   127f8:	4026571b          	sraiw	a4,a2,0x2
   127fc:	4585                	li	a1,1
   127fe:	00e595b3          	sll	a1,a1,a4
   12802:	1ab7fa63          	bgeu	a5,a1,0x129b6
   12806:	0109b403          	ld	s0,16(s3)
   1280a:	00843a03          	ld	s4,8(s0)
   1280e:	ffca7a93          	andi	s5,s4,-4
   12812:	009ae763          	bltu	s5,s1,0x12820
   12816:	409a87b3          	sub	a5,s5,s1
   1281a:	477d                	li	a4,31
   1281c:	22f74263          	blt	a4,a5,0x12a40
   12820:	75818c93          	addi	s9,gp,1880
   12824:	000cb703          	ld	a4,0(s9)
   12828:	7801ba03          	ld	s4,1920(gp)
   1282c:	57fd                	li	a5,-1
   1282e:	01540bb3          	add	s7,s0,s5
   12832:	9a26                	add	s4,s4,s1
   12834:	3af70263          	beq	a4,a5,0x12bd8
   12838:	6785                	lui	a5,0x1
   1283a:	07fd                	addi	a5,a5,31
   1283c:	9a3e                	add	s4,s4,a5
   1283e:	77fd                	lui	a5,0xfffff
   12840:	00fa7a33          	and	s4,s4,a5
   12844:	85d2                	mv	a1,s4
   12846:	854a                	mv	a0,s2
   12848:	74a000ef          	jal	ra,0x12f92
   1284c:	57fd                	li	a5,-1
   1284e:	8b2a                	mv	s6,a0
   12850:	30f50b63          	beq	a0,a5,0x12b66
   12854:	31756763          	bltu	a0,s7,0x12b62
   12858:	7d018c13          	addi	s8,gp,2000
   1285c:	000c2703          	lw	a4,0(s8)
   12860:	014707bb          	addw	a5,a4,s4
   12864:	00fc2023          	sw	a5,0(s8)
   12868:	86be                	mv	a3,a5
   1286a:	40ab8063          	beq	s7,a0,0x12c6a
   1286e:	000cb703          	ld	a4,0(s9)
   12872:	57fd                	li	a5,-1
   12874:	40f70763          	beq	a4,a5,0x12c82
   12878:	417b07b3          	sub	a5,s6,s7
   1287c:	9fb5                	addw	a5,a5,a3
   1287e:	00fc2023          	sw	a5,0(s8)
   12882:	00fb7b93          	andi	s7,s6,15
   12886:	360b8763          	beqz	s7,0x12bf4
   1288a:	6705                	lui	a4,0x1
   1288c:	417b0b33          	sub	s6,s6,s7
   12890:	01070793          	addi	a5,a4,16 # 0x1010
   12894:	0b41                	addi	s6,s6,16
   12896:	417787b3          	sub	a5,a5,s7
   1289a:	014b0cb3          	add	s9,s6,s4
   1289e:	41978a33          	sub	s4,a5,s9
   128a2:	177d                	addi	a4,a4,-1
   128a4:	00ea7a33          	and	s4,s4,a4
   128a8:	85d2                	mv	a1,s4
   128aa:	854a                	mv	a0,s2
   128ac:	6e6000ef          	jal	ra,0x12f92
   128b0:	57fd                	li	a5,-1
   128b2:	40f50d63          	beq	a0,a5,0x12ccc
   128b6:	41650533          	sub	a0,a0,s6
   128ba:	000a071b          	sext.w	a4,s4
   128be:	9a2a                	add	s4,s4,a0
   128c0:	000c2783          	lw	a5,0(s8)
   128c4:	0169b823          	sd	s6,16(s3)
   128c8:	001a6a13          	ori	s4,s4,1
   128cc:	9fb9                	addw	a5,a5,a4
   128ce:	00fc2023          	sw	a5,0(s8)
   128d2:	014b3423          	sd	s4,8(s6)
   128d6:	3b340963          	beq	s0,s3,0x12c88
   128da:	467d                	li	a2,31
   128dc:	3b567863          	bgeu	a2,s5,0x12c8c
   128e0:	6414                	ld	a3,8(s0)
   128e2:	fe8a8713          	addi	a4,s5,-24
   128e6:	9b41                	andi	a4,a4,-16
   128e8:	8a85                	andi	a3,a3,1
   128ea:	8ed9                	or	a3,a3,a4
   128ec:	e414                	sd	a3,8(s0)
   128ee:	45a5                	li	a1,9
   128f0:	00e406b3          	add	a3,s0,a4
   128f4:	e68c                	sd	a1,8(a3)
   128f6:	ea8c                	sd	a1,16(a3)
   128f8:	3ee66163          	bltu	a2,a4,0x12cda
   128fc:	008b3a03          	ld	s4,8(s6)
   12900:	845a                	mv	s0,s6
   12902:	77818713          	addi	a4,gp,1912
   12906:	6314                	ld	a3,0(a4)
   12908:	00f6f363          	bgeu	a3,a5,0x1290e
   1290c:	e31c                	sd	a5,0(a4)
   1290e:	77018713          	addi	a4,gp,1904
   12912:	6314                	ld	a3,0(a4)
   12914:	24f6fd63          	bgeu	a3,a5,0x12b6e
   12918:	e31c                	sd	a5,0(a4)
   1291a:	ac91                	j	0x12b6e
   1291c:	47b1                	li	a5,12
   1291e:	00f92023          	sw	a5,0(s2)
   12922:	4501                	li	a0,0
   12924:	60e6                	ld	ra,88(sp)
   12926:	6446                	ld	s0,80(sp)
   12928:	64a6                	ld	s1,72(sp)
   1292a:	6906                	ld	s2,64(sp)
   1292c:	79e2                	ld	s3,56(sp)
   1292e:	7a42                	ld	s4,48(sp)
   12930:	7aa2                	ld	s5,40(sp)
   12932:	7b02                	ld	s6,32(sp)
   12934:	6be2                	ld	s7,24(sp)
   12936:	6c42                	ld	s8,16(sp)
   12938:	6ca2                	ld	s9,8(sp)
   1293a:	6125                	addi	sp,sp,96
   1293c:	8082                	ret
   1293e:	6f80                	ld	s0,24(a5)
   12940:	2609                	addiw	a2,a2,2
   12942:	e0879ae3          	bne	a5,s0,0x12756
   12946:	0209b403          	ld	s0,32(s3)
   1294a:	00011897          	auipc	a7,0x11
   1294e:	90e88893          	addi	a7,a7,-1778 # 0x23258
   12952:	eb1401e3          	beq	s0,a7,0x127f4
   12956:	641c                	ld	a5,8(s0)
   12958:	46fd                	li	a3,31
   1295a:	9bf1                	andi	a5,a5,-4
   1295c:	40978733          	sub	a4,a5,s1
   12960:	1ae6c763          	blt	a3,a4,0x12b0e
   12964:	0319b423          	sd	a7,40(s3)
   12968:	0319b023          	sd	a7,32(s3)
   1296c:	0a075f63          	bgez	a4,0x12a2a
   12970:	1ff00713          	li	a4,511
   12974:	0ef76863          	bltu	a4,a5,0x12a64
   12978:	838d                	srli	a5,a5,0x3
   1297a:	0017871b          	addiw	a4,a5,1
   1297e:	0017171b          	slliw	a4,a4,0x1
   12982:	070e                	slli	a4,a4,0x3
   12984:	0089b503          	ld	a0,8(s3)
   12988:	974e                	add	a4,a4,s3
   1298a:	630c                	ld	a1,0(a4)
   1298c:	4027d69b          	sraiw	a3,a5,0x2
   12990:	4785                	li	a5,1
   12992:	00d797b3          	sll	a5,a5,a3
   12996:	8fc9                	or	a5,a5,a0
   12998:	ff070693          	addi	a3,a4,-16
   1299c:	ec14                	sd	a3,24(s0)
   1299e:	e80c                	sd	a1,16(s0)
   129a0:	00f9b423          	sd	a5,8(s3)
   129a4:	e300                	sd	s0,0(a4)
   129a6:	ed80                	sd	s0,24(a1)
   129a8:	4026571b          	sraiw	a4,a2,0x2
   129ac:	4585                	li	a1,1
   129ae:	00e595b3          	sll	a1,a1,a4
   129b2:	e4b7eae3          	bltu	a5,a1,0x12806
   129b6:	00f5f733          	and	a4,a1,a5
   129ba:	ef01                	bnez	a4,0x129d2
   129bc:	0586                	slli	a1,a1,0x1
   129be:	9a71                	andi	a2,a2,-4
   129c0:	00f5f733          	and	a4,a1,a5
   129c4:	2611                	addiw	a2,a2,4
   129c6:	e711                	bnez	a4,0x129d2
   129c8:	0586                	slli	a1,a1,0x1
   129ca:	00f5f733          	and	a4,a1,a5
   129ce:	2611                	addiw	a2,a2,4
   129d0:	df65                	beqz	a4,0x129c8
   129d2:	487d                	li	a6,31
   129d4:	0016031b          	addiw	t1,a2,1
   129d8:	0013131b          	slliw	t1,t1,0x1
   129dc:	030e                	slli	t1,t1,0x3
   129de:	1341                	addi	t1,t1,-16
   129e0:	934e                	add	t1,t1,s3
   129e2:	851a                	mv	a0,t1
   129e4:	6d1c                	ld	a5,24(a0)
   129e6:	8e32                	mv	t3,a2
   129e8:	0ef50263          	beq	a0,a5,0x12acc
   129ec:	6798                	ld	a4,8(a5)
   129ee:	843e                	mv	s0,a5
   129f0:	6f9c                	ld	a5,24(a5)
   129f2:	9b71                	andi	a4,a4,-4
   129f4:	409706b3          	sub	a3,a4,s1
   129f8:	0ed84163          	blt	a6,a3,0x12ada
   129fc:	fe06c6e3          	bltz	a3,0x129e8
   12a00:	9722                	add	a4,a4,s0
   12a02:	6714                	ld	a3,8(a4)
   12a04:	6810                	ld	a2,16(s0)
   12a06:	854a                	mv	a0,s2
   12a08:	0016e693          	ori	a3,a3,1
   12a0c:	e714                	sd	a3,8(a4)
   12a0e:	ee1c                	sd	a5,24(a2)
   12a10:	eb90                	sd	a2,16(a5)
   12a12:	4f6000ef          	jal	ra,0x12f08
   12a16:	01040513          	addi	a0,s0,16
   12a1a:	b729                	j	0x12924
   12a1c:	40000693          	li	a3,1024
   12a20:	04000613          	li	a2,64
   12a24:	03f00513          	li	a0,63
   12a28:	b379                	j	0x127b6
   12a2a:	97a2                	add	a5,a5,s0
   12a2c:	6798                	ld	a4,8(a5)
   12a2e:	854a                	mv	a0,s2
   12a30:	00176713          	ori	a4,a4,1
   12a34:	e798                	sd	a4,8(a5)
   12a36:	4d2000ef          	jal	ra,0x12f08
   12a3a:	01040513          	addi	a0,s0,16
   12a3e:	b5dd                	j	0x12924
   12a40:	0014e713          	ori	a4,s1,1
   12a44:	e418                	sd	a4,8(s0)
   12a46:	94a2                	add	s1,s1,s0
   12a48:	0099b823          	sd	s1,16(s3)
   12a4c:	0017e793          	ori	a5,a5,1
   12a50:	854a                	mv	a0,s2
   12a52:	e49c                	sd	a5,8(s1)
   12a54:	4b4000ef          	jal	ra,0x12f08
   12a58:	01040513          	addi	a0,s0,16
   12a5c:	b5e1                	j	0x12924
   12a5e:	6c14                	ld	a3,24(s0)
   12a60:	6810                	ld	a2,16(s0)
   12a62:	b9f5                	j	0x1275e
   12a64:	0097d713          	srli	a4,a5,0x9
   12a68:	4691                	li	a3,4
   12a6a:	0ee6f263          	bgeu	a3,a4,0x12b4e
   12a6e:	46d1                	li	a3,20
   12a70:	1ae6e863          	bltu	a3,a4,0x12c20
   12a74:	05c7059b          	addiw	a1,a4,92
   12a78:	0015959b          	slliw	a1,a1,0x1
   12a7c:	05b7069b          	addiw	a3,a4,91
   12a80:	058e                	slli	a1,a1,0x3
   12a82:	95ce                	add	a1,a1,s3
   12a84:	6198                	ld	a4,0(a1)
   12a86:	15c1                	addi	a1,a1,-16
   12a88:	14e58b63          	beq	a1,a4,0x12bde
   12a8c:	6714                	ld	a3,8(a4)
   12a8e:	9af1                	andi	a3,a3,-4
   12a90:	00d7f563          	bgeu	a5,a3,0x12a9a
   12a94:	6b18                	ld	a4,16(a4)
   12a96:	fee59be3          	bne	a1,a4,0x12a8c
   12a9a:	6f0c                	ld	a1,24(a4)
   12a9c:	0089b783          	ld	a5,8(s3)
   12aa0:	ec0c                	sd	a1,24(s0)
   12aa2:	e818                	sd	a4,16(s0)
   12aa4:	e980                	sd	s0,16(a1)
   12aa6:	ef00                	sd	s0,24(a4)
   12aa8:	b701                	j	0x129a8
   12aaa:	4751                	li	a4,20
   12aac:	0cf77f63          	bgeu	a4,a5,0x12b8a
   12ab0:	05400713          	li	a4,84
   12ab4:	18f76463          	bltu	a4,a5,0x12c3c
   12ab8:	00c4d793          	srli	a5,s1,0xc
   12abc:	06f7861b          	addiw	a2,a5,111
   12ac0:	0016169b          	slliw	a3,a2,0x1
   12ac4:	06e7851b          	addiw	a0,a5,110
   12ac8:	068e                	slli	a3,a3,0x3
   12aca:	b1f5                	j	0x127b6
   12acc:	2e05                	addiw	t3,t3,1
   12ace:	003e7793          	andi	a5,t3,3
   12ad2:	0541                	addi	a0,a0,16
   12ad4:	cbe1                	beqz	a5,0x12ba4
   12ad6:	6d1c                	ld	a5,24(a0)
   12ad8:	bf01                	j	0x129e8
   12ada:	6810                	ld	a2,16(s0)
   12adc:	0014e593          	ori	a1,s1,1
   12ae0:	e40c                	sd	a1,8(s0)
   12ae2:	ee1c                	sd	a5,24(a2)
   12ae4:	eb90                	sd	a2,16(a5)
   12ae6:	94a2                	add	s1,s1,s0
   12ae8:	0299b423          	sd	s1,40(s3)
   12aec:	0299b023          	sd	s1,32(s3)
   12af0:	0016e793          	ori	a5,a3,1
   12af4:	0114bc23          	sd	a7,24(s1)
   12af8:	0114b823          	sd	a7,16(s1)
   12afc:	e49c                	sd	a5,8(s1)
   12afe:	9722                	add	a4,a4,s0
   12b00:	854a                	mv	a0,s2
   12b02:	e314                	sd	a3,0(a4)
   12b04:	404000ef          	jal	ra,0x12f08
   12b08:	01040513          	addi	a0,s0,16
   12b0c:	bd21                	j	0x12924
   12b0e:	0014e693          	ori	a3,s1,1
   12b12:	e414                	sd	a3,8(s0)
   12b14:	94a2                	add	s1,s1,s0
   12b16:	0299b423          	sd	s1,40(s3)
   12b1a:	0299b023          	sd	s1,32(s3)
   12b1e:	00176693          	ori	a3,a4,1
   12b22:	0114bc23          	sd	a7,24(s1)
   12b26:	0114b823          	sd	a7,16(s1)
   12b2a:	e494                	sd	a3,8(s1)
   12b2c:	97a2                	add	a5,a5,s0
   12b2e:	854a                	mv	a0,s2
   12b30:	e398                	sd	a4,0(a5)
   12b32:	3d6000ef          	jal	ra,0x12f08
   12b36:	01040513          	addi	a0,s0,16
   12b3a:	b3ed                	j	0x12924
   12b3c:	0034d613          	srli	a2,s1,0x3
   12b40:	0016079b          	addiw	a5,a2,1
   12b44:	0017979b          	slliw	a5,a5,0x1
   12b48:	2601                	sext.w	a2,a2
   12b4a:	078e                	slli	a5,a5,0x3
   12b4c:	bedd                	j	0x12742
   12b4e:	0067d713          	srli	a4,a5,0x6
   12b52:	0397059b          	addiw	a1,a4,57
   12b56:	0015959b          	slliw	a1,a1,0x1
   12b5a:	0387069b          	addiw	a3,a4,56
   12b5e:	058e                	slli	a1,a1,0x3
   12b60:	b70d                	j	0x12a82
   12b62:	0f340b63          	beq	s0,s3,0x12c58
   12b66:	0109b403          	ld	s0,16(s3)
   12b6a:	00843a03          	ld	s4,8(s0)
   12b6e:	ffca7a13          	andi	s4,s4,-4
   12b72:	409a07b3          	sub	a5,s4,s1
   12b76:	009a6563          	bltu	s4,s1,0x12b80
   12b7a:	477d                	li	a4,31
   12b7c:	ecf742e3          	blt	a4,a5,0x12a40
   12b80:	854a                	mv	a0,s2
   12b82:	386000ef          	jal	ra,0x12f08
   12b86:	4501                	li	a0,0
   12b88:	bb71                	j	0x12924
   12b8a:	05c7861b          	addiw	a2,a5,92
   12b8e:	0016169b          	slliw	a3,a2,0x1
   12b92:	05b7851b          	addiw	a0,a5,91
   12b96:	068e                	slli	a3,a3,0x3
   12b98:	b939                	j	0x127b6
   12b9a:	01033783          	ld	a5,16(t1)
   12b9e:	367d                	addiw	a2,a2,-1
   12ba0:	18679363          	bne	a5,t1,0x12d26
   12ba4:	00367793          	andi	a5,a2,3
   12ba8:	1341                	addi	t1,t1,-16
   12baa:	fbe5                	bnez	a5,0x12b9a
   12bac:	0089b703          	ld	a4,8(s3)
   12bb0:	fff5c793          	not	a5,a1
   12bb4:	8ff9                	and	a5,a5,a4
   12bb6:	00f9b423          	sd	a5,8(s3)
   12bba:	0586                	slli	a1,a1,0x1
   12bbc:	c4b7e5e3          	bltu	a5,a1,0x12806
   12bc0:	c40583e3          	beqz	a1,0x12806
   12bc4:	00f5f733          	and	a4,a1,a5
   12bc8:	e711                	bnez	a4,0x12bd4
   12bca:	0586                	slli	a1,a1,0x1
   12bcc:	00f5f733          	and	a4,a1,a5
   12bd0:	2e11                	addiw	t3,t3,4
   12bd2:	df65                	beqz	a4,0x12bca
   12bd4:	8672                	mv	a2,t3
   12bd6:	bbfd                	j	0x129d4
   12bd8:	020a0a13          	addi	s4,s4,32
   12bdc:	b1a5                	j	0x12844
   12bde:	0089b503          	ld	a0,8(s3)
   12be2:	4026d69b          	sraiw	a3,a3,0x2
   12be6:	4785                	li	a5,1
   12be8:	00d797b3          	sll	a5,a5,a3
   12bec:	8fc9                	or	a5,a5,a0
   12bee:	00f9b423          	sd	a5,8(s3)
   12bf2:	b57d                	j	0x12aa0
   12bf4:	014b0bb3          	add	s7,s6,s4
   12bf8:	41700bb3          	neg	s7,s7
   12bfc:	1bd2                	slli	s7,s7,0x34
   12bfe:	034bdb93          	srli	s7,s7,0x34
   12c02:	85de                	mv	a1,s7
   12c04:	854a                	mv	a0,s2
   12c06:	38c000ef          	jal	ra,0x12f92
   12c0a:	57fd                	li	a5,-1
   12c0c:	4701                	li	a4,0
   12c0e:	caf509e3          	beq	a0,a5,0x128c0
   12c12:	41650533          	sub	a0,a0,s6
   12c16:	000b871b          	sext.w	a4,s7
   12c1a:	01750a33          	add	s4,a0,s7
   12c1e:	b14d                	j	0x128c0
   12c20:	05400693          	li	a3,84
   12c24:	06e6e863          	bltu	a3,a4,0x12c94
   12c28:	00c7d713          	srli	a4,a5,0xc
   12c2c:	06f7059b          	addiw	a1,a4,111
   12c30:	0015959b          	slliw	a1,a1,0x1
   12c34:	06e7069b          	addiw	a3,a4,110
   12c38:	058e                	slli	a1,a1,0x3
   12c3a:	b5a1                	j	0x12a82
   12c3c:	15400713          	li	a4,340
   12c40:	06f76863          	bltu	a4,a5,0x12cb0
   12c44:	00f4d793          	srli	a5,s1,0xf
   12c48:	0787861b          	addiw	a2,a5,120
   12c4c:	0016169b          	slliw	a3,a2,0x1
   12c50:	0777851b          	addiw	a0,a5,119
   12c54:	068e                	slli	a3,a3,0x3
   12c56:	b685                	j	0x127b6
   12c58:	7d018c13          	addi	s8,gp,2000
   12c5c:	000c2783          	lw	a5,0(s8)
   12c60:	014786bb          	addw	a3,a5,s4
   12c64:	00dc2023          	sw	a3,0(s8)
   12c68:	b119                	j	0x1286e
   12c6a:	034b9713          	slli	a4,s7,0x34
   12c6e:	c00710e3          	bnez	a4,0x1286e
   12c72:	0109b403          	ld	s0,16(s3)
   12c76:	9a56                	add	s4,s4,s5
   12c78:	001a6a13          	ori	s4,s4,1
   12c7c:	01443423          	sd	s4,8(s0)
   12c80:	b149                	j	0x12902
   12c82:	016cb023          	sd	s6,0(s9)
   12c86:	bef5                	j	0x12882
   12c88:	845a                	mv	s0,s6
   12c8a:	b9a5                	j	0x12902
   12c8c:	4785                	li	a5,1
   12c8e:	00fb3423          	sd	a5,8(s6)
   12c92:	b5fd                	j	0x12b80
   12c94:	15400693          	li	a3,340
   12c98:	04e6ed63          	bltu	a3,a4,0x12cf2
   12c9c:	00f7d713          	srli	a4,a5,0xf
   12ca0:	0787059b          	addiw	a1,a4,120
   12ca4:	0015959b          	slliw	a1,a1,0x1
   12ca8:	0777069b          	addiw	a3,a4,119
   12cac:	058e                	slli	a1,a1,0x3
   12cae:	bbd1                	j	0x12a82
   12cb0:	55400713          	li	a4,1364
   12cb4:	04f76d63          	bltu	a4,a5,0x12d0e
   12cb8:	0124d793          	srli	a5,s1,0x12
   12cbc:	07d7861b          	addiw	a2,a5,125
   12cc0:	0016169b          	slliw	a3,a2,0x1
   12cc4:	07c7851b          	addiw	a0,a5,124
   12cc8:	068e                	slli	a3,a3,0x3
   12cca:	b4f5                	j	0x127b6
   12ccc:	1bc1                	addi	s7,s7,-16
   12cce:	017c8a33          	add	s4,s9,s7
   12cd2:	416a0a33          	sub	s4,s4,s6
   12cd6:	4701                	li	a4,0
   12cd8:	b6e5                	j	0x128c0
   12cda:	01040593          	addi	a1,s0,16
   12cde:	854a                	mv	a0,s2
   12ce0:	117040ef          	jal	ra,0x175f6
   12ce4:	0109b403          	ld	s0,16(s3)
   12ce8:	000c2783          	lw	a5,0(s8)
   12cec:	00843a03          	ld	s4,8(s0)
   12cf0:	b909                	j	0x12902
   12cf2:	55400693          	li	a3,1364
   12cf6:	02e6e363          	bltu	a3,a4,0x12d1c
   12cfa:	0127d713          	srli	a4,a5,0x12
   12cfe:	07d7059b          	addiw	a1,a4,125
   12d02:	0015959b          	slliw	a1,a1,0x1
   12d06:	07c7069b          	addiw	a3,a4,124
   12d0a:	058e                	slli	a1,a1,0x3
   12d0c:	bb9d                	j	0x12a82
   12d0e:	7f000693          	li	a3,2032
   12d12:	07f00613          	li	a2,127
   12d16:	07e00513          	li	a0,126
   12d1a:	bc71                	j	0x127b6
   12d1c:	7f000593          	li	a1,2032
   12d20:	07e00693          	li	a3,126
   12d24:	bbb9                	j	0x12a82
   12d26:	0089b783          	ld	a5,8(s3)
   12d2a:	bd41                	j	0x12bba
   12d2c:	479d                	li	a5,7
   12d2e:	02c7f063          	bgeu	a5,a2,0x12d4e
   12d32:	00b567b3          	or	a5,a0,a1
   12d36:	8b9d                	andi	a5,a5,7
   12d38:	469d                	li	a3,7
   12d3a:	ef9d                	bnez	a5,0x12d78
   12d3c:	6118                	ld	a4,0(a0)
   12d3e:	619c                	ld	a5,0(a1)
   12d40:	02f71c63          	bne	a4,a5,0x12d78
   12d44:	1661                	addi	a2,a2,-8
   12d46:	0521                	addi	a0,a0,8
   12d48:	05a1                	addi	a1,a1,8
   12d4a:	fec6e9e3          	bltu	a3,a2,0x12d3c
   12d4e:	fff60693          	addi	a3,a2,-1
   12d52:	c20d                	beqz	a2,0x12d74
   12d54:	0685                	addi	a3,a3,1
   12d56:	96ae                	add	a3,a3,a1
   12d58:	a019                	j	0x12d5e
   12d5a:	00d58d63          	beq	a1,a3,0x12d74
   12d5e:	00054783          	lbu	a5,0(a0)
   12d62:	0005c703          	lbu	a4,0(a1)
   12d66:	0505                	addi	a0,a0,1
   12d68:	0585                	addi	a1,a1,1
   12d6a:	fee788e3          	beq	a5,a4,0x12d5a
   12d6e:	40e7853b          	subw	a0,a5,a4
   12d72:	8082                	ret
   12d74:	4501                	li	a0,0
   12d76:	8082                	ret
   12d78:	fff60693          	addi	a3,a2,-1
   12d7c:	bfe1                	j	0x12d54
   12d7e:	00a5c7b3          	xor	a5,a1,a0
   12d82:	8b9d                	andi	a5,a5,7
   12d84:	00c508b3          	add	a7,a0,a2
   12d88:	e7a1                	bnez	a5,0x12dd0
   12d8a:	479d                	li	a5,7
   12d8c:	04c7f263          	bgeu	a5,a2,0x12dd0
   12d90:	00757793          	andi	a5,a0,7
   12d94:	872a                	mv	a4,a0
   12d96:	eba9                	bnez	a5,0x12de8
   12d98:	ff88f613          	andi	a2,a7,-8
   12d9c:	fc060793          	addi	a5,a2,-64
   12da0:	06f76763          	bltu	a4,a5,0x12e0e
   12da4:	02c77363          	bgeu	a4,a2,0x12dca
   12da8:	86ae                	mv	a3,a1
   12daa:	87ba                	mv	a5,a4
   12dac:	0006b803          	ld	a6,0(a3) # 0xffffffffffffe000
   12db0:	07a1                	addi	a5,a5,8
   12db2:	06a1                	addi	a3,a3,8
   12db4:	ff07bc23          	sd	a6,-8(a5) # 0xffffffffffffeff8
   12db8:	fec7eae3          	bltu	a5,a2,0x12dac
   12dbc:	fff60793          	addi	a5,a2,-1
   12dc0:	8f99                	sub	a5,a5,a4
   12dc2:	9be1                	andi	a5,a5,-8
   12dc4:	07a1                	addi	a5,a5,8
   12dc6:	973e                	add	a4,a4,a5
   12dc8:	95be                	add	a1,a1,a5
   12dca:	01176663          	bltu	a4,a7,0x12dd6
   12dce:	8082                	ret
   12dd0:	872a                	mv	a4,a0
   12dd2:	ff157ee3          	bgeu	a0,a7,0x12dce
   12dd6:	0005c783          	lbu	a5,0(a1)
   12dda:	0705                	addi	a4,a4,1
   12ddc:	0585                	addi	a1,a1,1
   12dde:	fef70fa3          	sb	a5,-1(a4)
   12de2:	ff176ae3          	bltu	a4,a7,0x12dd6
   12de6:	8082                	ret
   12de8:	0005c683          	lbu	a3,0(a1)
   12dec:	0705                	addi	a4,a4,1
   12dee:	00777793          	andi	a5,a4,7
   12df2:	fed70fa3          	sb	a3,-1(a4)
   12df6:	0585                	addi	a1,a1,1
   12df8:	d3c5                	beqz	a5,0x12d98
   12dfa:	0005c683          	lbu	a3,0(a1)
   12dfe:	0705                	addi	a4,a4,1
   12e00:	00777793          	andi	a5,a4,7
   12e04:	fed70fa3          	sb	a3,-1(a4)
   12e08:	0585                	addi	a1,a1,1
   12e0a:	fff9                	bnez	a5,0x12de8
   12e0c:	b771                	j	0x12d98
   12e0e:	6594                	ld	a3,8(a1)
   12e10:	0005b283          	ld	t0,0(a1)
   12e14:	0105bf83          	ld	t6,16(a1)
   12e18:	0185bf03          	ld	t5,24(a1)
   12e1c:	0205be83          	ld	t4,32(a1)
   12e20:	0285be03          	ld	t3,40(a1)
   12e24:	0305b303          	ld	t1,48(a1)
   12e28:	0385b803          	ld	a6,56(a1)
   12e2c:	e714                	sd	a3,8(a4)
   12e2e:	61b4                	ld	a3,64(a1)
   12e30:	00573023          	sd	t0,0(a4)
   12e34:	01f73823          	sd	t6,16(a4)
   12e38:	01e73c23          	sd	t5,24(a4)
   12e3c:	03d73023          	sd	t4,32(a4)
   12e40:	03c73423          	sd	t3,40(a4)
   12e44:	02673823          	sd	t1,48(a4)
   12e48:	03073c23          	sd	a6,56(a4)
   12e4c:	e334                	sd	a3,64(a4)
   12e4e:	04870713          	addi	a4,a4,72
   12e52:	04858593          	addi	a1,a1,72
   12e56:	faf76ce3          	bltu	a4,a5,0x12e0e
   12e5a:	b7a9                	j	0x12da4
   12e5c:	433d                	li	t1,15
   12e5e:	872a                	mv	a4,a0
   12e60:	02c37163          	bgeu	t1,a2,0x12e82
   12e64:	00f77793          	andi	a5,a4,15
   12e68:	e3c1                	bnez	a5,0x12ee8
   12e6a:	e1bd                	bnez	a1,0x12ed0
   12e6c:	ff067693          	andi	a3,a2,-16
   12e70:	8a3d                	andi	a2,a2,15
   12e72:	96ba                	add	a3,a3,a4
   12e74:	e30c                	sd	a1,0(a4)
   12e76:	e70c                	sd	a1,8(a4)
   12e78:	0741                	addi	a4,a4,16
   12e7a:	fed76de3          	bltu	a4,a3,0x12e74
   12e7e:	e211                	bnez	a2,0x12e82
   12e80:	8082                	ret
   12e82:	40c306b3          	sub	a3,t1,a2
   12e86:	068a                	slli	a3,a3,0x2
   12e88:	00000297          	auipc	t0,0x0
   12e8c:	9696                	add	a3,a3,t0
   12e8e:	00a68067          	jr	10(a3)
   12e92:	00b70723          	sb	a1,14(a4)
   12e96:	00b706a3          	sb	a1,13(a4)
   12e9a:	00b70623          	sb	a1,12(a4)
   12e9e:	00b705a3          	sb	a1,11(a4)
   12ea2:	00b70523          	sb	a1,10(a4)
   12ea6:	00b704a3          	sb	a1,9(a4)
   12eaa:	00b70423          	sb	a1,8(a4)
   12eae:	00b703a3          	sb	a1,7(a4)
   12eb2:	00b70323          	sb	a1,6(a4)
   12eb6:	00b702a3          	sb	a1,5(a4)
   12eba:	00b70223          	sb	a1,4(a4)
   12ebe:	00b701a3          	sb	a1,3(a4)
   12ec2:	00b70123          	sb	a1,2(a4)
   12ec6:	00b700a3          	sb	a1,1(a4)
   12eca:	00b70023          	sb	a1,0(a4)
   12ece:	8082                	ret
   12ed0:	0ff5f593          	andi	a1,a1,255
   12ed4:	00859693          	slli	a3,a1,0x8
   12ed8:	8dd5                	or	a1,a1,a3
   12eda:	01059693          	slli	a3,a1,0x10
   12ede:	8dd5                	or	a1,a1,a3
   12ee0:	02059693          	slli	a3,a1,0x20
   12ee4:	8dd5                	or	a1,a1,a3
   12ee6:	b759                	j	0x12e6c
   12ee8:	00279693          	slli	a3,a5,0x2
   12eec:	00000297          	auipc	t0,0x0
   12ef0:	9696                	add	a3,a3,t0
   12ef2:	8286                	mv	t0,ra
   12ef4:	fa2680e7          	jalr	-94(a3)
   12ef8:	8096                	mv	ra,t0
   12efa:	17c1                	addi	a5,a5,-16
   12efc:	8f1d                	sub	a4,a4,a5
   12efe:	963e                	add	a2,a2,a5
   12f00:	f8c371e3          	bgeu	t1,a2,0x12e82
   12f04:	b79d                	j	0x12e6a
   12f06:	8082                	ret
   12f08:	8082                	ret
   12f0a:	7159                	addi	sp,sp,-112
   12f0c:	f0a2                	sd	s0,96(sp)
   12f0e:	842a                	mv	s0,a0
   12f10:	852e                	mv	a0,a1
   12f12:	eca6                	sd	s1,88(sp)
   12f14:	f486                	sd	ra,104(sp)
   12f16:	84ae                	mv	s1,a1
   12f18:	0b2000ef          	jal	ra,0x12fca
   12f1c:	00150713          	addi	a4,a0,1
   12f20:	0000d697          	auipc	a3,0xd
   12f24:	74068693          	addi	a3,a3,1856 # 0x20660
   12f28:	f43a                	sd	a4,40(sp)
   12f2a:	483c                	lw	a5,80(s0)
   12f2c:	1818                	addi	a4,sp,48
   12f2e:	e0b6                	sd	a3,64(sp)
   12f30:	ec3a                	sd	a4,24(sp)
   12f32:	4685                	li	a3,1
   12f34:	4709                	li	a4,2
   12f36:	f826                	sd	s1,48(sp)
   12f38:	fc2a                	sd	a0,56(sp)
   12f3a:	e4b6                	sd	a3,72(sp)
   12f3c:	d03a                	sw	a4,32(sp)
   12f3e:	680c                	ld	a1,16(s0)
   12f40:	cf8d                	beqz	a5,0x12f7a
   12f42:	01059783          	lh	a5,16(a1)
   12f46:	03279713          	slli	a4,a5,0x32
   12f4a:	00074d63          	bltz	a4,0x12f64
   12f4e:	0ac5a703          	lw	a4,172(a1)
   12f52:	6689                	lui	a3,0x2
   12f54:	8fd5                	or	a5,a5,a3
   12f56:	76f9                	lui	a3,0xffffe
   12f58:	16fd                	addi	a3,a3,-1
   12f5a:	8f75                	and	a4,a4,a3
   12f5c:	00f59823          	sh	a5,16(a1)
   12f60:	0ae5a623          	sw	a4,172(a1)
   12f64:	0830                	addi	a2,sp,24
   12f66:	8522                	mv	a0,s0
   12f68:	11b040ef          	jal	ra,0x17882
   12f6c:	ed09                	bnez	a0,0x12f86
   12f6e:	4529                	li	a0,10
   12f70:	70a6                	ld	ra,104(sp)
   12f72:	7406                	ld	s0,96(sp)
   12f74:	64e6                	ld	s1,88(sp)
   12f76:	6165                	addi	sp,sp,112
   12f78:	8082                	ret
   12f7a:	8522                	mv	a0,s0
   12f7c:	e42e                	sd	a1,8(sp)
   12f7e:	3fc040ef          	jal	ra,0x1737a
   12f82:	65a2                	ld	a1,8(sp)
   12f84:	bf7d                	j	0x12f42
   12f86:	557d                	li	a0,-1
   12f88:	b7e5                	j	0x12f70
   12f8a:	85aa                	mv	a1,a0
   12f8c:	7501b503          	ld	a0,1872(gp)
   12f90:	bfad                	j	0x12f0a
   12f92:	1141                	addi	sp,sp,-16
   12f94:	e022                	sd	s0,0(sp)
   12f96:	842a                	mv	s0,a0
   12f98:	852e                	mv	a0,a1
   12f9a:	00011797          	auipc	a5,0x11
   12f9e:	da07a723          	sw	zero,-594(a5) # 0x23d48
   12fa2:	e406                	sd	ra,8(sp)
   12fa4:	6f70b0ef          	jal	ra,0x1ee9a
   12fa8:	57fd                	li	a5,-1
   12faa:	00f50663          	beq	a0,a5,0x12fb6
   12fae:	60a2                	ld	ra,8(sp)
   12fb0:	6402                	ld	s0,0(sp)
   12fb2:	0141                	addi	sp,sp,16
   12fb4:	8082                	ret
   12fb6:	00011797          	auipc	a5,0x11
   12fba:	d927a783          	lw	a5,-622(a5) # 0x23d48
   12fbe:	dbe5                	beqz	a5,0x12fae
   12fc0:	60a2                	ld	ra,8(sp)
   12fc2:	c01c                	sw	a5,0(s0)
   12fc4:	6402                	ld	s0,0(sp)
   12fc6:	0141                	addi	sp,sp,16
   12fc8:	8082                	ret
   12fca:	00757793          	andi	a5,a0,7
   12fce:	872a                	mv	a4,a0
   12fd0:	ebb9                	bnez	a5,0x13026
   12fd2:	00011697          	auipc	a3,0x11
   12fd6:	c2e6b683          	ld	a3,-978(a3) # 0x23c00
   12fda:	55fd                	li	a1,-1
   12fdc:	6310                	ld	a2,0(a4)
   12fde:	0721                	addi	a4,a4,8
   12fe0:	00d677b3          	and	a5,a2,a3
   12fe4:	97b6                	add	a5,a5,a3
   12fe6:	8fd1                	or	a5,a5,a2
   12fe8:	8fd5                	or	a5,a5,a3
   12fea:	feb789e3          	beq	a5,a1,0x12fdc
   12fee:	ff874683          	lbu	a3,-8(a4)
   12ff2:	40a707b3          	sub	a5,a4,a0
   12ff6:	c6a9                	beqz	a3,0x13040
   12ff8:	ff974683          	lbu	a3,-7(a4)
   12ffc:	ce9d                	beqz	a3,0x1303a
   12ffe:	ffa74683          	lbu	a3,-6(a4)
   13002:	c6a9                	beqz	a3,0x1304c
   13004:	ffb74683          	lbu	a3,-5(a4)
   13008:	ce9d                	beqz	a3,0x13046
   1300a:	ffc74683          	lbu	a3,-4(a4)
   1300e:	ffd74603          	lbu	a2,-3(a4)
   13012:	ffe74503          	lbu	a0,-2(a4)
   13016:	ce95                	beqz	a3,0x13052
   13018:	c221                	beqz	a2,0x13058
   1301a:	00a03533          	snez	a0,a0
   1301e:	953e                	add	a0,a0,a5
   13020:	1579                	addi	a0,a0,-2
   13022:	8082                	ret
   13024:	d6dd                	beqz	a3,0x12fd2
   13026:	00074783          	lbu	a5,0(a4)
   1302a:	0705                	addi	a4,a4,1
   1302c:	00777693          	andi	a3,a4,7
   13030:	fbf5                	bnez	a5,0x13024
   13032:	8f09                	sub	a4,a4,a0
   13034:	fff70513          	addi	a0,a4,-1
   13038:	8082                	ret
   1303a:	ff978513          	addi	a0,a5,-7
   1303e:	8082                	ret
   13040:	ff878513          	addi	a0,a5,-8
   13044:	8082                	ret
   13046:	ffb78513          	addi	a0,a5,-5
   1304a:	8082                	ret
   1304c:	ffa78513          	addi	a0,a5,-6
   13050:	8082                	ret
   13052:	ffc78513          	addi	a0,a5,-4
   13056:	8082                	ret
   13058:	ffd78513          	addi	a0,a5,-3
   1305c:	8082                	ret
   1305e:	f2050553          	fmv.d.x	fa0,a0
   13062:	1101                	addi	sp,sp,-32
   13064:	e426                	sd	s1,8(sp)
   13066:	84ae                	mv	s1,a1
   13068:	e822                	sd	s0,16(sp)
   1306a:	ec06                	sd	ra,24(sp)
   1306c:	842a                	mv	s0,a0
   1306e:	0e8080ef          	jal	ra,0x1b156
   13072:	c09d                	beqz	s1,0x13098
   13074:	9051                	srli	s0,s0,0x34
   13076:	7ff47413          	andi	s0,s0,2047
   1307a:	06b00793          	li	a5,107
   1307e:	9f81                	subw	a5,a5,s0
   13080:	00f05c63          	blez	a5,0x13098
   13084:	0147941b          	slliw	s0,a5,0x14
   13088:	3ff007b7          	lui	a5,0x3ff00
   1308c:	9c3d                	addw	s0,s0,a5
   1308e:	1402                	slli	s0,s0,0x20
   13090:	f20407d3          	fmv.d.x	fa5,s0
   13094:	12f57553          	fmul.d	fa0,fa0,fa5
   13098:	60e2                	ld	ra,24(sp)
   1309a:	6442                	ld	s0,16(sp)
   1309c:	64a2                	ld	s1,8(sp)
   1309e:	6105                	addi	sp,sp,32
   130a0:	8082                	ret
   130a2:	7169                	addi	sp,sp,-304
   130a4:	e9ea                	sd	s10,208(sp)
   130a6:	0000ed17          	auipc	s10,0xe
   130aa:	48ad3d03          	ld	s10,1162(s10) # 0x21530
   130ae:	f222                	sd	s0,288(sp)
   130b0:	842a                	mv	s0,a0
   130b2:	856a                	mv	a0,s10
   130b4:	ee26                	sd	s1,280(sp)
   130b6:	ea4a                	sd	s2,272(sp)
   130b8:	e64e                	sd	s3,264(sp)
   130ba:	f1e2                	sd	s8,224(sp)
   130bc:	8932                	mv	s2,a2
   130be:	8c2e                	mv	s8,a1
   130c0:	f606                	sd	ra,296(sp)
   130c2:	e252                	sd	s4,256(sp)
   130c4:	fdd6                	sd	s5,248(sp)
   130c6:	f9da                	sd	s6,240(sp)
   130c8:	f5de                	sd	s7,232(sp)
   130ca:	ede6                	sd	s9,216(sp)
   130cc:	e5ee                	sd	s11,200(sp)
   130ce:	bd22                	fsd	fs0,184(sp)
   130d0:	b926                	fsd	fs1,176(sp)
   130d2:	b54a                	fsd	fs2,168(sp)
   130d4:	b14e                	fsd	fs3,160(sp)
   130d6:	ad52                	fsd	fs4,152(sp)
   130d8:	a956                	fsd	fs5,144(sp)
   130da:	a55a                	fsd	fs6,136(sp)
   130dc:	a15e                	fsd	fs7,128(sp)
   130de:	bce2                	fsd	fs8,120(sp)
   130e0:	b8e6                	fsd	fs9,112(sp)
   130e2:	b4ea                	fsd	fs10,104(sp)
   130e4:	b0ee                	fsd	fs11,96(sp)
   130e6:	89b6                	mv	s3,a3
   130e8:	e882                	sd	zero,80(sp)
   130ea:	ee1ff0ef          	jal	ra,0x12fca
   130ee:	4481                	li	s1,0
   130f0:	e4e2                	sd	s8,72(sp)
   130f2:	8762                	mv	a4,s8
   130f4:	02d00593          	li	a1,45
   130f8:	0000e617          	auipc	a2,0xe
   130fc:	aa860613          	addi	a2,a2,-1368 # 0x20ba0
   13100:	00074783          	lbu	a5,0(a4)
   13104:	8aba                	mv	s5,a4
   13106:	00f5e863          	bltu	a1,a5,0x13116
   1310a:	00279693          	slli	a3,a5,0x2
   1310e:	96b2                	add	a3,a3,a2
   13110:	4294                	lw	a3,0(a3)
   13112:	96b2                	add	a3,a3,a2
   13114:	8682                	jr	a3
   13116:	4b81                	li	s7,0
   13118:	03000713          	li	a4,48
   1311c:	4d81                	li	s11,0
   1311e:	20e78763          	beq	a5,a4,0x1332c
   13122:	02f00713          	li	a4,47
   13126:	00078a1b          	sext.w	s4,a5
   1312a:	0005061b          	sext.w	a2,a0
   1312e:	4af75b63          	bge	a4,a5,0x135e4
   13132:	8556                	mv	a0,s5
   13134:	4c81                	li	s9,0
   13136:	4b01                	li	s6,0
   13138:	4981                	li	s3,0
   1313a:	03900713          	li	a4,57
   1313e:	4821                	li	a6,8
   13140:	02f00593          	li	a1,47
   13144:	07474463          	blt	a4,s4,0x131ac
   13148:	1d384863          	blt	a6,s3,0x13318
   1314c:	002b169b          	slliw	a3,s6,0x2
   13150:	016686bb          	addw	a3,a3,s6
   13154:	0016969b          	slliw	a3,a3,0x1
   13158:	9fb5                	addw	a5,a5,a3
   1315a:	fd078b1b          	addiw	s6,a5,-48
   1315e:	0505                	addi	a0,a0,1
   13160:	e4aa                	sd	a0,72(sp)
   13162:	00054783          	lbu	a5,0(a0)
   13166:	2985                	addiw	s3,s3,1
   13168:	00078a1b          	sext.w	s4,a5
   1316c:	fcf5cce3          	blt	a1,a5,0x13144
   13170:	85ea                	mv	a1,s10
   13172:	e432                	sd	a2,8(sp)
   13174:	65b080ef          	jal	ra,0x1bfce
   13178:	6622                	ld	a2,8(sp)
   1317a:	85ce                	mv	a1,s3
   1317c:	48051063          	bnez	a0,0x135fc
   13180:	67a6                	ld	a5,72(sp)
   13182:	4d01                	li	s10,0
   13184:	963e                	add	a2,a2,a5
   13186:	e4b2                	sd	a2,72(sp)
   13188:	00064a03          	lbu	s4,0(a2)
   1318c:	fd0a079b          	addiw	a5,s4,-48
   13190:	4725                	li	a4,9
   13192:	863e                	mv	a2,a5
   13194:	44f76663          	bltu	a4,a5,0x135e0
   13198:	6826                	ld	a6,72(sp)
   1319a:	2505                	addiw	a0,a0,1
   1319c:	16079ce3          	bnez	a5,0x13b14
   131a0:	00180793          	addi	a5,a6,1
   131a4:	e4be                	sd	a5,72(sp)
   131a6:	00184a03          	lbu	s4,1(a6)
   131aa:	b7cd                	j	0x1318c
   131ac:	85ea                	mv	a1,s10
   131ae:	e432                	sd	a2,8(sp)
   131b0:	61f080ef          	jal	ra,0x1bfce
   131b4:	1a050163          	beqz	a0,0x13356
   131b8:	85ce                	mv	a1,s3
   131ba:	4501                	li	a0,0
   131bc:	4d01                	li	s10,0
   131be:	4681                	li	a3,0
   131c0:	fdfa7793          	andi	a5,s4,-33
   131c4:	04500713          	li	a4,69
   131c8:	4801                	li	a6,0
   131ca:	0ce79263          	bne	a5,a4,0x1328e
   131ce:	00a9e7b3          	or	a5,s3,a0
   131d2:	00fde7b3          	or	a5,s11,a5
   131d6:	2781                	sext.w	a5,a5
   131d8:	cbf5                	beqz	a5,0x132cc
   131da:	6c26                	ld	s8,72(sp)
   131dc:	02b00793          	li	a5,43
   131e0:	001c0713          	addi	a4,s8,1
   131e4:	e4ba                	sd	a4,72(sp)
   131e6:	001c4a03          	lbu	s4,1(s8)
   131ea:	0afa09e3          	beq	s4,a5,0x13a9c
   131ee:	02d00793          	li	a5,45
   131f2:	78fa0463          	beq	s4,a5,0x1397a
   131f6:	2a01                	sext.w	s4,s4
   131f8:	4881                	li	a7,0
   131fa:	fd0a079b          	addiw	a5,s4,-48
   131fe:	4625                	li	a2,9
   13200:	000a071b          	sext.w	a4,s4
   13204:	76f66863          	bltu	a2,a5,0x13974
   13208:	03000793          	li	a5,48
   1320c:	00fa1d63          	bne	s4,a5,0x13226
   13210:	67a6                	ld	a5,72(sp)
   13212:	03000713          	li	a4,48
   13216:	0785                	addi	a5,a5,1
   13218:	e4be                	sd	a5,72(sp)
   1321a:	0007ca03          	lbu	s4,0(a5) # 0x3ff00000
   1321e:	0785                	addi	a5,a5,1
   13220:	feea0ce3          	beq	s4,a4,0x13218
   13224:	8752                	mv	a4,s4
   13226:	fcf7071b          	addiw	a4,a4,-49
   1322a:	47a1                	li	a5,8
   1322c:	4801                	li	a6,0
   1322e:	06e7e063          	bltu	a5,a4,0x1328e
   13232:	6e26                	ld	t3,72(sp)
   13234:	fd0a061b          	addiw	a2,s4,-48
   13238:	02f00793          	li	a5,47
   1323c:	001e0713          	addi	a4,t3,1
   13240:	e4ba                	sd	a4,72(sp)
   13242:	001e4a03          	lbu	s4,1(t3)
   13246:	03900813          	li	a6,57
   1324a:	02f00313          	li	t1,47
   1324e:	0347dce3          	bge	a5,s4,0x13a86
   13252:	03484263          	blt	a6,s4,0x13276
   13256:	0026179b          	slliw	a5,a2,0x2
   1325a:	9fb1                	addw	a5,a5,a2
   1325c:	863a                	mv	a2,a4
   1325e:	0705                	addi	a4,a4,1
   13260:	0017979b          	slliw	a5,a5,0x1
   13264:	e4ba                	sd	a4,72(sp)
   13266:	014787bb          	addw	a5,a5,s4
   1326a:	00164a03          	lbu	s4,1(a2)
   1326e:	fd07861b          	addiw	a2,a5,-48
   13272:	ff4340e3          	blt	t1,s4,0x13252
   13276:	41c70733          	sub	a4,a4,t3
   1327a:	47a1                	li	a5,8
   1327c:	00e7d5e3          	bge	a5,a4,0x13a86
   13280:	6815                	lui	a6,0x5
   13282:	e1f80813          	addi	a6,a6,-481 # 0x4e1f
   13286:	00088463          	beqz	a7,0x1328e
   1328a:	4100083b          	negw	a6,a6
   1328e:	12099863          	bnez	s3,0x133be
   13292:	00ade533          	or	a0,s11,a0
   13296:	2501                	sext.w	a0,a0
   13298:	36051763          	bnez	a0,0x13606
   1329c:	ea85                	bnez	a3,0x132cc
   1329e:	06900793          	li	a5,105
   132a2:	78fa0763          	beq	s4,a5,0x13a30
   132a6:	1147c763          	blt	a5,s4,0x133b4
   132aa:	04900793          	li	a5,73
   132ae:	78fa0163          	beq	s4,a5,0x13a30
   132b2:	04e00793          	li	a5,78
   132b6:	00fa1b63          	bne	s4,a5,0x132cc
   132ba:	0000e597          	auipc	a1,0xe
   132be:	8de58593          	addi	a1,a1,-1826 # 0x20b98
   132c2:	00a8                	addi	a0,sp,72
   132c4:	06a050ef          	jal	ra,0x1832e
   132c8:	78051f63          	bnez	a0,0x13a66
   132cc:	00000493          	li	s1,0
   132d0:	00090463          	beqz	s2,0x132d8
   132d4:	01893023          	sd	s8,0(s2)
   132d8:	70b2                	ld	ra,296(sp)
   132da:	7412                	ld	s0,288(sp)
   132dc:	f2048553          	fmv.d.x	fa0,s1
   132e0:	6952                	ld	s2,272(sp)
   132e2:	64f2                	ld	s1,280(sp)
   132e4:	69b2                	ld	s3,264(sp)
   132e6:	6a12                	ld	s4,256(sp)
   132e8:	7aee                	ld	s5,248(sp)
   132ea:	7b4e                	ld	s6,240(sp)
   132ec:	7bae                	ld	s7,232(sp)
   132ee:	7c0e                	ld	s8,224(sp)
   132f0:	6cee                	ld	s9,216(sp)
   132f2:	6d4e                	ld	s10,208(sp)
   132f4:	6dae                	ld	s11,200(sp)
   132f6:	346a                	fld	fs0,184(sp)
   132f8:	34ca                	fld	fs1,176(sp)
   132fa:	392a                	fld	fs2,168(sp)
   132fc:	398a                	fld	fs3,160(sp)
   132fe:	2a6a                	fld	fs4,152(sp)
   13300:	2aca                	fld	fs5,144(sp)
   13302:	2b2a                	fld	fs6,136(sp)
   13304:	2b8a                	fld	fs7,128(sp)
   13306:	3c66                	fld	fs8,120(sp)
   13308:	3cc6                	fld	fs9,112(sp)
   1330a:	3d26                	fld	fs10,104(sp)
   1330c:	3d86                	fld	fs11,96(sp)
   1330e:	6155                	addi	sp,sp,304
   13310:	8082                	ret
   13312:	0705                	addi	a4,a4,1
   13314:	e4ba                	sd	a4,72(sp)
   13316:	b3ed                	j	0x13100
   13318:	002c949b          	slliw	s1,s9,0x2
   1331c:	019484bb          	addw	s1,s1,s9
   13320:	0014949b          	slliw	s1,s1,0x1
   13324:	9fa5                	addw	a5,a5,s1
   13326:	fd078c9b          	addiw	s9,a5,-48
   1332a:	bd15                	j	0x1315e
   1332c:	001ac783          	lbu	a5,1(s5)
   13330:	05800693          	li	a3,88
   13334:	001a8a13          	addi	s4,s5,1
   13338:	0df7f793          	andi	a5,a5,223
   1333c:	78d78363          	beq	a5,a3,0x13ac2
   13340:	e4d2                	sd	s4,72(sp)
   13342:	000a4783          	lbu	a5,0(s4)
   13346:	8ad2                	mv	s5,s4
   13348:	0a05                	addi	s4,s4,1
   1334a:	fee78be3          	beq	a5,a4,0x13340
   1334e:	2a078c63          	beqz	a5,0x13606
   13352:	4d85                	li	s11,1
   13354:	b3f9                	j	0x13122
   13356:	67a6                	ld	a5,72(sp)
   13358:	6622                	ld	a2,8(sp)
   1335a:	97b2                	add	a5,a5,a2
   1335c:	e4be                	sd	a5,72(sp)
   1335e:	0007ca03          	lbu	s4,0(a5)
   13362:	100997e3          	bnez	s3,0x13c70
   13366:	03000713          	li	a4,48
   1336a:	0eea10e3          	bne	s4,a4,0x13c4a
   1336e:	4705                	li	a4,1
   13370:	9f1d                	subw	a4,a4,a5
   13372:	03000693          	li	a3,48
   13376:	00f7053b          	addw	a0,a4,a5
   1337a:	0785                	addi	a5,a5,1
   1337c:	e4be                	sd	a5,72(sp)
   1337e:	0007ca03          	lbu	s4,0(a5)
   13382:	feda0ae3          	beq	s4,a3,0x13376
   13386:	fcfa079b          	addiw	a5,s4,-49
   1338a:	4721                	li	a4,8
   1338c:	24f76763          	bltu	a4,a5,0x135da
   13390:	6826                	ld	a6,72(sp)
   13392:	fd0a079b          	addiw	a5,s4,-48
   13396:	00150d1b          	addiw	s10,a0,1
   1339a:	8ac2                	mv	s5,a6
   1339c:	4581                	li	a1,0
   1339e:	4985                	li	s3,1
   133a0:	002b171b          	slliw	a4,s6,0x2
   133a4:	016706bb          	addw	a3,a4,s6
   133a8:	0016969b          	slliw	a3,a3,0x1
   133ac:	00f68b3b          	addw	s6,a3,a5
   133b0:	4501                	li	a0,0
   133b2:	b3fd                	j	0x131a0
   133b4:	06e00793          	li	a5,110
   133b8:	f0fa01e3          	beq	s4,a5,0x132ba
   133bc:	bf01                	j	0x132cc
   133be:	41a80a3b          	subw	s4,a6,s10
   133c2:	000a079b          	sext.w	a5,s4
   133c6:	e83e                	sd	a5,16(sp)
   133c8:	e191                	bnez	a1,0x133cc
   133ca:	85ce                	mv	a1,s3
   133cc:	4741                	li	a4,16
   133ce:	87ce                	mv	a5,s3
   133d0:	01375363          	bge	a4,s3,0x133d6
   133d4:	47c1                	li	a5,16
   133d6:	d21b07d3          	fcvt.d.wu	fa5,s6
   133da:	4625                	li	a2,9
   133dc:	0007871b          	sext.w	a4,a5
   133e0:	e20786d3          	fmv.x.d	a3,fa5
   133e4:	84b6                	mv	s1,a3
   133e6:	03365263          	bge	a2,s3,0x1340a
   133ea:	37dd                	addiw	a5,a5,-9
   133ec:	078e                	slli	a5,a5,0x3
   133ee:	0000e617          	auipc	a2,0xe
   133f2:	17a60613          	addi	a2,a2,378 # 0x21568
   133f6:	963e                	add	a2,a2,a5
   133f8:	d21c8753          	fcvt.d.wu	fa4,s9
   133fc:	221c                	fld	fa5,0(a2)
   133fe:	f20686d3          	fmv.d.x	fa3,a3
   13402:	72f6f7c3          	fmadd.d	fa5,fa3,fa5,fa4
   13406:	e20784d3          	fmv.x.d	s1,fa5
   1340a:	47bd                	li	a5,15
   1340c:	0f37c563          	blt	a5,s3,0x134f6
   13410:	000a079b          	sext.w	a5,s4
   13414:	1a078563          	beqz	a5,0x135be
   13418:	86be                	mv	a3,a5
   1341a:	76f05663          	blez	a5,0x13b86
   1341e:	47d9                	li	a5,22
   13420:	02d7d8e3          	bge	a5,a3,0x13c50
   13424:	02500793          	li	a5,37
   13428:	413787bb          	subw	a5,a5,s3
   1342c:	000a069b          	sext.w	a3,s4
   13430:	04d7d4e3          	bge	a5,a3,0x13c78
   13434:	40e987bb          	subw	a5,s3,a4
   13438:	014787bb          	addw	a5,a5,s4
   1343c:	00f7f713          	andi	a4,a5,15
   13440:	cf11                	beqz	a4,0x1345c
   13442:	070e                	slli	a4,a4,0x3
   13444:	0000e697          	auipc	a3,0xe
   13448:	12468693          	addi	a3,a3,292 # 0x21568
   1344c:	9736                	add	a4,a4,a3
   1344e:	f2048753          	fmv.d.x	fa4,s1
   13452:	231c                	fld	fa5,0(a4)
   13454:	12e7f7d3          	fmul.d	fa5,fa5,fa4
   13458:	e20784d3          	fmv.x.d	s1,fa5
   1345c:	9bc1                	andi	a5,a5,-16
   1345e:	1a078763          	beqz	a5,0x1360c
   13462:	13400713          	li	a4,308
   13466:	6af74363          	blt	a4,a5,0x13b0c
   1346a:	8791                	srai	a5,a5,0x4
   1346c:	4705                	li	a4,1
   1346e:	16f754e3          	bge	a4,a5,0x13dd6
   13472:	0000ee17          	auipc	t3,0xe
   13476:	1e6e0e13          	addi	t3,t3,486 # 0x21658
   1347a:	8526                	mv	a0,s1
   1347c:	8772                	mv	a4,t3
   1347e:	4301                	li	t1,0
   13480:	4681                	li	a3,0
   13482:	4885                	li	a7,1
   13484:	0017f613          	andi	a2,a5,1
   13488:	ca09                	beqz	a2,0x1349a
   1348a:	f2050753          	fmv.d.x	fa4,a0
   1348e:	231c                	fld	fa5,0(a4)
   13490:	4305                	li	t1,1
   13492:	12f777d3          	fmul.d	fa5,fa4,fa5
   13496:	e2078553          	fmv.x.d	a0,fa5
   1349a:	8785                	srai	a5,a5,0x1
   1349c:	2685                	addiw	a3,a3,1
   1349e:	0721                	addi	a4,a4,8
   134a0:	ff1792e3          	bne	a5,a7,0x13484
   134a4:	00030363          	beqz	t1,0x134aa
   134a8:	84aa                	mv	s1,a0
   134aa:	0204d713          	srli	a4,s1,0x20
   134ae:	fcb007b7          	lui	a5,0xfcb00
   134b2:	9fb9                	addw	a5,a5,a4
   134b4:	577d                	li	a4,-1
   134b6:	9301                	srli	a4,a4,0x20
   134b8:	1782                	slli	a5,a5,0x20
   134ba:	068e                	slli	a3,a3,0x3
   134bc:	8cf9                	and	s1,s1,a4
   134be:	8cdd                	or	s1,s1,a5
   134c0:	96f2                	add	a3,a3,t3
   134c2:	229c                	fld	fa5,0(a3)
   134c4:	f2048753          	fmv.d.x	fa4,s1
   134c8:	7ff007b7          	lui	a5,0x7ff00
   134cc:	7ca00637          	lui	a2,0x7ca00
   134d0:	12e7f7d3          	fmul.d	fa5,fa5,fa4
   134d4:	e20784d3          	fmv.x.d	s1,fa5
   134d8:	4204d693          	srai	a3,s1,0x20
   134dc:	8ff5                	and	a5,a5,a3
   134de:	62f66763          	bltu	a2,a5,0x13b0c
   134e2:	7c900637          	lui	a2,0x7c900
   134e6:	0af672e3          	bgeu	a2,a5,0x13d8a
   134ea:	7ff00493          	li	s1,2047
   134ee:	14d2                	slli	s1,s1,0x34
   134f0:	14fd                	addi	s1,s1,-1
   134f2:	4c01                	li	s8,0
   134f4:	aa29                	j	0x1360e
   134f6:	40e9873b          	subw	a4,s3,a4
   134fa:	014707bb          	addw	a5,a4,s4
   134fe:	f2f04fe3          	bgtz	a5,0x1343c
   13502:	10078563          	beqz	a5,0x1360c
   13506:	40f007bb          	negw	a5,a5
   1350a:	00f7f713          	andi	a4,a5,15
   1350e:	cf11                	beqz	a4,0x1352a
   13510:	070e                	slli	a4,a4,0x3
   13512:	0000e697          	auipc	a3,0xe
   13516:	05668693          	addi	a3,a3,86 # 0x21568
   1351a:	9736                	add	a4,a4,a3
   1351c:	f2048753          	fmv.d.x	fa4,s1
   13520:	231c                	fld	fa5,0(a4)
   13522:	1af777d3          	fdiv.d	fa5,fa4,fa5
   13526:	e20784d3          	fmv.x.d	s1,fa5
   1352a:	4047d79b          	sraiw	a5,a5,0x4
   1352e:	cff9                	beqz	a5,0x1360c
   13530:	477d                	li	a4,31
   13532:	08f74163          	blt	a4,a5,0x135b4
   13536:	0107f713          	andi	a4,a5,16
   1353a:	00070c1b          	sext.w	s8,a4
   1353e:	c319                	beqz	a4,0x13544
   13540:	06a00c13          	li	s8,106
   13544:	8626                	mv	a2,s1
   13546:	0000d717          	auipc	a4,0xd
   1354a:	75a70713          	addi	a4,a4,1882 # 0x20ca0
   1354e:	4501                	li	a0,0
   13550:	0017f693          	andi	a3,a5,1
   13554:	ca89                	beqz	a3,0x13566
   13556:	f2060753          	fmv.d.x	fa4,a2
   1355a:	231c                	fld	fa5,0(a4)
   1355c:	4505                	li	a0,1
   1355e:	12f777d3          	fmul.d	fa5,fa4,fa5
   13562:	e2078653          	fmv.x.d	a2,fa5
   13566:	8785                	srai	a5,a5,0x1
   13568:	0721                	addi	a4,a4,8
   1356a:	f3fd                	bnez	a5,0x13550
   1356c:	c111                	beqz	a0,0x13570
   1356e:	84b2                	mv	s1,a2
   13570:	020c0b63          	beqz	s8,0x135a6
   13574:	0344d793          	srli	a5,s1,0x34
   13578:	7ff7f713          	andi	a4,a5,2047
   1357c:	06b00793          	li	a5,107
   13580:	40e786bb          	subw	a3,a5,a4
   13584:	4204d713          	srai	a4,s1,0x20
   13588:	00d05f63          	blez	a3,0x135a6
   1358c:	467d                	li	a2,31
   1358e:	0ed655e3          	bge	a2,a3,0x13e78
   13592:	567d                	li	a2,-1
   13594:	1602                	slli	a2,a2,0x20
   13596:	03400513          	li	a0,52
   1359a:	8cf1                	and	s1,s1,a2
   1359c:	0ed559e3          	bge	a0,a3,0x13e8e
   135a0:	03700493          	li	s1,55
   135a4:	14d2                	slli	s1,s1,0x34
   135a6:	f20007d3          	fmv.d.x	fa5,zero
   135aa:	f2048753          	fmv.d.x	fa4,s1
   135ae:	a2f727d3          	feq.d	a5,fa4,fa5
   135b2:	cfb1                	beqz	a5,0x1360e
   135b4:	02200793          	li	a5,34
   135b8:	00000493          	li	s1,0
   135bc:	c01c                	sw	a5,0(s0)
   135be:	00090563          	beqz	s2,0x135c8
   135c2:	67a6                	ld	a5,72(sp)
   135c4:	00f93023          	sd	a5,0(s2)
   135c8:	d00b88e3          	beqz	s7,0x132d8
   135cc:	f20487d3          	fmv.d.x	fa5,s1
   135d0:	22f797d3          	fneg.d	fa5,fa5
   135d4:	e20784d3          	fmv.x.d	s1,fa5
   135d8:	b301                	j	0x132d8
   135da:	4581                	li	a1,0
   135dc:	4d01                	li	s10,0
   135de:	4981                	li	s3,0
   135e0:	4685                	li	a3,1
   135e2:	bef9                	j	0x131c0
   135e4:	85ea                	mv	a1,s10
   135e6:	8556                	mv	a0,s5
   135e8:	e432                	sd	a2,8(sp)
   135ea:	1e5080ef          	jal	ra,0x1bfce
   135ee:	6622                	ld	a2,8(sp)
   135f0:	5c050663          	beqz	a0,0x13bbc
   135f4:	4581                	li	a1,0
   135f6:	4c81                	li	s9,0
   135f8:	4b01                	li	s6,0
   135fa:	4981                	li	s3,0
   135fc:	4501                	li	a0,0
   135fe:	4d01                	li	s10,0
   13600:	4681                	li	a3,0
   13602:	4801                	li	a6,0
   13604:	b169                	j	0x1328e
   13606:	00000493          	li	s1,0
   1360a:	bf55                	j	0x135be
   1360c:	4c01                	li	s8,0
   1360e:	875a                	mv	a4,s6
   13610:	862e                	mv	a2,a1
   13612:	86ce                	mv	a3,s3
   13614:	85d6                	mv	a1,s5
   13616:	8522                	mv	a0,s0
   13618:	e442                	sd	a6,8(sp)
   1361a:	470070ef          	jal	ra,0x1aa8a
   1361e:	8b2a                	mv	s6,a0
   13620:	4e050663          	beqz	a0,0x13b0c
   13624:	67c2                	ld	a5,16(sp)
   13626:	4701                	li	a4,0
   13628:	4007c063          	bltz	a5,0x13a28
   1362c:	00010797          	auipc	a5,0x10
   13630:	5e47b487          	fld	fs1,1508(a5) # 0x23c10
   13634:	00010797          	auipc	a5,0x10
   13638:	5e47b907          	fld	fs2,1508(a5) # 0x23c18
   1363c:	67c2                	ld	a5,16(sp)
   1363e:	22948cd3          	fmv.d	fs9,fs1
   13642:	22948bd3          	fmv.d	fs7,fs1
   13646:	fff7c793          	not	a5,a5
   1364a:	97fd                	srai	a5,a5,0x3f
   1364c:	00fa7a33          	and	s4,s4,a5
   13650:	23290ad3          	fmv.d	fs5,fs2
   13654:	232909d3          	fmv.d	fs3,fs2
   13658:	000a079b          	sext.w	a5,s4
   1365c:	ec3e                	sd	a5,24(sp)
   1365e:	00070d1b          	sext.w	s10,a4
   13662:	4a81                	li	s5,0
   13664:	4981                	li	s3,0
   13666:	00010797          	auipc	a5,0x10
   1366a:	5ba7b407          	fld	fs0,1466(a5) # 0x23c20
   1366e:	00010797          	auipc	a5,0x10
   13672:	59a7bc07          	fld	fs8,1434(a5) # 0x23c08
   13676:	00010797          	auipc	a5,0x10
   1367a:	5ba7ba07          	fld	fs4,1466(a5) # 0x23c30
   1367e:	00010797          	auipc	a5,0x10
   13682:	5ba7bb07          	fld	fs6,1466(a5) # 0x23c38
   13686:	00010797          	auipc	a5,0x10
   1368a:	5ba7bd07          	fld	fs10,1466(a5) # 0x23c40
   1368e:	008b2583          	lw	a1,8(s6)
   13692:	8522                	mv	a0,s0
   13694:	2c2070ef          	jal	ra,0x1a956
   13698:	8a2a                	mv	s4,a0
   1369a:	26050463          	beqz	a0,0x13902
   1369e:	014b2603          	lw	a2,20(s6)
   136a2:	010b0593          	addi	a1,s6,16
   136a6:	0541                	addi	a0,a0,16
   136a8:	0609                	addi	a2,a2,2
   136aa:	060a                	slli	a2,a2,0x2
   136ac:	ed2ff0ef          	jal	ra,0x12d7e
   136b0:	f2048553          	fmv.d.x	fa0,s1
   136b4:	08b0                	addi	a2,sp,88
   136b6:	00cc                	addi	a1,sp,68
   136b8:	8522                	mv	a0,s0
   136ba:	3f7070ef          	jal	ra,0x1b2b0
   136be:	e8aa                	sd	a0,80(sp)
   136c0:	e426                	sd	s1,8(sp)
   136c2:	1e050d63          	beqz	a0,0x138bc
   136c6:	4585                	li	a1,1
   136c8:	8522                	mv	a0,s0
   136ca:	554070ef          	jal	ra,0x1ac1e
   136ce:	89aa                	mv	s3,a0
   136d0:	22050963          	beqz	a0,0x13902
   136d4:	4796                	lw	a5,68(sp)
   136d6:	2607c163          	bltz	a5,0x13938
   136da:	6662                	ld	a2,24(sp)
   136dc:	01a78cbb          	addw	s9,a5,s10
   136e0:	46e6                	lw	a3,88(sp)
   136e2:	4187873b          	subw	a4,a5,s8
   136e6:	03600793          	li	a5,54
   136ea:	9f35                	addw	a4,a4,a3
   136ec:	fff7051b          	addiw	a0,a4,-1
   136f0:	9f95                	subw	a5,a5,a3
   136f2:	c0200593          	li	a1,-1022
   136f6:	872a                	mv	a4,a0
   136f8:	86be                	mv	a3,a5
   136fa:	22b55063          	bge	a0,a1,0x1391a
   136fe:	c0200793          	li	a5,-1022
   13702:	40a785bb          	subw	a1,a5,a0
   13706:	457d                	li	a0,31
   13708:	40b687bb          	subw	a5,a3,a1
   1370c:	22b54b63          	blt	a0,a1,0x13942
   13710:	4705                	li	a4,1
   13712:	00b7173b          	sllw	a4,a4,a1
   13716:	f03a                	sd	a4,32(sp)
   13718:	f402                	sd	zero,40(sp)
   1371a:	00f606bb          	addw	a3,a2,a5
   1371e:	00dc063b          	addw	a2,s8,a3
   13722:	00fc88bb          	addw	a7,s9,a5
   13726:	87c6                	mv	a5,a7
   13728:	86b2                	mv	a3,a2
   1372a:	8db2                	mv	s11,a2
   1372c:	8766                	mv	a4,s9
   1372e:	0198d363          	bge	a7,s9,0x13734
   13732:	8746                	mv	a4,a7
   13734:	0007059b          	sext.w	a1,a4
   13738:	00b65363          	bge	a2,a1,0x1373e
   1373c:	8736                	mv	a4,a3
   1373e:	0007061b          	sext.w	a2,a4
   13742:	00c05863          	blez	a2,0x13752
   13746:	40e788bb          	subw	a7,a5,a4
   1374a:	40e68dbb          	subw	s11,a3,a4
   1374e:	40ec8cbb          	subw	s9,s9,a4
   13752:	13a04163          	bgtz	s10,0x13874
   13756:	15104b63          	bgtz	a7,0x138ac
   1375a:	67c2                	ld	a5,16(sp)
   1375c:	18f04b63          	bgtz	a5,0x138f2
   13760:	1bb04363          	bgtz	s11,0x13906
   13764:	01905a63          	blez	s9,0x13778
   13768:	85ce                	mv	a1,s3
   1376a:	8666                	mv	a2,s9
   1376c:	8522                	mv	a0,s0
   1376e:	724070ef          	jal	ra,0x1ae92
   13772:	89aa                	mv	s3,a0
   13774:	18050763          	beqz	a0,0x13902
   13778:	65c6                	ld	a1,80(sp)
   1377a:	8652                	mv	a2,s4
   1377c:	8522                	mv	a0,s0
   1377e:	05f070ef          	jal	ra,0x1afdc
   13782:	8aaa                	mv	s5,a0
   13784:	16050f63          	beqz	a0,0x13902
   13788:	01052d83          	lw	s11,16(a0)
   1378c:	85ce                	mv	a1,s3
   1378e:	00052823          	sw	zero,16(a0)
   13792:	013070ef          	jal	ra,0x1afa4
   13796:	50054b63          	bltz	a0,0x13cac
   1379a:	5a050c63          	beqz	a0,0x13d52
   1379e:	85ce                	mv	a1,s3
   137a0:	8556                	mv	a0,s5
   137a2:	3ef070ef          	jal	ra,0x1b390
   137a6:	a28507d3          	fle.d	a5,fa0,fs0
   137aa:	16078c63          	beqz	a5,0x13922
   137ae:	1a0d8563          	beqz	s11,0x13958
   137b2:	23398dd3          	fmv.d	fs11,fs3
   137b6:	3ff00793          	li	a5,1023
   137ba:	17d2                	slli	a5,a5,0x34
   137bc:	4204d613          	srai	a2,s1,0x20
   137c0:	7ff006b7          	lui	a3,0x7ff00
   137c4:	00d67733          	and	a4,a2,a3
   137c8:	7fe005b7          	lui	a1,0x7fe00
   137cc:	1ab70e63          	beq	a4,a1,0x13988
   137d0:	040c0763          	beqz	s8,0x1381e
   137d4:	06a006b7          	lui	a3,0x6a00
   137d8:	04e6e363          	bltu	a3,a4,0x1381e
   137dc:	00010697          	auipc	a3,0x10
   137e0:	44c6b787          	fld	fa5,1100(a3) # 0x23c28
   137e4:	a2fd86d3          	fle.d	a3,fs11,fa5
   137e8:	c28d                	beqz	a3,0x1380a
   137ea:	c21d97d3          	fcvt.wu.d	a5,fs11,rtz
   137ee:	0007869b          	sext.w	a3,a5
   137f2:	e291                	bnez	a3,0x137f6
   137f4:	4785                	li	a5,1
   137f6:	d2178dd3          	fcvt.d.wu	fs11,a5
   137fa:	e20d87d3          	fmv.x.d	a5,fs11
   137fe:	000d9663          	bnez	s11,0x1380a
   13802:	23bd97d3          	fneg.d	fa5,fs11
   13806:	e20787d3          	fmv.x.d	a5,fa5
   1380a:	0207d613          	srli	a2,a5,0x20
   1380e:	06b006b7          	lui	a3,0x6b00
   13812:	9eb1                	addw	a3,a3,a2
   13814:	9e99                	subw	a3,a3,a4
   13816:	1782                	slli	a5,a5,0x20
   13818:	1682                	slli	a3,a3,0x20
   1381a:	9381                	srli	a5,a5,0x20
   1381c:	8fd5                	or	a5,a5,a3
   1381e:	64a2                	ld	s1,8(sp)
   13820:	f43e                	sd	a5,40(sp)
   13822:	f03a                	sd	a4,32(sp)
   13824:	f2048553          	fmv.d.x	fa0,s1
   13828:	12f070ef          	jal	ra,0x1b156
   1382c:	77a2                	ld	a5,40(sp)
   1382e:	f2048753          	fmv.d.x	fa4,s1
   13832:	7702                	ld	a4,32(sp)
   13834:	f20787d3          	fmv.d.x	fa5,a5
   13838:	72f577c3          	fmadd.d	fa5,fa0,fa5,fa4
   1383c:	e20787d3          	fmv.x.d	a5,fa5
   13840:	84be                	mv	s1,a5
   13842:	9781                	srai	a5,a5,0x20
   13844:	000c1763          	bnez	s8,0x13852
   13848:	7ff006b7          	lui	a3,0x7ff00
   1384c:	8ff5                	and	a5,a5,a3
   1384e:	24f70963          	beq	a4,a5,0x13aa0
   13852:	65c6                	ld	a1,80(sp)
   13854:	8522                	mv	a0,s0
   13856:	164070ef          	jal	ra,0x1a9ba
   1385a:	85d2                	mv	a1,s4
   1385c:	8522                	mv	a0,s0
   1385e:	15c070ef          	jal	ra,0x1a9ba
   13862:	85ce                	mv	a1,s3
   13864:	8522                	mv	a0,s0
   13866:	154070ef          	jal	ra,0x1a9ba
   1386a:	85d6                	mv	a1,s5
   1386c:	8522                	mv	a0,s0
   1386e:	14c070ef          	jal	ra,0x1a9ba
   13872:	bd31                	j	0x1368e
   13874:	85ce                	mv	a1,s3
   13876:	866a                	mv	a2,s10
   13878:	8522                	mv	a0,s0
   1387a:	f846                	sd	a7,48(sp)
   1387c:	54c070ef          	jal	ra,0x1adc8
   13880:	78c2                	ld	a7,48(sp)
   13882:	89aa                	mv	s3,a0
   13884:	cd3d                	beqz	a0,0x13902
   13886:	6646                	ld	a2,80(sp)
   13888:	85aa                	mv	a1,a0
   1388a:	8522                	mv	a0,s0
   1388c:	f846                	sd	a7,48(sp)
   1388e:	3ac070ef          	jal	ra,0x1ac3a
   13892:	78c2                	ld	a7,48(sp)
   13894:	c53d                	beqz	a0,0x13902
   13896:	65c6                	ld	a1,80(sp)
   13898:	fc2a                	sd	a0,56(sp)
   1389a:	8522                	mv	a0,s0
   1389c:	f846                	sd	a7,48(sp)
   1389e:	11c070ef          	jal	ra,0x1a9ba
   138a2:	77e2                	ld	a5,56(sp)
   138a4:	78c2                	ld	a7,48(sp)
   138a6:	e8be                	sd	a5,80(sp)
   138a8:	eb1059e3          	blez	a7,0x1375a
   138ac:	65c6                	ld	a1,80(sp)
   138ae:	8646                	mv	a2,a7
   138b0:	8522                	mv	a0,s0
   138b2:	5e0070ef          	jal	ra,0x1ae92
   138b6:	e8aa                	sd	a0,80(sp)
   138b8:	ea0511e3          	bnez	a0,0x1375a
   138bc:	02200793          	li	a5,34
   138c0:	7ff00493          	li	s1,2047
   138c4:	c01c                	sw	a5,0(s0)
   138c6:	14d2                	slli	s1,s1,0x34
   138c8:	85aa                	mv	a1,a0
   138ca:	8522                	mv	a0,s0
   138cc:	0ee070ef          	jal	ra,0x1a9ba
   138d0:	85d2                	mv	a1,s4
   138d2:	8522                	mv	a0,s0
   138d4:	0e6070ef          	jal	ra,0x1a9ba
   138d8:	85ce                	mv	a1,s3
   138da:	8522                	mv	a0,s0
   138dc:	0de070ef          	jal	ra,0x1a9ba
   138e0:	85da                	mv	a1,s6
   138e2:	8522                	mv	a0,s0
   138e4:	0d6070ef          	jal	ra,0x1a9ba
   138e8:	85d6                	mv	a1,s5
   138ea:	8522                	mv	a0,s0
   138ec:	0ce070ef          	jal	ra,0x1a9ba
   138f0:	b1f9                	j	0x135be
   138f2:	6662                	ld	a2,24(sp)
   138f4:	85d2                	mv	a1,s4
   138f6:	8522                	mv	a0,s0
   138f8:	4d0070ef          	jal	ra,0x1adc8
   138fc:	8a2a                	mv	s4,a0
   138fe:	e60511e3          	bnez	a0,0x13760
   13902:	6546                	ld	a0,80(sp)
   13904:	bf65                	j	0x138bc
   13906:	85d2                	mv	a1,s4
   13908:	866e                	mv	a2,s11
   1390a:	8522                	mv	a0,s0
   1390c:	586070ef          	jal	ra,0x1ae92
   13910:	8a2a                	mv	s4,a0
   13912:	e40519e3          	bnez	a0,0x13764
   13916:	6546                	ld	a0,80(sp)
   13918:	b755                	j	0x138bc
   1391a:	4705                	li	a4,1
   1391c:	f402                	sd	zero,40(sp)
   1391e:	f03a                	sd	a4,32(sp)
   13920:	bbed                	j	0x1371a
   13922:	12957dd3          	fmul.d	fs11,fa0,fs1
   13926:	e20d87d3          	fmv.x.d	a5,fs11
   1392a:	e80d99e3          	bnez	s11,0x137bc
   1392e:	23bd97d3          	fneg.d	fa5,fs11
   13932:	e20787d3          	fmv.x.d	a5,fa5
   13936:	b559                	j	0x137bc
   13938:	6762                	ld	a4,24(sp)
   1393a:	8cea                	mv	s9,s10
   1393c:	40f7063b          	subw	a2,a4,a5
   13940:	b345                	j	0x136e0
   13942:	be200693          	li	a3,-1054
   13946:	40e6873b          	subw	a4,a3,a4
   1394a:	4685                	li	a3,1
   1394c:	00e6973b          	sllw	a4,a3,a4
   13950:	f43a                	sd	a4,40(sp)
   13952:	4705                	li	a4,1
   13954:	f03a                	sd	a4,32(sp)
   13956:	b3d1                	j	0x1371a
   13958:	6722                	ld	a4,8(sp)
   1395a:	00c71693          	slli	a3,a4,0xc
   1395e:	87ba                	mv	a5,a4
   13960:	c2c9                	beqz	a3,0x139e2
   13962:	4705                	li	a4,1
   13964:	48e78e63          	beq	a5,a4,0x13e00
   13968:	bff00793          	li	a5,-1025
   1396c:	235a8dd3          	fmv.d	fs11,fs5
   13970:	17d2                	slli	a5,a5,0x34
   13972:	b5a9                	j	0x137bc
   13974:	e4e2                	sd	s8,72(sp)
   13976:	4801                	li	a6,0
   13978:	ba19                	j	0x1328e
   1397a:	4885                	li	a7,1
   1397c:	002c0793          	addi	a5,s8,2
   13980:	e4be                	sd	a5,72(sp)
   13982:	002c4a03          	lbu	s4,2(s8)
   13986:	b895                	j	0x131fa
   13988:	fcb005b7          	lui	a1,0xfcb00
   1398c:	9e2d                	addw	a2,a2,a1
   1398e:	55fd                	li	a1,-1
   13990:	9181                	srli	a1,a1,0x20
   13992:	1602                	slli	a2,a2,0x20
   13994:	8ced                	and	s1,s1,a1
   13996:	8cd1                	or	s1,s1,a2
   13998:	f2048553          	fmv.d.x	fa0,s1
   1399c:	f836                	sd	a3,48(sp)
   1399e:	f43e                	sd	a5,40(sp)
   139a0:	f03a                	sd	a4,32(sp)
   139a2:	7b4070ef          	jal	ra,0x1b156
   139a6:	77a2                	ld	a5,40(sp)
   139a8:	f2048753          	fmv.d.x	fa4,s1
   139ac:	76c2                	ld	a3,48(sp)
   139ae:	f20787d3          	fmv.d.x	fa5,a5
   139b2:	7ca00837          	lui	a6,0x7ca00
   139b6:	57fd                	li	a5,-1
   139b8:	72f577c3          	fmadd.d	fa5,fa0,fa5,fa4
   139bc:	7702                	ld	a4,32(sp)
   139be:	0207d593          	srli	a1,a5,0x20
   139c2:	e2078653          	fmv.x.d	a2,fa5
   139c6:	42065513          	srai	a0,a2,0x20
   139ca:	8ee9                	and	a3,a3,a0
   139cc:	0306e663          	bltu	a3,a6,0x139f8
   139d0:	7ff00493          	li	s1,2047
   139d4:	67a2                	ld	a5,8(sp)
   139d6:	14d2                	slli	s1,s1,0x34
   139d8:	14fd                	addi	s1,s1,-1
   139da:	e6f49ce3          	bne	s1,a5,0x13852
   139de:	6546                	ld	a0,80(sp)
   139e0:	bdf1                	j	0x138bc
   139e2:	a32517d3          	flt.d	a5,fa0,fs2
   139e6:	1c079663          	bnez	a5,0x13bb2
   139ea:	13757dd3          	fmul.d	fs11,fa0,fs7
   139ee:	23bd97d3          	fneg.d	fa5,fs11
   139f2:	e20787d3          	fmv.x.d	a5,fa5
   139f6:	b3d9                	j	0x137bc
   139f8:	035007b7          	lui	a5,0x3500
   139fc:	9fa9                	addw	a5,a5,a0
   139fe:	02079693          	slli	a3,a5,0x20
   13a02:	8df1                	and	a1,a1,a2
   13a04:	00d5e4b3          	or	s1,a1,a3
   13a08:	bd35                	j	0x13844
   13a0a:	4b85                	li	s7,1
   13a0c:	00170a93          	addi	s5,a4,1
   13a10:	e4d6                	sd	s5,72(sp)
   13a12:	00174783          	lbu	a5,1(a4)
   13a16:	f0079163          	bnez	a5,0x13118
   13a1a:	00000493          	li	s1,0
   13a1e:	8a091be3          	bnez	s2,0x132d4
   13a22:	b85d                	j	0x132d8
   13a24:	4b81                	li	s7,0
   13a26:	b7dd                	j	0x13a0c
   13a28:	6822                	ld	a6,8(sp)
   13a2a:	410d073b          	subw	a4,s10,a6
   13a2e:	befd                	j	0x1362c
   13a30:	0000d597          	auipc	a1,0xd
   13a34:	15858593          	addi	a1,a1,344 # 0x20b88
   13a38:	00a8                	addi	a0,sp,72
   13a3a:	0f5040ef          	jal	ra,0x1832e
   13a3e:	880507e3          	beqz	a0,0x132cc
   13a42:	67a6                	ld	a5,72(sp)
   13a44:	0000d597          	auipc	a1,0xd
   13a48:	14c58593          	addi	a1,a1,332 # 0x20b90
   13a4c:	00a8                	addi	a0,sp,72
   13a4e:	17fd                	addi	a5,a5,-1
   13a50:	e4be                	sd	a5,72(sp)
   13a52:	0dd040ef          	jal	ra,0x1832e
   13a56:	e501                	bnez	a0,0x13a5e
   13a58:	67a6                	ld	a5,72(sp)
   13a5a:	0785                	addi	a5,a5,1
   13a5c:	e4be                	sd	a5,72(sp)
   13a5e:	7ff00493          	li	s1,2047
   13a62:	14d2                	slli	s1,s1,0x34
   13a64:	bea9                	j	0x135be
   13a66:	6726                	ld	a4,72(sp)
   13a68:	02800793          	li	a5,40
   13a6c:	00074703          	lbu	a4,0(a4)
   13a70:	32f70763          	beq	a4,a5,0x13d9e
   13a74:	0000d517          	auipc	a0,0xd
   13a78:	0bc50513          	addi	a0,a0,188 # 0x20b30
   13a7c:	258080ef          	jal	ra,0x1bcd4
   13a80:	e20504d3          	fmv.x.d	s1,fa0
   13a84:	be2d                	j	0x135be
   13a86:	6795                	lui	a5,0x5
   13a88:	e1f78793          	addi	a5,a5,-481 # 0x4e1f
   13a8c:	0006081b          	sext.w	a6,a2
   13a90:	fec7db63          	bge	a5,a2,0x13286
   13a94:	0007881b          	sext.w	a6,a5
   13a98:	feeff06f          	j	0x13286
   13a9c:	4881                	li	a7,0
   13a9e:	bdf9                	j	0x1397c
   13aa0:	c22d97d3          	fcvt.l.d	a5,fs11,rtz
   13aa4:	d227f553          	fcvt.d.l	fa0,a5
   13aa8:	0aadf553          	fsub.d	fa0,fs11,fa0
   13aac:	040d9763          	bnez	s11,0x13afa
   13ab0:	00c49793          	slli	a5,s1,0xc
   13ab4:	e3b9                	bnez	a5,0x13afa
   13ab6:	a3a517d3          	flt.d	a5,fa0,fs10
   13aba:	d8078ce3          	beqz	a5,0x13852
   13abe:	6546                	ld	a0,80(sp)
   13ac0:	b521                	j	0x138c8
   13ac2:	884e                	mv	a6,s3
   13ac4:	87de                	mv	a5,s7
   13ac6:	0898                	addi	a4,sp,80
   13ac8:	00d4                	addi	a3,sp,68
   13aca:	0000d617          	auipc	a2,0xd
   13ace:	1a660613          	addi	a2,a2,422 # 0x20c70
   13ad2:	00ac                	addi	a1,sp,72
   13ad4:	8522                	mv	a0,s0
   13ad6:	282040ef          	jal	ra,0x17d58
   13ada:	00757a93          	andi	s5,a0,7
   13ade:	89aa                	mv	s3,a0
   13ae0:	b20a83e3          	beqz	s5,0x13606
   13ae4:	4799                	li	a5,6
   13ae6:	0efa9463          	bne	s5,a5,0x13bce
   13aea:	00000493          	li	s1,0
   13aee:	fe090563          	beqz	s2,0x132d8
   13af2:	01493023          	sd	s4,0(s2)
   13af6:	fe2ff06f          	j	0x132d8
   13afa:	a34517d3          	flt.d	a5,fa0,fs4
   13afe:	f3e1                	bnez	a5,0x13abe
   13b00:	a2ab17d3          	flt.d	a5,fs6,fa0
   13b04:	d40787e3          	beqz	a5,0x13852
   13b08:	6546                	ld	a0,80(sp)
   13b0a:	bb7d                	j	0x138c8
   13b0c:	02200793          	li	a5,34
   13b10:	c01c                	sw	a5,0(s0)
   13b12:	b7b1                	j	0x13a5e
   13b14:	4685                	li	a3,1
   13b16:	0019889b          	addiw	a7,s3,1
   13b1a:	01a50d3b          	addw	s10,a0,s10
   13b1e:	38d50463          	beq	a0,a3,0x13ea6
   13b22:	013508bb          	addw	a7,a0,s3
   13b26:	fff8871b          	addiw	a4,a7,-1
   13b2a:	2981                	sext.w	s3,s3
   13b2c:	4521                	li	a0,8
   13b2e:	4341                	li	t1,16
   13b30:	03354f63          	blt	a0,s3,0x13b6e
   13b34:	002b169b          	slliw	a3,s6,0x2
   13b38:	016686bb          	addw	a3,a3,s6
   13b3c:	00169b1b          	slliw	s6,a3,0x1
   13b40:	2985                	addiw	s3,s3,1
   13b42:	fee997e3          	bne	s3,a4,0x13b30
   13b46:	2701                	sext.w	a4,a4
   13b48:	0008899b          	sext.w	s3,a7
   13b4c:	46a1                	li	a3,8
   13b4e:	84e6d9e3          	bge	a3,a4,0x133a0
   13b52:	47c1                	li	a5,16
   13b54:	4501                	li	a0,0
   13b56:	e537c563          	blt	a5,s3,0x131a0
   13b5a:	002c979b          	slliw	a5,s9,0x2
   13b5e:	019787bb          	addw	a5,a5,s9
   13b62:	0017979b          	slliw	a5,a5,0x1
   13b66:	00c78cbb          	addw	s9,a5,a2
   13b6a:	e36ff06f          	j	0x131a0
   13b6e:	0019869b          	addiw	a3,s3,1
   13b72:	89b6                	mv	s3,a3
   13b74:	fcd347e3          	blt	t1,a3,0x13b42
   13b78:	002c949b          	slliw	s1,s9,0x2
   13b7c:	019484bb          	addw	s1,s1,s9
   13b80:	00149c9b          	slliw	s9,s1,0x1
   13b84:	bf7d                	j	0x13b42
   13b86:	57a9                	li	a5,-22
   13b88:	000a069b          	sext.w	a3,s4
   13b8c:	96f6c5e3          	blt	a3,a5,0x134f6
   13b90:	410d07bb          	subw	a5,s10,a6
   13b94:	00379713          	slli	a4,a5,0x3
   13b98:	0000e797          	auipc	a5,0xe
   13b9c:	9d078793          	addi	a5,a5,-1584 # 0x21568
   13ba0:	97ba                	add	a5,a5,a4
   13ba2:	f2048753          	fmv.d.x	fa4,s1
   13ba6:	239c                	fld	fa5,0(a5)
   13ba8:	1af777d3          	fdiv.d	fa5,fa4,fa5
   13bac:	e20784d3          	fmv.x.d	s1,fa5
   13bb0:	b439                	j	0x135be
   13bb2:	e20c07d3          	fmv.x.d	a5,fs8
   13bb6:	239c8dd3          	fmv.d	fs11,fs9
   13bba:	b109                	j	0x137bc
   13bbc:	67a6                	ld	a5,72(sp)
   13bbe:	4b01                	li	s6,0
   13bc0:	4c81                	li	s9,0
   13bc2:	97b2                	add	a5,a5,a2
   13bc4:	e4be                	sd	a5,72(sp)
   13bc6:	0007ca03          	lbu	s4,0(a5)
   13bca:	f9cff06f          	j	0x13366
   13bce:	6646                	ld	a2,80(sp)
   13bd0:	ca11                	beqz	a2,0x13be4
   13bd2:	03500593          	li	a1,53
   13bd6:	08a8                	addi	a0,sp,88
   13bd8:	06d070ef          	jal	ra,0x1b444
   13bdc:	65c6                	ld	a1,80(sp)
   13bde:	8522                	mv	a0,s0
   13be0:	5db060ef          	jal	ra,0x1a9ba
   13be4:	4795                	li	a5,5
   13be6:	0357eb63          	bltu	a5,s5,0x13c1c
   13bea:	0000d717          	auipc	a4,0xd
   13bee:	06e70713          	addi	a4,a4,110 # 0x20c58
   13bf2:	002a9793          	slli	a5,s5,0x2
   13bf6:	97ba                	add	a5,a5,a4
   13bf8:	439c                	lw	a5,0(a5)
   13bfa:	97ba                	add	a5,a5,a4
   13bfc:	8782                	jr	a5
   13bfe:	4716                	lw	a4,68(sp)
   13c00:	47f6                	lw	a5,92(sp)
   13c02:	fff006b7          	lui	a3,0xfff00
   13c06:	4337071b          	addiw	a4,a4,1075
   13c0a:	16fd                	addi	a3,a3,-1
   13c0c:	05816483          	lwu	s1,88(sp)
   13c10:	8ff5                	and	a5,a5,a3
   13c12:	0147171b          	slliw	a4,a4,0x14
   13c16:	8fd9                	or	a5,a5,a4
   13c18:	1782                	slli	a5,a5,0x20
   13c1a:	8cdd                	or	s1,s1,a5
   13c1c:	0089f993          	andi	s3,s3,8
   13c20:	98098fe3          	beqz	s3,0x135be
   13c24:	0204d793          	srli	a5,s1,0x20
   13c28:	80000737          	lui	a4,0x80000
   13c2c:	8fd9                	or	a5,a5,a4
   13c2e:	1482                	slli	s1,s1,0x20
   13c30:	1782                	slli	a5,a5,0x20
   13c32:	9081                	srli	s1,s1,0x20
   13c34:	8cdd                	or	s1,s1,a5
   13c36:	b261                	j	0x135be
   13c38:	54fd                	li	s1,-1
   13c3a:	8085                	srli	s1,s1,0x1
   13c3c:	b7c5                	j	0x13c1c
   13c3e:	7ff00493          	li	s1,2047
   13c42:	14d2                	slli	s1,s1,0x34
   13c44:	bfe1                	j	0x13c1c
   13c46:	64e6                	ld	s1,88(sp)
   13c48:	bfd1                	j	0x13c1c
   13c4a:	4501                	li	a0,0
   13c4c:	f3aff06f          	j	0x13386
   13c50:	67c2                	ld	a5,16(sp)
   13c52:	f2048753          	fmv.d.x	fa4,s1
   13c56:	00379713          	slli	a4,a5,0x3
   13c5a:	0000e797          	auipc	a5,0xe
   13c5e:	90e78793          	addi	a5,a5,-1778 # 0x21568
   13c62:	97ba                	add	a5,a5,a4
   13c64:	239c                	fld	fa5,0(a5)
   13c66:	12e7f7d3          	fmul.d	fa5,fa5,fa4
   13c6a:	e20784d3          	fmv.x.d	s1,fa5
   13c6e:	ba81                	j	0x135be
   13c70:	85ce                	mv	a1,s3
   13c72:	4d01                	li	s10,0
   13c74:	d18ff06f          	j	0x1318c
   13c78:	47bd                	li	a5,15
   13c7a:	413787bb          	subw	a5,a5,s3
   13c7e:	89be                	mv	s3,a5
   13c80:	0000e717          	auipc	a4,0xe
   13c84:	8e870713          	addi	a4,a4,-1816 # 0x21568
   13c88:	078e                	slli	a5,a5,0x3
   13c8a:	97ba                	add	a5,a5,a4
   13c8c:	f2048753          	fmv.d.x	fa4,s1
   13c90:	239c                	fld	fa5,0(a5)
   13c92:	413a09bb          	subw	s3,s4,s3
   13c96:	00399793          	slli	a5,s3,0x3
   13c9a:	12e7f7d3          	fmul.d	fa5,fa5,fa4
   13c9e:	97ba                	add	a5,a5,a4
   13ca0:	2398                	fld	fa4,0(a5)
   13ca2:	12e7f7d3          	fmul.d	fa5,fa5,fa4
   13ca6:	e20784d3          	fmv.x.d	s1,fa5
   13caa:	ba11                	j	0x135be
   13cac:	040d9363          	bnez	s11,0x13cf2
   13cb0:	67a2                	ld	a5,8(sp)
   13cb2:	00c79713          	slli	a4,a5,0xc
   13cb6:	ef15                	bnez	a4,0x13cf2
   13cb8:	0204dd13          	srli	s10,s1,0x20
   13cbc:	7ff007b7          	lui	a5,0x7ff00
   13cc0:	00fd77b3          	and	a5,s10,a5
   13cc4:	06b00737          	lui	a4,0x6b00
   13cc8:	02f77563          	bgeu	a4,a5,0x13cf2
   13ccc:	018aa783          	lw	a5,24(s5)
   13cd0:	e791                	bnez	a5,0x13cdc
   13cd2:	014aa703          	lw	a4,20(s5)
   13cd6:	4785                	li	a5,1
   13cd8:	00e7dd63          	bge	a5,a4,0x13cf2
   13cdc:	85d6                	mv	a1,s5
   13cde:	4605                	li	a2,1
   13ce0:	8522                	mv	a0,s0
   13ce2:	1b0070ef          	jal	ra,0x1ae92
   13ce6:	85ce                	mv	a1,s3
   13ce8:	8aaa                	mv	s5,a0
   13cea:	2ba070ef          	jal	ra,0x1afa4
   13cee:	02a04b63          	bgtz	a0,0x13d24
   13cf2:	6546                	ld	a0,80(sp)
   13cf4:	bc0c0ae3          	beqz	s8,0x138c8
   13cf8:	39500493          	li	s1,917
   13cfc:	14d2                	slli	s1,s1,0x34
   13cfe:	f2048753          	fmv.d.x	fa4,s1
   13d02:	27a2                	fld	fa5,8(sp)
   13d04:	12e7f7d3          	fmul.d	fa5,fa5,fa4
   13d08:	e20784d3          	fmv.x.d	s1,fa5
   13d0c:	ba049ee3          	bnez	s1,0x138c8
   13d10:	02200793          	li	a5,34
   13d14:	c01c                	sw	a5,0(s0)
   13d16:	be4d                	j	0x138c8
   13d18:	67a2                	ld	a5,8(sp)
   13d1a:	00c79713          	slli	a4,a5,0xc
   13d1e:	e339                	bnez	a4,0x13d64
   13d20:	0204dd13          	srli	s10,s1,0x20
   13d24:	67c6                	ld	a5,80(sp)
   13d26:	2d01                	sext.w	s10,s10
   13d28:	853e                	mv	a0,a5
   13d2a:	0c0c0d63          	beqz	s8,0x13e04
   13d2e:	7ff00737          	lui	a4,0x7ff00
   13d32:	00ed7733          	and	a4,s10,a4
   13d36:	06b006b7          	lui	a3,0x6b00
   13d3a:	0ce6c563          	blt	a3,a4,0x13e04
   13d3e:	037006b7          	lui	a3,0x3700
   13d42:	fae6cbe3          	blt	a3,a4,0x13cf8
   13d46:	02200713          	li	a4,34
   13d4a:	4481                	li	s1,0
   13d4c:	c018                	sw	a4,0(s0)
   13d4e:	853e                	mv	a0,a5
   13d50:	bea5                	j	0x138c8
   13d52:	fc0d83e3          	beqz	s11,0x13d18
   13d56:	4204d713          	srai	a4,s1,0x20
   13d5a:	fff74793          	not	a5,a4
   13d5e:	02c79693          	slli	a3,a5,0x2c
   13d62:	c2f9                	beqz	a3,0x13e28
   13d64:	7722                	ld	a4,40(sp)
   13d66:	c335                	beqz	a4,0x13dca
   13d68:	0204d793          	srli	a5,s1,0x20
   13d6c:	8ff9                	and	a5,a5,a4
   13d6e:	d3d1                	beqz	a5,0x13cf2
   13d70:	8526                	mv	a0,s1
   13d72:	85e2                	mv	a1,s8
   13d74:	060d8863          	beqz	s11,0x13de4
   13d78:	ae6ff0ef          	jal	ra,0x1305e
   13d7c:	27a2                	fld	fa5,8(sp)
   13d7e:	6546                	ld	a0,80(sp)
   13d80:	02a7f7d3          	fadd.d	fa5,fa5,fa0
   13d84:	a43e                	fsd	fa5,8(sp)
   13d86:	64a2                	ld	s1,8(sp)
   13d88:	b7b5                	j	0x13cf4
   13d8a:	035007b7          	lui	a5,0x3500
   13d8e:	9fb5                	addw	a5,a5,a3
   13d90:	1782                	slli	a5,a5,0x20
   13d92:	8f65                	and	a4,a4,s1
   13d94:	00f764b3          	or	s1,a4,a5
   13d98:	4c01                	li	s8,0
   13d9a:	875ff06f          	j	0x1360e
   13d9e:	08b0                	addi	a2,sp,88
   13da0:	0000d597          	auipc	a1,0xd
   13da4:	ee858593          	addi	a1,a1,-280 # 0x20c88
   13da8:	00a8                	addi	a0,sp,72
   13daa:	5b6040ef          	jal	ra,0x18360
   13dae:	4795                	li	a5,5
   13db0:	ccf512e3          	bne	a0,a5,0x13a74
   13db4:	05c16483          	lwu	s1,92(sp)
   13db8:	05816783          	lwu	a5,88(sp)
   13dbc:	7ff00737          	lui	a4,0x7ff00
   13dc0:	8cd9                	or	s1,s1,a4
   13dc2:	1482                	slli	s1,s1,0x20
   13dc4:	8cdd                	or	s1,s1,a5
   13dc6:	ff8ff06f          	j	0x135be
   13dca:	7782                	ld	a5,32(sp)
   13dcc:	8fe5                	and	a5,a5,s1
   13dce:	2781                	sext.w	a5,a5
   13dd0:	f3c5                	bnez	a5,0x13d70
   13dd2:	6546                	ld	a0,80(sp)
   13dd4:	b705                	j	0x13cf4
   13dd6:	4681                	li	a3,0
   13dd8:	0000ee17          	auipc	t3,0xe
   13ddc:	880e0e13          	addi	t3,t3,-1920 # 0x21658
   13de0:	ecaff06f          	j	0x134aa
   13de4:	a7aff0ef          	jal	ra,0x1305e
   13de8:	27a2                	fld	fa5,8(sp)
   13dea:	0aa7f7d3          	fsub.d	fa5,fa5,fa0
   13dee:	a43e                	fsd	fa5,8(sp)
   13df0:	2722                	fld	fa4,8(sp)
   13df2:	f20007d3          	fmv.d.x	fa5,zero
   13df6:	64a2                	ld	s1,8(sp)
   13df8:	a2f727d3          	feq.d	a5,fa4,fa5
   13dfc:	ee078be3          	beqz	a5,0x13cf2
   13e00:	67c6                	ld	a5,80(sp)
   13e02:	b791                	j	0x13d46
   13e04:	7ff007b7          	lui	a5,0x7ff00
   13e08:	00fd7d33          	and	s10,s10,a5
   13e0c:	00100737          	lui	a4,0x100
   13e10:	fff007b7          	lui	a5,0xfff00
   13e14:	01a787bb          	addw	a5,a5,s10
   13e18:	177d                	addi	a4,a4,-1
   13e1a:	8fd9                	or	a5,a5,a4
   13e1c:	54fd                	li	s1,-1
   13e1e:	1782                	slli	a5,a5,0x20
   13e20:	9081                	srli	s1,s1,0x20
   13e22:	8cdd                	or	s1,s1,a5
   13e24:	e426                	sd	s1,8(sp)
   13e26:	b5f9                	j	0x13cf4
   13e28:	0004861b          	sext.w	a2,s1
   13e2c:	56fd                	li	a3,-1
   13e2e:	020c0263          	beqz	s8,0x13e52
   13e32:	7ff007b7          	lui	a5,0x7ff00
   13e36:	8ff9                	and	a5,a5,a4
   13e38:	06a005b7          	lui	a1,0x6a00
   13e3c:	00f5eb63          	bltu	a1,a5,0x13e52
   13e40:	06b00693          	li	a3,107
   13e44:	0147d79b          	srliw	a5,a5,0x14
   13e48:	40f687bb          	subw	a5,a3,a5
   13e4c:	56fd                	li	a3,-1
   13e4e:	00f696bb          	sllw	a3,a3,a5
   13e52:	f0d619e3          	bne	a2,a3,0x13d64
   13e56:	7ff00793          	li	a5,2047
   13e5a:	66a2                	ld	a3,8(sp)
   13e5c:	17d2                	slli	a5,a5,0x34
   13e5e:	17fd                	addi	a5,a5,-1
   13e60:	6546                	ld	a0,80(sp)
   13e62:	a4d78de3          	beq	a5,a3,0x138bc
   13e66:	7ff004b7          	lui	s1,0x7ff00
   13e6a:	8f65                	and	a4,a4,s1
   13e6c:	001004b7          	lui	s1,0x100
   13e70:	94ba                	add	s1,s1,a4
   13e72:	1482                	slli	s1,s1,0x20
   13e74:	e426                	sd	s1,8(sp)
   13e76:	bdbd                	j	0x13cf4
   13e78:	57fd                	li	a5,-1
   13e7a:	00d797bb          	sllw	a5,a5,a3
   13e7e:	8fe5                	and	a5,a5,s1
   13e80:	1782                	slli	a5,a5,0x20
   13e82:	9081                	srli	s1,s1,0x20
   13e84:	9381                	srli	a5,a5,0x20
   13e86:	1482                	slli	s1,s1,0x20
   13e88:	8cdd                	or	s1,s1,a5
   13e8a:	f1cff06f          	j	0x135a6
   13e8e:	fe06879b          	addiw	a5,a3,-32
   13e92:	56fd                	li	a3,-1
   13e94:	00f697bb          	sllw	a5,a3,a5
   13e98:	8ff9                	and	a5,a5,a4
   13e9a:	1482                	slli	s1,s1,0x20
   13e9c:	1782                	slli	a5,a5,0x20
   13e9e:	9081                	srli	s1,s1,0x20
   13ea0:	8cdd                	or	s1,s1,a5
   13ea2:	f04ff06f          	j	0x135a6
   13ea6:	874e                	mv	a4,s3
   13ea8:	89c6                	mv	s3,a7
   13eaa:	b14d                	j	0x13b4c
   13eac:	50818693          	addi	a3,gp,1288
   13eb0:	9f2ff06f          	j	0x130a2
   13eb4:	86b2                	mv	a3,a2
   13eb6:	862e                	mv	a2,a1
   13eb8:	85aa                	mv	a1,a0
   13eba:	7501b503          	ld	a0,1872(gp)
   13ebe:	9e4ff06f          	j	0x130a2
   13ec2:	862e                	mv	a2,a1
   13ec4:	50818693          	addi	a3,gp,1288
   13ec8:	85aa                	mv	a1,a0
   13eca:	7501b503          	ld	a0,1872(gp)
   13ece:	9d4ff06f          	j	0x130a2
   13ed2:	1141                	addi	sp,sp,-16
   13ed4:	e022                	sd	s0,0(sp)
   13ed6:	75018413          	addi	s0,gp,1872
   13eda:	87aa                	mv	a5,a0
   13edc:	6008                	ld	a0,0(s0)
   13ede:	86b2                	mv	a3,a2
   13ee0:	862e                	mv	a2,a1
   13ee2:	85be                	mv	a1,a5
   13ee4:	e406                	sd	ra,8(sp)
   13ee6:	9bcff0ef          	jal	ra,0x130a2
   13eea:	a2a52753          	feq.d	a4,fa0,fa0
   13eee:	e20507d3          	fmv.x.d	a5,fa0
   13ef2:	c739                	beqz	a4,0x13f40
   13ef4:	40157553          	fcvt.s.d	fa0,fa0
   13ef8:	00010717          	auipc	a4,0x10
   13efc:	d8072787          	flw	fa5,-640(a4) # 0x23c78
   13f00:	20a52753          	fabs.s	fa4,fa0
   13f04:	001026f3          	frflags	a3
   13f08:	a0e79753          	flt.s	a4,fa5,fa4
   13f0c:	00169073          	fsflags	a3
   13f10:	c705                	beqz	a4,0x13f38
   13f12:	f20787d3          	fmv.d.x	fa5,a5
   13f16:	00010797          	auipc	a5,0x10
   13f1a:	d327b707          	fld	fa4,-718(a5) # 0x23c48
   13f1e:	22f7a7d3          	fabs.d	fa5,fa5
   13f22:	00102773          	frflags	a4
   13f26:	a2f717d3          	flt.d	a5,fa4,fa5
   13f2a:	00171073          	fsflags	a4
   13f2e:	e789                	bnez	a5,0x13f38
   13f30:	601c                	ld	a5,0(s0)
   13f32:	02200713          	li	a4,34
   13f36:	c398                	sw	a4,0(a5)
   13f38:	60a2                	ld	ra,8(sp)
   13f3a:	6402                	ld	s0,0(sp)
   13f3c:	0141                	addi	sp,sp,16
   13f3e:	8082                	ret
   13f40:	0000d517          	auipc	a0,0xd
   13f44:	bf050513          	addi	a0,a0,-1040 # 0x20b30
   13f48:	0007d763          	bgez	a5,0x13f56
   13f4c:	2d9070ef          	jal	ra,0x1ba24
   13f50:	20a51553          	fneg.s	fa0,fa0
   13f54:	b7d5                	j	0x13f38
   13f56:	6402                	ld	s0,0(sp)
   13f58:	60a2                	ld	ra,8(sp)
   13f5a:	0141                	addi	sp,sp,16
   13f5c:	2c90706f          	j	0x1ba24
   13f60:	1141                	addi	sp,sp,-16
   13f62:	e022                	sd	s0,0(sp)
   13f64:	75018413          	addi	s0,gp,1872
   13f68:	87aa                	mv	a5,a0
   13f6a:	6008                	ld	a0,0(s0)
   13f6c:	862e                	mv	a2,a1
   13f6e:	50818693          	addi	a3,gp,1288
   13f72:	85be                	mv	a1,a5
   13f74:	e406                	sd	ra,8(sp)
   13f76:	92cff0ef          	jal	ra,0x130a2
   13f7a:	a2a52753          	feq.d	a4,fa0,fa0
   13f7e:	e20507d3          	fmv.x.d	a5,fa0
   13f82:	c739                	beqz	a4,0x13fd0
   13f84:	40157553          	fcvt.s.d	fa0,fa0
   13f88:	00010717          	auipc	a4,0x10
   13f8c:	cf072787          	flw	fa5,-784(a4) # 0x23c78
   13f90:	20a52753          	fabs.s	fa4,fa0
   13f94:	001026f3          	frflags	a3
   13f98:	a0e79753          	flt.s	a4,fa5,fa4
   13f9c:	00169073          	fsflags	a3
   13fa0:	c705                	beqz	a4,0x13fc8
   13fa2:	f20787d3          	fmv.d.x	fa5,a5
   13fa6:	00010797          	auipc	a5,0x10
   13faa:	ca27b707          	fld	fa4,-862(a5) # 0x23c48
   13fae:	22f7a7d3          	fabs.d	fa5,fa5
   13fb2:	00102773          	frflags	a4
   13fb6:	a2f717d3          	flt.d	a5,fa4,fa5
   13fba:	00171073          	fsflags	a4
   13fbe:	e789                	bnez	a5,0x13fc8
   13fc0:	601c                	ld	a5,0(s0)
   13fc2:	02200713          	li	a4,34
   13fc6:	c398                	sw	a4,0(a5)
   13fc8:	60a2                	ld	ra,8(sp)
   13fca:	6402                	ld	s0,0(sp)
   13fcc:	0141                	addi	sp,sp,16
   13fce:	8082                	ret
   13fd0:	0000d517          	auipc	a0,0xd
   13fd4:	b6050513          	addi	a0,a0,-1184 # 0x20b30
   13fd8:	0007d763          	bgez	a5,0x13fe6
   13fdc:	249070ef          	jal	ra,0x1ba24
   13fe0:	20a51553          	fneg.s	fa0,fa0
   13fe4:	b7d5                	j	0x13fc8
   13fe6:	6402                	ld	s0,0(sp)
   13fe8:	60a2                	ld	ra,8(sp)
   13fea:	0141                	addi	sp,sp,16
   13fec:	2390706f          	j	0x1ba24
   13ff0:	7501b603          	ld	a2,1872(gp)
   13ff4:	4685                	li	a3,1
   13ff6:	09860613          	addi	a2,a2,152
   13ffa:	a009                	j	0x13ffc
   13ffc:	c929                	beqz	a0,0x1404e
   13ffe:	00054803          	lbu	a6,0(a0)
   14002:	00150893          	addi	a7,a0,1
   14006:	87ae                	mv	a5,a1
   14008:	a019                	j	0x1400e
   1400a:	02e80b63          	beq	a6,a4,0x14040
   1400e:	0007c703          	lbu	a4,0(a5)
   14012:	0785                	addi	a5,a5,1
   14014:	fb7d                	bnez	a4,0x1400a
   14016:	04080063          	beqz	a6,0x14056
   1401a:	0008c803          	lbu	a6,0(a7)
   1401e:	87ae                	mv	a5,a1
   14020:	0885                	addi	a7,a7,1
   14022:	a011                	j	0x14026
   14024:	dafd                	beqz	a3,0x1401a
   14026:	0007c703          	lbu	a4,0(a5)
   1402a:	0785                	addi	a5,a5,1
   1402c:	0007069b          	sext.w	a3,a4
   14030:	fee81ae3          	bne	a6,a4,0x14024
   14034:	ca89                	beqz	a3,0x14046
   14036:	fe088fa3          	sb	zero,-1(a7)
   1403a:	01163023          	sd	a7,0(a2)
   1403e:	8082                	ret
   14040:	ce99                	beqz	a3,0x1405e
   14042:	8546                	mv	a0,a7
   14044:	bf6d                	j	0x13ffe
   14046:	4881                	li	a7,0
   14048:	01163023          	sd	a7,0(a2)
   1404c:	8082                	ret
   1404e:	6208                	ld	a0,0(a2)
   14050:	f55d                	bnez	a0,0x13ffe
   14052:	4501                	li	a0,0
   14054:	8082                	ret
   14056:	00063023          	sd	zero,0(a2)
   1405a:	4501                	li	a0,0
   1405c:	8082                	ret
   1405e:	01163023          	sd	a7,0(a2)
   14062:	00050023          	sb	zero,0(a0)
   14066:	8082                	ret
   14068:	4685                	li	a3,1
   1406a:	bf49                	j	0x13ffc
   1406c:	1101                	addi	sp,sp,-32
   1406e:	ec22                	sd	s0,24(sp)
   14070:	e826                	sd	s1,16(sp)
   14072:	e44a                	sd	s2,8(sp)
   14074:	83aa                	mv	t2,a0
   14076:	832e                	mv	t1,a1
   14078:	0000d817          	auipc	a6,0xd
   1407c:	00980813          	addi	a6,a6,9 # 0x21081
   14080:	00034783          	lbu	a5,0(t1)
   14084:	889a                	mv	a7,t1
   14086:	0305                	addi	t1,t1,1
   14088:	00f80733          	add	a4,a6,a5
   1408c:	00074703          	lbu	a4,0(a4)
   14090:	8b21                	andi	a4,a4,8
   14092:	f77d                	bnez	a4,0x14080
   14094:	02d00713          	li	a4,45
   14098:	0ee78163          	beq	a5,a4,0x1417a
   1409c:	02b00713          	li	a4,43
   140a0:	08e78a63          	beq	a5,a4,0x14134
   140a4:	54fd                	li	s1,-1
   140a6:	2781                	sext.w	a5,a5
   140a8:	8085                	srli	s1,s1,0x1
   140aa:	4901                	li	s2,0
   140ac:	cec1                	beqz	a3,0x14144
   140ae:	4741                	li	a4,16
   140b0:	8436                	mv	s0,a3
   140b2:	0ce68e63          	beq	a3,a4,0x1418e
   140b6:	0284f2b3          	remu	t0,s1,s0
   140ba:	4e25                	li	t3,9
   140bc:	fd07871b          	addiw	a4,a5,-48
   140c0:	4881                	li	a7,0
   140c2:	4501                	li	a0,0
   140c4:	4fe5                	li	t6,25
   140c6:	5efd                	li	t4,-1
   140c8:	0007881b          	sext.w	a6,a5
   140cc:	0284df33          	divu	t5,s1,s0
   140d0:	2281                	sext.w	t0,t0
   140d2:	02ee6963          	bltu	t3,a4,0x14104
   140d6:	87ba                	mv	a5,a4
   140d8:	02d7de63          	bge	a5,a3,0x14114
   140dc:	01d88b63          	beq	a7,t4,0x140f2
   140e0:	58fd                	li	a7,-1
   140e2:	00af6863          	bltu	t5,a0,0x140f2
   140e6:	06af0d63          	beq	t5,a0,0x14160
   140ea:	4885                	li	a7,1
   140ec:	02850533          	mul	a0,a0,s0
   140f0:	953e                	add	a0,a0,a5
   140f2:	00034783          	lbu	a5,0(t1)
   140f6:	0305                	addi	t1,t1,1
   140f8:	fd07871b          	addiw	a4,a5,-48
   140fc:	0007881b          	sext.w	a6,a5
   14100:	fcee7be3          	bgeu	t3,a4,0x140d6
   14104:	fbf8071b          	addiw	a4,a6,-65
   14108:	04efe563          	bltu	t6,a4,0x14152
   1410c:	fc97879b          	addiw	a5,a5,-55
   14110:	fcd7c6e3          	blt	a5,a3,0x140dc
   14114:	57fd                	li	a5,-1
   14116:	04f88863          	beq	a7,a5,0x14166
   1411a:	00090463          	beqz	s2,0x14122
   1411e:	40a00533          	neg	a0,a0
   14122:	c601                	beqz	a2,0x1412a
   14124:	06089363          	bnez	a7,0x1418a
   14128:	e20c                	sd	a1,0(a2)
   1412a:	6462                	ld	s0,24(sp)
   1412c:	64c2                	ld	s1,16(sp)
   1412e:	6922                	ld	s2,8(sp)
   14130:	6105                	addi	sp,sp,32
   14132:	8082                	ret
   14134:	54fd                	li	s1,-1
   14136:	00034783          	lbu	a5,0(t1)
   1413a:	8085                	srli	s1,s1,0x1
   1413c:	00288313          	addi	t1,a7,2
   14140:	4901                	li	s2,0
   14142:	f6b5                	bnez	a3,0x140ae
   14144:	03000713          	li	a4,48
   14148:	06e78763          	beq	a5,a4,0x141b6
   1414c:	4429                	li	s0,10
   1414e:	46a9                	li	a3,10
   14150:	b79d                	j	0x140b6
   14152:	f9f8081b          	addiw	a6,a6,-97
   14156:	fb0fefe3          	bltu	t6,a6,0x14114
   1415a:	fa97879b          	addiw	a5,a5,-87
   1415e:	bfad                	j	0x140d8
   14160:	f8f2c9e3          	blt	t0,a5,0x140f2
   14164:	b759                	j	0x140ea
   14166:	02200793          	li	a5,34
   1416a:	00f3a023          	sw	a5,0(t2)
   1416e:	8526                	mv	a0,s1
   14170:	de4d                	beqz	a2,0x1412a
   14172:	fff30593          	addi	a1,t1,-1
   14176:	8526                	mv	a0,s1
   14178:	bf45                	j	0x14128
   1417a:	54fd                	li	s1,-1
   1417c:	00034783          	lbu	a5,0(t1)
   14180:	14fe                	slli	s1,s1,0x3f
   14182:	00288313          	addi	t1,a7,2
   14186:	4905                	li	s2,1
   14188:	b715                	j	0x140ac
   1418a:	84aa                	mv	s1,a0
   1418c:	b7dd                	j	0x14172
   1418e:	03000713          	li	a4,48
   14192:	00e79a63          	bne	a5,a4,0x141a6
   14196:	00034703          	lbu	a4,0(t1)
   1419a:	05800513          	li	a0,88
   1419e:	0df77713          	andi	a4,a4,223
   141a2:	00a70463          	beq	a4,a0,0x141aa
   141a6:	4441                	li	s0,16
   141a8:	b739                	j	0x140b6
   141aa:	00134783          	lbu	a5,1(t1)
   141ae:	4441                	li	s0,16
   141b0:	0309                	addi	t1,t1,2
   141b2:	46c1                	li	a3,16
   141b4:	b709                	j	0x140b6
   141b6:	00034703          	lbu	a4,0(t1)
   141ba:	05800693          	li	a3,88
   141be:	0df77713          	andi	a4,a4,223
   141c2:	fed704e3          	beq	a4,a3,0x141aa
   141c6:	4421                	li	s0,8
   141c8:	46a1                	li	a3,8
   141ca:	b5f5                	j	0x140b6
   141cc:	b545                	j	0x1406c
   141ce:	86b2                	mv	a3,a2
   141d0:	862e                	mv	a2,a1
   141d2:	85aa                	mv	a1,a0
   141d4:	7501b503          	ld	a0,1872(gp)
   141d8:	bd51                	j	0x1406c
   141da:	86b2                	mv	a3,a2
   141dc:	862e                	mv	a2,a1
   141de:	85aa                	mv	a1,a0
   141e0:	7501b503          	ld	a0,1872(gp)
   141e4:	b561                	j	0x1406c
   141e6:	85aa                	mv	a1,a0
   141e8:	7501b503          	ld	a0,1872(gp)
   141ec:	5250206f          	j	0x16f10
   141f0:	862e                	mv	a2,a1
   141f2:	85aa                	mv	a1,a0
   141f4:	7501b503          	ld	a0,1872(gp)
   141f8:	64e0306f          	j	0x17846
   141fc:	715d                	addi	sp,sp,-80
   141fe:	f032                	sd	a2,32(sp)
   14200:	f436                	sd	a3,40(sp)
   14202:	fc3e                	sd	a5,56(sp)
   14204:	0006069b          	sext.w	a3,a2
   14208:	101c                	addi	a5,sp,32
   1420a:	862e                	mv	a2,a1
   1420c:	85aa                	mv	a1,a0
   1420e:	7501b503          	ld	a0,1872(gp)
   14212:	ec06                	sd	ra,24(sp)
   14214:	f83a                	sd	a4,48(sp)
   14216:	e0c2                	sd	a6,64(sp)
   14218:	e4c6                	sd	a7,72(sp)
   1421a:	e43e                	sd	a5,8(sp)
   1421c:	2b8070ef          	jal	ra,0x1b4d4
   14220:	60e2                	ld	ra,24(sp)
   14222:	6161                	addi	sp,sp,80
   14224:	8082                	ret
   14226:	86b2                	mv	a3,a2
   14228:	862e                	mv	a2,a1
   1422a:	85aa                	mv	a1,a0
   1422c:	7501b503          	ld	a0,1872(gp)
   14230:	2e20706f          	j	0x1b512
   14234:	86b2                	mv	a3,a2
   14236:	862e                	mv	a2,a1
   14238:	85aa                	mv	a1,a0
   1423a:	7501b503          	ld	a0,1872(gp)
   1423e:	2d50206f          	j	0x16d12
   14242:	0ac5a783          	lw	a5,172(a1) # 0x6a000ac
   14246:	715d                	addi	sp,sp,-80
   14248:	ec56                	sd	s5,24(sp)
   1424a:	e486                	sd	ra,72(sp)
   1424c:	e0a2                	sd	s0,64(sp)
   1424e:	fc26                	sd	s1,56(sp)
   14250:	f84a                	sd	s2,48(sp)
   14252:	f44e                	sd	s3,40(sp)
   14254:	f052                	sd	s4,32(sp)
   14256:	e85a                	sd	s6,16(sp)
   14258:	e45e                	sd	s7,8(sp)
   1425a:	03279713          	slli	a4,a5,0x32
   1425e:	8ab2                	mv	s5,a2
   14260:	08075063          	bgez	a4,0x142e0
   14264:	6a18                	ld	a4,16(a2)
   14266:	00063b03          	ld	s6,0(a2)
   1426a:	892e                	mv	s2,a1
   1426c:	89aa                	mv	s3,a0
   1426e:	5a7d                	li	s4,-1
   14270:	c735                	beqz	a4,0x142dc
   14272:	008b3783          	ld	a5,8(s6)
   14276:	000b3403          	ld	s0,0(s6)
   1427a:	8389                	srli	a5,a5,0x2
   1427c:	00078b9b          	sext.w	s7,a5
   14280:	05705763          	blez	s7,0x142ce
   14284:	fff7849b          	addiw	s1,a5,-1
   14288:	1482                	slli	s1,s1,0x20
   1428a:	80f9                	srli	s1,s1,0x1e
   1428c:	00440793          	addi	a5,s0,4
   14290:	94be                	add	s1,s1,a5
   14292:	a019                	j	0x14298
   14294:	02848b63          	beq	s1,s0,0x142ca
   14298:	400c                	lw	a1,0(s0)
   1429a:	864a                	mv	a2,s2
   1429c:	854e                	mv	a0,s3
   1429e:	212030ef          	jal	ra,0x174b0
   142a2:	2501                	sext.w	a0,a0
   142a4:	0411                	addi	s0,s0,4
   142a6:	ff4517e3          	bne	a0,s4,0x14294
   142aa:	557d                	li	a0,-1
   142ac:	60a6                	ld	ra,72(sp)
   142ae:	6406                	ld	s0,64(sp)
   142b0:	000ab823          	sd	zero,16(s5)
   142b4:	000aa423          	sw	zero,8(s5)
   142b8:	74e2                	ld	s1,56(sp)
   142ba:	7942                	ld	s2,48(sp)
   142bc:	79a2                	ld	s3,40(sp)
   142be:	7a02                	ld	s4,32(sp)
   142c0:	6ae2                	ld	s5,24(sp)
   142c2:	6b42                	ld	s6,16(sp)
   142c4:	6ba2                	ld	s7,8(sp)
   142c6:	6161                	addi	sp,sp,80
   142c8:	8082                	ret
   142ca:	010ab703          	ld	a4,16(s5)
   142ce:	0b8a                	slli	s7,s7,0x2
   142d0:	41770733          	sub	a4,a4,s7
   142d4:	00eab823          	sd	a4,16(s5)
   142d8:	0b41                	addi	s6,s6,16
   142da:	ff41                	bnez	a4,0x14272
   142dc:	4501                	li	a0,0
   142de:	b7f9                	j	0x142ac
   142e0:	5a2030ef          	jal	ra,0x17882
   142e4:	b7e1                	j	0x142ac
   142e6:	6a18                	ld	a4,16(a2)
   142e8:	c311                	beqz	a4,0x142ec
   142ea:	bfa1                	j	0x14242
   142ec:	00062423          	sw	zero,8(a2)
   142f0:	4501                	li	a0,0
   142f2:	8082                	ret
   142f4:	7145                	addi	sp,sp,-464
   142f6:	fb4a                	sd	s2,432(sp)
   142f8:	f74e                	sd	s3,424(sp)
   142fa:	eb5a                	sd	s6,400(sp)
   142fc:	f6ee                	sd	s11,360(sp)
   142fe:	e786                	sd	ra,456(sp)
   14300:	e3a2                	sd	s0,448(sp)
   14302:	ff26                	sd	s1,440(sp)
   14304:	f352                	sd	s4,416(sp)
   14306:	ef56                	sd	s5,408(sp)
   14308:	e75e                	sd	s7,392(sp)
   1430a:	e362                	sd	s8,384(sp)
   1430c:	fee6                	sd	s9,376(sp)
   1430e:	faea                	sd	s10,368(sp)
   14310:	89aa                	mv	s3,a0
   14312:	892e                	mv	s2,a1
   14314:	8db2                	mv	s11,a2
   14316:	8b36                	mv	s6,a3
   14318:	c501                	beqz	a0,0x14320
   1431a:	493c                	lw	a5,80(a0)
   1431c:	3e078f63          	beqz	a5,0x1471a
   14320:	01091703          	lh	a4,16(s2)
   14324:	03071793          	slli	a5,a4,0x30
   14328:	03271693          	slli	a3,a4,0x32
   1432c:	93c1                	srli	a5,a5,0x30
   1432e:	0006cf63          	bltz	a3,0x1434c
   14332:	0ac92683          	lw	a3,172(s2)
   14336:	6789                	lui	a5,0x2
   14338:	8fd9                	or	a5,a5,a4
   1433a:	7779                	lui	a4,0xffffe
   1433c:	177d                	addi	a4,a4,-1
   1433e:	8f75                	and	a4,a4,a3
   14340:	00f91823          	sh	a5,16(s2)
   14344:	17c2                	slli	a5,a5,0x30
   14346:	0ae92623          	sw	a4,172(s2)
   1434a:	93c1                	srli	a5,a5,0x30
   1434c:	0087f713          	andi	a4,a5,8
   14350:	28070f63          	beqz	a4,0x145ee
   14354:	01893703          	ld	a4,24(s2)
   14358:	28070b63          	beqz	a4,0x145ee
   1435c:	8be9                	andi	a5,a5,26
   1435e:	4729                	li	a4,10
   14360:	2ae78363          	beq	a5,a4,0x14606
   14364:	77e1                	lui	a5,0xffff8
   14366:	1180                	addi	s0,sp,224
   14368:	8307c793          	xori	a5,a5,-2000
   1436c:	f0a2                	sd	s0,96(sp)
   1436e:	f882                	sd	zero,112(sp)
   14370:	d482                	sw	zero,104(sp)
   14372:	8722                	mv	a4,s0
   14374:	e802                	sd	zero,16(sp)
   14376:	f802                	sd	zero,48(sp)
   14378:	e082                	sd	zero,64(sp)
   1437a:	fc02                	sd	zero,56(sp)
   1437c:	e402                	sd	zero,8(sp)
   1437e:	e4be                	sd	a5,72(sp)
   14380:	000dc783          	lbu	a5,0(s11)
   14384:	1c078763          	beqz	a5,0x14552
   14388:	8a6e                	mv	s4,s11
   1438a:	02500693          	li	a3,37
   1438e:	2ed78463          	beq	a5,a3,0x14676
   14392:	001a4783          	lbu	a5,1(s4)
   14396:	0a05                	addi	s4,s4,1
   14398:	fbfd                	bnez	a5,0x1438e
   1439a:	41ba04bb          	subw	s1,s4,s11
   1439e:	1a048a63          	beqz	s1,0x14552
   143a2:	57a6                	lw	a5,104(sp)
   143a4:	76c6                	ld	a3,112(sp)
   143a6:	01b73023          	sd	s11,0(a4) # 0xffffffffffffe000
   143aa:	0017861b          	addiw	a2,a5,1
   143ae:	96a6                	add	a3,a3,s1
   143b0:	e704                	sd	s1,8(a4)
   143b2:	f8b6                	sd	a3,112(sp)
   143b4:	d4b2                	sw	a2,104(sp)
   143b6:	479d                	li	a5,7
   143b8:	0741                	addi	a4,a4,16
   143ba:	00c7dc63          	bge	a5,a2,0x143d2
   143be:	080687e3          	beqz	a3,0x14c4c
   143c2:	1090                	addi	a2,sp,96
   143c4:	85ca                	mv	a1,s2
   143c6:	854e                	mv	a0,s3
   143c8:	e7bff0ef          	jal	ra,0x14242
   143cc:	18051663          	bnez	a0,0x14558
   143d0:	8722                	mv	a4,s0
   143d2:	66a2                	ld	a3,8(sp)
   143d4:	000a4783          	lbu	a5,0(s4)
   143d8:	9ea5                	addw	a3,a3,s1
   143da:	e436                	sd	a3,8(sp)
   143dc:	16078b63          	beqz	a5,0x14552
   143e0:	001a4683          	lbu	a3,1(s4)
   143e4:	001a0d93          	addi	s11,s4,1
   143e8:	04010ba3          	sb	zero,87(sp)
   143ec:	5cfd                	li	s9,-1
   143ee:	4481                	li	s1,0
   143f0:	4d01                	li	s10,0
   143f2:	4a25                	li	s4,9
   143f4:	02a00a93          	li	s5,42
   143f8:	0d85                	addi	s11,s11,1
   143fa:	2681                	sext.w	a3,a3
   143fc:	05a00593          	li	a1,90
   14400:	fe06879b          	addiw	a5,a3,-32
   14404:	0007861b          	sext.w	a2,a5
   14408:	04c5e463          	bltu	a1,a2,0x14450
   1440c:	1782                	slli	a5,a5,0x20
   1440e:	0000d617          	auipc	a2,0xd
   14412:	8f260613          	addi	a2,a2,-1806 # 0x20d00
   14416:	83f9                	srli	a5,a5,0x1e
   14418:	97b2                	add	a5,a5,a2
   1441a:	439c                	lw	a5,0(a5)
   1441c:	97b2                	add	a5,a5,a2
   1441e:	8782                	jr	a5
   14420:	4481                	li	s1,0
   14422:	000dc603          	lbu	a2,0(s11)
   14426:	0024979b          	slliw	a5,s1,0x2
   1442a:	9cbd                	addw	s1,s1,a5
   1442c:	fd06869b          	addiw	a3,a3,-48
   14430:	0014949b          	slliw	s1,s1,0x1
   14434:	fd06079b          	addiw	a5,a2,-48
   14438:	9cb5                	addw	s1,s1,a3
   1443a:	0d85                	addi	s11,s11,1
   1443c:	0006069b          	sext.w	a3,a2
   14440:	fefa71e3          	bgeu	s4,a5,0x14422
   14444:	fe06879b          	addiw	a5,a3,-32
   14448:	0007861b          	sext.w	a2,a5
   1444c:	fcc5f0e3          	bgeu	a1,a2,0x1440c
   14450:	10068163          	beqz	a3,0x14552
   14454:	06d10c23          	sb	a3,120(sp)
   14458:	04010ba3          	sb	zero,87(sp)
   1445c:	4a85                	li	s5,1
   1445e:	4a05                	li	s4,1
   14460:	07810c13          	addi	s8,sp,120
   14464:	4c81                	li	s9,0
   14466:	002d7793          	andi	a5,s10,2
   1446a:	0007839b          	sext.w	t2,a5
   1446e:	c391                	beqz	a5,0x14472
   14470:	2a89                	addiw	s5,s5,2
   14472:	5626                	lw	a2,104(sp)
   14474:	084d7f93          	andi	t6,s10,132
   14478:	77c6                	ld	a5,112(sp)
   1447a:	0016051b          	addiw	a0,a2,1
   1447e:	85aa                	mv	a1,a0
   14480:	000f9663          	bnez	t6,0x1448c
   14484:	41548bbb          	subw	s7,s1,s5
   14488:	67704163          	bgtz	s7,0x14aea
   1448c:	05714583          	lbu	a1,87(sp)
   14490:	01070693          	addi	a3,a4,16
   14494:	c185                	beqz	a1,0x144b4
   14496:	05710613          	addi	a2,sp,87
   1449a:	e310                	sd	a2,0(a4)
   1449c:	0785                	addi	a5,a5,1
   1449e:	4605                	li	a2,1
   144a0:	e710                	sd	a2,8(a4)
   144a2:	f8be                	sd	a5,112(sp)
   144a4:	d4aa                	sw	a0,104(sp)
   144a6:	471d                	li	a4,7
   144a8:	5ea74063          	blt	a4,a0,0x14a88
   144ac:	862a                	mv	a2,a0
   144ae:	8736                	mv	a4,a3
   144b0:	2505                	addiw	a0,a0,1
   144b2:	06c1                	addi	a3,a3,16
   144b4:	02038c63          	beqz	t2,0x144ec
   144b8:	08b0                	addi	a2,sp,88
   144ba:	e310                	sd	a2,0(a4)
   144bc:	0789                	addi	a5,a5,2
   144be:	4609                	li	a2,2
   144c0:	e710                	sd	a2,8(a4)
   144c2:	f8be                	sd	a5,112(sp)
   144c4:	d4aa                	sw	a0,104(sp)
   144c6:	471d                	li	a4,7
   144c8:	5ea75a63          	bge	a4,a0,0x14abc
   144cc:	78078d63          	beqz	a5,0x14c66
   144d0:	1090                	addi	a2,sp,96
   144d2:	85ca                	mv	a1,s2
   144d4:	854e                	mv	a0,s3
   144d6:	ec7e                	sd	t6,24(sp)
   144d8:	d6bff0ef          	jal	ra,0x14242
   144dc:	ed35                	bnez	a0,0x14558
   144de:	5626                	lw	a2,104(sp)
   144e0:	77c6                	ld	a5,112(sp)
   144e2:	6fe2                	ld	t6,24(sp)
   144e4:	1994                	addi	a3,sp,240
   144e6:	0016051b          	addiw	a0,a2,1
   144ea:	8722                	mv	a4,s0
   144ec:	08000593          	li	a1,128
   144f0:	44bf8963          	beq	t6,a1,0x14942
   144f4:	414c8cbb          	subw	s9,s9,s4
   144f8:	4f904963          	bgtz	s9,0x149ea
   144fc:	97d2                	add	a5,a5,s4
   144fe:	01873023          	sd	s8,0(a4)
   14502:	01473423          	sd	s4,8(a4)
   14506:	f8be                	sd	a5,112(sp)
   14508:	d4aa                	sw	a0,104(sp)
   1450a:	471d                	li	a4,7
   1450c:	00a75c63          	bge	a4,a0,0x14524
   14510:	66078663          	beqz	a5,0x14b7c
   14514:	1090                	addi	a2,sp,96
   14516:	85ca                	mv	a1,s2
   14518:	854e                	mv	a0,s3
   1451a:	d29ff0ef          	jal	ra,0x14242
   1451e:	ed0d                	bnez	a0,0x14558
   14520:	77c6                	ld	a5,112(sp)
   14522:	86a2                	mv	a3,s0
   14524:	004d7e13          	andi	t3,s10,4
   14528:	000e0663          	beqz	t3,0x14534
   1452c:	41548a3b          	subw	s4,s1,s5
   14530:	67404063          	bgtz	s4,0x14b90
   14534:	8726                	mv	a4,s1
   14536:	0154d363          	bge	s1,s5,0x1453c
   1453a:	8756                	mv	a4,s5
   1453c:	66a2                	ld	a3,8(sp)
   1453e:	9f35                	addw	a4,a4,a3
   14540:	e43a                	sd	a4,8(sp)
   14542:	52079763          	bnez	a5,0x14a70
   14546:	000dc783          	lbu	a5,0(s11)
   1454a:	d482                	sw	zero,104(sp)
   1454c:	8722                	mv	a4,s0
   1454e:	e2079de3          	bnez	a5,0x14388
   14552:	77c6                	ld	a5,112(sp)
   14554:	160792e3          	bnez	a5,0x14eb8
   14558:	01095783          	lhu	a5,16(s2)
   1455c:	0407f793          	andi	a5,a5,64
   14560:	180795e3          	bnez	a5,0x14eea
   14564:	60be                	ld	ra,456(sp)
   14566:	641e                	ld	s0,448(sp)
   14568:	6522                	ld	a0,8(sp)
   1456a:	74fa                	ld	s1,440(sp)
   1456c:	795a                	ld	s2,432(sp)
   1456e:	79ba                	ld	s3,424(sp)
   14570:	7a1a                	ld	s4,416(sp)
   14572:	6afa                	ld	s5,408(sp)
   14574:	6b5a                	ld	s6,400(sp)
   14576:	6bba                	ld	s7,392(sp)
   14578:	6c1a                	ld	s8,384(sp)
   1457a:	7cf6                	ld	s9,376(sp)
   1457c:	7d56                	ld	s10,368(sp)
   1457e:	7db6                	ld	s11,360(sp)
   14580:	6179                	addi	sp,sp,464
   14582:	8082                	ret
   14584:	010d6e13          	ori	t3,s10,16
   14588:	000dc683          	lbu	a3,0(s11)
   1458c:	000e0d1b          	sext.w	s10,t3
   14590:	b5a5                	j	0x143f8
   14592:	010d6e13          	ori	t3,s10,16
   14596:	000e0d1b          	sext.w	s10,t3
   1459a:	020d7793          	andi	a5,s10,32
   1459e:	008b0693          	addi	a3,s6,8
   145a2:	0e078e63          	beqz	a5,0x1469e
   145a6:	000b3783          	ld	a5,0(s6)
   145aa:	8a3e                	mv	s4,a5
   145ac:	1007c663          	bltz	a5,0x146b8
   145b0:	57fd                	li	a5,-1
   145b2:	8aea                	mv	s5,s10
   145b4:	8b36                	mv	s6,a3
   145b6:	50fc8e63          	beq	s9,a5,0x14ad2
   145ba:	f7fd7e13          	andi	t3,s10,-129
   145be:	000e0a9b          	sext.w	s5,t3
   145c2:	760a1563          	bnez	s4,0x14d2c
   145c6:	500c9963          	bnez	s9,0x14ad8
   145ca:	8d56                	mv	s10,s5
   145cc:	4c81                	li	s9,0
   145ce:	4a01                	li	s4,0
   145d0:	0dc10c13          	addi	s8,sp,220
   145d4:	87e6                	mv	a5,s9
   145d6:	014cd363          	bge	s9,s4,0x145dc
   145da:	87d2                	mv	a5,s4
   145dc:	05714683          	lbu	a3,87(sp)
   145e0:	00078a9b          	sext.w	s5,a5
   145e4:	e80681e3          	beqz	a3,0x14466
   145e8:	00178a9b          	addiw	s5,a5,1
   145ec:	bdad                	j	0x14466
   145ee:	85ca                	mv	a1,s2
   145f0:	854e                	mv	a0,s3
   145f2:	75e020ef          	jal	ra,0x16d50
   145f6:	0e051ae3          	bnez	a0,0x14eea
   145fa:	01095783          	lhu	a5,16(s2)
   145fe:	4729                	li	a4,10
   14600:	8be9                	andi	a5,a5,26
   14602:	d6e791e3          	bne	a5,a4,0x14364
   14606:	01291783          	lh	a5,18(s2)
   1460a:	d407cde3          	bltz	a5,0x14364
   1460e:	86da                	mv	a3,s6
   14610:	866e                	mv	a2,s11
   14612:	85ca                	mv	a1,s2
   14614:	854e                	mv	a0,s3
   14616:	11b000ef          	jal	ra,0x14f30
   1461a:	e42a                	sd	a0,8(sp)
   1461c:	b7a1                	j	0x14564
   1461e:	010d6e13          	ori	t3,s10,16
   14622:	000e0d1b          	sext.w	s10,t3
   14626:	020d7793          	andi	a5,s10,32
   1462a:	008b0693          	addi	a3,s6,8
   1462e:	cbb9                	beqz	a5,0x14684
   14630:	000b3a03          	ld	s4,0(s6)
   14634:	bffd7e13          	andi	t3,s10,-1025
   14638:	000e0a9b          	sext.w	s5,t3
   1463c:	8b36                	mv	s6,a3
   1463e:	4781                	li	a5,0
   14640:	04010ba3          	sb	zero,87(sp)
   14644:	56fd                	li	a3,-1
   14646:	08dc8563          	beq	s9,a3,0x146d0
   1464a:	f7fafe13          	andi	t3,s5,-129
   1464e:	000e0d1b          	sext.w	s10,t3
   14652:	460a1c63          	bnez	s4,0x14aca
   14656:	2a0c9b63          	bnez	s9,0x1490c
   1465a:	fbad                	bnez	a5,0x145cc
   1465c:	001afa13          	andi	s4,s5,1
   14660:	0dc10c13          	addi	s8,sp,220
   14664:	f60a08e3          	beqz	s4,0x145d4
   14668:	03000793          	li	a5,48
   1466c:	0cf10da3          	sb	a5,219(sp)
   14670:	0db10c13          	addi	s8,sp,219
   14674:	b785                	j	0x145d4
   14676:	41ba04bb          	subw	s1,s4,s11
   1467a:	d20494e3          	bnez	s1,0x143a2
   1467e:	000a4783          	lbu	a5,0(s4)
   14682:	bba9                	j	0x143dc
   14684:	010d7793          	andi	a5,s10,16
   14688:	f7c5                	bnez	a5,0x14630
   1468a:	040d7793          	andi	a5,s10,64
   1468e:	000b2a03          	lw	s4,0(s6)
   14692:	78078c63          	beqz	a5,0x14e2a
   14696:	1a42                	slli	s4,s4,0x30
   14698:	030a5a13          	srli	s4,s4,0x30
   1469c:	bf61                	j	0x14634
   1469e:	010d7793          	andi	a5,s10,16
   146a2:	f00792e3          	bnez	a5,0x145a6
   146a6:	040d7793          	andi	a5,s10,64
   146aa:	76078863          	beqz	a5,0x14e1a
   146ae:	000b1a03          	lh	s4,0(s6)
   146b2:	87d2                	mv	a5,s4
   146b4:	ee07dee3          	bgez	a5,0x145b0
   146b8:	02d00793          	li	a5,45
   146bc:	04f10ba3          	sb	a5,87(sp)
   146c0:	8b36                	mv	s6,a3
   146c2:	56fd                	li	a3,-1
   146c4:	41400a33          	neg	s4,s4
   146c8:	8aea                	mv	s5,s10
   146ca:	4785                	li	a5,1
   146cc:	f6dc9fe3          	bne	s9,a3,0x1464a
   146d0:	4685                	li	a3,1
   146d2:	40d78063          	beq	a5,a3,0x14ad2
   146d6:	4689                	li	a3,2
   146d8:	24d78163          	beq	a5,a3,0x1491a
   146dc:	0dc10c13          	addi	s8,sp,220
   146e0:	007a7793          	andi	a5,s4,7
   146e4:	03078793          	addi	a5,a5,48 # 0xffffffffffff8030
   146e8:	fefc0fa3          	sb	a5,-1(s8)
   146ec:	003a5a13          	srli	s4,s4,0x3
   146f0:	86e2                	mv	a3,s8
   146f2:	1c7d                	addi	s8,s8,-1
   146f4:	fe0a16e3          	bnez	s4,0x146e0
   146f8:	001af613          	andi	a2,s5,1
   146fc:	22060e63          	beqz	a2,0x14938
   14700:	03000613          	li	a2,48
   14704:	22c78a63          	beq	a5,a2,0x14938
   14708:	16f9                	addi	a3,a3,-2
   1470a:	09fc                	addi	a5,sp,220
   1470c:	fecc0fa3          	sb	a2,-1(s8)
   14710:	40d78a3b          	subw	s4,a5,a3
   14714:	8d56                	mv	s10,s5
   14716:	8c36                	mv	s8,a3
   14718:	bd75                	j	0x145d4
   1471a:	461020ef          	jal	ra,0x1737a
   1471e:	b109                	j	0x14320
   14720:	000b3c03          	ld	s8,0(s6)
   14724:	04010ba3          	sb	zero,87(sp)
   14728:	0b21                	addi	s6,s6,8
   1472a:	6c0c0c63          	beqz	s8,0x14e02
   1472e:	57fd                	li	a5,-1
   14730:	ec3a                	sd	a4,24(sp)
   14732:	66fc8963          	beq	s9,a5,0x14da4
   14736:	8666                	mv	a2,s9
   14738:	4581                	li	a1,0
   1473a:	8562                	mv	a0,s8
   1473c:	0a6060ef          	jal	ra,0x1a7e2
   14740:	6762                	ld	a4,24(sp)
   14742:	78050263          	beqz	a0,0x14ec6
   14746:	41850a3b          	subw	s4,a0,s8
   1474a:	4c81                	li	s9,0
   1474c:	b561                	j	0x145d4
   1474e:	000b2783          	lw	a5,0(s6)
   14752:	04010ba3          	sb	zero,87(sp)
   14756:	0b21                	addi	s6,s6,8
   14758:	06f10c23          	sb	a5,120(sp)
   1475c:	4a85                	li	s5,1
   1475e:	4a05                	li	s4,1
   14760:	07810c13          	addi	s8,sp,120
   14764:	b301                	j	0x14464
   14766:	020d6e13          	ori	t3,s10,32
   1476a:	000dc683          	lbu	a3,0(s11)
   1476e:	000e0d1b          	sext.w	s10,t3
   14772:	b159                	j	0x143f8
   14774:	67a6                	ld	a5,72(sp)
   14776:	002d6e13          	ori	t3,s10,2
   1477a:	000b3a03          	ld	s4,0(s6)
   1477e:	04f11c23          	sh	a5,88(sp)
   14782:	0000c797          	auipc	a5,0xc
   14786:	55e78793          	addi	a5,a5,1374 # 0x20ce0
   1478a:	e83e                	sd	a5,16(sp)
   1478c:	000e0a9b          	sext.w	s5,t3
   14790:	0b21                	addi	s6,s6,8
   14792:	4789                	li	a5,2
   14794:	b575                	j	0x14640
   14796:	020d7793          	andi	a5,s10,32
   1479a:	000b3683          	ld	a3,0(s6)
   1479e:	0b21                	addi	s6,s6,8
   147a0:	e385                	bnez	a5,0x147c0
   147a2:	010d7793          	andi	a5,s10,16
   147a6:	ef89                	bnez	a5,0x147c0
   147a8:	040d7793          	andi	a5,s10,64
   147ac:	6c079c63          	bnez	a5,0x14e84
   147b0:	200d7e13          	andi	t3,s10,512
   147b4:	67a2                	ld	a5,8(sp)
   147b6:	740e0563          	beqz	t3,0x14f00
   147ba:	00f68023          	sb	a5,0(a3) # 0x3700000
   147be:	b6c9                	j	0x14380
   147c0:	67a2                	ld	a5,8(sp)
   147c2:	e29c                	sd	a5,0(a3)
   147c4:	be75                	j	0x14380
   147c6:	000dc683          	lbu	a3,0(s11)
   147ca:	06c00793          	li	a5,108
   147ce:	62f68163          	beq	a3,a5,0x14df0
   147d2:	010d6e13          	ori	t3,s10,16
   147d6:	000e0d1b          	sext.w	s10,t3
   147da:	b939                	j	0x143f8
   147dc:	000dc683          	lbu	a3,0(s11)
   147e0:	06800793          	li	a5,104
   147e4:	5ef68d63          	beq	a3,a5,0x14dde
   147e8:	040d6e13          	ori	t3,s10,64
   147ec:	000e0d1b          	sext.w	s10,t3
   147f0:	b121                	j	0x143f8
   147f2:	010d6e13          	ori	t3,s10,16
   147f6:	000e0a9b          	sext.w	s5,t3
   147fa:	020af793          	andi	a5,s5,32
   147fe:	008b0693          	addi	a3,s6,8
   14802:	e385                	bnez	a5,0x14822
   14804:	010af793          	andi	a5,s5,16
   14808:	ef89                	bnez	a5,0x14822
   1480a:	040af793          	andi	a5,s5,64
   1480e:	000b2a03          	lw	s4,0(s6)
   14812:	62078963          	beqz	a5,0x14e44
   14816:	1a42                	slli	s4,s4,0x30
   14818:	030a5a13          	srli	s4,s4,0x30
   1481c:	8b36                	mv	s6,a3
   1481e:	4785                	li	a5,1
   14820:	b505                	j	0x14640
   14822:	000b3a03          	ld	s4,0(s6)
   14826:	4785                	li	a5,1
   14828:	8b36                	mv	s6,a3
   1482a:	bd19                	j	0x14640
   1482c:	080d6e13          	ori	t3,s10,128
   14830:	000dc683          	lbu	a3,0(s11)
   14834:	000e0d1b          	sext.w	s10,t3
   14838:	b6c1                	j	0x143f8
   1483a:	000dc603          	lbu	a2,0(s11)
   1483e:	001d8793          	addi	a5,s11,1
   14842:	0006069b          	sext.w	a3,a2
   14846:	6cca8063          	beq	s5,a2,0x14f06
   1484a:	fd06061b          	addiw	a2,a2,-48
   1484e:	8dbe                	mv	s11,a5
   14850:	4c81                	li	s9,0
   14852:	baca67e3          	bltu	s4,a2,0x14400
   14856:	000dc683          	lbu	a3,0(s11)
   1485a:	002c979b          	slliw	a5,s9,0x2
   1485e:	0197883b          	addw	a6,a5,s9
   14862:	0018181b          	slliw	a6,a6,0x1
   14866:	00c80cbb          	addw	s9,a6,a2
   1486a:	fd06861b          	addiw	a2,a3,-48
   1486e:	0d85                	addi	s11,s11,1
   14870:	feca73e3          	bgeu	s4,a2,0x14856
   14874:	b671                	j	0x14400
   14876:	000dc683          	lbu	a3,0(s11)
   1487a:	004d6e13          	ori	t3,s10,4
   1487e:	000e0d1b          	sext.w	s10,t3
   14882:	be9d                	j	0x143f8
   14884:	02b00793          	li	a5,43
   14888:	000dc683          	lbu	a3,0(s11)
   1488c:	04f10ba3          	sb	a5,87(sp)
   14890:	b6a5                	j	0x143f8
   14892:	000b2483          	lw	s1,0(s6)
   14896:	000dc683          	lbu	a3,0(s11)
   1489a:	0b21                	addi	s6,s6,8
   1489c:	b404dee3          	bgez	s1,0x143f8
   148a0:	409004bb          	negw	s1,s1
   148a4:	bfd9                	j	0x1487a
   148a6:	854e                	mv	a0,s3
   148a8:	ec3a                	sd	a4,24(sp)
   148aa:	541050ef          	jal	ra,0x1a5ea
   148ae:	651c                	ld	a5,8(a0)
   148b0:	853e                	mv	a0,a5
   148b2:	fc3e                	sd	a5,56(sp)
   148b4:	f16fe0ef          	jal	ra,0x12fca
   148b8:	87aa                	mv	a5,a0
   148ba:	854e                	mv	a0,s3
   148bc:	8bbe                	mv	s7,a5
   148be:	e0be                	sd	a5,64(sp)
   148c0:	52b050ef          	jal	ra,0x1a5ea
   148c4:	691c                	ld	a5,16(a0)
   148c6:	6762                	ld	a4,24(sp)
   148c8:	000dc683          	lbu	a3,0(s11)
   148cc:	f83e                	sd	a5,48(sp)
   148ce:	b20b85e3          	beqz	s7,0x143f8
   148d2:	b20783e3          	beqz	a5,0x143f8
   148d6:	0007c783          	lbu	a5,0(a5)
   148da:	b0078fe3          	beqz	a5,0x143f8
   148de:	400d6e13          	ori	t3,s10,1024
   148e2:	000e0d1b          	sext.w	s10,t3
   148e6:	be09                	j	0x143f8
   148e8:	001d6e13          	ori	t3,s10,1
   148ec:	000dc683          	lbu	a3,0(s11)
   148f0:	000e0d1b          	sext.w	s10,t3
   148f4:	b611                	j	0x143f8
   148f6:	05714783          	lbu	a5,87(sp)
   148fa:	000dc683          	lbu	a3,0(s11)
   148fe:	ae079de3          	bnez	a5,0x143f8
   14902:	02000793          	li	a5,32
   14906:	04f10ba3          	sb	a5,87(sp)
   1490a:	b4fd                	j	0x143f8
   1490c:	4685                	li	a3,1
   1490e:	5cd78c63          	beq	a5,a3,0x14ee6
   14912:	4689                	li	a3,2
   14914:	8aea                	mv	s5,s10
   14916:	dcd793e3          	bne	a5,a3,0x146dc
   1491a:	0dc10c13          	addi	s8,sp,220
   1491e:	66c2                	ld	a3,16(sp)
   14920:	00fa7793          	andi	a5,s4,15
   14924:	1c7d                	addi	s8,s8,-1
   14926:	97b6                	add	a5,a5,a3
   14928:	0007c783          	lbu	a5,0(a5)
   1492c:	004a5a13          	srli	s4,s4,0x4
   14930:	00fc0023          	sb	a5,0(s8)
   14934:	fe0a15e3          	bnez	s4,0x1491e
   14938:	09fc                	addi	a5,sp,220
   1493a:	41878a3b          	subw	s4,a5,s8
   1493e:	8d56                	mv	s10,s5
   14940:	b951                	j	0x145d4
   14942:	41548ebb          	subw	t4,s1,s5
   14946:	bbd057e3          	blez	t4,0x144f4
   1494a:	45c1                	li	a1,16
   1494c:	5bd5d363          	bge	a1,t4,0x14ef2
   14950:	0000cb97          	auipc	s7,0xc
   14954:	530b8b93          	addi	s7,s7,1328 # 0x20e80
   14958:	4fc1                	li	t6,16
   1495a:	429d                	li	t0,7
   1495c:	a801                	j	0x1496c
   1495e:	0026039b          	addiw	t2,a2,2
   14962:	0741                	addi	a4,a4,16
   14964:	862e                	mv	a2,a1
   14966:	3ec1                	addiw	t4,t4,-16
   14968:	05dfd263          	bge	t6,t4,0x149ac
   1496c:	0016059b          	addiw	a1,a2,1
   14970:	07c1                	addi	a5,a5,16
   14972:	01773023          	sd	s7,0(a4)
   14976:	01f73423          	sd	t6,8(a4)
   1497a:	f8be                	sd	a5,112(sp)
   1497c:	d4ae                	sw	a1,104(sp)
   1497e:	feb2d0e3          	bge	t0,a1,0x1495e
   14982:	0e078f63          	beqz	a5,0x14a80
   14986:	1090                	addi	a2,sp,96
   14988:	85ca                	mv	a1,s2
   1498a:	854e                	mv	a0,s3
   1498c:	ec76                	sd	t4,24(sp)
   1498e:	8b5ff0ef          	jal	ra,0x14242
   14992:	bc0513e3          	bnez	a0,0x14558
   14996:	6ee2                	ld	t4,24(sp)
   14998:	5626                	lw	a2,104(sp)
   1499a:	4fc1                	li	t6,16
   1499c:	3ec1                	addiw	t4,t4,-16
   1499e:	77c6                	ld	a5,112(sp)
   149a0:	8722                	mv	a4,s0
   149a2:	0016039b          	addiw	t2,a2,1
   149a6:	429d                	li	t0,7
   149a8:	fddfc2e3          	blt	t6,t4,0x1496c
   149ac:	01070593          	addi	a1,a4,16
   149b0:	97f6                	add	a5,a5,t4
   149b2:	01773023          	sd	s7,0(a4)
   149b6:	01d73423          	sd	t4,8(a4)
   149ba:	f8be                	sd	a5,112(sp)
   149bc:	d49e                	sw	t2,104(sp)
   149be:	471d                	li	a4,7
   149c0:	34775863          	bge	a4,t2,0x14d10
   149c4:	48078f63          	beqz	a5,0x14e62
   149c8:	1090                	addi	a2,sp,96
   149ca:	85ca                	mv	a1,s2
   149cc:	854e                	mv	a0,s3
   149ce:	875ff0ef          	jal	ra,0x14242
   149d2:	b80513e3          	bnez	a0,0x14558
   149d6:	5626                	lw	a2,104(sp)
   149d8:	414c8cbb          	subw	s9,s9,s4
   149dc:	77c6                	ld	a5,112(sp)
   149de:	1994                	addi	a3,sp,240
   149e0:	0016051b          	addiw	a0,a2,1
   149e4:	8722                	mv	a4,s0
   149e6:	b1905be3          	blez	s9,0x144fc
   149ea:	45c1                	li	a1,16
   149ec:	4795d563          	bge	a1,s9,0x14e56
   149f0:	0000cb97          	auipc	s7,0xc
   149f4:	490b8b93          	addi	s7,s7,1168 # 0x20e80
   149f8:	4ec1                	li	t4,16
   149fa:	4f9d                	li	t6,7
   149fc:	a801                	j	0x14a0c
   149fe:	0026051b          	addiw	a0,a2,2
   14a02:	0741                	addi	a4,a4,16
   14a04:	862e                	mv	a2,a1
   14a06:	3cc1                	addiw	s9,s9,-16
   14a08:	039edf63          	bge	t4,s9,0x14a46
   14a0c:	0016059b          	addiw	a1,a2,1
   14a10:	07c1                	addi	a5,a5,16
   14a12:	01773023          	sd	s7,0(a4)
   14a16:	01d73423          	sd	t4,8(a4)
   14a1a:	f8be                	sd	a5,112(sp)
   14a1c:	d4ae                	sw	a1,104(sp)
   14a1e:	febfd0e3          	bge	t6,a1,0x149fe
   14a22:	c3b9                	beqz	a5,0x14a68
   14a24:	1090                	addi	a2,sp,96
   14a26:	85ca                	mv	a1,s2
   14a28:	854e                	mv	a0,s3
   14a2a:	819ff0ef          	jal	ra,0x14242
   14a2e:	b20515e3          	bnez	a0,0x14558
   14a32:	5626                	lw	a2,104(sp)
   14a34:	4ec1                	li	t4,16
   14a36:	3cc1                	addiw	s9,s9,-16
   14a38:	77c6                	ld	a5,112(sp)
   14a3a:	8722                	mv	a4,s0
   14a3c:	0016051b          	addiw	a0,a2,1
   14a40:	4f9d                	li	t6,7
   14a42:	fd9ec5e3          	blt	t4,s9,0x14a0c
   14a46:	01070613          	addi	a2,a4,16
   14a4a:	97e6                	add	a5,a5,s9
   14a4c:	01773023          	sd	s7,0(a4)
   14a50:	01973423          	sd	s9,8(a4)
   14a54:	f8be                	sd	a5,112(sp)
   14a56:	d4aa                	sw	a0,104(sp)
   14a58:	471d                	li	a4,7
   14a5a:	1ca74a63          	blt	a4,a0,0x14c2e
   14a5e:	2505                	addiw	a0,a0,1
   14a60:	01060693          	addi	a3,a2,16
   14a64:	8732                	mv	a4,a2
   14a66:	bc59                	j	0x144fc
   14a68:	4505                	li	a0,1
   14a6a:	4601                	li	a2,0
   14a6c:	8722                	mv	a4,s0
   14a6e:	bf61                	j	0x14a06
   14a70:	1090                	addi	a2,sp,96
   14a72:	85ca                	mv	a1,s2
   14a74:	854e                	mv	a0,s3
   14a76:	fccff0ef          	jal	ra,0x14242
   14a7a:	ac0506e3          	beqz	a0,0x14546
   14a7e:	bce9                	j	0x14558
   14a80:	4385                	li	t2,1
   14a82:	4601                	li	a2,0
   14a84:	8722                	mv	a4,s0
   14a86:	b5c5                	j	0x14966
   14a88:	1c078663          	beqz	a5,0x14c54
   14a8c:	1090                	addi	a2,sp,96
   14a8e:	85ca                	mv	a1,s2
   14a90:	854e                	mv	a0,s3
   14a92:	f07e                	sd	t6,32(sp)
   14a94:	ec1e                	sd	t2,24(sp)
   14a96:	facff0ef          	jal	ra,0x14242
   14a9a:	aa051fe3          	bnez	a0,0x14558
   14a9e:	5626                	lw	a2,104(sp)
   14aa0:	77c6                	ld	a5,112(sp)
   14aa2:	7f82                	ld	t6,32(sp)
   14aa4:	63e2                	ld	t2,24(sp)
   14aa6:	1994                	addi	a3,sp,240
   14aa8:	0016051b          	addiw	a0,a2,1
   14aac:	8722                	mv	a4,s0
   14aae:	b419                	j	0x144b4
   14ab0:	08bc                	addi	a5,sp,88
   14ab2:	f1be                	sd	a5,224(sp)
   14ab4:	4789                	li	a5,2
   14ab6:	f5be                	sd	a5,232(sp)
   14ab8:	4505                	li	a0,1
   14aba:	1994                	addi	a3,sp,240
   14abc:	862a                	mv	a2,a0
   14abe:	8736                	mv	a4,a3
   14ac0:	0016051b          	addiw	a0,a2,1
   14ac4:	01070693          	addi	a3,a4,16
   14ac8:	b415                	j	0x144ec
   14aca:	4685                	li	a3,1
   14acc:	8aea                	mv	s5,s10
   14ace:	c0d794e3          	bne	a5,a3,0x146d6
   14ad2:	47a5                	li	a5,9
   14ad4:	1d47e263          	bltu	a5,s4,0x14c98
   14ad8:	030a0a1b          	addiw	s4,s4,48
   14adc:	0d410da3          	sb	s4,219(sp)
   14ae0:	8d56                	mv	s10,s5
   14ae2:	4a05                	li	s4,1
   14ae4:	0db10c13          	addi	s8,sp,219
   14ae8:	b4f5                	j	0x145d4
   14aea:	4ec1                	li	t4,16
   14aec:	3f7ed163          	bge	t4,s7,0x14ece
   14af0:	0000ce97          	auipc	t4,0xc
   14af4:	380e8e93          	addi	t4,t4,896 # 0x20e70
   14af8:	4f41                	li	t5,16
   14afa:	429d                	li	t0,7
   14afc:	a811                	j	0x14b10
   14afe:	0026059b          	addiw	a1,a2,2
   14b02:	0741                	addi	a4,a4,16
   14b04:	862a                	mv	a2,a0
   14b06:	3bc1                	addiw	s7,s7,-16
   14b08:	057f5763          	bge	t5,s7,0x14b56
   14b0c:	0016059b          	addiw	a1,a2,1
   14b10:	07c1                	addi	a5,a5,16
   14b12:	01d73023          	sd	t4,0(a4)
   14b16:	01e73423          	sd	t5,8(a4)
   14b1a:	f8be                	sd	a5,112(sp)
   14b1c:	0005851b          	sext.w	a0,a1
   14b20:	d4ae                	sw	a1,104(sp)
   14b22:	fca2dee3          	bge	t0,a0,0x14afe
   14b26:	c7b9                	beqz	a5,0x14b74
   14b28:	1090                	addi	a2,sp,96
   14b2a:	85ca                	mv	a1,s2
   14b2c:	854e                	mv	a0,s3
   14b2e:	f476                	sd	t4,40(sp)
   14b30:	f07e                	sd	t6,32(sp)
   14b32:	ec1e                	sd	t2,24(sp)
   14b34:	f0eff0ef          	jal	ra,0x14242
   14b38:	a20510e3          	bnez	a0,0x14558
   14b3c:	5626                	lw	a2,104(sp)
   14b3e:	4f41                	li	t5,16
   14b40:	3bc1                	addiw	s7,s7,-16
   14b42:	77c6                	ld	a5,112(sp)
   14b44:	7ea2                	ld	t4,40(sp)
   14b46:	7f82                	ld	t6,32(sp)
   14b48:	63e2                	ld	t2,24(sp)
   14b4a:	8722                	mv	a4,s0
   14b4c:	0016059b          	addiw	a1,a2,1
   14b50:	429d                	li	t0,7
   14b52:	fb7f4de3          	blt	t5,s7,0x14b0c
   14b56:	97de                	add	a5,a5,s7
   14b58:	01d73023          	sd	t4,0(a4)
   14b5c:	01773423          	sd	s7,8(a4)
   14b60:	f8be                	sd	a5,112(sp)
   14b62:	d4ae                	sw	a1,104(sp)
   14b64:	469d                	li	a3,7
   14b66:	10b6c563          	blt	a3,a1,0x14c70
   14b6a:	0741                	addi	a4,a4,16
   14b6c:	0015851b          	addiw	a0,a1,1
   14b70:	862e                	mv	a2,a1
   14b72:	ba29                	j	0x1448c
   14b74:	4601                	li	a2,0
   14b76:	4585                	li	a1,1
   14b78:	8722                	mv	a4,s0
   14b7a:	b771                	j	0x14b06
   14b7c:	d482                	sw	zero,104(sp)
   14b7e:	004d7e13          	andi	t3,s10,4
   14b82:	080e0e63          	beqz	t3,0x14c1e
   14b86:	41548a3b          	subw	s4,s1,s5
   14b8a:	09405a63          	blez	s4,0x14c1e
   14b8e:	86a2                	mv	a3,s0
   14b90:	4741                	li	a4,16
   14b92:	5626                	lw	a2,104(sp)
   14b94:	35475263          	bge	a4,s4,0x14ed8
   14b98:	0000ce97          	auipc	t4,0xc
   14b9c:	2d8e8e93          	addi	t4,t4,728 # 0x20e70
   14ba0:	4cc1                	li	s9,16
   14ba2:	4c1d                	li	s8,7
   14ba4:	a801                	j	0x14bb4
   14ba6:	0026071b          	addiw	a4,a2,2
   14baa:	06c1                	addi	a3,a3,16
   14bac:	862e                	mv	a2,a1
   14bae:	3a41                	addiw	s4,s4,-16
   14bb0:	034cdf63          	bge	s9,s4,0x14bee
   14bb4:	0016059b          	addiw	a1,a2,1
   14bb8:	07c1                	addi	a5,a5,16
   14bba:	01d6b023          	sd	t4,0(a3)
   14bbe:	0196b423          	sd	s9,8(a3)
   14bc2:	f8be                	sd	a5,112(sp)
   14bc4:	d4ae                	sw	a1,104(sp)
   14bc6:	febc50e3          	bge	s8,a1,0x14ba6
   14bca:	c7b1                	beqz	a5,0x14c16
   14bcc:	1090                	addi	a2,sp,96
   14bce:	85ca                	mv	a1,s2
   14bd0:	854e                	mv	a0,s3
   14bd2:	ec76                	sd	t4,24(sp)
   14bd4:	e6eff0ef          	jal	ra,0x14242
   14bd8:	980510e3          	bnez	a0,0x14558
   14bdc:	5626                	lw	a2,104(sp)
   14bde:	3a41                	addiw	s4,s4,-16
   14be0:	77c6                	ld	a5,112(sp)
   14be2:	6ee2                	ld	t4,24(sp)
   14be4:	86a2                	mv	a3,s0
   14be6:	0016071b          	addiw	a4,a2,1
   14bea:	fd4cc5e3          	blt	s9,s4,0x14bb4
   14bee:	97d2                	add	a5,a5,s4
   14bf0:	01d6b023          	sd	t4,0(a3)
   14bf4:	0146b423          	sd	s4,8(a3)
   14bf8:	f8be                	sd	a5,112(sp)
   14bfa:	d4ba                	sw	a4,104(sp)
   14bfc:	469d                	li	a3,7
   14bfe:	92e6dbe3          	bge	a3,a4,0x14534
   14c02:	cf91                	beqz	a5,0x14c1e
   14c04:	1090                	addi	a2,sp,96
   14c06:	85ca                	mv	a1,s2
   14c08:	854e                	mv	a0,s3
   14c0a:	e38ff0ef          	jal	ra,0x14242
   14c0e:	940515e3          	bnez	a0,0x14558
   14c12:	77c6                	ld	a5,112(sp)
   14c14:	b205                	j	0x14534
   14c16:	4705                	li	a4,1
   14c18:	4601                	li	a2,0
   14c1a:	86a2                	mv	a3,s0
   14c1c:	bf49                	j	0x14bae
   14c1e:	87a6                	mv	a5,s1
   14c20:	0154d363          	bge	s1,s5,0x14c26
   14c24:	87d6                	mv	a5,s5
   14c26:	6722                	ld	a4,8(sp)
   14c28:	9fb9                	addw	a5,a5,a4
   14c2a:	e43e                	sd	a5,8(sp)
   14c2c:	ba29                	j	0x14546
   14c2e:	18078f63          	beqz	a5,0x14dcc
   14c32:	1090                	addi	a2,sp,96
   14c34:	85ca                	mv	a1,s2
   14c36:	854e                	mv	a0,s3
   14c38:	e0aff0ef          	jal	ra,0x14242
   14c3c:	90051ee3          	bnez	a0,0x14558
   14c40:	5526                	lw	a0,104(sp)
   14c42:	77c6                	ld	a5,112(sp)
   14c44:	1994                	addi	a3,sp,240
   14c46:	2505                	addiw	a0,a0,1
   14c48:	8722                	mv	a4,s0
   14c4a:	b84d                	j	0x144fc
   14c4c:	d482                	sw	zero,104(sp)
   14c4e:	8722                	mv	a4,s0
   14c50:	f82ff06f          	j	0x143d2
   14c54:	0c038663          	beqz	t2,0x14d20
   14c58:	08bc                	addi	a5,sp,88
   14c5a:	f1be                	sd	a5,224(sp)
   14c5c:	4789                	li	a5,2
   14c5e:	f5be                	sd	a5,232(sp)
   14c60:	4605                	li	a2,1
   14c62:	1998                	addi	a4,sp,240
   14c64:	bdb1                	j	0x14ac0
   14c66:	1994                	addi	a3,sp,240
   14c68:	4505                	li	a0,1
   14c6a:	4601                	li	a2,0
   14c6c:	8722                	mv	a4,s0
   14c6e:	b8bd                	j	0x144ec
   14c70:	14078363          	beqz	a5,0x14db6
   14c74:	1090                	addi	a2,sp,96
   14c76:	85ca                	mv	a1,s2
   14c78:	854e                	mv	a0,s3
   14c7a:	f07e                	sd	t6,32(sp)
   14c7c:	ec1e                	sd	t2,24(sp)
   14c7e:	dc4ff0ef          	jal	ra,0x14242
   14c82:	8c051be3          	bnez	a0,0x14558
   14c86:	5626                	lw	a2,104(sp)
   14c88:	77c6                	ld	a5,112(sp)
   14c8a:	7f82                	ld	t6,32(sp)
   14c8c:	63e2                	ld	t2,24(sp)
   14c8e:	8722                	mv	a4,s0
   14c90:	0016051b          	addiw	a0,a2,1
   14c94:	ff8ff06f          	j	0x1448c
   14c98:	400afe13          	andi	t3,s5,1024
   14c9c:	2e01                	sext.w	t3,t3
   14c9e:	4581                	li	a1,0
   14ca0:	09f0                	addi	a2,sp,220
   14ca2:	46a9                	li	a3,10
   14ca4:	4d25                	li	s10,9
   14ca6:	0ff00b93          	li	s7,255
   14caa:	a039                	j	0x14cb8
   14cac:	02da57b3          	divu	a5,s4,a3
   14cb0:	c94d74e3          	bgeu	s10,s4,0x14938
   14cb4:	8a3e                	mv	s4,a5
   14cb6:	8662                	mv	a2,s8
   14cb8:	fff60c13          	addi	s8,a2,-1
   14cbc:	2585                	addiw	a1,a1,1
   14cbe:	02da77b3          	remu	a5,s4,a3
   14cc2:	0307879b          	addiw	a5,a5,48
   14cc6:	fef60fa3          	sb	a5,-1(a2)
   14cca:	fe0e01e3          	beqz	t3,0x14cac
   14cce:	77c2                	ld	a5,48(sp)
   14cd0:	0007c783          	lbu	a5,0(a5)
   14cd4:	fcb79ce3          	bne	a5,a1,0x14cac
   14cd8:	fd778ae3          	beq	a5,s7,0x14cac
   14cdc:	c54d7ee3          	bgeu	s10,s4,0x14938
   14ce0:	6786                	ld	a5,64(sp)
   14ce2:	75e2                	ld	a1,56(sp)
   14ce4:	f072                	sd	t3,32(sp)
   14ce6:	40fc0c33          	sub	s8,s8,a5
   14cea:	863e                	mv	a2,a5
   14cec:	8562                	mv	a0,s8
   14cee:	ec3a                	sd	a4,24(sp)
   14cf0:	364070ef          	jal	ra,0x1c054
   14cf4:	7742                	ld	a4,48(sp)
   14cf6:	46a9                	li	a3,10
   14cf8:	02da57b3          	divu	a5,s4,a3
   14cfc:	00174603          	lbu	a2,1(a4)
   14d00:	7e02                	ld	t3,32(sp)
   14d02:	4581                	li	a1,0
   14d04:	00c03633          	snez	a2,a2
   14d08:	9732                	add	a4,a4,a2
   14d0a:	f83a                	sd	a4,48(sp)
   14d0c:	6762                	ld	a4,24(sp)
   14d0e:	b75d                	j	0x14cb4
   14d10:	0013851b          	addiw	a0,t2,1
   14d14:	01058693          	addi	a3,a1,16
   14d18:	861e                	mv	a2,t2
   14d1a:	872e                	mv	a4,a1
   14d1c:	fd8ff06f          	j	0x144f4
   14d20:	4601                	li	a2,0
   14d22:	1994                	addi	a3,sp,240
   14d24:	4505                	li	a0,1
   14d26:	8722                	mv	a4,s0
   14d28:	fc4ff06f          	j	0x144ec
   14d2c:	8b36                	mv	s6,a3
   14d2e:	b355                	j	0x14ad2
   14d30:	0000c797          	auipc	a5,0xc
   14d34:	f9878793          	addi	a5,a5,-104 # 0x20cc8
   14d38:	e83e                	sd	a5,16(sp)
   14d3a:	020d7793          	andi	a5,s10,32
   14d3e:	008b0613          	addi	a2,s6,8
   14d42:	efb1                	bnez	a5,0x14d9e
   14d44:	010d7793          	andi	a5,s10,16
   14d48:	ebb9                	bnez	a5,0x14d9e
   14d4a:	040d7793          	andi	a5,s10,64
   14d4e:	000b2a03          	lw	s4,0(s6)
   14d52:	c3fd                	beqz	a5,0x14e38
   14d54:	1a42                	slli	s4,s4,0x30
   14d56:	030a5a13          	srli	s4,s4,0x30
   14d5a:	001d7793          	andi	a5,s10,1
   14d5e:	cf89                	beqz	a5,0x14d78
   14d60:	000a0c63          	beqz	s4,0x14d78
   14d64:	002d6e13          	ori	t3,s10,2
   14d68:	03000793          	li	a5,48
   14d6c:	04f10c23          	sb	a5,88(sp)
   14d70:	04d10ca3          	sb	a3,89(sp)
   14d74:	000e0d1b          	sext.w	s10,t3
   14d78:	bffd7e13          	andi	t3,s10,-1025
   14d7c:	000e0a9b          	sext.w	s5,t3
   14d80:	8b32                	mv	s6,a2
   14d82:	4789                	li	a5,2
   14d84:	b875                	j	0x14640
   14d86:	8aea                	mv	s5,s10
   14d88:	bc8d                	j	0x147fa
   14d8a:	0000c797          	auipc	a5,0xc
   14d8e:	f5678793          	addi	a5,a5,-170 # 0x20ce0
   14d92:	e83e                	sd	a5,16(sp)
   14d94:	020d7793          	andi	a5,s10,32
   14d98:	008b0613          	addi	a2,s6,8
   14d9c:	d7c5                	beqz	a5,0x14d44
   14d9e:	000b3a03          	ld	s4,0(s6)
   14da2:	bf65                	j	0x14d5a
   14da4:	8562                	mv	a0,s8
   14da6:	a24fe0ef          	jal	ra,0x12fca
   14daa:	6762                	ld	a4,24(sp)
   14dac:	00050a1b          	sext.w	s4,a0
   14db0:	4c81                	li	s9,0
   14db2:	823ff06f          	j	0x145d4
   14db6:	05714703          	lbu	a4,87(sp)
   14dba:	ef45                	bnez	a4,0x14e72
   14dbc:	ce039ae3          	bnez	t2,0x14ab0
   14dc0:	4601                	li	a2,0
   14dc2:	4505                	li	a0,1
   14dc4:	1994                	addi	a3,sp,240
   14dc6:	8722                	mv	a4,s0
   14dc8:	f24ff06f          	j	0x144ec
   14dcc:	4705                	li	a4,1
   14dce:	87d2                	mv	a5,s4
   14dd0:	f1e2                	sd	s8,224(sp)
   14dd2:	f5d2                	sd	s4,232(sp)
   14dd4:	f8d2                	sd	s4,112(sp)
   14dd6:	d4ba                	sw	a4,104(sp)
   14dd8:	1994                	addi	a3,sp,240
   14dda:	f4aff06f          	j	0x14524
   14dde:	200d6e13          	ori	t3,s10,512
   14de2:	001dc683          	lbu	a3,1(s11)
   14de6:	000e0d1b          	sext.w	s10,t3
   14dea:	0d85                	addi	s11,s11,1
   14dec:	e0cff06f          	j	0x143f8
   14df0:	020d6e13          	ori	t3,s10,32
   14df4:	001dc683          	lbu	a3,1(s11)
   14df8:	000e0d1b          	sext.w	s10,t3
   14dfc:	0d85                	addi	s11,s11,1
   14dfe:	dfaff06f          	j	0x143f8
   14e02:	4799                	li	a5,6
   14e04:	000c8a1b          	sext.w	s4,s9
   14e08:	0797e363          	bltu	a5,s9,0x14e6e
   14e0c:	8ad2                	mv	s5,s4
   14e0e:	0000cc17          	auipc	s8,0xc
   14e12:	eeac0c13          	addi	s8,s8,-278 # 0x20cf8
   14e16:	e4eff06f          	j	0x14464
   14e1a:	200d7793          	andi	a5,s10,512
   14e1e:	c3c9                	beqz	a5,0x14ea0
   14e20:	000b0a03          	lb	s4,0(s6)
   14e24:	87d2                	mv	a5,s4
   14e26:	f86ff06f          	j	0x145ac
   14e2a:	200d7793          	andi	a5,s10,512
   14e2e:	c7a5                	beqz	a5,0x14e96
   14e30:	0ffa7a13          	andi	s4,s4,255
   14e34:	801ff06f          	j	0x14634
   14e38:	200d7793          	andi	a5,s10,512
   14e3c:	cba9                	beqz	a5,0x14e8e
   14e3e:	0ffa7a13          	andi	s4,s4,255
   14e42:	bf21                	j	0x14d5a
   14e44:	200af793          	andi	a5,s5,512
   14e48:	c3ad                	beqz	a5,0x14eaa
   14e4a:	0ffa7a13          	andi	s4,s4,255
   14e4e:	8b36                	mv	s6,a3
   14e50:	4785                	li	a5,1
   14e52:	feeff06f          	j	0x14640
   14e56:	8636                	mv	a2,a3
   14e58:	0000cb97          	auipc	s7,0xc
   14e5c:	028b8b93          	addi	s7,s7,40 # 0x20e80
   14e60:	b6ed                	j	0x14a4a
   14e62:	1994                	addi	a3,sp,240
   14e64:	4505                	li	a0,1
   14e66:	4601                	li	a2,0
   14e68:	8722                	mv	a4,s0
   14e6a:	e8aff06f          	j	0x144f4
   14e6e:	4a19                	li	s4,6
   14e70:	bf71                	j	0x14e0c
   14e72:	05710793          	addi	a5,sp,87
   14e76:	f1be                	sd	a5,224(sp)
   14e78:	4785                	li	a5,1
   14e7a:	f5be                	sd	a5,232(sp)
   14e7c:	4505                	li	a0,1
   14e7e:	1994                	addi	a3,sp,240
   14e80:	e2cff06f          	j	0x144ac
   14e84:	67a2                	ld	a5,8(sp)
   14e86:	00f69023          	sh	a5,0(a3)
   14e8a:	cf6ff06f          	j	0x14380
   14e8e:	1a02                	slli	s4,s4,0x20
   14e90:	020a5a13          	srli	s4,s4,0x20
   14e94:	b5d9                	j	0x14d5a
   14e96:	1a02                	slli	s4,s4,0x20
   14e98:	020a5a13          	srli	s4,s4,0x20
   14e9c:	f98ff06f          	j	0x14634
   14ea0:	000b2a03          	lw	s4,0(s6)
   14ea4:	87d2                	mv	a5,s4
   14ea6:	f06ff06f          	j	0x145ac
   14eaa:	1a02                	slli	s4,s4,0x20
   14eac:	020a5a13          	srli	s4,s4,0x20
   14eb0:	8b36                	mv	s6,a3
   14eb2:	4785                	li	a5,1
   14eb4:	f8cff06f          	j	0x14640
   14eb8:	1090                	addi	a2,sp,96
   14eba:	85ca                	mv	a1,s2
   14ebc:	854e                	mv	a0,s3
   14ebe:	b84ff0ef          	jal	ra,0x14242
   14ec2:	e96ff06f          	j	0x14558
   14ec6:	8a66                	mv	s4,s9
   14ec8:	4c81                	li	s9,0
   14eca:	f0aff06f          	j	0x145d4
   14ece:	0000ce97          	auipc	t4,0xc
   14ed2:	fa2e8e93          	addi	t4,t4,-94 # 0x20e70
   14ed6:	b141                	j	0x14b56
   14ed8:	0016071b          	addiw	a4,a2,1
   14edc:	0000ce97          	auipc	t4,0xc
   14ee0:	f94e8e93          	addi	t4,t4,-108 # 0x20e70
   14ee4:	b329                	j	0x14bee
   14ee6:	8aea                	mv	s5,s10
   14ee8:	bec5                	j	0x14ad8
   14eea:	57fd                	li	a5,-1
   14eec:	e43e                	sd	a5,8(sp)
   14eee:	e76ff06f          	j	0x14564
   14ef2:	85b6                	mv	a1,a3
   14ef4:	83aa                	mv	t2,a0
   14ef6:	0000cb97          	auipc	s7,0xc
   14efa:	f8ab8b93          	addi	s7,s7,-118 # 0x20e80
   14efe:	bc4d                	j	0x149b0
   14f00:	c29c                	sw	a5,0(a3)
   14f02:	c7eff06f          	j	0x14380
   14f06:	000b2683          	lw	a3,0(s6)
   14f0a:	0b21                	addi	s6,s6,8
   14f0c:	8836                	mv	a6,a3
   14f0e:	0006d363          	bgez	a3,0x14f14
   14f12:	587d                	li	a6,-1
   14f14:	001dc683          	lbu	a3,1(s11)
   14f18:	00080c9b          	sext.w	s9,a6
   14f1c:	8dbe                	mv	s11,a5
   14f1e:	cdaff06f          	j	0x143f8
   14f22:	86b2                	mv	a3,a2
   14f24:	862e                	mv	a2,a1
   14f26:	85aa                	mv	a1,a0
   14f28:	7501b503          	ld	a0,1872(gp)
   14f2c:	bc8ff06f          	j	0x142f4
   14f30:	0105d783          	lhu	a5,16(a1)
   14f34:	0ac5ae03          	lw	t3,172(a1)
   14f38:	0125d303          	lhu	t1,18(a1)
   14f3c:	0305b883          	ld	a7,48(a1)
   14f40:	0405b803          	ld	a6,64(a1)
   14f44:	b3010113          	addi	sp,sp,-1232
   14f48:	9bf5                	andi	a5,a5,-3
   14f4a:	40000713          	li	a4,1024
   14f4e:	4c813023          	sd	s0,1216(sp)
   14f52:	00f11823          	sh	a5,16(sp)
   14f56:	842e                	mv	s0,a1
   14f58:	191c                	addi	a5,sp,176
   14f5a:	858a                	mv	a1,sp
   14f5c:	4a913c23          	sd	s1,1208(sp)
   14f60:	4b213823          	sd	s2,1200(sp)
   14f64:	4c113423          	sd	ra,1224(sp)
   14f68:	892a                	mv	s2,a0
   14f6a:	d772                	sw	t3,172(sp)
   14f6c:	00611923          	sh	t1,18(sp)
   14f70:	f846                	sd	a7,48(sp)
   14f72:	e0c2                	sd	a6,64(sp)
   14f74:	e03e                	sd	a5,0(sp)
   14f76:	ec3e                	sd	a5,24(sp)
   14f78:	c63a                	sw	a4,12(sp)
   14f7a:	d03a                	sw	a4,32(sp)
   14f7c:	d402                	sw	zero,40(sp)
   14f7e:	b76ff0ef          	jal	ra,0x142f4
   14f82:	84aa                	mv	s1,a0
   14f84:	02055963          	bgez	a0,0x14fb6
   14f88:	01015783          	lhu	a5,16(sp)
   14f8c:	0407f793          	andi	a5,a5,64
   14f90:	c799                	beqz	a5,0x14f9e
   14f92:	01045783          	lhu	a5,16(s0)
   14f96:	0407e793          	ori	a5,a5,64
   14f9a:	00f41823          	sh	a5,16(s0)
   14f9e:	4c813083          	ld	ra,1224(sp)
   14fa2:	4c013403          	ld	s0,1216(sp)
   14fa6:	4b013903          	ld	s2,1200(sp)
   14faa:	8526                	mv	a0,s1
   14fac:	4b813483          	ld	s1,1208(sp)
   14fb0:	4d010113          	addi	sp,sp,1232
   14fb4:	8082                	ret
   14fb6:	858a                	mv	a1,sp
   14fb8:	854a                	mv	a0,s2
   14fba:	128020ef          	jal	ra,0x170e2
   14fbe:	d569                	beqz	a0,0x14f88
   14fc0:	54fd                	li	s1,-1
   14fc2:	b7d9                	j	0x14f88
   14fc4:	d8010113          	addi	sp,sp,-640
   14fc8:	26113c23          	sd	ra,632(sp)
   14fcc:	25413823          	sd	s4,592(sp)
   14fd0:	25513423          	sd	s5,584(sp)
   14fd4:	23913423          	sd	s9,552(sp)
   14fd8:	8a2e                	mv	s4,a1
   14fda:	8cb2                	mv	s9,a2
   14fdc:	e836                	sd	a3,16(sp)
   14fde:	26813823          	sd	s0,624(sp)
   14fe2:	26913423          	sd	s1,616(sp)
   14fe6:	27213023          	sd	s2,608(sp)
   14fea:	25313c23          	sd	s3,600(sp)
   14fee:	25613023          	sd	s6,576(sp)
   14ff2:	23713c23          	sd	s7,568(sp)
   14ff6:	23813823          	sd	s8,560(sp)
   14ffa:	23a13023          	sd	s10,544(sp)
   14ffe:	21b13c23          	sd	s11,536(sp)
   15002:	8aaa                	mv	s5,a0
   15004:	5e6050ef          	jal	ra,0x1a5ea
   15008:	611c                	ld	a5,0(a0)
   1500a:	853e                	mv	a0,a5
   1500c:	fcbe                	sd	a5,120(sp)
   1500e:	fbdfd0ef          	jal	ra,0x12fca
   15012:	f8aa                	sd	a0,112(sp)
   15014:	e202                	sd	zero,256(sp)
   15016:	e602                	sd	zero,264(sp)
   15018:	000a8663          	beqz	s5,0x15024
   1501c:	050aa783          	lw	a5,80(s5)
   15020:	70078063          	beqz	a5,0x15720
   15024:	010a1703          	lh	a4,16(s4)
   15028:	03071793          	slli	a5,a4,0x30
   1502c:	03271693          	slli	a3,a4,0x32
   15030:	93c1                	srli	a5,a5,0x30
   15032:	0006cf63          	bltz	a3,0x15050
   15036:	0aca2683          	lw	a3,172(s4)
   1503a:	6789                	lui	a5,0x2
   1503c:	8fd9                	or	a5,a5,a4
   1503e:	7779                	lui	a4,0xffffe
   15040:	177d                	addi	a4,a4,-1
   15042:	8f75                	and	a4,a4,a3
   15044:	00fa1823          	sh	a5,16(s4)
   15048:	17c2                	slli	a5,a5,0x30
   1504a:	0aea2623          	sw	a4,172(s4)
   1504e:	93c1                	srli	a5,a5,0x30
   15050:	0087f713          	andi	a4,a5,8
   15054:	26070463          	beqz	a4,0x152bc
   15058:	018a3703          	ld	a4,24(s4)
   1505c:	26070063          	beqz	a4,0x152bc
   15060:	8be9                	andi	a5,a5,26
   15062:	4729                	li	a4,10
   15064:	26e78963          	beq	a5,a4,0x152d6
   15068:	000cc783          	lbu	a5,0(s9)
   1506c:	19010b93          	addi	s7,sp,400
   15070:	ea5e                	sd	s7,272(sp)
   15072:	f202                	sd	zero,288(sp)
   15074:	10012c23          	sw	zero,280(sp)
   15078:	f002                	sd	zero,32(sp)
   1507a:	f402                	sd	zero,40(sp)
   1507c:	e102                	sd	zero,128(sp)
   1507e:	f482                	sd	zero,104(sp)
   15080:	e502                	sd	zero,136(sp)
   15082:	e902                	sd	zero,144(sp)
   15084:	e002                	sd	zero,0(sp)
   15086:	835e                	mv	t1,s7
   15088:	4d41                	li	s10,16
   1508a:	0000c917          	auipc	s2,0xc
   1508e:	fae90913          	addi	s2,s2,-82 # 0x21038
   15092:	1c078663          	beqz	a5,0x1525e
   15096:	8466                	mv	s0,s9
   15098:	02500713          	li	a4,37
   1509c:	30e78463          	beq	a5,a4,0x153a4
   150a0:	00144783          	lbu	a5,1(s0)
   150a4:	0405                	addi	s0,s0,1
   150a6:	fbfd                	bnez	a5,0x1509c
   150a8:	419404bb          	subw	s1,s0,s9
   150ac:	1a048963          	beqz	s1,0x1525e
   150b0:	7712                	ld	a4,288(sp)
   150b2:	11812783          	lw	a5,280(sp)
   150b6:	01933023          	sd	s9,0(t1)
   150ba:	9726                	add	a4,a4,s1
   150bc:	2785                	addiw	a5,a5,1
   150be:	00933423          	sd	s1,8(t1)
   150c2:	f23a                	sd	a4,288(sp)
   150c4:	10f12c23          	sw	a5,280(sp)
   150c8:	0007871b          	sext.w	a4,a5
   150cc:	479d                	li	a5,7
   150ce:	0341                	addi	t1,t1,16
   150d0:	2ee7c163          	blt	a5,a4,0x153b2
   150d4:	6702                	ld	a4,0(sp)
   150d6:	00044783          	lbu	a5,0(s0)
   150da:	9f25                	addw	a4,a4,s1
   150dc:	e03a                	sd	a4,0(sp)
   150de:	18078063          	beqz	a5,0x1525e
   150e2:	00144f03          	lbu	t5,1(s0)
   150e6:	0c010fa3          	sb	zero,223(sp)
   150ea:	0405                	addi	s0,s0,1
   150ec:	5efd                	li	t4,-1
   150ee:	4b01                	li	s6,0
   150f0:	4481                	li	s1,0
   150f2:	49a5                	li	s3,9
   150f4:	02a00c13          	li	s8,42
   150f8:	0405                	addi	s0,s0,1
   150fa:	000f0d9b          	sext.w	s11,t5
   150fe:	05a00693          	li	a3,90
   15102:	fe0d879b          	addiw	a5,s11,-32
   15106:	0007871b          	sext.w	a4,a5
   1510a:	04e6e663          	bltu	a3,a4,0x15156
   1510e:	1782                	slli	a5,a5,0x20
   15110:	0000c717          	auipc	a4,0xc
   15114:	da870713          	addi	a4,a4,-600 # 0x20eb8
   15118:	83f9                	srli	a5,a5,0x1e
   1511a:	97ba                	add	a5,a5,a4
   1511c:	439c                	lw	a5,0(a5)
   1511e:	97ba                	add	a5,a5,a4
   15120:	8782                	jr	a5
   15122:	4b01                	li	s6,0
   15124:	00044703          	lbu	a4,0(s0)
   15128:	002b179b          	slliw	a5,s6,0x2
   1512c:	01678b3b          	addw	s6,a5,s6
   15130:	fd0d8f1b          	addiw	t5,s11,-48
   15134:	001b1b1b          	slliw	s6,s6,0x1
   15138:	fd07079b          	addiw	a5,a4,-48
   1513c:	0405                	addi	s0,s0,1
   1513e:	016f0b3b          	addw	s6,t5,s6
   15142:	00070d9b          	sext.w	s11,a4
   15146:	fcf9ffe3          	bgeu	s3,a5,0x15124
   1514a:	fe0d879b          	addiw	a5,s11,-32
   1514e:	0007871b          	sext.w	a4,a5
   15152:	fae6fee3          	bgeu	a3,a4,0x1510e
   15156:	100d8463          	beqz	s11,0x1525e
   1515a:	13b10423          	sb	s11,296(sp)
   1515e:	0c010fa3          	sb	zero,223(sp)
   15162:	4985                	li	s3,1
   15164:	4c05                	li	s8,1
   15166:	12810c93          	addi	s9,sp,296
   1516a:	ec02                	sd	zero,24(sp)
   1516c:	4e81                	li	t4,0
   1516e:	e882                	sd	zero,80(sp)
   15170:	f082                	sd	zero,96(sp)
   15172:	ec82                	sd	zero,88(sp)
   15174:	0024f793          	andi	a5,s1,2
   15178:	0007829b          	sext.w	t0,a5
   1517c:	c391                	beqz	a5,0x15180
   1517e:	2989                	addiw	s3,s3,2
   15180:	0844ff93          	andi	t6,s1,132
   15184:	7792                	ld	a5,288(sp)
   15186:	000f9663          	bnez	t6,0x15192
   1518a:	413b06bb          	subw	a3,s6,s3
   1518e:	2cd046e3          	bgtz	a3,0x15c5a
   15192:	0df14703          	lbu	a4,223(sp)
   15196:	c70d                	beqz	a4,0x151c0
   15198:	11812703          	lw	a4,280(sp)
   1519c:	0df10693          	addi	a3,sp,223
   151a0:	00d33023          	sd	a3,0(t1)
   151a4:	2705                	addiw	a4,a4,1
   151a6:	4685                	li	a3,1
   151a8:	0785                	addi	a5,a5,1
   151aa:	00d33423          	sd	a3,8(t1)
   151ae:	10e12c23          	sw	a4,280(sp)
   151b2:	0007069b          	sext.w	a3,a4
   151b6:	f23e                	sd	a5,288(sp)
   151b8:	471d                	li	a4,7
   151ba:	0341                	addi	t1,t1,16
   151bc:	42d74863          	blt	a4,a3,0x155ec
   151c0:	02028563          	beqz	t0,0x151ea
   151c4:	11812703          	lw	a4,280(sp)
   151c8:	1194                	addi	a3,sp,224
   151ca:	00d33023          	sd	a3,0(t1)
   151ce:	2705                	addiw	a4,a4,1
   151d0:	4689                	li	a3,2
   151d2:	0789                	addi	a5,a5,2
   151d4:	00d33423          	sd	a3,8(t1)
   151d8:	10e12c23          	sw	a4,280(sp)
   151dc:	0007069b          	sext.w	a3,a4
   151e0:	f23e                	sd	a5,288(sp)
   151e2:	471d                	li	a4,7
   151e4:	0341                	addi	t1,t1,16
   151e6:	30d74ce3          	blt	a4,a3,0x15cfe
   151ea:	08000713          	li	a4,128
   151ee:	06ef81e3          	beq	t6,a4,0x15a50
   151f2:	418e8ebb          	subw	t4,t4,s8
   151f6:	0fd043e3          	bgtz	t4,0x15adc
   151fa:	1004f713          	andi	a4,s1,256
   151fe:	78071663          	bnez	a4,0x1598a
   15202:	11812703          	lw	a4,280(sp)
   15206:	97e2                	add	a5,a5,s8
   15208:	01933023          	sd	s9,0(t1)
   1520c:	0017069b          	addiw	a3,a4,1
   15210:	8736                	mv	a4,a3
   15212:	01833423          	sd	s8,8(t1)
   15216:	10e12c23          	sw	a4,280(sp)
   1521a:	f23e                	sd	a5,288(sp)
   1521c:	471d                	li	a4,7
   1521e:	44d74963          	blt	a4,a3,0x15670
   15222:	0341                	addi	t1,t1,16
   15224:	8891                	andi	s1,s1,4
   15226:	c489                	beqz	s1,0x15230
   15228:	413b04bb          	subw	s1,s6,s3
   1522c:	2e9048e3          	bgtz	s1,0x15d1c
   15230:	875a                	mv	a4,s6
   15232:	013b5363          	bge	s6,s3,0x15238
   15236:	874e                	mv	a4,s3
   15238:	6682                	ld	a3,0(sp)
   1523a:	9f35                	addw	a4,a4,a3
   1523c:	e03a                	sd	a4,0(sp)
   1523e:	10079ce3          	bnez	a5,0x15b56
   15242:	67e2                	ld	a5,24(sp)
   15244:	10012c23          	sw	zero,280(sp)
   15248:	c789                	beqz	a5,0x15252
   1524a:	65e2                	ld	a1,24(sp)
   1524c:	8556                	mv	a0,s5
   1524e:	3a8020ef          	jal	ra,0x175f6
   15252:	835e                	mv	t1,s7
   15254:	8ca2                	mv	s9,s0
   15256:	000cc783          	lbu	a5,0(s9)
   1525a:	e2079ee3          	bnez	a5,0x15096
   1525e:	7792                	ld	a5,288(sp)
   15260:	c399                	beqz	a5,0x15266
   15262:	2de0106f          	j	0x16540
   15266:	010a5783          	lhu	a5,16(s4)
   1526a:	0407f793          	andi	a5,a5,64
   1526e:	c399                	beqz	a5,0x15274
   15270:	67c0106f          	j	0x168ec
   15274:	27813083          	ld	ra,632(sp)
   15278:	27013403          	ld	s0,624(sp)
   1527c:	6502                	ld	a0,0(sp)
   1527e:	26813483          	ld	s1,616(sp)
   15282:	26013903          	ld	s2,608(sp)
   15286:	25813983          	ld	s3,600(sp)
   1528a:	25013a03          	ld	s4,592(sp)
   1528e:	24813a83          	ld	s5,584(sp)
   15292:	24013b03          	ld	s6,576(sp)
   15296:	23813b83          	ld	s7,568(sp)
   1529a:	23013c03          	ld	s8,560(sp)
   1529e:	22813c83          	ld	s9,552(sp)
   152a2:	22013d03          	ld	s10,544(sp)
   152a6:	21813d83          	ld	s11,536(sp)
   152aa:	28010113          	addi	sp,sp,640
   152ae:	8082                	ret
   152b0:	0104e493          	ori	s1,s1,16
   152b4:	00044f03          	lbu	t5,0(s0)
   152b8:	2481                	sext.w	s1,s1
   152ba:	bd3d                	j	0x150f8
   152bc:	85d2                	mv	a1,s4
   152be:	8556                	mv	a0,s5
   152c0:	291010ef          	jal	ra,0x16d50
   152c4:	c119                	beqz	a0,0x152ca
   152c6:	6260106f          	j	0x168ec
   152ca:	010a5783          	lhu	a5,16(s4)
   152ce:	4729                	li	a4,10
   152d0:	8be9                	andi	a5,a5,26
   152d2:	d8e79be3          	bne	a5,a4,0x15068
   152d6:	012a1783          	lh	a5,18(s4)
   152da:	d807c7e3          	bltz	a5,0x15068
   152de:	66c2                	ld	a3,16(sp)
   152e0:	8666                	mv	a2,s9
   152e2:	85d2                	mv	a1,s4
   152e4:	8556                	mv	a0,s5
   152e6:	107010ef          	jal	ra,0x16bec
   152ea:	e02a                	sd	a0,0(sp)
   152ec:	b761                	j	0x15274
   152ee:	0104e493          	ori	s1,s1,16
   152f2:	2481                	sext.w	s1,s1
   152f4:	66c2                	ld	a3,16(sp)
   152f6:	0204f793          	andi	a5,s1,32
   152fa:	00868713          	addi	a4,a3,8
   152fe:	3a078263          	beqz	a5,0x156a2
   15302:	629c                	ld	a5,0(a3)
   15304:	89be                	mv	s3,a5
   15306:	3a07cc63          	bltz	a5,0x156be
   1530a:	57fd                	li	a5,-1
   1530c:	48fe87e3          	beq	t4,a5,0x15f9a
   15310:	f7f4f493          	andi	s1,s1,-129
   15314:	e83a                	sd	a4,16(sp)
   15316:	0004881b          	sext.w	a6,s1
   1531a:	120993e3          	bnez	s3,0x15c40
   1531e:	120e94e3          	bnez	t4,0x15c46
   15322:	84c2                	mv	s1,a6
   15324:	4e81                	li	t4,0
   15326:	4c01                	li	s8,0
   15328:	18c10c93          	addi	s9,sp,396
   1532c:	000c099b          	sext.w	s3,s8
   15330:	01dc5463          	bge	s8,t4,0x15338
   15334:	000e899b          	sext.w	s3,t4
   15338:	0df14783          	lbu	a5,223(sp)
   1533c:	ec02                	sd	zero,24(sp)
   1533e:	e882                	sd	zero,80(sp)
   15340:	f082                	sd	zero,96(sp)
   15342:	ec82                	sd	zero,88(sp)
   15344:	e20788e3          	beqz	a5,0x15174
   15348:	2985                	addiw	s3,s3,1
   1534a:	b52d                	j	0x15174
   1534c:	0104e493          	ori	s1,s1,16
   15350:	2481                	sext.w	s1,s1
   15352:	66c2                	ld	a3,16(sp)
   15354:	0204f793          	andi	a5,s1,32
   15358:	00868713          	addi	a4,a3,8
   1535c:	32078463          	beqz	a5,0x15684
   15360:	0006b983          	ld	s3,0(a3)
   15364:	bff4f493          	andi	s1,s1,-1025
   15368:	0004881b          	sext.w	a6,s1
   1536c:	e83a                	sd	a4,16(sp)
   1536e:	4781                	li	a5,0
   15370:	0c010fa3          	sb	zero,223(sp)
   15374:	577d                	li	a4,-1
   15376:	36ee8063          	beq	t4,a4,0x156d6
   1537a:	f7f87493          	andi	s1,a6,-129
   1537e:	2481                	sext.w	s1,s1
   15380:	0a099ce3          	bnez	s3,0x15c38
   15384:	5c0e9663          	bnez	t4,0x15950
   15388:	ffd1                	bnez	a5,0x15324
   1538a:	00187c13          	andi	s8,a6,1
   1538e:	18c10c93          	addi	s9,sp,396
   15392:	f80c0de3          	beqz	s8,0x1532c
   15396:	03000793          	li	a5,48
   1539a:	18f105a3          	sb	a5,395(sp)
   1539e:	18b10c93          	addi	s9,sp,395
   153a2:	b769                	j	0x1532c
   153a4:	419404bb          	subw	s1,s0,s9
   153a8:	d00494e3          	bnez	s1,0x150b0
   153ac:	00044783          	lbu	a5,0(s0)
   153b0:	b33d                	j	0x150de
   153b2:	0a10                	addi	a2,sp,272
   153b4:	85d2                	mv	a1,s4
   153b6:	8556                	mv	a0,s5
   153b8:	f2ffe0ef          	jal	ra,0x142e6
   153bc:	ea0515e3          	bnez	a0,0x15266
   153c0:	835e                	mv	t1,s7
   153c2:	bb09                	j	0x150d4
   153c4:	0084f793          	andi	a5,s1,8
   153c8:	3a079ee3          	bnez	a5,0x15f84
   153cc:	67c2                	ld	a5,16(sp)
   153ce:	ec1a                	sd	t1,24(sp)
   153d0:	e476                	sd	t4,8(sp)
   153d2:	2388                	fld	fa0,0(a5)
   153d4:	00878693          	addi	a3,a5,8 # 0x2008
   153d8:	e836                	sd	a3,16(sp)
   153da:	4a10a0ef          	jal	ra,0x2007a
   153de:	6362                	ld	t1,24(sp)
   153e0:	6ea2                	ld	t4,8(sp)
   153e2:	e22a                	sd	a0,256(sp)
   153e4:	e62e                	sd	a1,264(sp)
   153e6:	0208                	addi	a0,sp,256
   153e8:	ec1a                	sd	t1,24(sp)
   153ea:	e476                	sd	t4,8(sp)
   153ec:	1be050ef          	jal	ra,0x1a5aa
   153f0:	d5aa                	sw	a0,232(sp)
   153f2:	4789                	li	a5,2
   153f4:	6ea2                	ld	t4,8(sp)
   153f6:	6362                	ld	t1,24(sp)
   153f8:	64f502e3          	beq	a0,a5,0x1623c
   153fc:	4785                	li	a5,1
   153fe:	6ef50ee3          	beq	a0,a5,0x162fa
   15402:	06100793          	li	a5,97
   15406:	00fd9463          	bne	s11,a5,0x1540e
   1540a:	5740106f          	j	0x1697e
   1540e:	04100793          	li	a5,65
   15412:	00fd9463          	bne	s11,a5,0x1541a
   15416:	1380106f          	j	0x1654e
   1541a:	fdfdf713          	andi	a4,s11,-33
   1541e:	57fd                	li	a5,-1
   15420:	f0ba                	sd	a4,96(sp)
   15422:	00fe9463          	bne	t4,a5,0x1542a
   15426:	6140106f          	j	0x16a3a
   1542a:	04700793          	li	a5,71
   1542e:	00f71463          	bne	a4,a5,0x15436
   15432:	5c40106f          	j	0x169f6
   15436:	69b2                	ld	s3,264(sp)
   15438:	1004e793          	ori	a5,s1,256
   1543c:	ed26                	sd	s1,152(sp)
   1543e:	6c12                	ld	s8,256(sp)
   15440:	2781                	sext.w	a5,a5
   15442:	0009d463          	bgez	s3,0x1544a
   15446:	67a0106f          	j	0x16ac0
   1544a:	e582                	sd	zero,200(sp)
   1544c:	84be                	mv	s1,a5
   1544e:	ec02                	sd	zero,24(sp)
   15450:	2701                	sext.w	a4,a4
   15452:	04600793          	li	a5,70
   15456:	00f71463          	bne	a4,a5,0x1545e
   1545a:	38a0106f          	j	0x167e4
   1545e:	7706                	ld	a4,96(sp)
   15460:	04500793          	li	a5,69
   15464:	00f70463          	beq	a4,a5,0x1546c
   15468:	33c0106f          	j	0x167a4
   1546c:	001e871b          	addiw	a4,t4,1
   15470:	0f810893          	addi	a7,sp,248
   15474:	0ec10813          	addi	a6,sp,236
   15478:	11bc                	addi	a5,sp,232
   1547a:	4689                	li	a3,2
   1547c:	85e2                	mv	a1,s8
   1547e:	864e                	mv	a2,s3
   15480:	8556                	mv	a0,s5
   15482:	f81a                	sd	t1,48(sp)
   15484:	f076                	sd	t4,32(sp)
   15486:	e43a                	sd	a4,8(sp)
   15488:	2aa040ef          	jal	ra,0x19732
   1548c:	6722                	ld	a4,8(sp)
   1548e:	7e82                	ld	t4,32(sp)
   15490:	7342                	ld	t1,48(sp)
   15492:	8caa                	mv	s9,a0
   15494:	00e508b3          	add	a7,a0,a4
   15498:	4601                	li	a2,0
   1549a:	4681                	li	a3,0
   1549c:	8562                	mv	a0,s8
   1549e:	85ce                	mv	a1,s3
   154a0:	f846                	sd	a7,48(sp)
   154a2:	f01a                	sd	t1,32(sp)
   154a4:	e476                	sd	t4,8(sp)
   154a6:	2f1090ef          	jal	ra,0x1ef96
   154aa:	78c2                	ld	a7,48(sp)
   154ac:	6ea2                	ld	t4,8(sp)
   154ae:	7302                	ld	t1,32(sp)
   154b0:	87c6                	mv	a5,a7
   154b2:	cd11                	beqz	a0,0x154ce
   154b4:	77ee                	ld	a5,248(sp)
   154b6:	0117fc63          	bgeu	a5,a7,0x154ce
   154ba:	03000693          	li	a3,48
   154be:	00178713          	addi	a4,a5,1
   154c2:	fdba                	sd	a4,248(sp)
   154c4:	00d78023          	sb	a3,0(a5)
   154c8:	77ee                	ld	a5,248(sp)
   154ca:	ff17eae3          	bltu	a5,a7,0x154be
   154ce:	419787bb          	subw	a5,a5,s9
   154d2:	f03e                	sd	a5,32(sp)
   154d4:	572e                	lw	a4,232(sp)
   154d6:	04700793          	li	a5,71
   154da:	ecba                	sd	a4,88(sp)
   154dc:	7706                	ld	a4,96(sp)
   154de:	00f71463          	bne	a4,a5,0x154e6
   154e2:	2200106f          	j	0x16702
   154e6:	7706                	ld	a4,96(sp)
   154e8:	04600793          	li	a5,70
   154ec:	00f71463          	bne	a4,a5,0x154f4
   154f0:	3c40106f          	j	0x168b4
   154f4:	67e6                	ld	a5,88(sp)
   154f6:	7586                	ld	a1,96(sp)
   154f8:	04100613          	li	a2,65
   154fc:	37fd                	addiw	a5,a5,-1
   154fe:	d5be                	sw	a5,232(sp)
   15500:	0ffdf713          	andi	a4,s11,255
   15504:	4681                	li	a3,0
   15506:	00c59663          	bne	a1,a2,0x15512
   1550a:	273d                	addiw	a4,a4,15
   1550c:	0ff77713          	andi	a4,a4,255
   15510:	4685                	li	a3,1
   15512:	0ee10823          	sb	a4,240(sp)
   15516:	02b00713          	li	a4,43
   1551a:	0007d763          	bgez	a5,0x15528
   1551e:	6766                	ld	a4,88(sp)
   15520:	4785                	li	a5,1
   15522:	9f99                	subw	a5,a5,a4
   15524:	02d00713          	li	a4,45
   15528:	0ee108a3          	sb	a4,241(sp)
   1552c:	4725                	li	a4,9
   1552e:	00f74463          	blt	a4,a5,0x15536
   15532:	5e00106f          	j	0x16b12
   15536:	0ff10513          	addi	a0,sp,255
   1553a:	85aa                	mv	a1,a0
   1553c:	46a9                	li	a3,10
   1553e:	06300e93          	li	t4,99
   15542:	02d7e73b          	remw	a4,a5,a3
   15546:	862e                	mv	a2,a1
   15548:	88be                	mv	a7,a5
   1554a:	15fd                	addi	a1,a1,-1
   1554c:	0307071b          	addiw	a4,a4,48
   15550:	fee60fa3          	sb	a4,-1(a2)
   15554:	02d7c7bb          	divw	a5,a5,a3
   15558:	ff1ec5e3          	blt	t4,a7,0x15542
   1555c:	0307879b          	addiw	a5,a5,48
   15560:	0ff7f693          	andi	a3,a5,255
   15564:	fed58fa3          	sb	a3,-1(a1)
   15568:	ffe60793          	addi	a5,a2,-2
   1556c:	00a7e463          	bltu	a5,a0,0x15574
   15570:	6560106f          	j	0x16bc6
   15574:	0f210713          	addi	a4,sp,242
   15578:	a019                	j	0x1557e
   1557a:	0007c683          	lbu	a3,0(a5)
   1557e:	00d70023          	sb	a3,0(a4)
   15582:	0785                	addi	a5,a5,1
   15584:	0705                	addi	a4,a4,1
   15586:	fea79ae3          	bne	a5,a0,0x1557a
   1558a:	10110793          	addi	a5,sp,257
   1558e:	0f210713          	addi	a4,sp,242
   15592:	8f91                	sub	a5,a5,a2
   15594:	97ba                	add	a5,a5,a4
   15596:	1998                	addi	a4,sp,240
   15598:	9f99                	subw	a5,a5,a4
   1559a:	e13e                	sd	a5,128(sp)
   1559c:	678a                	ld	a5,128(sp)
   1559e:	7682                	ld	a3,32(sp)
   155a0:	4705                	li	a4,1
   155a2:	00f68c3b          	addw	s8,a3,a5
   155a6:	87e2                	mv	a5,s8
   155a8:	00d74463          	blt	a4,a3,0x155b0
   155ac:	5a00106f          	j	0x16b4c
   155b0:	7746                	ld	a4,112(sp)
   155b2:	00e78c3b          	addw	s8,a5,a4
   155b6:	67ea                	ld	a5,152(sp)
   155b8:	fffc4993          	not	s3,s8
   155bc:	43f9d993          	srai	s3,s3,0x3f
   155c0:	bff7f493          	andi	s1,a5,-1025
   155c4:	2481                	sext.w	s1,s1
   155c6:	013c79b3          	and	s3,s8,s3
   155ca:	1004e493          	ori	s1,s1,256
   155ce:	2981                	sext.w	s3,s3
   155d0:	e882                	sd	zero,80(sp)
   155d2:	f082                	sd	zero,96(sp)
   155d4:	ec82                	sd	zero,88(sp)
   155d6:	67ae                	ld	a5,200(sp)
   155d8:	e399                	bnez	a5,0x155de
   155da:	17e0106f          	j	0x16758
   155de:	02d00793          	li	a5,45
   155e2:	0cf10fa3          	sb	a5,223(sp)
   155e6:	4e81                	li	t4,0
   155e8:	2985                	addiw	s3,s3,1
   155ea:	b669                	j	0x15174
   155ec:	0a10                	addi	a2,sp,272
   155ee:	85d2                	mv	a1,s4
   155f0:	8556                	mv	a0,s5
   155f2:	fc76                	sd	t4,56(sp)
   155f4:	f87e                	sd	t6,48(sp)
   155f6:	e416                	sd	t0,8(sp)
   155f8:	ceffe0ef          	jal	ra,0x142e6
   155fc:	56051463          	bnez	a0,0x15b64
   15600:	7792                	ld	a5,288(sp)
   15602:	7ee2                	ld	t4,56(sp)
   15604:	7fc2                	ld	t6,48(sp)
   15606:	62a2                	ld	t0,8(sp)
   15608:	835e                	mv	t1,s7
   1560a:	be5d                	j	0x151c0
   1560c:	76e6                	ld	a3,120(sp)
   1560e:	7746                	ld	a4,112(sp)
   15610:	0341                	addi	t1,t1,16
   15612:	fed33823          	sd	a3,-16(t1)
   15616:	11812683          	lw	a3,280(sp)
   1561a:	97ba                	add	a5,a5,a4
   1561c:	fee33c23          	sd	a4,-8(t1)
   15620:	2685                	addiw	a3,a3,1
   15622:	0006871b          	sext.w	a4,a3
   15626:	10d12c23          	sw	a3,280(sp)
   1562a:	f23e                	sd	a5,288(sp)
   1562c:	469d                	li	a3,7
   1562e:	00e6de63          	bge	a3,a4,0x1564a
   15632:	0a10                	addi	a2,sp,272
   15634:	85d2                	mv	a1,s4
   15636:	8556                	mv	a0,s5
   15638:	caffe0ef          	jal	ra,0x142e6
   1563c:	52051463          	bnez	a0,0x15b64
   15640:	562e                	lw	a2,232(sp)
   15642:	7792                	ld	a5,288(sp)
   15644:	11812703          	lw	a4,280(sp)
   15648:	835e                	mv	t1,s7
   1564a:	00065463          	bgez	a2,0x15652
   1564e:	2a60106f          	j	0x168f4
   15652:	7682                	ld	a3,32(sp)
   15654:	2705                	addiw	a4,a4,1
   15656:	10e12c23          	sw	a4,280(sp)
   1565a:	97b6                	add	a5,a5,a3
   1565c:	00d33423          	sd	a3,8(t1)
   15660:	01933023          	sd	s9,0(t1)
   15664:	0007069b          	sext.w	a3,a4
   15668:	f23e                	sd	a5,288(sp)
   1566a:	471d                	li	a4,7
   1566c:	bad75be3          	bge	a4,a3,0x15222
   15670:	0a10                	addi	a2,sp,272
   15672:	85d2                	mv	a1,s4
   15674:	8556                	mv	a0,s5
   15676:	c71fe0ef          	jal	ra,0x142e6
   1567a:	4e051563          	bnez	a0,0x15b64
   1567e:	7792                	ld	a5,288(sp)
   15680:	835e                	mv	t1,s7
   15682:	b64d                	j	0x15224
   15684:	0104f793          	andi	a5,s1,16
   15688:	0e0799e3          	bnez	a5,0x15f7a
   1568c:	66c2                	ld	a3,16(sp)
   1568e:	0404f793          	andi	a5,s1,64
   15692:	0006a983          	lw	s3,0(a3)
   15696:	44078ae3          	beqz	a5,0x162ea
   1569a:	19c2                	slli	s3,s3,0x30
   1569c:	0309d993          	srli	s3,s3,0x30
   156a0:	b1d1                	j	0x15364
   156a2:	0104f793          	andi	a5,s1,16
   156a6:	0c0795e3          	bnez	a5,0x15f70
   156aa:	0404f793          	andi	a5,s1,64
   156ae:	40078de3          	beqz	a5,0x162c8
   156b2:	67c2                	ld	a5,16(sp)
   156b4:	00079983          	lh	s3,0(a5)
   156b8:	87ce                	mv	a5,s3
   156ba:	c407d8e3          	bgez	a5,0x1530a
   156be:	02d00793          	li	a5,45
   156c2:	0cf10fa3          	sb	a5,223(sp)
   156c6:	e83a                	sd	a4,16(sp)
   156c8:	577d                	li	a4,-1
   156ca:	413009b3          	neg	s3,s3
   156ce:	8826                	mv	a6,s1
   156d0:	4785                	li	a5,1
   156d2:	caee94e3          	bne	t4,a4,0x1537a
   156d6:	4705                	li	a4,1
   156d8:	56e78463          	beq	a5,a4,0x15c40
   156dc:	4709                	li	a4,2
   156de:	28e78263          	beq	a5,a4,0x15962
   156e2:	18c10c13          	addi	s8,sp,396
   156e6:	8ce2                	mv	s9,s8
   156e8:	0079f793          	andi	a5,s3,7
   156ec:	03078793          	addi	a5,a5,48
   156f0:	fefc8fa3          	sb	a5,-1(s9)
   156f4:	0039d993          	srli	s3,s3,0x3
   156f8:	8766                	mv	a4,s9
   156fa:	1cfd                	addi	s9,s9,-1
   156fc:	fe0996e3          	bnez	s3,0x156e8
   15700:	00187693          	andi	a3,a6,1
   15704:	26068f63          	beqz	a3,0x15982
   15708:	03000693          	li	a3,48
   1570c:	26d78b63          	beq	a5,a3,0x15982
   15710:	1779                	addi	a4,a4,-2
   15712:	fedc8fa3          	sb	a3,-1(s9)
   15716:	40ec0c3b          	subw	s8,s8,a4
   1571a:	84c2                	mv	s1,a6
   1571c:	8cba                	mv	s9,a4
   1571e:	b139                	j	0x1532c
   15720:	8556                	mv	a0,s5
   15722:	459010ef          	jal	ra,0x1737a
   15726:	b8fd                	j	0x15024
   15728:	67c2                	ld	a5,16(sp)
   1572a:	0c010fa3          	sb	zero,223(sp)
   1572e:	0007bc83          	ld	s9,0(a5)
   15732:	00878693          	addi	a3,a5,8
   15736:	1c0c85e3          	beqz	s9,0x16100
   1573a:	57fd                	li	a5,-1
   1573c:	34fe82e3          	beq	t4,a5,0x16280
   15740:	8676                	mv	a2,t4
   15742:	4581                	li	a1,0
   15744:	8566                	mv	a0,s9
   15746:	f836                	sd	a3,48(sp)
   15748:	e81a                	sd	t1,16(sp)
   1574a:	e476                	sd	t4,8(sp)
   1574c:	096050ef          	jal	ra,0x1a7e2
   15750:	ec2a                	sd	a0,24(sp)
   15752:	6ea2                	ld	t4,8(sp)
   15754:	6342                	ld	t1,16(sp)
   15756:	76c2                	ld	a3,48(sp)
   15758:	e119                	bnez	a0,0x1575e
   1575a:	1120106f          	j	0x1686c
   1575e:	67e2                	ld	a5,24(sp)
   15760:	e836                	sd	a3,16(sp)
   15762:	ec02                	sd	zero,24(sp)
   15764:	41978c3b          	subw	s8,a5,s9
   15768:	fffc4993          	not	s3,s8
   1576c:	0df14783          	lbu	a5,223(sp)
   15770:	43f9d993          	srai	s3,s3,0x3f
   15774:	013c79b3          	and	s3,s8,s3
   15778:	e882                	sd	zero,80(sp)
   1577a:	f082                	sd	zero,96(sp)
   1577c:	ec82                	sd	zero,88(sp)
   1577e:	2981                	sext.w	s3,s3
   15780:	4e81                	li	t4,0
   15782:	bc0793e3          	bnez	a5,0x15348
   15786:	b2fd                	j	0x15174
   15788:	6742                	ld	a4,16(sp)
   1578a:	0c010fa3          	sb	zero,223(sp)
   1578e:	4985                	li	s3,1
   15790:	431c                	lw	a5,0(a4)
   15792:	0721                	addi	a4,a4,8
   15794:	e83a                	sd	a4,16(sp)
   15796:	12f10423          	sb	a5,296(sp)
   1579a:	4c05                	li	s8,1
   1579c:	12810c93          	addi	s9,sp,296
   157a0:	b2e9                	j	0x1516a
   157a2:	00044f03          	lbu	t5,0(s0)
   157a6:	0044e493          	ori	s1,s1,4
   157aa:	2481                	sext.w	s1,s1
   157ac:	b2b1                	j	0x150f8
   157ae:	02b00793          	li	a5,43
   157b2:	00044f03          	lbu	t5,0(s0)
   157b6:	0cf10fa3          	sb	a5,223(sp)
   157ba:	ba3d                	j	0x150f8
   157bc:	0804e493          	ori	s1,s1,128
   157c0:	00044f03          	lbu	t5,0(s0)
   157c4:	2481                	sext.w	s1,s1
   157c6:	ba0d                	j	0x150f8
   157c8:	00044703          	lbu	a4,0(s0)
   157cc:	00140793          	addi	a5,s0,1
   157d0:	00070d9b          	sext.w	s11,a4
   157d4:	00ec1463          	bne	s8,a4,0x157dc
   157d8:	3d20106f          	j	0x16baa
   157dc:	fd07071b          	addiw	a4,a4,-48
   157e0:	843e                	mv	s0,a5
   157e2:	4e81                	li	t4,0
   157e4:	90e9efe3          	bltu	s3,a4,0x15102
   157e8:	00044d83          	lbu	s11,0(s0)
   157ec:	002e979b          	slliw	a5,t4,0x2
   157f0:	01d78ebb          	addw	t4,a5,t4
   157f4:	001e9e9b          	slliw	t4,t4,0x1
   157f8:	00ee8ebb          	addw	t4,t4,a4
   157fc:	fd0d871b          	addiw	a4,s11,-48
   15800:	0405                	addi	s0,s0,1
   15802:	fee9f3e3          	bgeu	s3,a4,0x157e8
   15806:	b8f5                	j	0x15102
   15808:	67c2                	ld	a5,16(sp)
   1580a:	00044f03          	lbu	t5,0(s0)
   1580e:	0007ab03          	lw	s6,0(a5)
   15812:	07a1                	addi	a5,a5,8
   15814:	e83e                	sd	a5,16(sp)
   15816:	8e0b51e3          	bgez	s6,0x150f8
   1581a:	41600b3b          	negw	s6,s6
   1581e:	b761                	j	0x157a6
   15820:	8556                	mv	a0,s5
   15822:	ec1a                	sd	t1,24(sp)
   15824:	e476                	sd	t4,8(sp)
   15826:	5c5040ef          	jal	ra,0x1a5ea
   1582a:	651c                	ld	a5,8(a0)
   1582c:	853e                	mv	a0,a5
   1582e:	e93e                	sd	a5,144(sp)
   15830:	f9afd0ef          	jal	ra,0x12fca
   15834:	87aa                	mv	a5,a0
   15836:	8556                	mv	a0,s5
   15838:	8dbe                	mv	s11,a5
   1583a:	e53e                	sd	a5,136(sp)
   1583c:	5af040ef          	jal	ra,0x1a5ea
   15840:	6918                	ld	a4,16(a0)
   15842:	6ea2                	ld	t4,8(sp)
   15844:	6362                	ld	t1,24(sp)
   15846:	f4ba                	sd	a4,104(sp)
   15848:	00044f03          	lbu	t5,0(s0)
   1584c:	8a0d86e3          	beqz	s11,0x150f8
   15850:	8a0704e3          	beqz	a4,0x150f8
   15854:	00074783          	lbu	a5,0(a4)
   15858:	8a0780e3          	beqz	a5,0x150f8
   1585c:	4004e493          	ori	s1,s1,1024
   15860:	2481                	sext.w	s1,s1
   15862:	b859                	j	0x150f8
   15864:	0014e493          	ori	s1,s1,1
   15868:	00044f03          	lbu	t5,0(s0)
   1586c:	2481                	sext.w	s1,s1
   1586e:	b069                	j	0x150f8
   15870:	0df14783          	lbu	a5,223(sp)
   15874:	00044f03          	lbu	t5,0(s0)
   15878:	880790e3          	bnez	a5,0x150f8
   1587c:	02000793          	li	a5,32
   15880:	0cf10fa3          	sb	a5,223(sp)
   15884:	b895                	j	0x150f8
   15886:	0084e493          	ori	s1,s1,8
   1588a:	00044f03          	lbu	t5,0(s0)
   1588e:	2481                	sext.w	s1,s1
   15890:	b0a5                	j	0x150f8
   15892:	0104e493          	ori	s1,s1,16
   15896:	0004881b          	sext.w	a6,s1
   1589a:	66c2                	ld	a3,16(sp)
   1589c:	02087793          	andi	a5,a6,32
   158a0:	00868713          	addi	a4,a3,8
   158a4:	68078463          	beqz	a5,0x15f2c
   158a8:	0006b983          	ld	s3,0(a3)
   158ac:	4785                	li	a5,1
   158ae:	e83a                	sd	a4,16(sp)
   158b0:	b4c1                	j	0x15370
   158b2:	0204e493          	ori	s1,s1,32
   158b6:	00044f03          	lbu	t5,0(s0)
   158ba:	2481                	sext.w	s1,s1
   158bc:	83dff06f          	j	0x150f8
   158c0:	6742                	ld	a4,16(sp)
   158c2:	77e1                	lui	a5,0xffff8
   158c4:	8307c793          	xori	a5,a5,-2000
   158c8:	0ef11023          	sh	a5,224(sp)
   158cc:	00870793          	addi	a5,a4,8
   158d0:	0024e493          	ori	s1,s1,2
   158d4:	e83e                	sd	a5,16(sp)
   158d6:	0000b797          	auipc	a5,0xb
   158da:	40a78793          	addi	a5,a5,1034 # 0x20ce0
   158de:	f43e                	sd	a5,40(sp)
   158e0:	00073983          	ld	s3,0(a4)
   158e4:	0004881b          	sext.w	a6,s1
   158e8:	4789                	li	a5,2
   158ea:	07800d93          	li	s11,120
   158ee:	b449                	j	0x15370
   158f0:	66c2                	ld	a3,16(sp)
   158f2:	0204f793          	andi	a5,s1,32
   158f6:	6298                	ld	a4,0(a3)
   158f8:	06a1                	addi	a3,a3,8
   158fa:	e836                	sd	a3,16(sp)
   158fc:	64079e63          	bnez	a5,0x15f58
   15900:	0104f793          	andi	a5,s1,16
   15904:	64079a63          	bnez	a5,0x15f58
   15908:	0404f793          	andi	a5,s1,64
   1590c:	3e0799e3          	bnez	a5,0x164fe
   15910:	2004f493          	andi	s1,s1,512
   15914:	6782                	ld	a5,0(sp)
   15916:	e099                	bnez	s1,0x1591c
   15918:	1280106f          	j	0x16a40
   1591c:	00f70023          	sb	a5,0(a4)
   15920:	8ca2                	mv	s9,s0
   15922:	ba15                	j	0x15256
   15924:	00044f03          	lbu	t5,0(s0)
   15928:	06c00793          	li	a5,108
   1592c:	7aff0263          	beq	t5,a5,0x160d0
   15930:	0104e493          	ori	s1,s1,16
   15934:	2481                	sext.w	s1,s1
   15936:	fc2ff06f          	j	0x150f8
   1593a:	00044f03          	lbu	t5,0(s0)
   1593e:	06800793          	li	a5,104
   15942:	76ff0f63          	beq	t5,a5,0x160c0
   15946:	0404e493          	ori	s1,s1,64
   1594a:	2481                	sext.w	s1,s1
   1594c:	facff06f          	j	0x150f8
   15950:	4705                	li	a4,1
   15952:	00e79463          	bne	a5,a4,0x1595a
   15956:	0220106f          	j	0x16978
   1595a:	4709                	li	a4,2
   1595c:	8826                	mv	a6,s1
   1595e:	d8e792e3          	bne	a5,a4,0x156e2
   15962:	18c10c13          	addi	s8,sp,396
   15966:	8ce2                	mv	s9,s8
   15968:	7722                	ld	a4,40(sp)
   1596a:	00f9f793          	andi	a5,s3,15
   1596e:	1cfd                	addi	s9,s9,-1
   15970:	97ba                	add	a5,a5,a4
   15972:	0007c783          	lbu	a5,0(a5)
   15976:	0049d993          	srli	s3,s3,0x4
   1597a:	00fc8023          	sb	a5,0(s9)
   1597e:	fe0995e3          	bnez	s3,0x15968
   15982:	419c0c3b          	subw	s8,s8,s9
   15986:	84c2                	mv	s1,a6
   15988:	b255                	j	0x1532c
   1598a:	06500713          	li	a4,101
   1598e:	1fb75463          	bge	a4,s11,0x15b76
   15992:	6512                	ld	a0,256(sp)
   15994:	65b2                	ld	a1,264(sp)
   15996:	4601                	li	a2,0
   15998:	4681                	li	a3,0
   1599a:	f83e                	sd	a5,48(sp)
   1599c:	e41a                	sd	t1,8(sp)
   1599e:	5f8090ef          	jal	ra,0x1ef96
   159a2:	6322                	ld	t1,8(sp)
   159a4:	77c2                	ld	a5,48(sp)
   159a6:	3e051b63          	bnez	a0,0x15d9c
   159aa:	11812703          	lw	a4,280(sp)
   159ae:	0000b697          	auipc	a3,0xb
   159b2:	50268693          	addi	a3,a3,1282 # 0x20eb0
   159b6:	00d33023          	sd	a3,0(t1)
   159ba:	2705                	addiw	a4,a4,1
   159bc:	4685                	li	a3,1
   159be:	0785                	addi	a5,a5,1
   159c0:	00d33423          	sd	a3,8(t1)
   159c4:	10e12c23          	sw	a4,280(sp)
   159c8:	0007069b          	sext.w	a3,a4
   159cc:	f23e                	sd	a5,288(sp)
   159ce:	471d                	li	a4,7
   159d0:	0341                	addi	t1,t1,16
   159d2:	04d742e3          	blt	a4,a3,0x16216
   159d6:	572e                	lw	a4,232(sp)
   159d8:	7682                	ld	a3,32(sp)
   159da:	56d75a63          	bge	a4,a3,0x15f4e
   159de:	7766                	ld	a4,120(sp)
   159e0:	76c6                	ld	a3,112(sp)
   159e2:	0341                	addi	t1,t1,16
   159e4:	fee33823          	sd	a4,-16(t1)
   159e8:	11812703          	lw	a4,280(sp)
   159ec:	97b6                	add	a5,a5,a3
   159ee:	fed33c23          	sd	a3,-8(t1)
   159f2:	2705                	addiw	a4,a4,1
   159f4:	0007069b          	sext.w	a3,a4
   159f8:	10e12c23          	sw	a4,280(sp)
   159fc:	f23e                	sd	a5,288(sp)
   159fe:	471d                	li	a4,7
   15a00:	6ed74063          	blt	a4,a3,0x160e0
   15a04:	7702                	ld	a4,32(sp)
   15a06:	fff70c1b          	addiw	s8,a4,-1
   15a0a:	81805de3          	blez	s8,0x15224
   15a0e:	11812703          	lw	a4,280(sp)
   15a12:	018d5de3          	bge	s10,s8,0x1622c
   15a16:	4c9d                	li	s9,7
   15a18:	a021                	j	0x15a20
   15a1a:	3c41                	addiw	s8,s8,-16
   15a1c:	018d58e3          	bge	s10,s8,0x1622c
   15a20:	2705                	addiw	a4,a4,1
   15a22:	07c1                	addi	a5,a5,16
   15a24:	01233023          	sd	s2,0(t1)
   15a28:	01a33423          	sd	s10,8(t1)
   15a2c:	f23e                	sd	a5,288(sp)
   15a2e:	10e12c23          	sw	a4,280(sp)
   15a32:	0341                	addi	t1,t1,16
   15a34:	feecd3e3          	bge	s9,a4,0x15a1a
   15a38:	0a10                	addi	a2,sp,272
   15a3a:	85d2                	mv	a1,s4
   15a3c:	8556                	mv	a0,s5
   15a3e:	8a9fe0ef          	jal	ra,0x142e6
   15a42:	12051163          	bnez	a0,0x15b64
   15a46:	7792                	ld	a5,288(sp)
   15a48:	11812703          	lw	a4,280(sp)
   15a4c:	835e                	mv	t1,s7
   15a4e:	b7f1                	j	0x15a1a
   15a50:	413b06bb          	subw	a3,s6,s3
   15a54:	f8d05f63          	blez	a3,0x151f2
   15a58:	11812703          	lw	a4,280(sp)
   15a5c:	04dd5563          	bge	s10,a3,0x15aa6
   15a60:	489d                	li	a7,7
   15a62:	a021                	j	0x15a6a
   15a64:	36c1                	addiw	a3,a3,-16
   15a66:	04dd5063          	bge	s10,a3,0x15aa6
   15a6a:	2705                	addiw	a4,a4,1
   15a6c:	07c1                	addi	a5,a5,16
   15a6e:	01233023          	sd	s2,0(t1)
   15a72:	01a33423          	sd	s10,8(t1)
   15a76:	f23e                	sd	a5,288(sp)
   15a78:	10e12c23          	sw	a4,280(sp)
   15a7c:	0341                	addi	t1,t1,16
   15a7e:	fee8d3e3          	bge	a7,a4,0x15a64
   15a82:	0a10                	addi	a2,sp,272
   15a84:	85d2                	mv	a1,s4
   15a86:	8556                	mv	a0,s5
   15a88:	f836                	sd	a3,48(sp)
   15a8a:	e476                	sd	t4,8(sp)
   15a8c:	85bfe0ef          	jal	ra,0x142e6
   15a90:	e971                	bnez	a0,0x15b64
   15a92:	76c2                	ld	a3,48(sp)
   15a94:	7792                	ld	a5,288(sp)
   15a96:	11812703          	lw	a4,280(sp)
   15a9a:	36c1                	addiw	a3,a3,-16
   15a9c:	6ea2                	ld	t4,8(sp)
   15a9e:	835e                	mv	t1,s7
   15aa0:	489d                	li	a7,7
   15aa2:	fcdd44e3          	blt	s10,a3,0x15a6a
   15aa6:	2705                	addiw	a4,a4,1
   15aa8:	97b6                	add	a5,a5,a3
   15aaa:	00d33423          	sd	a3,8(t1)
   15aae:	01233023          	sd	s2,0(t1)
   15ab2:	0007069b          	sext.w	a3,a4
   15ab6:	10e12c23          	sw	a4,280(sp)
   15aba:	f23e                	sd	a5,288(sp)
   15abc:	471d                	li	a4,7
   15abe:	0341                	addi	t1,t1,16
   15ac0:	f2d75963          	bge	a4,a3,0x151f2
   15ac4:	0a10                	addi	a2,sp,272
   15ac6:	85d2                	mv	a1,s4
   15ac8:	8556                	mv	a0,s5
   15aca:	e476                	sd	t4,8(sp)
   15acc:	81bfe0ef          	jal	ra,0x142e6
   15ad0:	e951                	bnez	a0,0x15b64
   15ad2:	7792                	ld	a5,288(sp)
   15ad4:	6ea2                	ld	t4,8(sp)
   15ad6:	835e                	mv	t1,s7
   15ad8:	f1aff06f          	j	0x151f2
   15adc:	11812703          	lw	a4,280(sp)
   15ae0:	05dd5363          	bge	s10,t4,0x15b26
   15ae4:	489d                	li	a7,7
   15ae6:	a021                	j	0x15aee
   15ae8:	3ec1                	addiw	t4,t4,-16
   15aea:	03dd5e63          	bge	s10,t4,0x15b26
   15aee:	2705                	addiw	a4,a4,1
   15af0:	07c1                	addi	a5,a5,16
   15af2:	01233023          	sd	s2,0(t1)
   15af6:	01a33423          	sd	s10,8(t1)
   15afa:	f23e                	sd	a5,288(sp)
   15afc:	10e12c23          	sw	a4,280(sp)
   15b00:	0341                	addi	t1,t1,16
   15b02:	fee8d3e3          	bge	a7,a4,0x15ae8
   15b06:	0a10                	addi	a2,sp,272
   15b08:	85d2                	mv	a1,s4
   15b0a:	8556                	mv	a0,s5
   15b0c:	e476                	sd	t4,8(sp)
   15b0e:	fd8fe0ef          	jal	ra,0x142e6
   15b12:	e929                	bnez	a0,0x15b64
   15b14:	6ea2                	ld	t4,8(sp)
   15b16:	7792                	ld	a5,288(sp)
   15b18:	11812703          	lw	a4,280(sp)
   15b1c:	3ec1                	addiw	t4,t4,-16
   15b1e:	835e                	mv	t1,s7
   15b20:	489d                	li	a7,7
   15b22:	fddd46e3          	blt	s10,t4,0x15aee
   15b26:	0017069b          	addiw	a3,a4,1
   15b2a:	97f6                	add	a5,a5,t4
   15b2c:	01233023          	sd	s2,0(t1)
   15b30:	01d33423          	sd	t4,8(t1)
   15b34:	f23e                	sd	a5,288(sp)
   15b36:	10d12c23          	sw	a3,280(sp)
   15b3a:	471d                	li	a4,7
   15b3c:	0341                	addi	t1,t1,16
   15b3e:	ead75e63          	bge	a4,a3,0x151fa
   15b42:	0a10                	addi	a2,sp,272
   15b44:	85d2                	mv	a1,s4
   15b46:	8556                	mv	a0,s5
   15b48:	f9efe0ef          	jal	ra,0x142e6
   15b4c:	ed01                	bnez	a0,0x15b64
   15b4e:	7792                	ld	a5,288(sp)
   15b50:	835e                	mv	t1,s7
   15b52:	ea8ff06f          	j	0x151fa
   15b56:	0a10                	addi	a2,sp,272
   15b58:	85d2                	mv	a1,s4
   15b5a:	8556                	mv	a0,s5
   15b5c:	f8afe0ef          	jal	ra,0x142e6
   15b60:	ee050163          	beqz	a0,0x15242
   15b64:	67e2                	ld	a5,24(sp)
   15b66:	f0078063          	beqz	a5,0x15266
   15b6a:	85be                	mv	a1,a5
   15b6c:	8556                	mv	a0,s5
   15b6e:	289010ef          	jal	ra,0x175f6
   15b72:	ef4ff06f          	j	0x15266
   15b76:	11812603          	lw	a2,280(sp)
   15b7a:	00178d93          	addi	s11,a5,1
   15b7e:	7782                	ld	a5,32(sp)
   15b80:	0016071b          	addiw	a4,a2,1
   15b84:	4585                	li	a1,1
   15b86:	01933023          	sd	s9,0(t1)
   15b8a:	86ba                	mv	a3,a4
   15b8c:	01030c13          	addi	s8,t1,16
   15b90:	32f5d863          	bge	a1,a5,0x15ec0
   15b94:	4605                	li	a2,1
   15b96:	10d12c23          	sw	a3,280(sp)
   15b9a:	00c33423          	sd	a2,8(t1)
   15b9e:	f26e                	sd	s11,288(sp)
   15ba0:	469d                	li	a3,7
   15ba2:	5ce6c463          	blt	a3,a4,0x1616a
   15ba6:	77c6                	ld	a5,112(sp)
   15ba8:	0017069b          	addiw	a3,a4,1
   15bac:	7766                	ld	a4,120(sp)
   15bae:	9dbe                	add	s11,s11,a5
   15bb0:	00fc3423          	sd	a5,8(s8)
   15bb4:	00ec3023          	sd	a4,0(s8)
   15bb8:	10d12c23          	sw	a3,280(sp)
   15bbc:	0006871b          	sext.w	a4,a3
   15bc0:	f26e                	sd	s11,288(sp)
   15bc2:	469d                	li	a3,7
   15bc4:	0c41                	addi	s8,s8,16
   15bc6:	5ae6ce63          	blt	a3,a4,0x16182
   15bca:	6512                	ld	a0,256(sp)
   15bcc:	65b2                	ld	a1,264(sp)
   15bce:	0017089b          	addiw	a7,a4,1
   15bd2:	4601                	li	a2,0
   15bd4:	4681                	li	a3,0
   15bd6:	e446                	sd	a7,8(sp)
   15bd8:	f83a                	sd	a4,48(sp)
   15bda:	3bc090ef          	jal	ra,0x1ef96
   15bde:	68a2                	ld	a7,8(sp)
   15be0:	7782                	ld	a5,32(sp)
   15be2:	010c0313          	addi	t1,s8,16
   15be6:	0008861b          	sext.w	a2,a7
   15bea:	fff7869b          	addiw	a3,a5,-1
   15bee:	2e050963          	beqz	a0,0x15ee0
   15bf2:	9db6                	add	s11,s11,a3
   15bf4:	001c8813          	addi	a6,s9,1
   15bf8:	00dc3423          	sd	a3,8(s8)
   15bfc:	010c3023          	sd	a6,0(s8)
   15c00:	f26e                	sd	s11,288(sp)
   15c02:	11112c23          	sw	a7,280(sp)
   15c06:	469d                	li	a3,7
   15c08:	44c6c763          	blt	a3,a2,0x16056
   15c0c:	7742                	ld	a4,48(sp)
   15c0e:	020c0693          	addi	a3,s8,32
   15c12:	8c1a                	mv	s8,t1
   15c14:	0027061b          	addiw	a2,a4,2
   15c18:	8336                	mv	t1,a3
   15c1a:	668a                	ld	a3,128(sp)
   15c1c:	1998                	addi	a4,sp,240
   15c1e:	00ec3023          	sd	a4,0(s8)
   15c22:	00dd87b3          	add	a5,s11,a3
   15c26:	00dc3423          	sd	a3,8(s8)
   15c2a:	f23e                	sd	a5,288(sp)
   15c2c:	10c12c23          	sw	a2,280(sp)
   15c30:	471d                	li	a4,7
   15c32:	dec75963          	bge	a4,a2,0x15224
   15c36:	bc2d                	j	0x15670
   15c38:	4705                	li	a4,1
   15c3a:	8826                	mv	a6,s1
   15c3c:	aae790e3          	bne	a5,a4,0x156dc
   15c40:	47a5                	li	a5,9
   15c42:	3737e163          	bltu	a5,s3,0x15fa4
   15c46:	0309899b          	addiw	s3,s3,48
   15c4a:	193105a3          	sb	s3,395(sp)
   15c4e:	84c2                	mv	s1,a6
   15c50:	4c05                	li	s8,1
   15c52:	18b10c93          	addi	s9,sp,395
   15c56:	ed6ff06f          	j	0x1532c
   15c5a:	11812703          	lw	a4,280(sp)
   15c5e:	0000b897          	auipc	a7,0xb
   15c62:	3ca88893          	addi	a7,a7,970 # 0x21028
   15c66:	439d                	li	t2,7
   15c68:	00dd4663          	blt	s10,a3,0x15c74
   15c6c:	a889                	j	0x15cbe
   15c6e:	36c1                	addiw	a3,a3,-16
   15c70:	04dd5763          	bge	s10,a3,0x15cbe
   15c74:	2705                	addiw	a4,a4,1
   15c76:	07c1                	addi	a5,a5,16
   15c78:	01133023          	sd	a7,0(t1)
   15c7c:	01a33423          	sd	s10,8(t1)
   15c80:	f23e                	sd	a5,288(sp)
   15c82:	10e12c23          	sw	a4,280(sp)
   15c86:	0341                	addi	t1,t1,16
   15c88:	fee3d3e3          	bge	t2,a4,0x15c6e
   15c8c:	0a10                	addi	a2,sp,272
   15c8e:	85d2                	mv	a1,s4
   15c90:	8556                	mv	a0,s5
   15c92:	e4c6                	sd	a7,72(sp)
   15c94:	e0f6                	sd	t4,64(sp)
   15c96:	fc7e                	sd	t6,56(sp)
   15c98:	f816                	sd	t0,48(sp)
   15c9a:	e436                	sd	a3,8(sp)
   15c9c:	e4afe0ef          	jal	ra,0x142e6
   15ca0:	ec0512e3          	bnez	a0,0x15b64
   15ca4:	66a2                	ld	a3,8(sp)
   15ca6:	7792                	ld	a5,288(sp)
   15ca8:	11812703          	lw	a4,280(sp)
   15cac:	36c1                	addiw	a3,a3,-16
   15cae:	68a6                	ld	a7,72(sp)
   15cb0:	6e86                	ld	t4,64(sp)
   15cb2:	7fe2                	ld	t6,56(sp)
   15cb4:	72c2                	ld	t0,48(sp)
   15cb6:	835e                	mv	t1,s7
   15cb8:	439d                	li	t2,7
   15cba:	fadd4de3          	blt	s10,a3,0x15c74
   15cbe:	2705                	addiw	a4,a4,1
   15cc0:	97b6                	add	a5,a5,a3
   15cc2:	00d33423          	sd	a3,8(t1)
   15cc6:	01133023          	sd	a7,0(t1)
   15cca:	0007069b          	sext.w	a3,a4
   15cce:	10e12c23          	sw	a4,280(sp)
   15cd2:	f23e                	sd	a5,288(sp)
   15cd4:	471d                	li	a4,7
   15cd6:	0341                	addi	t1,t1,16
   15cd8:	cad75d63          	bge	a4,a3,0x15192
   15cdc:	0a10                	addi	a2,sp,272
   15cde:	85d2                	mv	a1,s4
   15ce0:	8556                	mv	a0,s5
   15ce2:	fc76                	sd	t4,56(sp)
   15ce4:	f87e                	sd	t6,48(sp)
   15ce6:	e416                	sd	t0,8(sp)
   15ce8:	dfefe0ef          	jal	ra,0x142e6
   15cec:	e6051ce3          	bnez	a0,0x15b64
   15cf0:	7792                	ld	a5,288(sp)
   15cf2:	7ee2                	ld	t4,56(sp)
   15cf4:	7fc2                	ld	t6,48(sp)
   15cf6:	62a2                	ld	t0,8(sp)
   15cf8:	835e                	mv	t1,s7
   15cfa:	c98ff06f          	j	0x15192
   15cfe:	0a10                	addi	a2,sp,272
   15d00:	85d2                	mv	a1,s4
   15d02:	8556                	mv	a0,s5
   15d04:	f876                	sd	t4,48(sp)
   15d06:	e47e                	sd	t6,8(sp)
   15d08:	ddefe0ef          	jal	ra,0x142e6
   15d0c:	e4051ce3          	bnez	a0,0x15b64
   15d10:	7792                	ld	a5,288(sp)
   15d12:	7ec2                	ld	t4,48(sp)
   15d14:	6fa2                	ld	t6,8(sp)
   15d16:	835e                	mv	t1,s7
   15d18:	cd2ff06f          	j	0x151ea
   15d1c:	11812703          	lw	a4,280(sp)
   15d20:	0000b897          	auipc	a7,0xb
   15d24:	30888893          	addi	a7,a7,776 # 0x21028
   15d28:	4c1d                	li	s8,7
   15d2a:	009d4663          	blt	s10,s1,0x15d36
   15d2e:	a081                	j	0x15d6e
   15d30:	34c1                	addiw	s1,s1,-16
   15d32:	029d5e63          	bge	s10,s1,0x15d6e
   15d36:	2705                	addiw	a4,a4,1
   15d38:	07c1                	addi	a5,a5,16
   15d3a:	01133023          	sd	a7,0(t1)
   15d3e:	01a33423          	sd	s10,8(t1)
   15d42:	f23e                	sd	a5,288(sp)
   15d44:	10e12c23          	sw	a4,280(sp)
   15d48:	0341                	addi	t1,t1,16
   15d4a:	feec53e3          	bge	s8,a4,0x15d30
   15d4e:	0a10                	addi	a2,sp,272
   15d50:	85d2                	mv	a1,s4
   15d52:	8556                	mv	a0,s5
   15d54:	e446                	sd	a7,8(sp)
   15d56:	d90fe0ef          	jal	ra,0x142e6
   15d5a:	e00515e3          	bnez	a0,0x15b64
   15d5e:	34c1                	addiw	s1,s1,-16
   15d60:	7792                	ld	a5,288(sp)
   15d62:	11812703          	lw	a4,280(sp)
   15d66:	68a2                	ld	a7,8(sp)
   15d68:	835e                	mv	t1,s7
   15d6a:	fc9d46e3          	blt	s10,s1,0x15d36
   15d6e:	0017069b          	addiw	a3,a4,1
   15d72:	97a6                	add	a5,a5,s1
   15d74:	01133023          	sd	a7,0(t1)
   15d78:	00933423          	sd	s1,8(t1)
   15d7c:	f23e                	sd	a5,288(sp)
   15d7e:	10d12c23          	sw	a3,280(sp)
   15d82:	471d                	li	a4,7
   15d84:	cad75663          	bge	a4,a3,0x15230
   15d88:	0a10                	addi	a2,sp,272
   15d8a:	85d2                	mv	a1,s4
   15d8c:	8556                	mv	a0,s5
   15d8e:	d58fe0ef          	jal	ra,0x142e6
   15d92:	dc0519e3          	bnez	a0,0x15b64
   15d96:	7792                	ld	a5,288(sp)
   15d98:	c98ff06f          	j	0x15230
   15d9c:	562e                	lw	a2,232(sp)
   15d9e:	3ec05e63          	blez	a2,0x1619a
   15da2:	6766                	ld	a4,88(sp)
   15da4:	7682                	ld	a3,32(sp)
   15da6:	00070c1b          	sext.w	s8,a4
   15daa:	28e6c263          	blt	a3,a4,0x1602e
   15dae:	03805263          	blez	s8,0x15dd2
   15db2:	11812703          	lw	a4,280(sp)
   15db6:	97e2                	add	a5,a5,s8
   15db8:	01933023          	sd	s9,0(t1)
   15dbc:	0017069b          	addiw	a3,a4,1
   15dc0:	01833423          	sd	s8,8(t1)
   15dc4:	f23e                	sd	a5,288(sp)
   15dc6:	10d12c23          	sw	a3,280(sp)
   15dca:	471d                	li	a4,7
   15dcc:	0341                	addi	t1,t1,16
   15dce:	6ed74d63          	blt	a4,a3,0x164c8
   15dd2:	fffc4713          	not	a4,s8
   15dd6:	977d                	srai	a4,a4,0x3f
   15dd8:	00ec7c33          	and	s8,s8,a4
   15ddc:	6766                	ld	a4,88(sp)
   15dde:	41870c3b          	subw	s8,a4,s8
   15de2:	33804c63          	bgtz	s8,0x1611a
   15de6:	66e6                	ld	a3,88(sp)
   15de8:	4004f713          	andi	a4,s1,1024
   15dec:	00dc8db3          	add	s11,s9,a3
   15df0:	54071f63          	bnez	a4,0x1634e
   15df4:	572e                	lw	a4,232(sp)
   15df6:	7682                	ld	a3,32(sp)
   15df8:	00d74663          	blt	a4,a3,0x15e04
   15dfc:	0014f693          	andi	a3,s1,1
   15e00:	6e068063          	beqz	a3,0x164e0
   15e04:	76e6                	ld	a3,120(sp)
   15e06:	7646                	ld	a2,112(sp)
   15e08:	0341                	addi	t1,t1,16
   15e0a:	fed33823          	sd	a3,-16(t1)
   15e0e:	11812683          	lw	a3,280(sp)
   15e12:	97b2                	add	a5,a5,a2
   15e14:	fec33c23          	sd	a2,-8(t1)
   15e18:	2685                	addiw	a3,a3,1
   15e1a:	0006861b          	sext.w	a2,a3
   15e1e:	10d12c23          	sw	a3,280(sp)
   15e22:	f23e                	sd	a5,288(sp)
   15e24:	469d                	li	a3,7
   15e26:	22c6c7e3          	blt	a3,a2,0x16854
   15e2a:	7682                	ld	a3,32(sp)
   15e2c:	00dc8633          	add	a2,s9,a3
   15e30:	40e6873b          	subw	a4,a3,a4
   15e34:	41b6063b          	subw	a2,a2,s11
   15e38:	0007069b          	sext.w	a3,a4
   15e3c:	00d65363          	bge	a2,a3,0x15e42
   15e40:	8732                	mv	a4,a2
   15e42:	00070c9b          	sext.w	s9,a4
   15e46:	03905263          	blez	s9,0x15e6a
   15e4a:	11812603          	lw	a2,280(sp)
   15e4e:	97e6                	add	a5,a5,s9
   15e50:	01b33023          	sd	s11,0(t1)
   15e54:	0016059b          	addiw	a1,a2,1
   15e58:	01933423          	sd	s9,8(t1)
   15e5c:	f23e                	sd	a5,288(sp)
   15e5e:	10b12c23          	sw	a1,280(sp)
   15e62:	461d                	li	a2,7
   15e64:	0341                	addi	t1,t1,16
   15e66:	26b644e3          	blt	a2,a1,0x168ce
   15e6a:	fffccc13          	not	s8,s9
   15e6e:	43fc5c13          	srai	s8,s8,0x3f
   15e72:	018cfc33          	and	s8,s9,s8
   15e76:	41868c3b          	subw	s8,a3,s8
   15e7a:	bb805563          	blez	s8,0x15224
   15e7e:	11812703          	lw	a4,280(sp)
   15e82:	3b8d5563          	bge	s10,s8,0x1622c
   15e86:	4c9d                	li	s9,7
   15e88:	a021                	j	0x15e90
   15e8a:	3c41                	addiw	s8,s8,-16
   15e8c:	3b8d5063          	bge	s10,s8,0x1622c
   15e90:	2705                	addiw	a4,a4,1
   15e92:	07c1                	addi	a5,a5,16
   15e94:	01233023          	sd	s2,0(t1)
   15e98:	01a33423          	sd	s10,8(t1)
   15e9c:	f23e                	sd	a5,288(sp)
   15e9e:	10e12c23          	sw	a4,280(sp)
   15ea2:	0341                	addi	t1,t1,16
   15ea4:	feecd3e3          	bge	s9,a4,0x15e8a
   15ea8:	0a10                	addi	a2,sp,272
   15eaa:	85d2                	mv	a1,s4
   15eac:	8556                	mv	a0,s5
   15eae:	c38fe0ef          	jal	ra,0x142e6
   15eb2:	ca0519e3          	bnez	a0,0x15b64
   15eb6:	7792                	ld	a5,288(sp)
   15eb8:	11812703          	lw	a4,280(sp)
   15ebc:	835e                	mv	t1,s7
   15ebe:	b7f1                	j	0x15e8a
   15ec0:	0014f513          	andi	a0,s1,1
   15ec4:	cc0518e3          	bnez	a0,0x15b94
   15ec8:	00b33423          	sd	a1,8(t1)
   15ecc:	f26e                	sd	s11,288(sp)
   15ece:	10e12c23          	sw	a4,280(sp)
   15ed2:	469d                	li	a3,7
   15ed4:	18e6c163          	blt	a3,a4,0x16056
   15ed8:	2609                	addiw	a2,a2,2
   15eda:	02030313          	addi	t1,t1,32
   15ede:	bb35                	j	0x15c1a
   15ee0:	d2d05de3          	blez	a3,0x15c1a
   15ee4:	4cdd50e3          	bge	s10,a3,0x16ba4
   15ee8:	4c9d                	li	s9,7
   15eea:	a031                	j	0x15ef6
   15eec:	36c1                	addiw	a3,a3,-16
   15eee:	14dd5563          	bge	s10,a3,0x16038
   15ef2:	0017089b          	addiw	a7,a4,1
   15ef6:	0dc1                	addi	s11,s11,16
   15ef8:	012c3023          	sd	s2,0(s8)
   15efc:	01ac3423          	sd	s10,8(s8)
   15f00:	f26e                	sd	s11,288(sp)
   15f02:	0008871b          	sext.w	a4,a7
   15f06:	11112c23          	sw	a7,280(sp)
   15f0a:	0c41                	addi	s8,s8,16
   15f0c:	feecd0e3          	bge	s9,a4,0x15eec
   15f10:	0a10                	addi	a2,sp,272
   15f12:	85d2                	mv	a1,s4
   15f14:	8556                	mv	a0,s5
   15f16:	e436                	sd	a3,8(sp)
   15f18:	bcefe0ef          	jal	ra,0x142e6
   15f1c:	c40514e3          	bnez	a0,0x15b64
   15f20:	7d92                	ld	s11,288(sp)
   15f22:	11812703          	lw	a4,280(sp)
   15f26:	66a2                	ld	a3,8(sp)
   15f28:	8c5e                	mv	s8,s7
   15f2a:	b7c9                	j	0x15eec
   15f2c:	01087793          	andi	a5,a6,16
   15f30:	eb8d                	bnez	a5,0x15f62
   15f32:	66c2                	ld	a3,16(sp)
   15f34:	04087793          	andi	a5,a6,64
   15f38:	0006a983          	lw	s3,0(a3)
   15f3c:	36078c63          	beqz	a5,0x162b4
   15f40:	19c2                	slli	s3,s3,0x30
   15f42:	0309d993          	srli	s3,s3,0x30
   15f46:	e83a                	sd	a4,16(sp)
   15f48:	4785                	li	a5,1
   15f4a:	c26ff06f          	j	0x15370
   15f4e:	0014f713          	andi	a4,s1,1
   15f52:	ac070963          	beqz	a4,0x15224
   15f56:	b461                	j	0x159de
   15f58:	6782                	ld	a5,0(sp)
   15f5a:	8ca2                	mv	s9,s0
   15f5c:	e31c                	sd	a5,0(a4)
   15f5e:	af8ff06f          	j	0x15256
   15f62:	67c2                	ld	a5,16(sp)
   15f64:	e83a                	sd	a4,16(sp)
   15f66:	0007b983          	ld	s3,0(a5)
   15f6a:	4785                	li	a5,1
   15f6c:	c04ff06f          	j	0x15370
   15f70:	67c2                	ld	a5,16(sp)
   15f72:	639c                	ld	a5,0(a5)
   15f74:	89be                	mv	s3,a5
   15f76:	b90ff06f          	j	0x15306
   15f7a:	67c2                	ld	a5,16(sp)
   15f7c:	0007b983          	ld	s3,0(a5)
   15f80:	be4ff06f          	j	0x15364
   15f84:	67c2                	ld	a5,16(sp)
   15f86:	07bd                	addi	a5,a5,15
   15f88:	9bc1                	andi	a5,a5,-16
   15f8a:	6394                	ld	a3,0(a5)
   15f8c:	6798                	ld	a4,8(a5)
   15f8e:	07c1                	addi	a5,a5,16
   15f90:	e83e                	sd	a5,16(sp)
   15f92:	e236                	sd	a3,256(sp)
   15f94:	e63a                	sd	a4,264(sp)
   15f96:	c50ff06f          	j	0x153e6
   15f9a:	e83a                	sd	a4,16(sp)
   15f9c:	47a5                	li	a5,9
   15f9e:	8826                	mv	a6,s1
   15fa0:	cb37f3e3          	bgeu	a5,s3,0x15c46
   15fa4:	40087793          	andi	a5,a6,1024
   15fa8:	18c10c13          	addi	s8,sp,396
   15fac:	2781                	sext.w	a5,a5
   15fae:	f002                	sd	zero,32(sp)
   15fb0:	85e2                	mv	a1,s8
   15fb2:	44a9                	li	s1,10
   15fb4:	4725                	li	a4,9
   15fb6:	0ff00693          	li	a3,255
   15fba:	a039                	j	0x15fc8
   15fbc:	0299d633          	divu	a2,s3,s1
   15fc0:	9d3771e3          	bgeu	a4,s3,0x15982
   15fc4:	89b2                	mv	s3,a2
   15fc6:	85e6                	mv	a1,s9
   15fc8:	7502                	ld	a0,32(sp)
   15fca:	fff58c93          	addi	s9,a1,-1
   15fce:	2505                	addiw	a0,a0,1
   15fd0:	f02a                	sd	a0,32(sp)
   15fd2:	0299f633          	remu	a2,s3,s1
   15fd6:	0306061b          	addiw	a2,a2,48
   15fda:	fec58fa3          	sb	a2,-1(a1)
   15fde:	dff9                	beqz	a5,0x15fbc
   15fe0:	7626                	ld	a2,104(sp)
   15fe2:	00064603          	lbu	a2,0(a2)
   15fe6:	fcc51be3          	bne	a0,a2,0x15fbc
   15fea:	fcd609e3          	beq	a2,a3,0x15fbc
   15fee:	99377ae3          	bgeu	a4,s3,0x15982
   15ff2:	fc3e                	sd	a5,56(sp)
   15ff4:	67aa                	ld	a5,136(sp)
   15ff6:	65ca                	ld	a1,144(sp)
   15ff8:	f81a                	sd	t1,48(sp)
   15ffa:	40fc8cb3          	sub	s9,s9,a5
   15ffe:	863e                	mv	a2,a5
   16000:	8566                	mv	a0,s9
   16002:	ec76                	sd	t4,24(sp)
   16004:	e442                	sd	a6,8(sp)
   16006:	04e060ef          	jal	ra,0x1c054
   1600a:	77a6                	ld	a5,104(sp)
   1600c:	0299d633          	divu	a2,s3,s1
   16010:	6822                	ld	a6,8(sp)
   16012:	0017c583          	lbu	a1,1(a5)
   16016:	6ee2                	ld	t4,24(sp)
   16018:	7342                	ld	t1,48(sp)
   1601a:	00b035b3          	snez	a1,a1
   1601e:	97ae                	add	a5,a5,a1
   16020:	f4be                	sd	a5,104(sp)
   16022:	f002                	sd	zero,32(sp)
   16024:	77e2                	ld	a5,56(sp)
   16026:	4725                	li	a4,9
   16028:	0ff00693          	li	a3,255
   1602c:	bf61                	j	0x15fc4
   1602e:	00068c1b          	sext.w	s8,a3
   16032:	d98040e3          	bgtz	s8,0x15db2
   16036:	bb71                	j	0x15dd2
   16038:	0017061b          	addiw	a2,a4,1
   1603c:	010c0713          	addi	a4,s8,16
   16040:	9db6                	add	s11,s11,a3
   16042:	00dc3423          	sd	a3,8(s8)
   16046:	012c3023          	sd	s2,0(s8)
   1604a:	f26e                	sd	s11,288(sp)
   1604c:	10c12c23          	sw	a2,280(sp)
   16050:	469d                	li	a3,7
   16052:	44c6d563          	bge	a3,a2,0x1649c
   16056:	0a10                	addi	a2,sp,272
   16058:	85d2                	mv	a1,s4
   1605a:	8556                	mv	a0,s5
   1605c:	a8afe0ef          	jal	ra,0x142e6
   16060:	b00512e3          	bnez	a0,0x15b64
   16064:	11812603          	lw	a2,280(sp)
   16068:	7d92                	ld	s11,288(sp)
   1606a:	1a010313          	addi	t1,sp,416
   1606e:	2605                	addiw	a2,a2,1
   16070:	8c5e                	mv	s8,s7
   16072:	b665                	j	0x15c1a
   16074:	8826                	mv	a6,s1
   16076:	825ff06f          	j	0x1589a
   1607a:	0000b797          	auipc	a5,0xb
   1607e:	c6678793          	addi	a5,a5,-922 # 0x20ce0
   16082:	f43e                	sd	a5,40(sp)
   16084:	66c2                	ld	a3,16(sp)
   16086:	0204f793          	andi	a5,s1,32
   1608a:	00868713          	addi	a4,a3,8
   1608e:	c7f9                	beqz	a5,0x1615c
   16090:	0006b983          	ld	s3,0(a3)
   16094:	0014f793          	andi	a5,s1,1
   16098:	cf81                	beqz	a5,0x160b0
   1609a:	00098b63          	beqz	s3,0x160b0
   1609e:	0024e493          	ori	s1,s1,2
   160a2:	03000793          	li	a5,48
   160a6:	0ef10023          	sb	a5,224(sp)
   160aa:	0fb100a3          	sb	s11,225(sp)
   160ae:	2481                	sext.w	s1,s1
   160b0:	bff4f493          	andi	s1,s1,-1025
   160b4:	0004881b          	sext.w	a6,s1
   160b8:	e83a                	sd	a4,16(sp)
   160ba:	4789                	li	a5,2
   160bc:	ab4ff06f          	j	0x15370
   160c0:	2004e493          	ori	s1,s1,512
   160c4:	00144f03          	lbu	t5,1(s0)
   160c8:	2481                	sext.w	s1,s1
   160ca:	0405                	addi	s0,s0,1
   160cc:	82cff06f          	j	0x150f8
   160d0:	0204e493          	ori	s1,s1,32
   160d4:	00144f03          	lbu	t5,1(s0)
   160d8:	2481                	sext.w	s1,s1
   160da:	0405                	addi	s0,s0,1
   160dc:	81cff06f          	j	0x150f8
   160e0:	0a10                	addi	a2,sp,272
   160e2:	85d2                	mv	a1,s4
   160e4:	8556                	mv	a0,s5
   160e6:	a00fe0ef          	jal	ra,0x142e6
   160ea:	a6051de3          	bnez	a0,0x15b64
   160ee:	7792                	ld	a5,288(sp)
   160f0:	835e                	mv	t1,s7
   160f2:	ba09                	j	0x15a04
   160f4:	0000b797          	auipc	a5,0xb
   160f8:	bd478793          	addi	a5,a5,-1068 # 0x20cc8
   160fc:	f43e                	sd	a5,40(sp)
   160fe:	b759                	j	0x16084
   16100:	4799                	li	a5,6
   16102:	000e8c1b          	sext.w	s8,t4
   16106:	3dd7eb63          	bltu	a5,t4,0x164dc
   1610a:	89e2                	mv	s3,s8
   1610c:	e836                	sd	a3,16(sp)
   1610e:	0000bc97          	auipc	s9,0xb
   16112:	beac8c93          	addi	s9,s9,-1046 # 0x20cf8
   16116:	854ff06f          	j	0x1516a
   1611a:	11812703          	lw	a4,280(sp)
   1611e:	218d5063          	bge	s10,s8,0x1631e
   16122:	4d9d                	li	s11,7
   16124:	a021                	j	0x1612c
   16126:	3c41                	addiw	s8,s8,-16
   16128:	1f8d5b63          	bge	s10,s8,0x1631e
   1612c:	2705                	addiw	a4,a4,1
   1612e:	07c1                	addi	a5,a5,16
   16130:	01233023          	sd	s2,0(t1)
   16134:	01a33423          	sd	s10,8(t1)
   16138:	f23e                	sd	a5,288(sp)
   1613a:	10e12c23          	sw	a4,280(sp)
   1613e:	0341                	addi	t1,t1,16
   16140:	feedd3e3          	bge	s11,a4,0x16126
   16144:	0a10                	addi	a2,sp,272
   16146:	85d2                	mv	a1,s4
   16148:	8556                	mv	a0,s5
   1614a:	99cfe0ef          	jal	ra,0x142e6
   1614e:	a0051be3          	bnez	a0,0x15b64
   16152:	7792                	ld	a5,288(sp)
   16154:	11812703          	lw	a4,280(sp)
   16158:	835e                	mv	t1,s7
   1615a:	b7f1                	j	0x16126
   1615c:	0104f793          	andi	a5,s1,16
   16160:	c3cd                	beqz	a5,0x16202
   16162:	67c2                	ld	a5,16(sp)
   16164:	0007b983          	ld	s3,0(a5)
   16168:	b735                	j	0x16094
   1616a:	0a10                	addi	a2,sp,272
   1616c:	85d2                	mv	a1,s4
   1616e:	8556                	mv	a0,s5
   16170:	976fe0ef          	jal	ra,0x142e6
   16174:	9e0518e3          	bnez	a0,0x15b64
   16178:	7d92                	ld	s11,288(sp)
   1617a:	11812703          	lw	a4,280(sp)
   1617e:	8c5e                	mv	s8,s7
   16180:	b41d                	j	0x15ba6
   16182:	0a10                	addi	a2,sp,272
   16184:	85d2                	mv	a1,s4
   16186:	8556                	mv	a0,s5
   16188:	95efe0ef          	jal	ra,0x142e6
   1618c:	9c051ce3          	bnez	a0,0x15b64
   16190:	7d92                	ld	s11,288(sp)
   16192:	11812703          	lw	a4,280(sp)
   16196:	8c5e                	mv	s8,s7
   16198:	bc0d                	j	0x15bca
   1619a:	11812703          	lw	a4,280(sp)
   1619e:	0000b697          	auipc	a3,0xb
   161a2:	d1268693          	addi	a3,a3,-750 # 0x20eb0
   161a6:	00d33023          	sd	a3,0(t1)
   161aa:	2705                	addiw	a4,a4,1
   161ac:	4685                	li	a3,1
   161ae:	0785                	addi	a5,a5,1
   161b0:	00d33423          	sd	a3,8(t1)
   161b4:	10e12c23          	sw	a4,280(sp)
   161b8:	0007069b          	sext.w	a3,a4
   161bc:	f23e                	sd	a5,288(sp)
   161be:	471d                	li	a4,7
   161c0:	0341                	addi	t1,t1,16
   161c2:	2ed74363          	blt	a4,a3,0x164a8
   161c6:	c4061363          	bnez	a2,0x1560c
   161ca:	7682                	ld	a3,32(sp)
   161cc:	0014f713          	andi	a4,s1,1
   161d0:	8f55                	or	a4,a4,a3
   161d2:	e319                	bnez	a4,0x161d8
   161d4:	850ff06f          	j	0x15224
   161d8:	76e6                	ld	a3,120(sp)
   161da:	7746                	ld	a4,112(sp)
   161dc:	00d33023          	sd	a3,0(t1)
   161e0:	11812683          	lw	a3,280(sp)
   161e4:	97ba                	add	a5,a5,a4
   161e6:	00e33423          	sd	a4,8(t1)
   161ea:	2685                	addiw	a3,a3,1
   161ec:	0006871b          	sext.w	a4,a3
   161f0:	10d12c23          	sw	a3,280(sp)
   161f4:	f23e                	sd	a5,288(sp)
   161f6:	469d                	li	a3,7
   161f8:	c2e6cd63          	blt	a3,a4,0x15632
   161fc:	0341                	addi	t1,t1,16
   161fe:	c54ff06f          	j	0x15652
   16202:	66c2                	ld	a3,16(sp)
   16204:	0404f793          	andi	a5,s1,64
   16208:	0006a983          	lw	s3,0(a3)
   1620c:	cbe1                	beqz	a5,0x162dc
   1620e:	19c2                	slli	s3,s3,0x30
   16210:	0309d993          	srli	s3,s3,0x30
   16214:	b541                	j	0x16094
   16216:	0a10                	addi	a2,sp,272
   16218:	85d2                	mv	a1,s4
   1621a:	8556                	mv	a0,s5
   1621c:	8cafe0ef          	jal	ra,0x142e6
   16220:	940512e3          	bnez	a0,0x15b64
   16224:	7792                	ld	a5,288(sp)
   16226:	835e                	mv	t1,s7
   16228:	faeff06f          	j	0x159d6
   1622c:	0017069b          	addiw	a3,a4,1
   16230:	8736                	mv	a4,a3
   16232:	97e2                	add	a5,a5,s8
   16234:	01233023          	sd	s2,0(t1)
   16238:	fdbfe06f          	j	0x15212
   1623c:	6512                	ld	a0,256(sp)
   1623e:	65b2                	ld	a1,264(sp)
   16240:	4601                	li	a2,0
   16242:	4681                	li	a3,0
   16244:	e41a                	sd	t1,8(sp)
   16246:	68d080ef          	jal	ra,0x1f0d2
   1624a:	6322                	ld	t1,8(sp)
   1624c:	54054763          	bltz	a0,0x1679a
   16250:	0df14783          	lbu	a5,223(sp)
   16254:	04700713          	li	a4,71
   16258:	0000bc97          	auipc	s9,0xb
   1625c:	c38c8c93          	addi	s9,s9,-968 # 0x20e90
   16260:	25b74f63          	blt	a4,s11,0x164be
   16264:	f7f4f493          	andi	s1,s1,-129
   16268:	ec02                	sd	zero,24(sp)
   1626a:	e882                	sd	zero,80(sp)
   1626c:	f082                	sd	zero,96(sp)
   1626e:	ec82                	sd	zero,88(sp)
   16270:	2481                	sext.w	s1,s1
   16272:	498d                	li	s3,3
   16274:	4c0d                	li	s8,3
   16276:	4e81                	li	t4,0
   16278:	8c079863          	bnez	a5,0x15348
   1627c:	ef9fe06f          	j	0x15174
   16280:	8566                	mv	a0,s9
   16282:	e41a                	sd	t1,8(sp)
   16284:	e836                	sd	a3,16(sp)
   16286:	d45fc0ef          	jal	ra,0x12fca
   1628a:	00050c1b          	sext.w	s8,a0
   1628e:	fffc4993          	not	s3,s8
   16292:	0df14783          	lbu	a5,223(sp)
   16296:	43f9d993          	srai	s3,s3,0x3f
   1629a:	013c79b3          	and	s3,s8,s3
   1629e:	ec02                	sd	zero,24(sp)
   162a0:	e882                	sd	zero,80(sp)
   162a2:	f082                	sd	zero,96(sp)
   162a4:	ec82                	sd	zero,88(sp)
   162a6:	6322                	ld	t1,8(sp)
   162a8:	2981                	sext.w	s3,s3
   162aa:	4e81                	li	t4,0
   162ac:	88079e63          	bnez	a5,0x15348
   162b0:	ec5fe06f          	j	0x15174
   162b4:	20087793          	andi	a5,a6,512
   162b8:	26078463          	beqz	a5,0x16520
   162bc:	0ff9f993          	andi	s3,s3,255
   162c0:	e83a                	sd	a4,16(sp)
   162c2:	4785                	li	a5,1
   162c4:	8acff06f          	j	0x15370
   162c8:	2004f793          	andi	a5,s1,512
   162cc:	24078463          	beqz	a5,0x16514
   162d0:	67c2                	ld	a5,16(sp)
   162d2:	00078983          	lb	s3,0(a5)
   162d6:	87ce                	mv	a5,s3
   162d8:	82eff06f          	j	0x15306
   162dc:	2004f793          	andi	a5,s1,512
   162e0:	24078763          	beqz	a5,0x1652e
   162e4:	0ff9f993          	andi	s3,s3,255
   162e8:	b375                	j	0x16094
   162ea:	2004f793          	andi	a5,s1,512
   162ee:	20078e63          	beqz	a5,0x1650a
   162f2:	0ff9f993          	andi	s3,s3,255
   162f6:	86eff06f          	j	0x15364
   162fa:	67b2                	ld	a5,264(sp)
   162fc:	2207cd63          	bltz	a5,0x16536
   16300:	0df14783          	lbu	a5,223(sp)
   16304:	04700713          	li	a4,71
   16308:	0000bc97          	auipc	s9,0xb
   1630c:	b98c8c93          	addi	s9,s9,-1128 # 0x20ea0
   16310:	f5b75ae3          	bge	a4,s11,0x16264
   16314:	0000bc97          	auipc	s9,0xb
   16318:	b94c8c93          	addi	s9,s9,-1132 # 0x20ea8
   1631c:	b7a1                	j	0x16264
   1631e:	0017069b          	addiw	a3,a4,1
   16322:	97e2                	add	a5,a5,s8
   16324:	01233023          	sd	s2,0(t1)
   16328:	01833423          	sd	s8,8(t1)
   1632c:	f23e                	sd	a5,288(sp)
   1632e:	10d12c23          	sw	a3,280(sp)
   16332:	471d                	li	a4,7
   16334:	0341                	addi	t1,t1,16
   16336:	aad758e3          	bge	a4,a3,0x15de6
   1633a:	0a10                	addi	a2,sp,272
   1633c:	85d2                	mv	a1,s4
   1633e:	8556                	mv	a0,s5
   16340:	fa7fd0ef          	jal	ra,0x142e6
   16344:	820510e3          	bnez	a0,0x15b64
   16348:	7792                	ld	a5,288(sp)
   1634a:	835e                	mv	t1,s7
   1634c:	bc69                	j	0x15de6
   1634e:	7702                	ld	a4,32(sp)
   16350:	4c1d                	li	s8,7
   16352:	9766                	add	a4,a4,s9
   16354:	f83a                	sd	a4,48(sp)
   16356:	7706                	ld	a4,96(sp)
   16358:	cb49                	beqz	a4,0x163ea
   1635a:	6746                	ld	a4,80(sp)
   1635c:	eb51                	bnez	a4,0x163f0
   1635e:	7726                	ld	a4,104(sp)
   16360:	177d                	addi	a4,a4,-1
   16362:	f4ba                	sd	a4,104(sp)
   16364:	7706                	ld	a4,96(sp)
   16366:	377d                	addiw	a4,a4,-1
   16368:	f0ba                	sd	a4,96(sp)
   1636a:	674a                	ld	a4,144(sp)
   1636c:	66aa                	ld	a3,136(sp)
   1636e:	0341                	addi	t1,t1,16
   16370:	fee33823          	sd	a4,-16(t1)
   16374:	11812703          	lw	a4,280(sp)
   16378:	97b6                	add	a5,a5,a3
   1637a:	fed33c23          	sd	a3,-8(t1)
   1637e:	2705                	addiw	a4,a4,1
   16380:	f23e                	sd	a5,288(sp)
   16382:	0007069b          	sext.w	a3,a4
   16386:	10e12c23          	sw	a4,280(sp)
   1638a:	0cdc4e63          	blt	s8,a3,0x16466
   1638e:	7726                	ld	a4,104(sp)
   16390:	00074603          	lbu	a2,0(a4)
   16394:	7742                	ld	a4,48(sp)
   16396:	41b705bb          	subw	a1,a4,s11
   1639a:	0006071b          	sext.w	a4,a2
   1639e:	0007069b          	sext.w	a3,a4
   163a2:	00e5d463          	bge	a1,a4,0x163aa
   163a6:	0005869b          	sext.w	a3,a1
   163aa:	02d05663          	blez	a3,0x163d6
   163ae:	11812703          	lw	a4,280(sp)
   163b2:	97b6                	add	a5,a5,a3
   163b4:	01b33023          	sd	s11,0(t1)
   163b8:	0017061b          	addiw	a2,a4,1
   163bc:	00d33423          	sd	a3,8(t1)
   163c0:	f23e                	sd	a5,288(sp)
   163c2:	10c12c23          	sw	a2,280(sp)
   163c6:	0acc4a63          	blt	s8,a2,0x1647a
   163ca:	7726                	ld	a4,104(sp)
   163cc:	0341                	addi	t1,t1,16
   163ce:	00074603          	lbu	a2,0(a4)
   163d2:	0006071b          	sext.w	a4,a2
   163d6:	fff6c593          	not	a1,a3
   163da:	95fd                	srai	a1,a1,0x3f
   163dc:	8eed                	and	a3,a3,a1
   163de:	9f15                	subw	a4,a4,a3
   163e0:	00e04c63          	bgtz	a4,0x163f8
   163e4:	9db2                	add	s11,s11,a2
   163e6:	7706                	ld	a4,96(sp)
   163e8:	fb2d                	bnez	a4,0x1635a
   163ea:	6746                	ld	a4,80(sp)
   163ec:	30070463          	beqz	a4,0x166f4
   163f0:	6746                	ld	a4,80(sp)
   163f2:	377d                	addiw	a4,a4,-1
   163f4:	e8ba                	sd	a4,80(sp)
   163f6:	bf95                	j	0x1636a
   163f8:	11812683          	lw	a3,280(sp)
   163fc:	00ed4663          	blt	s10,a4,0x16408
   16400:	a081                	j	0x16440
   16402:	3741                	addiw	a4,a4,-16
   16404:	02ed5e63          	bge	s10,a4,0x16440
   16408:	2685                	addiw	a3,a3,1
   1640a:	07c1                	addi	a5,a5,16
   1640c:	01233023          	sd	s2,0(t1)
   16410:	01a33423          	sd	s10,8(t1)
   16414:	f23e                	sd	a5,288(sp)
   16416:	10d12c23          	sw	a3,280(sp)
   1641a:	0341                	addi	t1,t1,16
   1641c:	fedc53e3          	bge	s8,a3,0x16402
   16420:	0a10                	addi	a2,sp,272
   16422:	85d2                	mv	a1,s4
   16424:	8556                	mv	a0,s5
   16426:	e43a                	sd	a4,8(sp)
   16428:	ebffd0ef          	jal	ra,0x142e6
   1642c:	f2051c63          	bnez	a0,0x15b64
   16430:	6722                	ld	a4,8(sp)
   16432:	7792                	ld	a5,288(sp)
   16434:	11812683          	lw	a3,280(sp)
   16438:	3741                	addiw	a4,a4,-16
   1643a:	835e                	mv	t1,s7
   1643c:	fced46e3          	blt	s10,a4,0x16408
   16440:	2685                	addiw	a3,a3,1
   16442:	97ba                	add	a5,a5,a4
   16444:	00e33423          	sd	a4,8(t1)
   16448:	01233023          	sd	s2,0(t1)
   1644c:	f23e                	sd	a5,288(sp)
   1644e:	0006871b          	sext.w	a4,a3
   16452:	10d12c23          	sw	a3,280(sp)
   16456:	32ec4463          	blt	s8,a4,0x1677e
   1645a:	7726                	ld	a4,104(sp)
   1645c:	0341                	addi	t1,t1,16
   1645e:	00074603          	lbu	a2,0(a4)
   16462:	9db2                	add	s11,s11,a2
   16464:	b749                	j	0x163e6
   16466:	0a10                	addi	a2,sp,272
   16468:	85d2                	mv	a1,s4
   1646a:	8556                	mv	a0,s5
   1646c:	e7bfd0ef          	jal	ra,0x142e6
   16470:	ee051a63          	bnez	a0,0x15b64
   16474:	7792                	ld	a5,288(sp)
   16476:	835e                	mv	t1,s7
   16478:	bf19                	j	0x1638e
   1647a:	0a10                	addi	a2,sp,272
   1647c:	85d2                	mv	a1,s4
   1647e:	8556                	mv	a0,s5
   16480:	e436                	sd	a3,8(sp)
   16482:	e65fd0ef          	jal	ra,0x142e6
   16486:	ec051f63          	bnez	a0,0x15b64
   1648a:	77a6                	ld	a5,104(sp)
   1648c:	66a2                	ld	a3,8(sp)
   1648e:	835e                	mv	t1,s7
   16490:	0007c603          	lbu	a2,0(a5)
   16494:	7792                	ld	a5,288(sp)
   16496:	0006071b          	sext.w	a4,a2
   1649a:	bf35                	j	0x163d6
   1649c:	2605                	addiw	a2,a2,1
   1649e:	01070313          	addi	t1,a4,16
   164a2:	8c3a                	mv	s8,a4
   164a4:	f76ff06f          	j	0x15c1a
   164a8:	0a10                	addi	a2,sp,272
   164aa:	85d2                	mv	a1,s4
   164ac:	8556                	mv	a0,s5
   164ae:	e39fd0ef          	jal	ra,0x142e6
   164b2:	ea051963          	bnez	a0,0x15b64
   164b6:	562e                	lw	a2,232(sp)
   164b8:	7792                	ld	a5,288(sp)
   164ba:	835e                	mv	t1,s7
   164bc:	b329                	j	0x161c6
   164be:	0000bc97          	auipc	s9,0xb
   164c2:	9dac8c93          	addi	s9,s9,-1574 # 0x20e98
   164c6:	bb79                	j	0x16264
   164c8:	0a10                	addi	a2,sp,272
   164ca:	85d2                	mv	a1,s4
   164cc:	8556                	mv	a0,s5
   164ce:	e19fd0ef          	jal	ra,0x142e6
   164d2:	e8051963          	bnez	a0,0x15b64
   164d6:	7792                	ld	a5,288(sp)
   164d8:	835e                	mv	t1,s7
   164da:	b8e5                	j	0x15dd2
   164dc:	4c19                	li	s8,6
   164de:	b135                	j	0x1610a
   164e0:	7682                	ld	a3,32(sp)
   164e2:	00dc8833          	add	a6,s9,a3
   164e6:	40e6873b          	subw	a4,a3,a4
   164ea:	41b80ebb          	subw	t4,a6,s11
   164ee:	0007069b          	sext.w	a3,a4
   164f2:	00ded363          	bge	t4,a3,0x164f8
   164f6:	8776                	mv	a4,t4
   164f8:	00070c9b          	sext.w	s9,a4
   164fc:	b2bd                	j	0x15e6a
   164fe:	6782                	ld	a5,0(sp)
   16500:	8ca2                	mv	s9,s0
   16502:	00f71023          	sh	a5,0(a4)
   16506:	d51fe06f          	j	0x15256
   1650a:	1982                	slli	s3,s3,0x20
   1650c:	0209d993          	srli	s3,s3,0x20
   16510:	e55fe06f          	j	0x15364
   16514:	67c2                	ld	a5,16(sp)
   16516:	0007a983          	lw	s3,0(a5)
   1651a:	87ce                	mv	a5,s3
   1651c:	debfe06f          	j	0x15306
   16520:	1982                	slli	s3,s3,0x20
   16522:	0209d993          	srli	s3,s3,0x20
   16526:	e83a                	sd	a4,16(sp)
   16528:	4785                	li	a5,1
   1652a:	e47fe06f          	j	0x15370
   1652e:	1982                	slli	s3,s3,0x20
   16530:	0209d993          	srli	s3,s3,0x20
   16534:	b685                	j	0x16094
   16536:	02d00793          	li	a5,45
   1653a:	0cf10fa3          	sb	a5,223(sp)
   1653e:	b3d9                	j	0x16304
   16540:	0a10                	addi	a2,sp,272
   16542:	85d2                	mv	a1,s4
   16544:	8556                	mv	a0,s5
   16546:	da1fd0ef          	jal	ra,0x142e6
   1654a:	d1dfe06f          	j	0x15266
   1654e:	03000793          	li	a5,48
   16552:	0ef10023          	sb	a5,224(sp)
   16556:	05800713          	li	a4,88
   1655a:	0024e793          	ori	a5,s1,2
   1655e:	2781                	sext.w	a5,a5
   16560:	0ee100a3          	sb	a4,225(sp)
   16564:	ed3e                	sd	a5,152(sp)
   16566:	06300713          	li	a4,99
   1656a:	ec02                	sd	zero,24(sp)
   1656c:	12810c93          	addi	s9,sp,296
   16570:	47d74563          	blt	a4,t4,0x169da
   16574:	69b2                	ld	s3,264(sp)
   16576:	fdfdf713          	andi	a4,s11,-33
   1657a:	1024e493          	ori	s1,s1,258
   1657e:	f0ba                	sd	a4,96(sp)
   16580:	e582                	sd	zero,200(sp)
   16582:	6c12                	ld	s8,256(sp)
   16584:	2481                	sext.w	s1,s1
   16586:	1e09c463          	bltz	s3,0x1676e
   1658a:	06100793          	li	a5,97
   1658e:	52fd8c63          	beq	s11,a5,0x16ac6
   16592:	04100793          	li	a5,65
   16596:	00fd8463          	beq	s11,a5,0x1659e
   1659a:	eb7fe06f          	j	0x15450
   1659e:	85ce                	mv	a1,s3
   165a0:	8562                	mv	a0,s8
   165a2:	fc1a                	sd	t1,56(sp)
   165a4:	f876                	sd	t4,48(sp)
   165a6:	395090ef          	jal	ra,0x2013a
   165aa:	11a8                	addi	a0,sp,232
   165ac:	482050ef          	jal	ra,0x1ba2e
   165b0:	2cb090ef          	jal	ra,0x2007a
   165b4:	0000b797          	auipc	a5,0xb
   165b8:	abc78793          	addi	a5,a5,-1348 # 0x21070
   165bc:	6390                	ld	a2,0(a5)
   165be:	6794                	ld	a3,8(a5)
   165c0:	3bb080ef          	jal	ra,0x1f17a
   165c4:	4601                	li	a2,0
   165c6:	4681                	li	a3,0
   165c8:	f02a                	sd	a0,32(sp)
   165ca:	e42e                	sd	a1,8(sp)
   165cc:	1cb080ef          	jal	ra,0x1ef96
   165d0:	62a2                	ld	t0,8(sp)
   165d2:	7702                	ld	a4,32(sp)
   165d4:	7ec2                	ld	t4,48(sp)
   165d6:	7362                	ld	t1,56(sp)
   165d8:	e119                	bnez	a0,0x165de
   165da:	4785                	li	a5,1
   165dc:	d5be                	sw	a5,232(sp)
   165de:	0000a797          	auipc	a5,0xa
   165e2:	6ea78793          	addi	a5,a5,1770 # 0x20cc8
   165e6:	e8be                	sd	a5,80(sp)
   165e8:	020e9793          	slli	a5,t4,0x20
   165ec:	0000b697          	auipc	a3,0xb
   165f0:	a6468693          	addi	a3,a3,-1436 # 0x21050
   165f4:	9381                	srli	a5,a5,0x20
   165f6:	6290                	ld	a2,0(a3)
   165f8:	0785                	addi	a5,a5,1
   165fa:	6694                	ld	a3,8(a3)
   165fc:	97e6                	add	a5,a5,s9
   165fe:	f13e                	sd	a5,160(sp)
   16600:	01dc87bb          	addw	a5,s9,t4
   16604:	fd32                	sd	a2,184(sp)
   16606:	e1b6                	sd	a3,192(sp)
   16608:	8c66                	mv	s8,s9
   1660a:	db3e                	sw	a5,180(sp)
   1660c:	a831                	j	0x16628
   1660e:	4601                	li	a2,0
   16610:	4681                	li	a3,0
   16612:	e4ae                	sd	a1,72(sp)
   16614:	e0aa                	sd	a0,64(sp)
   16616:	181080ef          	jal	ra,0x1ef96
   1661a:	7ec2                	ld	t4,48(sp)
   1661c:	7362                	ld	t1,56(sp)
   1661e:	6f86                	ld	t6,64(sp)
   16620:	68a6                	ld	a7,72(sp)
   16622:	62a2                	ld	t0,8(sp)
   16624:	7702                	ld	a4,32(sp)
   16626:	c135                	beqz	a0,0x1668a
   16628:	766a                	ld	a2,184(sp)
   1662a:	668e                	ld	a3,192(sp)
   1662c:	853a                	mv	a0,a4
   1662e:	8596                	mv	a1,t0
   16630:	fc1a                	sd	t1,56(sp)
   16632:	f876                	sd	t4,48(sp)
   16634:	347080ef          	jal	ra,0x1f17a
   16638:	e42e                	sd	a1,8(sp)
   1663a:	f02a                	sd	a0,32(sp)
   1663c:	14d090ef          	jal	ra,0x1ff88
   16640:	0005099b          	sext.w	s3,a0
   16644:	854e                	mv	a0,s3
   16646:	1d9090ef          	jal	ra,0x2001e
   1664a:	7882                	ld	a7,32(sp)
   1664c:	6722                	ld	a4,8(sp)
   1664e:	862a                	mv	a2,a0
   16650:	86ae                	mv	a3,a1
   16652:	8546                	mv	a0,a7
   16654:	85ba                	mv	a1,a4
   16656:	136090ef          	jal	ra,0x1f78c
   1665a:	67c6                	ld	a5,80(sp)
   1665c:	f562                	sd	s8,168(sp)
   1665e:	0c05                	addi	s8,s8,1
   16660:	01378733          	add	a4,a5,s3
   16664:	57da                	lw	a5,180(sp)
   16666:	00074703          	lbu	a4,0(a4)
   1666a:	f02a                	sd	a0,32(sp)
   1666c:	418787bb          	subw	a5,a5,s8
   16670:	ecbe                	sd	a5,88(sp)
   16672:	778a                	ld	a5,160(sp)
   16674:	feec0fa3          	sb	a4,-1(s8)
   16678:	e42e                	sd	a1,8(sp)
   1667a:	7ec2                	ld	t4,48(sp)
   1667c:	7362                	ld	t1,56(sp)
   1667e:	8faa                	mv	t6,a0
   16680:	88ae                	mv	a7,a1
   16682:	f98796e3          	bne	a5,s8,0x1660e
   16686:	57fd                	li	a5,-1
   16688:	ecbe                	sd	a5,88(sp)
   1668a:	0000b717          	auipc	a4,0xb
   1668e:	9d670713          	addi	a4,a4,-1578 # 0x21060
   16692:	6310                	ld	a2,0(a4)
   16694:	6714                	ld	a3,8(a4)
   16696:	857e                	mv	a0,t6
   16698:	85c6                	mv	a1,a7
   1669a:	f01a                	sd	t1,32(sp)
   1669c:	e476                	sd	t4,8(sp)
   1669e:	e4fe                	sd	t6,72(sp)
   166a0:	e0b2                	sd	a2,64(sp)
   166a2:	fc36                	sd	a3,56(sp)
   166a4:	f846                	sd	a7,48(sp)
   166a6:	185080ef          	jal	ra,0x1f02a
   166aa:	6ea2                	ld	t4,8(sp)
   166ac:	7302                	ld	t1,32(sp)
   166ae:	2ca04f63          	bgtz	a0,0x1698c
   166b2:	6fa6                	ld	t6,72(sp)
   166b4:	78c2                	ld	a7,48(sp)
   166b6:	6606                	ld	a2,64(sp)
   166b8:	76e2                	ld	a3,56(sp)
   166ba:	857e                	mv	a0,t6
   166bc:	85c6                	mv	a1,a7
   166be:	0d9080ef          	jal	ra,0x1ef96
   166c2:	6ea2                	ld	t4,8(sp)
   166c4:	7302                	ld	t1,32(sp)
   166c6:	e509                	bnez	a0,0x166d0
   166c8:	0019f993          	andi	s3,s3,1
   166cc:	2c099063          	bnez	s3,0x1698c
   166d0:	67e6                	ld	a5,88(sp)
   166d2:	03000693          	li	a3,48
   166d6:	00178713          	addi	a4,a5,1
   166da:	9762                	add	a4,a4,s8
   166dc:	0007c763          	bltz	a5,0x166ea
   166e0:	0c05                	addi	s8,s8,1
   166e2:	fedc0fa3          	sb	a3,-1(s8)
   166e6:	ff871de3          	bne	a4,s8,0x166e0
   166ea:	419c07bb          	subw	a5,s8,s9
   166ee:	f03e                	sd	a5,32(sp)
   166f0:	de5fe06f          	j	0x154d4
   166f4:	7702                	ld	a4,32(sp)
   166f6:	9766                	add	a4,a4,s9
   166f8:	efb77e63          	bgeu	a4,s11,0x15df4
   166fc:	8dba                	mv	s11,a4
   166fe:	ef6ff06f          	j	0x15df4
   16702:	6766                	ld	a4,88(sp)
   16704:	57f5                	li	a5,-3
   16706:	00f74463          	blt	a4,a5,0x1670e
   1670a:	00eed863          	bge	t4,a4,0x1671a
   1670e:	3df9                	addiw	s11,s11,-2
   16710:	fdfdf793          	andi	a5,s11,-33
   16714:	f0be                	sd	a5,96(sp)
   16716:	ddffe06f          	j	0x154f4
   1671a:	7782                	ld	a5,32(sp)
   1671c:	6766                	ld	a4,88(sp)
   1671e:	16f74563          	blt	a4,a5,0x16888
   16722:	67ea                	ld	a5,152(sp)
   16724:	8c3a                	mv	s8,a4
   16726:	8b85                	andi	a5,a5,1
   16728:	c781                	beqz	a5,0x16730
   1672a:	77c6                	ld	a5,112(sp)
   1672c:	00e78c3b          	addw	s8,a5,a4
   16730:	67ea                	ld	a5,152(sp)
   16732:	4007f793          	andi	a5,a5,1024
   16736:	c781                	beqz	a5,0x1673e
   16738:	67e6                	ld	a5,88(sp)
   1673a:	30f04763          	bgtz	a5,0x16a48
   1673e:	fffc4993          	not	s3,s8
   16742:	43f9d993          	srai	s3,s3,0x3f
   16746:	013c79b3          	and	s3,s8,s3
   1674a:	2981                	sext.w	s3,s3
   1674c:	06700d93          	li	s11,103
   16750:	e882                	sd	zero,80(sp)
   16752:	f082                	sd	zero,96(sp)
   16754:	e83fe06f          	j	0x155d6
   16758:	0df14783          	lbu	a5,223(sp)
   1675c:	4e81                	li	t4,0
   1675e:	c399                	beqz	a5,0x16764
   16760:	be9fe06f          	j	0x15348
   16764:	a11fe06f          	j	0x15174
   16768:	ed26                	sd	s1,152(sp)
   1676a:	ec02                	sd	zero,24(sp)
   1676c:	84fe                	mv	s1,t6
   1676e:	57fd                	li	a5,-1
   16770:	17fe                	slli	a5,a5,0x3f
   16772:	00f9c9b3          	xor	s3,s3,a5
   16776:	02d00793          	li	a5,45
   1677a:	e5be                	sd	a5,200(sp)
   1677c:	b539                	j	0x1658a
   1677e:	0a10                	addi	a2,sp,272
   16780:	85d2                	mv	a1,s4
   16782:	8556                	mv	a0,s5
   16784:	b63fd0ef          	jal	ra,0x142e6
   16788:	bc051e63          	bnez	a0,0x15b64
   1678c:	77a6                	ld	a5,104(sp)
   1678e:	835e                	mv	t1,s7
   16790:	0007c603          	lbu	a2,0(a5)
   16794:	7792                	ld	a5,288(sp)
   16796:	9db2                	add	s11,s11,a2
   16798:	b1b9                	j	0x163e6
   1679a:	02d00793          	li	a5,45
   1679e:	0cf10fa3          	sb	a5,223(sp)
   167a2:	bc4d                	j	0x16254
   167a4:	8776                	mv	a4,t4
   167a6:	11bc                	addi	a5,sp,232
   167a8:	0f810893          	addi	a7,sp,248
   167ac:	0ec10813          	addi	a6,sp,236
   167b0:	4689                	li	a3,2
   167b2:	85e2                	mv	a1,s8
   167b4:	864e                	mv	a2,s3
   167b6:	8556                	mv	a0,s5
   167b8:	f01a                	sd	t1,32(sp)
   167ba:	e476                	sd	t4,8(sp)
   167bc:	777020ef          	jal	ra,0x19732
   167c0:	7706                	ld	a4,96(sp)
   167c2:	04700793          	li	a5,71
   167c6:	6ea2                	ld	t4,8(sp)
   167c8:	7302                	ld	t1,32(sp)
   167ca:	8caa                	mv	s9,a0
   167cc:	02f71d63          	bne	a4,a5,0x16806
   167d0:	67ea                	ld	a5,152(sp)
   167d2:	8b85                	andi	a5,a5,1
   167d4:	18079b63          	bnez	a5,0x1696a
   167d8:	04700713          	li	a4,71
   167dc:	77ee                	ld	a5,248(sp)
   167de:	f0ba                	sd	a4,96(sp)
   167e0:	ceffe06f          	j	0x154ce
   167e4:	8776                	mv	a4,t4
   167e6:	0f810893          	addi	a7,sp,248
   167ea:	0ec10813          	addi	a6,sp,236
   167ee:	11bc                	addi	a5,sp,232
   167f0:	468d                	li	a3,3
   167f2:	85e2                	mv	a1,s8
   167f4:	864e                	mv	a2,s3
   167f6:	8556                	mv	a0,s5
   167f8:	f01a                	sd	t1,32(sp)
   167fa:	e476                	sd	t4,8(sp)
   167fc:	737020ef          	jal	ra,0x19732
   16800:	6ea2                	ld	t4,8(sp)
   16802:	7302                	ld	t1,32(sp)
   16804:	8caa                	mv	s9,a0
   16806:	7706                	ld	a4,96(sp)
   16808:	04600793          	li	a5,70
   1680c:	01dc88b3          	add	a7,s9,t4
   16810:	00f70463          	beq	a4,a5,0x16818
   16814:	c85fe06f          	j	0x15498
   16818:	000cc703          	lbu	a4,0(s9)
   1681c:	03000793          	li	a5,48
   16820:	00f70663          	beq	a4,a5,0x1682c
   16824:	572e                	lw	a4,232(sp)
   16826:	98ba                	add	a7,a7,a4
   16828:	c71fe06f          	j	0x15498
   1682c:	4601                	li	a2,0
   1682e:	4681                	li	a3,0
   16830:	8562                	mv	a0,s8
   16832:	85ce                	mv	a1,s3
   16834:	f846                	sd	a7,48(sp)
   16836:	f01a                	sd	t1,32(sp)
   16838:	e476                	sd	t4,8(sp)
   1683a:	75c080ef          	jal	ra,0x1ef96
   1683e:	6ea2                	ld	t4,8(sp)
   16840:	7302                	ld	t1,32(sp)
   16842:	78c2                	ld	a7,48(sp)
   16844:	d165                	beqz	a0,0x16824
   16846:	4785                	li	a5,1
   16848:	41d7873b          	subw	a4,a5,t4
   1684c:	d5ba                	sw	a4,232(sp)
   1684e:	98ba                	add	a7,a7,a4
   16850:	c49fe06f          	j	0x15498
   16854:	0a10                	addi	a2,sp,272
   16856:	85d2                	mv	a1,s4
   16858:	8556                	mv	a0,s5
   1685a:	a8dfd0ef          	jal	ra,0x142e6
   1685e:	b0051363          	bnez	a0,0x15b64
   16862:	572e                	lw	a4,232(sp)
   16864:	7792                	ld	a5,288(sp)
   16866:	835e                	mv	t1,s7
   16868:	dc2ff06f          	j	0x15e2a
   1686c:	0df14783          	lbu	a5,223(sp)
   16870:	e836                	sd	a3,16(sp)
   16872:	e882                	sd	zero,80(sp)
   16874:	f082                	sd	zero,96(sp)
   16876:	ec82                	sd	zero,88(sp)
   16878:	89f6                	mv	s3,t4
   1687a:	8c76                	mv	s8,t4
   1687c:	4e81                	li	t4,0
   1687e:	c399                	beqz	a5,0x16884
   16880:	ac9fe06f          	j	0x15348
   16884:	8f1fe06f          	j	0x15174
   16888:	7702                	ld	a4,32(sp)
   1688a:	77c6                	ld	a5,112(sp)
   1688c:	06700d93          	li	s11,103
   16890:	00e78c3b          	addw	s8,a5,a4
   16894:	6766                	ld	a4,88(sp)
   16896:	2ce05263          	blez	a4,0x16b5a
   1689a:	67ea                	ld	a5,152(sp)
   1689c:	4007f793          	andi	a5,a5,1024
   168a0:	1a079663          	bnez	a5,0x16a4c
   168a4:	fffc4993          	not	s3,s8
   168a8:	43f9d993          	srai	s3,s3,0x3f
   168ac:	013c79b3          	and	s3,s8,s3
   168b0:	2981                	sext.w	s3,s3
   168b2:	bd79                	j	0x16750
   168b4:	67ea                	ld	a5,152(sp)
   168b6:	6766                	ld	a4,88(sp)
   168b8:	8b85                	andi	a5,a5,1
   168ba:	00fee7b3          	or	a5,t4,a5
   168be:	2ae05c63          	blez	a4,0x16b76
   168c2:	26079d63          	bnez	a5,0x16b3c
   168c6:	6c66                	ld	s8,88(sp)
   168c8:	06600d93          	li	s11,102
   168cc:	b7f9                	j	0x1689a
   168ce:	0a10                	addi	a2,sp,272
   168d0:	85d2                	mv	a1,s4
   168d2:	8556                	mv	a0,s5
   168d4:	a13fd0ef          	jal	ra,0x142e6
   168d8:	a8051663          	bnez	a0,0x15b64
   168dc:	56ae                	lw	a3,232(sp)
   168de:	7702                	ld	a4,32(sp)
   168e0:	7792                	ld	a5,288(sp)
   168e2:	835e                	mv	t1,s7
   168e4:	40d706bb          	subw	a3,a4,a3
   168e8:	d82ff06f          	j	0x15e6a
   168ec:	57fd                	li	a5,-1
   168ee:	e03e                	sd	a5,0(sp)
   168f0:	985fe06f          	j	0x15274
   168f4:	56c1                	li	a3,-16
   168f6:	40c00c3b          	negw	s8,a2
   168fa:	02d65f63          	bge	a2,a3,0x16938
   168fe:	4d9d                	li	s11,7
   16900:	a021                	j	0x16908
   16902:	3c41                	addiw	s8,s8,-16
   16904:	038d5a63          	bge	s10,s8,0x16938
   16908:	2705                	addiw	a4,a4,1
   1690a:	07c1                	addi	a5,a5,16
   1690c:	01233023          	sd	s2,0(t1)
   16910:	01a33423          	sd	s10,8(t1)
   16914:	f23e                	sd	a5,288(sp)
   16916:	10e12c23          	sw	a4,280(sp)
   1691a:	0341                	addi	t1,t1,16
   1691c:	feedd3e3          	bge	s11,a4,0x16902
   16920:	0a10                	addi	a2,sp,272
   16922:	85d2                	mv	a1,s4
   16924:	8556                	mv	a0,s5
   16926:	9c1fd0ef          	jal	ra,0x142e6
   1692a:	a2051d63          	bnez	a0,0x15b64
   1692e:	7792                	ld	a5,288(sp)
   16930:	11812703          	lw	a4,280(sp)
   16934:	835e                	mv	t1,s7
   16936:	b7f1                	j	0x16902
   16938:	2705                	addiw	a4,a4,1
   1693a:	97e2                	add	a5,a5,s8
   1693c:	01233023          	sd	s2,0(t1)
   16940:	01833423          	sd	s8,8(t1)
   16944:	f23e                	sd	a5,288(sp)
   16946:	10e12c23          	sw	a4,280(sp)
   1694a:	469d                	li	a3,7
   1694c:	8ae6d8e3          	bge	a3,a4,0x161fc
   16950:	0a10                	addi	a2,sp,272
   16952:	85d2                	mv	a1,s4
   16954:	8556                	mv	a0,s5
   16956:	991fd0ef          	jal	ra,0x142e6
   1695a:	a0051563          	bnez	a0,0x15b64
   1695e:	7792                	ld	a5,288(sp)
   16960:	11812703          	lw	a4,280(sp)
   16964:	835e                	mv	t1,s7
   16966:	cedfe06f          	j	0x15652
   1696a:	04700793          	li	a5,71
   1696e:	01dc88b3          	add	a7,s9,t4
   16972:	f0be                	sd	a5,96(sp)
   16974:	b25fe06f          	j	0x15498
   16978:	8826                	mv	a6,s1
   1697a:	accff06f          	j	0x15c46
   1697e:	03000793          	li	a5,48
   16982:	0ef10023          	sb	a5,224(sp)
   16986:	07800713          	li	a4,120
   1698a:	bec1                	j	0x1655a
   1698c:	77aa                	ld	a5,168(sp)
   1698e:	8762                	mv	a4,s8
   16990:	fdbe                	sd	a5,248(sp)
   16992:	67c6                	ld	a5,80(sp)
   16994:	fffc4683          	lbu	a3,-1(s8)
   16998:	00f7c603          	lbu	a2,15(a5)
   1699c:	00d61e63          	bne	a2,a3,0x169b8
   169a0:	03000593          	li	a1,48
   169a4:	feb70fa3          	sb	a1,-1(a4)
   169a8:	776e                	ld	a4,248(sp)
   169aa:	fff70693          	addi	a3,a4,-1
   169ae:	fdb6                	sd	a3,248(sp)
   169b0:	fff74683          	lbu	a3,-1(a4)
   169b4:	fed608e3          	beq	a2,a3,0x169a4
   169b8:	0016861b          	addiw	a2,a3,1
   169bc:	03900593          	li	a1,57
   169c0:	0ff67613          	andi	a2,a2,255
   169c4:	00b68563          	beq	a3,a1,0x169ce
   169c8:	fec70fa3          	sb	a2,-1(a4)
   169cc:	bb39                	j	0x166ea
   169ce:	67c6                	ld	a5,80(sp)
   169d0:	00a7c603          	lbu	a2,10(a5)
   169d4:	fec70fa3          	sb	a2,-1(a4)
   169d8:	bb09                	j	0x166ea
   169da:	001e859b          	addiw	a1,t4,1
   169de:	8556                	mv	a0,s5
   169e0:	ec1a                	sd	t1,24(sp)
   169e2:	e476                	sd	t4,8(sp)
   169e4:	d23fb0ef          	jal	ra,0x12706
   169e8:	6ea2                	ld	t4,8(sp)
   169ea:	6362                	ld	t1,24(sp)
   169ec:	8caa                	mv	s9,a0
   169ee:	1e050063          	beqz	a0,0x16bce
   169f2:	ec2a                	sd	a0,24(sp)
   169f4:	b641                	j	0x16574
   169f6:	000e9363          	bnez	t4,0x169fc
   169fa:	4e85                	li	t4,1
   169fc:	69b2                	ld	s3,264(sp)
   169fe:	1004ef93          	ori	t6,s1,256
   16a02:	6c12                	ld	s8,256(sp)
   16a04:	2f81                	sext.w	t6,t6
   16a06:	d609c1e3          	bltz	s3,0x16768
   16a0a:	8776                	mv	a4,t4
   16a0c:	0f810893          	addi	a7,sp,248
   16a10:	0ec10813          	addi	a6,sp,236
   16a14:	11bc                	addi	a5,sp,232
   16a16:	4689                	li	a3,2
   16a18:	85e2                	mv	a1,s8
   16a1a:	864e                	mv	a2,s3
   16a1c:	8556                	mv	a0,s5
   16a1e:	ec7e                	sd	t6,24(sp)
   16a20:	f01a                	sd	t1,32(sp)
   16a22:	e476                	sd	t4,8(sp)
   16a24:	50f020ef          	jal	ra,0x19732
   16a28:	6fe2                	ld	t6,24(sp)
   16a2a:	ed26                	sd	s1,152(sp)
   16a2c:	6ea2                	ld	t4,8(sp)
   16a2e:	7302                	ld	t1,32(sp)
   16a30:	8caa                	mv	s9,a0
   16a32:	84fe                	mv	s1,t6
   16a34:	ec02                	sd	zero,24(sp)
   16a36:	e582                	sd	zero,200(sp)
   16a38:	bb61                	j	0x167d0
   16a3a:	4e99                	li	t4,6
   16a3c:	9fbfe06f          	j	0x15436
   16a40:	c31c                	sw	a5,0(a4)
   16a42:	8ca2                	mv	s9,s0
   16a44:	813fe06f          	j	0x15256
   16a48:	06700d93          	li	s11,103
   16a4c:	77a6                	ld	a5,104(sp)
   16a4e:	0ff00713          	li	a4,255
   16a52:	e882                	sd	zero,80(sp)
   16a54:	0007c783          	lbu	a5,0(a5)
   16a58:	f082                	sd	zero,96(sp)
   16a5a:	02e78863          	beq	a5,a4,0x16a8a
   16a5e:	0ff00693          	li	a3,255
   16a62:	6666                	ld	a2,88(sp)
   16a64:	0007871b          	sext.w	a4,a5
   16a68:	02c7d163          	bge	a5,a2,0x16a8a
   16a6c:	75a6                	ld	a1,104(sp)
   16a6e:	40e6073b          	subw	a4,a2,a4
   16a72:	ecba                	sd	a4,88(sp)
   16a74:	0015c783          	lbu	a5,1(a1)
   16a78:	cf8d                	beqz	a5,0x16ab2
   16a7a:	7706                	ld	a4,96(sp)
   16a7c:	2705                	addiw	a4,a4,1
   16a7e:	f0ba                	sd	a4,96(sp)
   16a80:	00158713          	addi	a4,a1,1
   16a84:	f4ba                	sd	a4,104(sp)
   16a86:	fcd79ee3          	bne	a5,a3,0x16a62
   16a8a:	7706                	ld	a4,96(sp)
   16a8c:	67c6                	ld	a5,80(sp)
   16a8e:	9fb9                	addw	a5,a5,a4
   16a90:	672a                	ld	a4,136(sp)
   16a92:	02e787bb          	mulw	a5,a5,a4
   16a96:	018787bb          	addw	a5,a5,s8
   16a9a:	00078c1b          	sext.w	s8,a5
   16a9e:	fffc4993          	not	s3,s8
   16aa2:	43f9d993          	srai	s3,s3,0x3f
   16aa6:	0137f7b3          	and	a5,a5,s3
   16aaa:	0007899b          	sext.w	s3,a5
   16aae:	b29fe06f          	j	0x155d6
   16ab2:	6746                	ld	a4,80(sp)
   16ab4:	77a6                	ld	a5,104(sp)
   16ab6:	2705                	addiw	a4,a4,1
   16ab8:	0007c783          	lbu	a5,0(a5)
   16abc:	e8ba                	sd	a4,80(sp)
   16abe:	b7e1                	j	0x16a86
   16ac0:	ec02                	sd	zero,24(sp)
   16ac2:	84be                	mv	s1,a5
   16ac4:	b16d                	j	0x1676e
   16ac6:	85ce                	mv	a1,s3
   16ac8:	8562                	mv	a0,s8
   16aca:	fc1a                	sd	t1,56(sp)
   16acc:	f876                	sd	t4,48(sp)
   16ace:	66c090ef          	jal	ra,0x2013a
   16ad2:	11a8                	addi	a0,sp,232
   16ad4:	75b040ef          	jal	ra,0x1ba2e
   16ad8:	5a2090ef          	jal	ra,0x2007a
   16adc:	0000a797          	auipc	a5,0xa
   16ae0:	59478793          	addi	a5,a5,1428 # 0x21070
   16ae4:	6390                	ld	a2,0(a5)
   16ae6:	6794                	ld	a3,8(a5)
   16ae8:	692080ef          	jal	ra,0x1f17a
   16aec:	4601                	li	a2,0
   16aee:	4681                	li	a3,0
   16af0:	f02a                	sd	a0,32(sp)
   16af2:	e42e                	sd	a1,8(sp)
   16af4:	4a2080ef          	jal	ra,0x1ef96
   16af8:	62a2                	ld	t0,8(sp)
   16afa:	7702                	ld	a4,32(sp)
   16afc:	7ec2                	ld	t4,48(sp)
   16afe:	7362                	ld	t1,56(sp)
   16b00:	e119                	bnez	a0,0x16b06
   16b02:	4785                	li	a5,1
   16b04:	d5be                	sw	a5,232(sp)
   16b06:	0000a797          	auipc	a5,0xa
   16b0a:	1da78793          	addi	a5,a5,474 # 0x20ce0
   16b0e:	e8be                	sd	a5,80(sp)
   16b10:	bce1                	j	0x165e8
   16b12:	0f210713          	addi	a4,sp,242
   16b16:	e699                	bnez	a3,0x16b24
   16b18:	03000713          	li	a4,48
   16b1c:	0ee10923          	sb	a4,242(sp)
   16b20:	0f310713          	addi	a4,sp,243
   16b24:	0c14                	addi	a3,sp,528
   16b26:	0307879b          	addiw	a5,a5,48
   16b2a:	40d706b3          	sub	a3,a4,a3
   16b2e:	00f70023          	sb	a5,0(a4)
   16b32:	1216879b          	addiw	a5,a3,289
   16b36:	e13e                	sd	a5,128(sp)
   16b38:	a65fe06f          	j	0x1559c
   16b3c:	77c6                	ld	a5,112(sp)
   16b3e:	06600d93          	li	s11,102
   16b42:	00e78c3b          	addw	s8,a5,a4
   16b46:	01dc0c3b          	addw	s8,s8,t4
   16b4a:	bb81                	j	0x1689a
   16b4c:	676a                	ld	a4,152(sp)
   16b4e:	8b05                	andi	a4,a4,1
   16b50:	e319                	bnez	a4,0x16b56
   16b52:	a65fe06f          	j	0x155b6
   16b56:	a5bfe06f          	j	0x155b0
   16b5a:	40ec07bb          	subw	a5,s8,a4
   16b5e:	2785                	addiw	a5,a5,1
   16b60:	00078c1b          	sext.w	s8,a5
   16b64:	fffc4993          	not	s3,s8
   16b68:	43f9d993          	srai	s3,s3,0x3f
   16b6c:	0137f7b3          	and	a5,a5,s3
   16b70:	0007899b          	sext.w	s3,a5
   16b74:	bef1                	j	0x16750
   16b76:	e791                	bnez	a5,0x16b82
   16b78:	4985                	li	s3,1
   16b7a:	06600d93          	li	s11,102
   16b7e:	4c05                	li	s8,1
   16b80:	bec1                	j	0x16750
   16b82:	77c6                	ld	a5,112(sp)
   16b84:	06600d93          	li	s11,102
   16b88:	2785                	addiw	a5,a5,1
   16b8a:	01d78ebb          	addw	t4,a5,t4
   16b8e:	000e8c1b          	sext.w	s8,t4
   16b92:	fffc4993          	not	s3,s8
   16b96:	43f9d993          	srai	s3,s3,0x3f
   16b9a:	013efeb3          	and	t4,t4,s3
   16b9e:	000e899b          	sext.w	s3,t4
   16ba2:	b67d                	j	0x16750
   16ba4:	871a                	mv	a4,t1
   16ba6:	c9aff06f          	j	0x16040
   16baa:	66c2                	ld	a3,16(sp)
   16bac:	4298                	lw	a4,0(a3)
   16bae:	06a1                	addi	a3,a3,8
   16bb0:	00070e9b          	sext.w	t4,a4
   16bb4:	00075363          	bgez	a4,0x16bba
   16bb8:	5efd                	li	t4,-1
   16bba:	00144f03          	lbu	t5,1(s0)
   16bbe:	e836                	sd	a3,16(sp)
   16bc0:	843e                	mv	s0,a5
   16bc2:	d36fe06f          	j	0x150f8
   16bc6:	4789                	li	a5,2
   16bc8:	e13e                	sd	a5,128(sp)
   16bca:	9d3fe06f          	j	0x1559c
   16bce:	010a5783          	lhu	a5,16(s4)
   16bd2:	0407e793          	ori	a5,a5,64
   16bd6:	00fa1823          	sh	a5,16(s4)
   16bda:	e8cfe06f          	j	0x15266
   16bde:	86b2                	mv	a3,a2
   16be0:	862e                	mv	a2,a1
   16be2:	85aa                	mv	a1,a0
   16be4:	7501b503          	ld	a0,1872(gp)
   16be8:	bdcfe06f          	j	0x14fc4
   16bec:	0105d783          	lhu	a5,16(a1)
   16bf0:	0ac5ae03          	lw	t3,172(a1)
   16bf4:	0125d303          	lhu	t1,18(a1)
   16bf8:	0305b883          	ld	a7,48(a1)
   16bfc:	0405b803          	ld	a6,64(a1)
   16c00:	b3010113          	addi	sp,sp,-1232
   16c04:	9bf5                	andi	a5,a5,-3
   16c06:	40000713          	li	a4,1024
   16c0a:	4c813023          	sd	s0,1216(sp)
   16c0e:	00f11823          	sh	a5,16(sp)
   16c12:	842e                	mv	s0,a1
   16c14:	191c                	addi	a5,sp,176
   16c16:	858a                	mv	a1,sp
   16c18:	4a913c23          	sd	s1,1208(sp)
   16c1c:	4b213823          	sd	s2,1200(sp)
   16c20:	4c113423          	sd	ra,1224(sp)
   16c24:	892a                	mv	s2,a0
   16c26:	d772                	sw	t3,172(sp)
   16c28:	00611923          	sh	t1,18(sp)
   16c2c:	f846                	sd	a7,48(sp)
   16c2e:	e0c2                	sd	a6,64(sp)
   16c30:	e03e                	sd	a5,0(sp)
   16c32:	ec3e                	sd	a5,24(sp)
   16c34:	c63a                	sw	a4,12(sp)
   16c36:	d03a                	sw	a4,32(sp)
   16c38:	d402                	sw	zero,40(sp)
   16c3a:	b8afe0ef          	jal	ra,0x14fc4
   16c3e:	84aa                	mv	s1,a0
   16c40:	02055963          	bgez	a0,0x16c72
   16c44:	01015783          	lhu	a5,16(sp)
   16c48:	0407f793          	andi	a5,a5,64
   16c4c:	c799                	beqz	a5,0x16c5a
   16c4e:	01045783          	lhu	a5,16(s0)
   16c52:	0407e793          	ori	a5,a5,64
   16c56:	00f41823          	sh	a5,16(s0)
   16c5a:	4c813083          	ld	ra,1224(sp)
   16c5e:	4c013403          	ld	s0,1216(sp)
   16c62:	4b013903          	ld	s2,1200(sp)
   16c66:	8526                	mv	a0,s1
   16c68:	4b813483          	ld	s1,1208(sp)
   16c6c:	4d010113          	addi	sp,sp,1232
   16c70:	8082                	ret
   16c72:	858a                	mv	a1,sp
   16c74:	854a                	mv	a0,s2
   16c76:	46c000ef          	jal	ra,0x170e2
   16c7a:	d569                	beqz	a0,0x16c44
   16c7c:	54fd                	li	s1,-1
   16c7e:	b7d9                	j	0x16c44
   16c80:	7155                	addi	sp,sp,-208
   16c82:	80000837          	lui	a6,0x80000
   16c86:	e1a2                	sd	s0,192(sp)
   16c88:	e586                	sd	ra,200(sp)
   16c8a:	fd26                	sd	s1,184(sp)
   16c8c:	fff84813          	not	a6,a6
   16c90:	87b2                	mv	a5,a2
   16c92:	842a                	mv	s0,a0
   16c94:	06c86363          	bltu	a6,a2,0x16cfa
   16c98:	8636                	mv	a2,a3
   16c9a:	86ba                	mv	a3,a4
   16c9c:	20800713          	li	a4,520
   16ca0:	00e11823          	sh	a4,16(sp)
   16ca4:	e02e                	sd	a1,0(sp)
   16ca6:	ec2e                	sd	a1,24(sp)
   16ca8:	c79d                	beqz	a5,0x16cd6
   16caa:	37fd                	addiw	a5,a5,-1
   16cac:	54fd                	li	s1,-1
   16cae:	858a                	mv	a1,sp
   16cb0:	c63e                	sw	a5,12(sp)
   16cb2:	d03e                	sw	a5,32(sp)
   16cb4:	00911923          	sh	s1,18(sp)
   16cb8:	416050ef          	jal	ra,0x1c0ce
   16cbc:	00955563          	bge	a0,s1,0x16cc6
   16cc0:	08b00793          	li	a5,139
   16cc4:	c01c                	sw	a5,0(s0)
   16cc6:	6782                	ld	a5,0(sp)
   16cc8:	00078023          	sb	zero,0(a5)
   16ccc:	60ae                	ld	ra,200(sp)
   16cce:	640e                	ld	s0,192(sp)
   16cd0:	74ea                	ld	s1,184(sp)
   16cd2:	6169                	addi	sp,sp,208
   16cd4:	8082                	ret
   16cd6:	54fd                	li	s1,-1
   16cd8:	858a                	mv	a1,sp
   16cda:	c602                	sw	zero,12(sp)
   16cdc:	d002                	sw	zero,32(sp)
   16cde:	00911923          	sh	s1,18(sp)
   16ce2:	3ec050ef          	jal	ra,0x1c0ce
   16ce6:	00955563          	bge	a0,s1,0x16cf0
   16cea:	08b00793          	li	a5,139
   16cee:	c01c                	sw	a5,0(s0)
   16cf0:	60ae                	ld	ra,200(sp)
   16cf2:	640e                	ld	s0,192(sp)
   16cf4:	74ea                	ld	s1,184(sp)
   16cf6:	6169                	addi	sp,sp,208
   16cf8:	8082                	ret
   16cfa:	08b00793          	li	a5,139
   16cfe:	c11c                	sw	a5,0(a0)
   16d00:	557d                	li	a0,-1
   16d02:	b7fd                	j	0x16cf0
   16d04:	8736                	mv	a4,a3
   16d06:	86b2                	mv	a3,a2
   16d08:	862e                	mv	a2,a1
   16d0a:	85aa                	mv	a1,a0
   16d0c:	7501b503          	ld	a0,1872(gp)
   16d10:	bf85                	j	0x16c80
   16d12:	1141                	addi	sp,sp,-16
   16d14:	872e                	mv	a4,a1
   16d16:	e022                	sd	s0,0(sp)
   16d18:	85b2                	mv	a1,a2
   16d1a:	842a                	mv	s0,a0
   16d1c:	8636                	mv	a2,a3
   16d1e:	853a                	mv	a0,a4
   16d20:	0000d797          	auipc	a5,0xd
   16d24:	0207a423          	sw	zero,40(a5) # 0x23d48
   16d28:	e406                	sd	ra,8(sp)
   16d2a:	1da080ef          	jal	ra,0x1ef04
   16d2e:	57fd                	li	a5,-1
   16d30:	00f50663          	beq	a0,a5,0x16d3c
   16d34:	60a2                	ld	ra,8(sp)
   16d36:	6402                	ld	s0,0(sp)
   16d38:	0141                	addi	sp,sp,16
   16d3a:	8082                	ret
   16d3c:	0000d797          	auipc	a5,0xd
   16d40:	00c7a783          	lw	a5,12(a5) # 0x23d48
   16d44:	dbe5                	beqz	a5,0x16d34
   16d46:	60a2                	ld	ra,8(sp)
   16d48:	c01c                	sw	a5,0(s0)
   16d4a:	6402                	ld	s0,0(sp)
   16d4c:	0141                	addi	sp,sp,16
   16d4e:	8082                	ret
   16d50:	1101                	addi	sp,sp,-32
   16d52:	e822                	sd	s0,16(sp)
   16d54:	e426                	sd	s1,8(sp)
   16d56:	ec06                	sd	ra,24(sp)
   16d58:	7501b783          	ld	a5,1872(gp)
   16d5c:	84aa                	mv	s1,a0
   16d5e:	842e                	mv	s0,a1
   16d60:	c399                	beqz	a5,0x16d66
   16d62:	4bb8                	lw	a4,80(a5)
   16d64:	cf49                	beqz	a4,0x16dfe
   16d66:	01041703          	lh	a4,16(s0)
   16d6a:	03071793          	slli	a5,a4,0x30
   16d6e:	00877693          	andi	a3,a4,8
   16d72:	93c1                	srli	a5,a5,0x30
   16d74:	c29d                	beqz	a3,0x16d9a
   16d76:	6c14                	ld	a3,24(s0)
   16d78:	ce9d                	beqz	a3,0x16db6
   16d7a:	0017f613          	andi	a2,a5,1
   16d7e:	ce39                	beqz	a2,0x16ddc
   16d80:	5010                	lw	a2,32(s0)
   16d82:	00042623          	sw	zero,12(s0)
   16d86:	4501                	li	a0,0
   16d88:	40c0063b          	negw	a2,a2
   16d8c:	d410                	sw	a2,40(s0)
   16d8e:	ceb9                	beqz	a3,0x16dec
   16d90:	60e2                	ld	ra,24(sp)
   16d92:	6442                	ld	s0,16(sp)
   16d94:	64a2                	ld	s1,8(sp)
   16d96:	6105                	addi	sp,sp,32
   16d98:	8082                	ret
   16d9a:	0107f693          	andi	a3,a5,16
   16d9e:	cac1                	beqz	a3,0x16e2e
   16da0:	8b91                	andi	a5,a5,4
   16da2:	e3b5                	bnez	a5,0x16e06
   16da4:	6c14                	ld	a3,24(s0)
   16da6:	00876713          	ori	a4,a4,8
   16daa:	03071793          	slli	a5,a4,0x30
   16dae:	00e41823          	sh	a4,16(s0)
   16db2:	93c1                	srli	a5,a5,0x30
   16db4:	f2f9                	bnez	a3,0x16d7a
   16db6:	2807f613          	andi	a2,a5,640
   16dba:	20000593          	li	a1,512
   16dbe:	fab60ee3          	beq	a2,a1,0x16d7a
   16dc2:	85a2                	mv	a1,s0
   16dc4:	8526                	mv	a0,s1
   16dc6:	11b030ef          	jal	ra,0x1a6e0
   16dca:	01041703          	lh	a4,16(s0)
   16dce:	6c14                	ld	a3,24(s0)
   16dd0:	03071793          	slli	a5,a4,0x30
   16dd4:	93c1                	srli	a5,a5,0x30
   16dd6:	0017f613          	andi	a2,a5,1
   16dda:	f25d                	bnez	a2,0x16d80
   16ddc:	0027f613          	andi	a2,a5,2
   16de0:	4581                	li	a1,0
   16de2:	e211                	bnez	a2,0x16de6
   16de4:	500c                	lw	a1,32(s0)
   16de6:	c44c                	sw	a1,12(s0)
   16de8:	4501                	li	a0,0
   16dea:	f2dd                	bnez	a3,0x16d90
   16dec:	0807f793          	andi	a5,a5,128
   16df0:	d3c5                	beqz	a5,0x16d90
   16df2:	04076713          	ori	a4,a4,64
   16df6:	00e41823          	sh	a4,16(s0)
   16dfa:	557d                	li	a0,-1
   16dfc:	bf51                	j	0x16d90
   16dfe:	853e                	mv	a0,a5
   16e00:	57a000ef          	jal	ra,0x1737a
   16e04:	b78d                	j	0x16d66
   16e06:	6c2c                	ld	a1,88(s0)
   16e08:	cd81                	beqz	a1,0x16e20
   16e0a:	07440793          	addi	a5,s0,116
   16e0e:	00f58763          	beq	a1,a5,0x16e1c
   16e12:	8526                	mv	a0,s1
   16e14:	7e2000ef          	jal	ra,0x175f6
   16e18:	01041703          	lh	a4,16(s0)
   16e1c:	04043c23          	sd	zero,88(s0)
   16e20:	6c14                	ld	a3,24(s0)
   16e22:	fdb77713          	andi	a4,a4,-37
   16e26:	00042423          	sw	zero,8(s0)
   16e2a:	e014                	sd	a3,0(s0)
   16e2c:	bfad                	j	0x16da6
   16e2e:	47a5                	li	a5,9
   16e30:	c09c                	sw	a5,0(s1)
   16e32:	04076713          	ori	a4,a4,64
   16e36:	00e41823          	sh	a4,16(s0)
   16e3a:	557d                	li	a0,-1
   16e3c:	bf91                	j	0x16d90
   16e3e:	1141                	addi	sp,sp,-16
   16e40:	4519                	li	a0,6
   16e42:	e406                	sd	ra,8(sp)
   16e44:	5df040ef          	jal	ra,0x1bc22
   16e48:	4505                	li	a0,1
   16e4a:	709070ef          	jal	ra,0x1ed52
   16e4e:	715d                	addi	sp,sp,-80
   16e50:	f052                	sd	s4,32(sp)
   16e52:	7381ba03          	ld	s4,1848(gp)
   16e56:	f84a                	sd	s2,48(sp)
   16e58:	1f8a3903          	ld	s2,504(s4)
   16e5c:	e486                	sd	ra,72(sp)
   16e5e:	e0a2                	sd	s0,64(sp)
   16e60:	fc26                	sd	s1,56(sp)
   16e62:	f44e                	sd	s3,40(sp)
   16e64:	ec56                	sd	s5,24(sp)
   16e66:	e85a                	sd	s6,16(sp)
   16e68:	e45e                	sd	s7,8(sp)
   16e6a:	e062                	sd	s8,0(sp)
   16e6c:	02090863          	beqz	s2,0x16e9c
   16e70:	8b2a                	mv	s6,a0
   16e72:	8bae                	mv	s7,a1
   16e74:	4a85                	li	s5,1
   16e76:	59fd                	li	s3,-1
   16e78:	00892483          	lw	s1,8(s2)
   16e7c:	fff4841b          	addiw	s0,s1,-1
   16e80:	00044e63          	bltz	s0,0x16e9c
   16e84:	048e                	slli	s1,s1,0x3
   16e86:	94ca                	add	s1,s1,s2
   16e88:	020b8663          	beqz	s7,0x16eb4
   16e8c:	2084b783          	ld	a5,520(s1) # 0x100208
   16e90:	03778263          	beq	a5,s7,0x16eb4
   16e94:	347d                	addiw	s0,s0,-1
   16e96:	14e1                	addi	s1,s1,-8
   16e98:	ff3418e3          	bne	s0,s3,0x16e88
   16e9c:	60a6                	ld	ra,72(sp)
   16e9e:	6406                	ld	s0,64(sp)
   16ea0:	74e2                	ld	s1,56(sp)
   16ea2:	7942                	ld	s2,48(sp)
   16ea4:	79a2                	ld	s3,40(sp)
   16ea6:	7a02                	ld	s4,32(sp)
   16ea8:	6ae2                	ld	s5,24(sp)
   16eaa:	6b42                	ld	s6,16(sp)
   16eac:	6ba2                	ld	s7,8(sp)
   16eae:	6c02                	ld	s8,0(sp)
   16eb0:	6161                	addi	sp,sp,80
   16eb2:	8082                	ret
   16eb4:	00892783          	lw	a5,8(s2)
   16eb8:	6498                	ld	a4,8(s1)
   16eba:	37fd                	addiw	a5,a5,-1
   16ebc:	04878463          	beq	a5,s0,0x16f04
   16ec0:	0004b423          	sd	zero,8(s1)
   16ec4:	db61                	beqz	a4,0x16e94
   16ec6:	31092783          	lw	a5,784(s2)
   16eca:	008a96bb          	sllw	a3,s5,s0
   16ece:	00892c03          	lw	s8,8(s2)
   16ed2:	8ff5                	and	a5,a5,a3
   16ed4:	2781                	sext.w	a5,a5
   16ed6:	ef89                	bnez	a5,0x16ef0
   16ed8:	9702                	jalr	a4
   16eda:	00892703          	lw	a4,8(s2)
   16ede:	1f8a3783          	ld	a5,504(s4)
   16ee2:	01871463          	bne	a4,s8,0x16eea
   16ee6:	faf907e3          	beq	s2,a5,0x16e94
   16eea:	dbcd                	beqz	a5,0x16e9c
   16eec:	893e                	mv	s2,a5
   16eee:	b769                	j	0x16e78
   16ef0:	31492783          	lw	a5,788(s2)
   16ef4:	1084b583          	ld	a1,264(s1)
   16ef8:	8ff5                	and	a5,a5,a3
   16efa:	2781                	sext.w	a5,a5
   16efc:	e799                	bnez	a5,0x16f0a
   16efe:	855a                	mv	a0,s6
   16f00:	9702                	jalr	a4
   16f02:	bfe1                	j	0x16eda
   16f04:	00892423          	sw	s0,8(s2)
   16f08:	bf75                	j	0x16ec4
   16f0a:	852e                	mv	a0,a1
   16f0c:	9702                	jalr	a4
   16f0e:	b7f1                	j	0x16eda
   16f10:	1141                	addi	sp,sp,-16
   16f12:	e022                	sd	s0,0(sp)
   16f14:	842a                	mv	s0,a0
   16f16:	852e                	mv	a0,a1
   16f18:	0000d797          	auipc	a5,0xd
   16f1c:	e207a823          	sw	zero,-464(a5) # 0x23d48
   16f20:	e406                	sd	ra,8(sp)
   16f22:	5fb070ef          	jal	ra,0x1ed1c
   16f26:	57fd                	li	a5,-1
   16f28:	00f50663          	beq	a0,a5,0x16f34
   16f2c:	60a2                	ld	ra,8(sp)
   16f2e:	6402                	ld	s0,0(sp)
   16f30:	0141                	addi	sp,sp,16
   16f32:	8082                	ret
   16f34:	0000d797          	auipc	a5,0xd
   16f38:	e147a783          	lw	a5,-492(a5) # 0x23d48
   16f3c:	dbe5                	beqz	a5,0x16f2c
   16f3e:	60a2                	ld	ra,8(sp)
   16f40:	c01c                	sw	a5,0(s0)
   16f42:	6402                	ld	s0,0(sp)
   16f44:	0141                	addi	sp,sp,16
   16f46:	8082                	ret
   16f48:	01059783          	lh	a5,16(a1)
   16f4c:	7179                	addi	sp,sp,-48
   16f4e:	f022                	sd	s0,32(sp)
   16f50:	e44e                	sd	s3,8(sp)
   16f52:	f406                	sd	ra,40(sp)
   16f54:	ec26                	sd	s1,24(sp)
   16f56:	e84a                	sd	s2,16(sp)
   16f58:	0087f693          	andi	a3,a5,8
   16f5c:	842e                	mv	s0,a1
   16f5e:	89aa                	mv	s3,a0
   16f60:	eecd                	bnez	a3,0x1701a
   16f62:	6705                	lui	a4,0x1
   16f64:	80070713          	addi	a4,a4,-2048 # 0x800
   16f68:	4594                	lw	a3,8(a1)
   16f6a:	8fd9                	or	a5,a5,a4
   16f6c:	00f59823          	sh	a5,16(a1)
   16f70:	10d05363          	blez	a3,0x17076
   16f74:	6438                	ld	a4,72(s0)
   16f76:	cb51                	beqz	a4,0x1700a
   16f78:	0009a483          	lw	s1,0(s3)
   16f7c:	03079693          	slli	a3,a5,0x30
   16f80:	0009a023          	sw	zero,0(s3)
   16f84:	03379613          	slli	a2,a5,0x33
   16f88:	780c                	ld	a1,48(s0)
   16f8a:	92c1                	srli	a3,a3,0x30
   16f8c:	0e064963          	bltz	a2,0x1707e
   16f90:	4601                	li	a2,0
   16f92:	4685                	li	a3,1
   16f94:	854e                	mv	a0,s3
   16f96:	9702                	jalr	a4
   16f98:	57fd                	li	a5,-1
   16f9a:	862a                	mv	a2,a0
   16f9c:	10f50963          	beq	a0,a5,0x170ae
   16fa0:	01045683          	lhu	a3,16(s0)
   16fa4:	6438                	ld	a4,72(s0)
   16fa6:	780c                	ld	a1,48(s0)
   16fa8:	8a91                	andi	a3,a3,4
   16faa:	c699                	beqz	a3,0x16fb8
   16fac:	4414                	lw	a3,8(s0)
   16fae:	6c3c                	ld	a5,88(s0)
   16fb0:	8e15                	sub	a2,a2,a3
   16fb2:	c399                	beqz	a5,0x16fb8
   16fb4:	583c                	lw	a5,112(s0)
   16fb6:	8e1d                	sub	a2,a2,a5
   16fb8:	4681                	li	a3,0
   16fba:	854e                	mv	a0,s3
   16fbc:	9702                	jalr	a4
   16fbe:	57fd                	li	a5,-1
   16fc0:	0cf51163          	bne	a0,a5,0x17082
   16fc4:	0009a703          	lw	a4,0(s3)
   16fc8:	01041783          	lh	a5,16(s0)
   16fcc:	0e070f63          	beqz	a4,0x170ca
   16fd0:	46f5                	li	a3,29
   16fd2:	00d70563          	beq	a4,a3,0x16fdc
   16fd6:	46d9                	li	a3,22
   16fd8:	0ed71f63          	bne	a4,a3,0x170d6
   16fdc:	6c14                	ld	a3,24(s0)
   16fde:	777d                	lui	a4,0xfffff
   16fe0:	7ff70713          	addi	a4,a4,2047 # 0xfffffffffffff7ff
   16fe4:	8ff9                	and	a5,a5,a4
   16fe6:	00f41823          	sh	a5,16(s0)
   16fea:	00042423          	sw	zero,8(s0)
   16fee:	e014                	sd	a3,0(s0)
   16ff0:	6c2c                	ld	a1,88(s0)
   16ff2:	0099a023          	sw	s1,0(s3)
   16ff6:	c991                	beqz	a1,0x1700a
   16ff8:	07440793          	addi	a5,s0,116
   16ffc:	00f58563          	beq	a1,a5,0x17006
   17000:	854e                	mv	a0,s3
   17002:	5f4000ef          	jal	ra,0x175f6
   17006:	04043c23          	sd	zero,88(s0)
   1700a:	4501                	li	a0,0
   1700c:	70a2                	ld	ra,40(sp)
   1700e:	7402                	ld	s0,32(sp)
   17010:	64e2                	ld	s1,24(sp)
   17012:	6942                	ld	s2,16(sp)
   17014:	69a2                	ld	s3,8(sp)
   17016:	6145                	addi	sp,sp,48
   17018:	8082                	ret
   1701a:	0185b903          	ld	s2,24(a1)
   1701e:	fe0906e3          	beqz	s2,0x1700a
   17022:	6184                	ld	s1,0(a1)
   17024:	03079713          	slli	a4,a5,0x30
   17028:	9341                	srli	a4,a4,0x30
   1702a:	8b0d                	andi	a4,a4,3
   1702c:	0125b023          	sd	s2,0(a1)
   17030:	412484bb          	subw	s1,s1,s2
   17034:	4781                	li	a5,0
   17036:	e311                	bnez	a4,0x1703a
   17038:	519c                	lw	a5,32(a1)
   1703a:	c45c                	sw	a5,12(s0)
   1703c:	00904663          	bgtz	s1,0x17048
   17040:	b7e9                	j	0x1700a
   17042:	992a                	add	s2,s2,a0
   17044:	fc9053e3          	blez	s1,0x1700a
   17048:	603c                	ld	a5,64(s0)
   1704a:	780c                	ld	a1,48(s0)
   1704c:	86a6                	mv	a3,s1
   1704e:	864a                	mv	a2,s2
   17050:	854e                	mv	a0,s3
   17052:	9782                	jalr	a5
   17054:	9c89                	subw	s1,s1,a0
   17056:	fea046e3          	bgtz	a0,0x17042
   1705a:	01045783          	lhu	a5,16(s0)
   1705e:	70a2                	ld	ra,40(sp)
   17060:	64e2                	ld	s1,24(sp)
   17062:	0407e793          	ori	a5,a5,64
   17066:	00f41823          	sh	a5,16(s0)
   1706a:	7402                	ld	s0,32(sp)
   1706c:	6942                	ld	s2,16(sp)
   1706e:	69a2                	ld	s3,8(sp)
   17070:	557d                	li	a0,-1
   17072:	6145                	addi	sp,sp,48
   17074:	8082                	ret
   17076:	59b8                	lw	a4,112(a1)
   17078:	eee04ee3          	bgtz	a4,0x16f74
   1707c:	b779                	j	0x1700a
   1707e:	6850                	ld	a2,144(s0)
   17080:	b725                	j	0x16fa8
   17082:	01045783          	lhu	a5,16(s0)
   17086:	777d                	lui	a4,0xfffff
   17088:	7ff70713          	addi	a4,a4,2047 # 0xfffffffffffff7ff
   1708c:	8ff9                	and	a5,a5,a4
   1708e:	6c14                	ld	a3,24(s0)
   17090:	0107979b          	slliw	a5,a5,0x10
   17094:	4107d79b          	sraiw	a5,a5,0x10
   17098:	00f41823          	sh	a5,16(s0)
   1709c:	00042423          	sw	zero,8(s0)
   170a0:	e014                	sd	a3,0(s0)
   170a2:	03379713          	slli	a4,a5,0x33
   170a6:	f40755e3          	bgez	a4,0x16ff0
   170aa:	e848                	sd	a0,144(s0)
   170ac:	b791                	j	0x16ff0
   170ae:	0009a783          	lw	a5,0(s3)
   170b2:	ee0787e3          	beqz	a5,0x16fa0
   170b6:	4775                	li	a4,29
   170b8:	00e78563          	beq	a5,a4,0x170c2
   170bc:	4759                	li	a4,22
   170be:	f8e79ee3          	bne	a5,a4,0x1705a
   170c2:	0099a023          	sw	s1,0(s3)
   170c6:	4501                	li	a0,0
   170c8:	b791                	j	0x1700c
   170ca:	777d                	lui	a4,0xfffff
   170cc:	7ff70713          	addi	a4,a4,2047 # 0xfffffffffffff7ff
   170d0:	6c14                	ld	a3,24(s0)
   170d2:	8ff9                	and	a5,a5,a4
   170d4:	b7d1                	j	0x17098
   170d6:	0407e793          	ori	a5,a5,64
   170da:	00f41823          	sh	a5,16(s0)
   170de:	557d                	li	a0,-1
   170e0:	b735                	j	0x1700c
   170e2:	1101                	addi	sp,sp,-32
   170e4:	e822                	sd	s0,16(sp)
   170e6:	ec06                	sd	ra,24(sp)
   170e8:	842a                	mv	s0,a0
   170ea:	c119                	beqz	a0,0x170f0
   170ec:	493c                	lw	a5,80(a0)
   170ee:	cb89                	beqz	a5,0x17100
   170f0:	01059783          	lh	a5,16(a1)
   170f4:	ef89                	bnez	a5,0x1710e
   170f6:	60e2                	ld	ra,24(sp)
   170f8:	6442                	ld	s0,16(sp)
   170fa:	4501                	li	a0,0
   170fc:	6105                	addi	sp,sp,32
   170fe:	8082                	ret
   17100:	e42e                	sd	a1,8(sp)
   17102:	278000ef          	jal	ra,0x1737a
   17106:	65a2                	ld	a1,8(sp)
   17108:	01059783          	lh	a5,16(a1)
   1710c:	d7ed                	beqz	a5,0x170f6
   1710e:	8522                	mv	a0,s0
   17110:	6442                	ld	s0,16(sp)
   17112:	60e2                	ld	ra,24(sp)
   17114:	6105                	addi	sp,sp,32
   17116:	bd0d                	j	0x16f48
   17118:	85aa                	mv	a1,a0
   1711a:	c501                	beqz	a0,0x17122
   1711c:	7501b503          	ld	a0,1872(gp)
   17120:	b7c9                	j	0x170e2
   17122:	00000597          	auipc	a1,0x0
   17126:	fc058593          	addi	a1,a1,-64 # 0x170e2
   1712a:	7381b503          	ld	a0,1848(gp)
   1712e:	3010006f          	j	0x17c2e
   17132:	4501                	li	a0,0
   17134:	8082                	ret
   17136:	00007597          	auipc	a1,0x7
   1713a:	dd658593          	addi	a1,a1,-554 # 0x1df0c
   1713e:	2f10006f          	j	0x17c2e
   17142:	7139                	addi	sp,sp,-64
   17144:	fc06                	sd	ra,56(sp)
   17146:	f822                	sd	s0,48(sp)
   17148:	f426                	sd	s1,40(sp)
   1714a:	f04a                	sd	s2,32(sp)
   1714c:	ec4e                	sd	s3,24(sp)
   1714e:	e852                	sd	s4,16(sp)
   17150:	e456                	sd	s5,8(sp)
   17152:	e05a                	sd	s6,0(sp)
   17154:	6500                	ld	s0,8(a0)
   17156:	00000717          	auipc	a4,0x0
   1715a:	fe070713          	addi	a4,a4,-32 # 0x17136
   1715e:	ed38                	sd	a4,88(a0)
   17160:	53850793          	addi	a5,a0,1336
   17164:	470d                	li	a4,3
   17166:	52e52423          	sw	a4,1320(a0)
   1716a:	52f53823          	sd	a5,1328(a0)
   1716e:	52053023          	sd	zero,1312(a0)
   17172:	4791                	li	a5,4
   17174:	892a                	mv	s2,a0
   17176:	c81c                	sw	a5,16(s0)
   17178:	4621                	li	a2,8
   1717a:	4581                	li	a1,0
   1717c:	0a042623          	sw	zero,172(s0)
   17180:	00043023          	sd	zero,0(s0)
   17184:	00043423          	sd	zero,8(s0)
   17188:	00043c23          	sd	zero,24(s0)
   1718c:	02042023          	sw	zero,32(s0)
   17190:	02042423          	sw	zero,40(s0)
   17194:	0a440513          	addi	a0,s0,164
   17198:	cc5fb0ef          	jal	ra,0x12e5c
   1719c:	01093483          	ld	s1,16(s2)
   171a0:	00005b17          	auipc	s6,0x5
   171a4:	bcab0b13          	addi	s6,s6,-1078 # 0x1bd6a
   171a8:	00005a97          	auipc	s5,0x5
   171ac:	bfea8a93          	addi	s5,s5,-1026 # 0x1bda6
   171b0:	00005a17          	auipc	s4,0x5
   171b4:	c4aa0a13          	addi	s4,s4,-950 # 0x1bdfa
   171b8:	00005997          	auipc	s3,0x5
   171bc:	c8498993          	addi	s3,s3,-892 # 0x1be3c
   171c0:	67c1                	lui	a5,0x10
   171c2:	03643c23          	sd	s6,56(s0)
   171c6:	05543023          	sd	s5,64(s0)
   171ca:	05443423          	sd	s4,72(s0)
   171ce:	05343823          	sd	s3,80(s0)
   171d2:	f800                	sd	s0,48(s0)
   171d4:	07a5                	addi	a5,a5,9
   171d6:	c89c                	sw	a5,16(s1)
   171d8:	4621                	li	a2,8
   171da:	4581                	li	a1,0
   171dc:	0a04a623          	sw	zero,172(s1)
   171e0:	0004b023          	sd	zero,0(s1)
   171e4:	0004b423          	sd	zero,8(s1)
   171e8:	0004bc23          	sd	zero,24(s1)
   171ec:	0204a023          	sw	zero,32(s1)
   171f0:	0204a423          	sw	zero,40(s1)
   171f4:	0a448513          	addi	a0,s1,164
   171f8:	c65fb0ef          	jal	ra,0x12e5c
   171fc:	01893403          	ld	s0,24(s2)
   17200:	000207b7          	lui	a5,0x20
   17204:	0364bc23          	sd	s6,56(s1)
   17208:	0554b023          	sd	s5,64(s1)
   1720c:	0544b423          	sd	s4,72(s1)
   17210:	0534b823          	sd	s3,80(s1)
   17214:	f884                	sd	s1,48(s1)
   17216:	07c9                	addi	a5,a5,18
   17218:	c81c                	sw	a5,16(s0)
   1721a:	0a042623          	sw	zero,172(s0)
   1721e:	00043023          	sd	zero,0(s0)
   17222:	00043423          	sd	zero,8(s0)
   17226:	00043c23          	sd	zero,24(s0)
   1722a:	02042023          	sw	zero,32(s0)
   1722e:	02042423          	sw	zero,40(s0)
   17232:	0a440513          	addi	a0,s0,164
   17236:	4621                	li	a2,8
   17238:	4581                	li	a1,0
   1723a:	c23fb0ef          	jal	ra,0x12e5c
   1723e:	70e2                	ld	ra,56(sp)
   17240:	03643c23          	sd	s6,56(s0)
   17244:	05543023          	sd	s5,64(s0)
   17248:	05443423          	sd	s4,72(s0)
   1724c:	05343823          	sd	s3,80(s0)
   17250:	f800                	sd	s0,48(s0)
   17252:	7442                	ld	s0,48(sp)
   17254:	4785                	li	a5,1
   17256:	04f92823          	sw	a5,80(s2)
   1725a:	74a2                	ld	s1,40(sp)
   1725c:	7902                	ld	s2,32(sp)
   1725e:	69e2                	ld	s3,24(sp)
   17260:	6a42                	ld	s4,16(sp)
   17262:	6aa2                	ld	s5,8(sp)
   17264:	6b02                	ld	s6,0(sp)
   17266:	6121                	addi	sp,sp,64
   17268:	8082                	ret
   1726a:	4501                	li	a0,0
   1726c:	8082                	ret
   1726e:	1101                	addi	sp,sp,-32
   17270:	e426                	sd	s1,8(sp)
   17272:	0b000613          	li	a2,176
   17276:	fff5849b          	addiw	s1,a1,-1
   1727a:	02c484b3          	mul	s1,s1,a2
   1727e:	e04a                	sd	s2,0(sp)
   17280:	892e                	mv	s2,a1
   17282:	e822                	sd	s0,16(sp)
   17284:	ec06                	sd	ra,24(sp)
   17286:	0c848593          	addi	a1,s1,200
   1728a:	c7cfb0ef          	jal	ra,0x12706
   1728e:	842a                	mv	s0,a0
   17290:	cd01                	beqz	a0,0x172a8
   17292:	0561                	addi	a0,a0,24
   17294:	00043023          	sd	zero,0(s0)
   17298:	01242423          	sw	s2,8(s0)
   1729c:	e808                	sd	a0,16(s0)
   1729e:	0b048613          	addi	a2,s1,176
   172a2:	4581                	li	a1,0
   172a4:	bb9fb0ef          	jal	ra,0x12e5c
   172a8:	60e2                	ld	ra,24(sp)
   172aa:	8522                	mv	a0,s0
   172ac:	6442                	ld	s0,16(sp)
   172ae:	64a2                	ld	s1,8(sp)
   172b0:	6902                	ld	s2,0(sp)
   172b2:	6105                	addi	sp,sp,32
   172b4:	8082                	ret
   172b6:	7179                	addi	sp,sp,-48
   172b8:	ec26                	sd	s1,24(sp)
   172ba:	7381b483          	ld	s1,1848(gp)
   172be:	48bc                	lw	a5,80(s1)
   172c0:	e84a                	sd	s2,16(sp)
   172c2:	f406                	sd	ra,40(sp)
   172c4:	f022                	sd	s0,32(sp)
   172c6:	e44e                	sd	s3,8(sp)
   172c8:	892a                	mv	s2,a0
   172ca:	c3c9                	beqz	a5,0x1734c
   172cc:	52048493          	addi	s1,s1,1312
   172d0:	0b000993          	li	s3,176
   172d4:	449c                	lw	a5,8(s1)
   172d6:	6880                	ld	s0,16(s1)
   172d8:	06f05663          	blez	a5,0x17344
   172dc:	37fd                	addiw	a5,a5,-1
   172de:	1782                	slli	a5,a5,0x20
   172e0:	9381                	srli	a5,a5,0x20
   172e2:	0785                	addi	a5,a5,1
   172e4:	033787b3          	mul	a5,a5,s3
   172e8:	97a2                	add	a5,a5,s0
   172ea:	a029                	j	0x172f4
   172ec:	0b040413          	addi	s0,s0,176
   172f0:	04878a63          	beq	a5,s0,0x17344
   172f4:	01041703          	lh	a4,16(s0)
   172f8:	fb75                	bnez	a4,0x172ec
   172fa:	77c1                	lui	a5,0xffff0
   172fc:	0785                	addi	a5,a5,1
   172fe:	0a042623          	sw	zero,172(s0)
   17302:	00043023          	sd	zero,0(s0)
   17306:	00043423          	sd	zero,8(s0)
   1730a:	c81c                	sw	a5,16(s0)
   1730c:	00043c23          	sd	zero,24(s0)
   17310:	02042023          	sw	zero,32(s0)
   17314:	02042423          	sw	zero,40(s0)
   17318:	4621                	li	a2,8
   1731a:	4581                	li	a1,0
   1731c:	0a440513          	addi	a0,s0,164
   17320:	b3dfb0ef          	jal	ra,0x12e5c
   17324:	04043c23          	sd	zero,88(s0)
   17328:	06042023          	sw	zero,96(s0)
   1732c:	06043c23          	sd	zero,120(s0)
   17330:	08042023          	sw	zero,128(s0)
   17334:	70a2                	ld	ra,40(sp)
   17336:	8522                	mv	a0,s0
   17338:	7402                	ld	s0,32(sp)
   1733a:	64e2                	ld	s1,24(sp)
   1733c:	6942                	ld	s2,16(sp)
   1733e:	69a2                	ld	s3,8(sp)
   17340:	6145                	addi	sp,sp,48
   17342:	8082                	ret
   17344:	6080                	ld	s0,0(s1)
   17346:	c419                	beqz	s0,0x17354
   17348:	84a2                	mv	s1,s0
   1734a:	b769                	j	0x172d4
   1734c:	8526                	mv	a0,s1
   1734e:	df5ff0ef          	jal	ra,0x17142
   17352:	bfad                	j	0x172cc
   17354:	4591                	li	a1,4
   17356:	854a                	mv	a0,s2
   17358:	f17ff0ef          	jal	ra,0x1726e
   1735c:	e088                	sd	a0,0(s1)
   1735e:	842a                	mv	s0,a0
   17360:	f565                	bnez	a0,0x17348
   17362:	47b1                	li	a5,12
   17364:	00f92023          	sw	a5,0(s2)
   17368:	b7f1                	j	0x17334
   1736a:	00007597          	auipc	a1,0x7
   1736e:	ba258593          	addi	a1,a1,-1118 # 0x1df0c
   17372:	7381b503          	ld	a0,1848(gp)
   17376:	0b90006f          	j	0x17c2e
   1737a:	493c                	lw	a5,80(a0)
   1737c:	c391                	beqz	a5,0x17380
   1737e:	8082                	ret
   17380:	b3c9                	j	0x17142
   17382:	8082                	ret
   17384:	8082                	ret
   17386:	8082                	ret
   17388:	8082                	ret
   1738a:	00000597          	auipc	a1,0x0
   1738e:	da858593          	addi	a1,a1,-600 # 0x17132
   17392:	7501b503          	ld	a0,1872(gp)
   17396:	0170006f          	j	0x17bac
   1739a:	00000597          	auipc	a1,0x0
   1739e:	ed058593          	addi	a1,a1,-304 # 0x1726a
   173a2:	7501b503          	ld	a0,1872(gp)
   173a6:	0070006f          	j	0x17bac
   173aa:	1101                	addi	sp,sp,-32
   173ac:	e822                	sd	s0,16(sp)
   173ae:	0000b797          	auipc	a5,0xb
   173b2:	75278793          	addi	a5,a5,1874 # 0x22b00
   173b6:	0000b417          	auipc	s0,0xb
   173ba:	74240413          	addi	s0,s0,1858 # 0x22af8
   173be:	8f81                	sub	a5,a5,s0
   173c0:	e426                	sd	s1,8(sp)
   173c2:	ec06                	sd	ra,24(sp)
   173c4:	4037d493          	srai	s1,a5,0x3
   173c8:	c881                	beqz	s1,0x173d8
   173ca:	17e1                	addi	a5,a5,-8
   173cc:	943e                	add	s0,s0,a5
   173ce:	601c                	ld	a5,0(s0)
   173d0:	14fd                	addi	s1,s1,-1
   173d2:	1461                	addi	s0,s0,-8
   173d4:	9782                	jalr	a5
   173d6:	fce5                	bnez	s1,0x173ce
   173d8:	60e2                	ld	ra,24(sp)
   173da:	6442                	ld	s0,16(sp)
   173dc:	64a2                	ld	s1,8(sp)
   173de:	6105                	addi	sp,sp,32
   173e0:	8082                	ret
   173e2:	715d                	addi	sp,sp,-80
   173e4:	e0a2                	sd	s0,64(sp)
   173e6:	f44e                	sd	s3,40(sp)
   173e8:	e85a                	sd	s6,16(sp)
   173ea:	e486                	sd	ra,72(sp)
   173ec:	fc26                	sd	s1,56(sp)
   173ee:	f84a                	sd	s2,48(sp)
   173f0:	f052                	sd	s4,32(sp)
   173f2:	ec56                	sd	s5,24(sp)
   173f4:	8b2a                	mv	s6,a0
   173f6:	89ae                	mv	s3,a1
   173f8:	8432                	mv	s0,a2
   173fa:	254030ef          	jal	ra,0x1a64e
   173fe:	4785                	li	a5,1
   17400:	00f51e63          	bne	a0,a5,0x1741c
   17404:	fff9879b          	addiw	a5,s3,-1
   17408:	0fe00713          	li	a4,254
   1740c:	00f76863          	bltu	a4,a5,0x1741c
   17410:	0ff9f713          	andi	a4,s3,255
   17414:	00e10423          	sb	a4,8(sp)
   17418:	4905                	li	s2,1
   1741a:	a839                	j	0x17438
   1741c:	0a440693          	addi	a3,s0,164
   17420:	864e                	mv	a2,s3
   17422:	002c                	addi	a1,sp,8
   17424:	855a                	mv	a0,s6
   17426:	195060ef          	jal	ra,0x1ddba
   1742a:	57fd                	li	a5,-1
   1742c:	892a                	mv	s2,a0
   1742e:	06f50963          	beq	a0,a5,0x174a0
   17432:	c525                	beqz	a0,0x1749a
   17434:	00814703          	lbu	a4,8(sp)
   17438:	4481                	li	s1,0
   1743a:	5a7d                	li	s4,-1
   1743c:	4aa9                	li	s5,10
   1743e:	a831                	j	0x1745a
   17440:	601c                	ld	a5,0(s0)
   17442:	00178693          	addi	a3,a5,1
   17446:	e014                	sd	a3,0(s0)
   17448:	00e78023          	sb	a4,0(a5)
   1744c:	0485                	addi	s1,s1,1
   1744e:	003c                	addi	a5,sp,8
   17450:	97a6                	add	a5,a5,s1
   17452:	0524f463          	bgeu	s1,s2,0x1749a
   17456:	0007c703          	lbu	a4,0(a5)
   1745a:	445c                	lw	a5,12(s0)
   1745c:	37fd                	addiw	a5,a5,-1
   1745e:	c45c                	sw	a5,12(s0)
   17460:	02079613          	slli	a2,a5,0x20
   17464:	0007869b          	sext.w	a3,a5
   17468:	fc065ce3          	bgez	a2,0x17440
   1746c:	541c                	lw	a5,40(s0)
   1746e:	85ba                	mv	a1,a4
   17470:	8622                	mv	a2,s0
   17472:	855a                	mv	a0,s6
   17474:	00f6c463          	blt	a3,a5,0x1747c
   17478:	fd5714e3          	bne	a4,s5,0x17440
   1747c:	037060ef          	jal	ra,0x1dcb2
   17480:	fd4516e3          	bne	a0,s4,0x1744c
   17484:	557d                	li	a0,-1
   17486:	60a6                	ld	ra,72(sp)
   17488:	6406                	ld	s0,64(sp)
   1748a:	74e2                	ld	s1,56(sp)
   1748c:	7942                	ld	s2,48(sp)
   1748e:	79a2                	ld	s3,40(sp)
   17490:	7a02                	ld	s4,32(sp)
   17492:	6ae2                	ld	s5,24(sp)
   17494:	6b42                	ld	s6,16(sp)
   17496:	6161                	addi	sp,sp,80
   17498:	8082                	ret
   1749a:	0009851b          	sext.w	a0,s3
   1749e:	b7e5                	j	0x17486
   174a0:	01045783          	lhu	a5,16(s0)
   174a4:	557d                	li	a0,-1
   174a6:	0407e793          	ori	a5,a5,64
   174aa:	00f41823          	sh	a5,16(s0)
   174ae:	bfe1                	j	0x17486
   174b0:	01061783          	lh	a5,16(a2)
   174b4:	03279713          	slli	a4,a5,0x32
   174b8:	00074c63          	bltz	a4,0x174d0
   174bc:	0ac62703          	lw	a4,172(a2)
   174c0:	6689                	lui	a3,0x2
   174c2:	8fd5                	or	a5,a5,a3
   174c4:	6689                	lui	a3,0x2
   174c6:	8f55                	or	a4,a4,a3
   174c8:	00f61823          	sh	a5,16(a2)
   174cc:	0ae62623          	sw	a4,172(a2)
   174d0:	bf09                	j	0x173e2
   174d2:	1101                	addi	sp,sp,-32
   174d4:	e822                	sd	s0,16(sp)
   174d6:	ec06                	sd	ra,24(sp)
   174d8:	7501b403          	ld	s0,1872(gp)
   174dc:	862e                	mv	a2,a1
   174de:	85aa                	mv	a1,a0
   174e0:	c019                	beqz	s0,0x174e6
   174e2:	483c                	lw	a5,80(s0)
   174e4:	c795                	beqz	a5,0x17510
   174e6:	01061783          	lh	a5,16(a2)
   174ea:	03279713          	slli	a4,a5,0x32
   174ee:	00074c63          	bltz	a4,0x17506
   174f2:	0ac62703          	lw	a4,172(a2)
   174f6:	6689                	lui	a3,0x2
   174f8:	8fd5                	or	a5,a5,a3
   174fa:	6689                	lui	a3,0x2
   174fc:	8f55                	or	a4,a4,a3
   174fe:	00f61823          	sh	a5,16(a2)
   17502:	0ae62623          	sw	a4,172(a2)
   17506:	8522                	mv	a0,s0
   17508:	6442                	ld	s0,16(sp)
   1750a:	60e2                	ld	ra,24(sp)
   1750c:	6105                	addi	sp,sp,32
   1750e:	bdd1                	j	0x173e2
   17510:	e02a                	sd	a0,0(sp)
   17512:	8522                	mv	a0,s0
   17514:	e432                	sd	a2,8(sp)
   17516:	e65ff0ef          	jal	ra,0x1737a
   1751a:	6622                	ld	a2,8(sp)
   1751c:	6582                	ld	a1,0(sp)
   1751e:	b7e1                	j	0x174e6
   17520:	7179                	addi	sp,sp,-48
   17522:	f022                	sd	s0,32(sp)
   17524:	ec26                	sd	s1,24(sp)
   17526:	e84a                	sd	s2,16(sp)
   17528:	e44e                	sd	s3,8(sp)
   1752a:	e052                	sd	s4,0(sp)
   1752c:	89ae                	mv	s3,a1
   1752e:	f406                	sd	ra,40(sp)
   17530:	0000ca17          	auipc	s4,0xc
   17534:	d18a0a13          	addi	s4,s4,-744 # 0x23248
   17538:	892a                	mv	s2,a0
   1753a:	9cdfb0ef          	jal	ra,0x12f06
   1753e:	010a3703          	ld	a4,16(s4)
   17542:	6785                	lui	a5,0x1
   17544:	fdf78413          	addi	s0,a5,-33 # 0xfdf
   17548:	6704                	ld	s1,8(a4)
   1754a:	41340433          	sub	s0,s0,s3
   1754e:	98f1                	andi	s1,s1,-4
   17550:	9426                	add	s0,s0,s1
   17552:	8031                	srli	s0,s0,0xc
   17554:	147d                	addi	s0,s0,-1
   17556:	0432                	slli	s0,s0,0xc
   17558:	00f44b63          	blt	s0,a5,0x1756e
   1755c:	4581                	li	a1,0
   1755e:	854a                	mv	a0,s2
   17560:	a33fb0ef          	jal	ra,0x12f92
   17564:	010a3783          	ld	a5,16(s4)
   17568:	97a6                	add	a5,a5,s1
   1756a:	00f50e63          	beq	a0,a5,0x17586
   1756e:	854a                	mv	a0,s2
   17570:	999fb0ef          	jal	ra,0x12f08
   17574:	70a2                	ld	ra,40(sp)
   17576:	7402                	ld	s0,32(sp)
   17578:	64e2                	ld	s1,24(sp)
   1757a:	6942                	ld	s2,16(sp)
   1757c:	69a2                	ld	s3,8(sp)
   1757e:	6a02                	ld	s4,0(sp)
   17580:	4501                	li	a0,0
   17582:	6145                	addi	sp,sp,48
   17584:	8082                	ret
   17586:	408005b3          	neg	a1,s0
   1758a:	854a                	mv	a0,s2
   1758c:	a07fb0ef          	jal	ra,0x12f92
   17590:	57fd                	li	a5,-1
   17592:	02f50c63          	beq	a0,a5,0x175ca
   17596:	0000c717          	auipc	a4,0xc
   1759a:	78a70713          	addi	a4,a4,1930 # 0x23d20
   1759e:	431c                	lw	a5,0(a4)
   175a0:	010a3683          	ld	a3,16(s4)
   175a4:	8c81                	sub	s1,s1,s0
   175a6:	0014e493          	ori	s1,s1,1
   175aa:	4087843b          	subw	s0,a5,s0
   175ae:	854a                	mv	a0,s2
   175b0:	e684                	sd	s1,8(a3)
   175b2:	c300                	sw	s0,0(a4)
   175b4:	955fb0ef          	jal	ra,0x12f08
   175b8:	70a2                	ld	ra,40(sp)
   175ba:	7402                	ld	s0,32(sp)
   175bc:	64e2                	ld	s1,24(sp)
   175be:	6942                	ld	s2,16(sp)
   175c0:	69a2                	ld	s3,8(sp)
   175c2:	6a02                	ld	s4,0(sp)
   175c4:	4505                	li	a0,1
   175c6:	6145                	addi	sp,sp,48
   175c8:	8082                	ret
   175ca:	4581                	li	a1,0
   175cc:	854a                	mv	a0,s2
   175ce:	9c5fb0ef          	jal	ra,0x12f92
   175d2:	010a3703          	ld	a4,16(s4)
   175d6:	46fd                	li	a3,31
   175d8:	40e507b3          	sub	a5,a0,a4
   175dc:	f8f6d9e3          	bge	a3,a5,0x1756e
   175e0:	7581b683          	ld	a3,1880(gp)
   175e4:	8d15                	sub	a0,a0,a3
   175e6:	0017e793          	ori	a5,a5,1
   175ea:	0000c697          	auipc	a3,0xc
   175ee:	72a6ab23          	sw	a0,1846(a3) # 0x23d20
   175f2:	e71c                	sd	a5,8(a4)
   175f4:	bfad                	j	0x1756e
   175f6:	c5f5                	beqz	a1,0x176e2
   175f8:	1101                	addi	sp,sp,-32
   175fa:	e822                	sd	s0,16(sp)
   175fc:	e426                	sd	s1,8(sp)
   175fe:	842e                	mv	s0,a1
   17600:	84aa                	mv	s1,a0
   17602:	ec06                	sd	ra,24(sp)
   17604:	903fb0ef          	jal	ra,0x12f06
   17608:	ff843583          	ld	a1,-8(s0)
   1760c:	ff040713          	addi	a4,s0,-16
   17610:	0000c517          	auipc	a0,0xc
   17614:	c3850513          	addi	a0,a0,-968 # 0x23248
   17618:	ffe5f793          	andi	a5,a1,-2
   1761c:	00f70633          	add	a2,a4,a5
   17620:	6614                	ld	a3,8(a2)
   17622:	01053803          	ld	a6,16(a0)
   17626:	9af1                	andi	a3,a3,-4
   17628:	14c80063          	beq	a6,a2,0x17768
   1762c:	e614                	sd	a3,8(a2)
   1762e:	8985                	andi	a1,a1,1
   17630:	00d60833          	add	a6,a2,a3
   17634:	e1c1                	bnez	a1,0x176b4
   17636:	ff043303          	ld	t1,-16(s0)
   1763a:	00883583          	ld	a1,8(a6) # 0xffffffff80000008
   1763e:	0000c897          	auipc	a7,0xc
   17642:	c1a88893          	addi	a7,a7,-998 # 0x23258
   17646:	40670733          	sub	a4,a4,t1
   1764a:	01073803          	ld	a6,16(a4)
   1764e:	979a                	add	a5,a5,t1
   17650:	8985                	andi	a1,a1,1
   17652:	0f180863          	beq	a6,a7,0x17742
   17656:	01873303          	ld	t1,24(a4)
   1765a:	00683c23          	sd	t1,24(a6)
   1765e:	01033823          	sd	a6,16(t1)
   17662:	14058d63          	beqz	a1,0x177bc
   17666:	0017e693          	ori	a3,a5,1
   1766a:	e714                	sd	a3,8(a4)
   1766c:	e21c                	sd	a5,0(a2)
   1766e:	1ff00693          	li	a3,511
   17672:	08f6e263          	bltu	a3,a5,0x176f6
   17676:	838d                	srli	a5,a5,0x3
   17678:	0017869b          	addiw	a3,a5,1
   1767c:	0016969b          	slliw	a3,a3,0x1
   17680:	068e                	slli	a3,a3,0x3
   17682:	00853803          	ld	a6,8(a0)
   17686:	96aa                	add	a3,a3,a0
   17688:	628c                	ld	a1,0(a3)
   1768a:	4027d61b          	sraiw	a2,a5,0x2
   1768e:	4785                	li	a5,1
   17690:	00c797b3          	sll	a5,a5,a2
   17694:	0107e7b3          	or	a5,a5,a6
   17698:	ff068613          	addi	a2,a3,-16
   1769c:	ef10                	sd	a2,24(a4)
   1769e:	eb0c                	sd	a1,16(a4)
   176a0:	e51c                	sd	a5,8(a0)
   176a2:	e298                	sd	a4,0(a3)
   176a4:	ed98                	sd	a4,24(a1)
   176a6:	6442                	ld	s0,16(sp)
   176a8:	60e2                	ld	ra,24(sp)
   176aa:	8526                	mv	a0,s1
   176ac:	64a2                	ld	s1,8(sp)
   176ae:	6105                	addi	sp,sp,32
   176b0:	859fb06f          	j	0x12f08
   176b4:	00883583          	ld	a1,8(a6)
   176b8:	8985                	andi	a1,a1,1
   176ba:	e58d                	bnez	a1,0x176e4
   176bc:	97b6                	add	a5,a5,a3
   176be:	0000c897          	auipc	a7,0xc
   176c2:	b9a88893          	addi	a7,a7,-1126 # 0x23258
   176c6:	6a14                	ld	a3,16(a2)
   176c8:	0017e813          	ori	a6,a5,1
   176cc:	00f705b3          	add	a1,a4,a5
   176d0:	11168063          	beq	a3,a7,0x177d0
   176d4:	6e10                	ld	a2,24(a2)
   176d6:	ee90                	sd	a2,24(a3)
   176d8:	ea14                	sd	a3,16(a2)
   176da:	01073423          	sd	a6,8(a4)
   176de:	e19c                	sd	a5,0(a1)
   176e0:	b779                	j	0x1766e
   176e2:	8082                	ret
   176e4:	0017e693          	ori	a3,a5,1
   176e8:	fed43c23          	sd	a3,-8(s0)
   176ec:	e21c                	sd	a5,0(a2)
   176ee:	1ff00693          	li	a3,511
   176f2:	f8f6f2e3          	bgeu	a3,a5,0x17676
   176f6:	0097d693          	srli	a3,a5,0x9
   176fa:	4611                	li	a2,4
   176fc:	08d66f63          	bltu	a2,a3,0x1779a
   17700:	0067d693          	srli	a3,a5,0x6
   17704:	0396859b          	addiw	a1,a3,57
   17708:	0015959b          	slliw	a1,a1,0x1
   1770c:	0386861b          	addiw	a2,a3,56
   17710:	058e                	slli	a1,a1,0x3
   17712:	95aa                	add	a1,a1,a0
   17714:	6194                	ld	a3,0(a1)
   17716:	15c1                	addi	a1,a1,-16
   17718:	0cd58663          	beq	a1,a3,0x177e4
   1771c:	6690                	ld	a2,8(a3)
   1771e:	9a71                	andi	a2,a2,-4
   17720:	00c7f563          	bgeu	a5,a2,0x1772a
   17724:	6a94                	ld	a3,16(a3)
   17726:	fed59be3          	bne	a1,a3,0x1771c
   1772a:	6e8c                	ld	a1,24(a3)
   1772c:	ef0c                	sd	a1,24(a4)
   1772e:	eb14                	sd	a3,16(a4)
   17730:	6442                	ld	s0,16(sp)
   17732:	60e2                	ld	ra,24(sp)
   17734:	e998                	sd	a4,16(a1)
   17736:	8526                	mv	a0,s1
   17738:	64a2                	ld	s1,8(sp)
   1773a:	ee98                	sd	a4,24(a3)
   1773c:	6105                	addi	sp,sp,32
   1773e:	fcafb06f          	j	0x12f08
   17742:	0e059d63          	bnez	a1,0x1783c
   17746:	6e0c                	ld	a1,24(a2)
   17748:	6a10                	ld	a2,16(a2)
   1774a:	97b6                	add	a5,a5,a3
   1774c:	6442                	ld	s0,16(sp)
   1774e:	ee0c                	sd	a1,24(a2)
   17750:	e990                	sd	a2,16(a1)
   17752:	0017e693          	ori	a3,a5,1
   17756:	60e2                	ld	ra,24(sp)
   17758:	e714                	sd	a3,8(a4)
   1775a:	8526                	mv	a0,s1
   1775c:	973e                	add	a4,a4,a5
   1775e:	64a2                	ld	s1,8(sp)
   17760:	e31c                	sd	a5,0(a4)
   17762:	6105                	addi	sp,sp,32
   17764:	fa4fb06f          	j	0x12f08
   17768:	8985                	andi	a1,a1,1
   1776a:	97b6                	add	a5,a5,a3
   1776c:	e989                	bnez	a1,0x1777e
   1776e:	ff043583          	ld	a1,-16(s0)
   17772:	8f0d                	sub	a4,a4,a1
   17774:	6f14                	ld	a3,24(a4)
   17776:	6b10                	ld	a2,16(a4)
   17778:	97ae                	add	a5,a5,a1
   1777a:	ee14                	sd	a3,24(a2)
   1777c:	ea90                	sd	a2,16(a3)
   1777e:	0017e693          	ori	a3,a5,1
   17782:	e714                	sd	a3,8(a4)
   17784:	e918                	sd	a4,16(a0)
   17786:	7601b703          	ld	a4,1888(gp)
   1778a:	f0e7eee3          	bltu	a5,a4,0x176a6
   1778e:	7801b583          	ld	a1,1920(gp)
   17792:	8526                	mv	a0,s1
   17794:	d8dff0ef          	jal	ra,0x17520
   17798:	b739                	j	0x176a6
   1779a:	4651                	li	a2,20
   1779c:	02d67263          	bgeu	a2,a3,0x177c0
   177a0:	05400613          	li	a2,84
   177a4:	04d66b63          	bltu	a2,a3,0x177fa
   177a8:	00c7d693          	srli	a3,a5,0xc
   177ac:	06f6859b          	addiw	a1,a3,111
   177b0:	0015959b          	slliw	a1,a1,0x1
   177b4:	06e6861b          	addiw	a2,a3,110
   177b8:	058e                	slli	a1,a1,0x3
   177ba:	bfa1                	j	0x17712
   177bc:	97b6                	add	a5,a5,a3
   177be:	b721                	j	0x176c6
   177c0:	05c6859b          	addiw	a1,a3,92
   177c4:	0015959b          	slliw	a1,a1,0x1
   177c8:	05b6861b          	addiw	a2,a3,91
   177cc:	058e                	slli	a1,a1,0x3
   177ce:	b791                	j	0x17712
   177d0:	f518                	sd	a4,40(a0)
   177d2:	f118                	sd	a4,32(a0)
   177d4:	01173c23          	sd	a7,24(a4)
   177d8:	01173823          	sd	a7,16(a4)
   177dc:	01073423          	sd	a6,8(a4)
   177e0:	e19c                	sd	a5,0(a1)
   177e2:	b5d1                	j	0x176a6
   177e4:	00853803          	ld	a6,8(a0)
   177e8:	4026561b          	sraiw	a2,a2,0x2
   177ec:	4785                	li	a5,1
   177ee:	00c79633          	sll	a2,a5,a2
   177f2:	01066633          	or	a2,a2,a6
   177f6:	e510                	sd	a2,8(a0)
   177f8:	bf15                	j	0x1772c
   177fa:	15400613          	li	a2,340
   177fe:	00d66c63          	bltu	a2,a3,0x17816
   17802:	00f7d693          	srli	a3,a5,0xf
   17806:	0786859b          	addiw	a1,a3,120
   1780a:	0015959b          	slliw	a1,a1,0x1
   1780e:	0776861b          	addiw	a2,a3,119
   17812:	058e                	slli	a1,a1,0x3
   17814:	bdfd                	j	0x17712
   17816:	55400613          	li	a2,1364
   1781a:	00d66c63          	bltu	a2,a3,0x17832
   1781e:	0127d693          	srli	a3,a5,0x12
   17822:	07d6859b          	addiw	a1,a3,125
   17826:	0015959b          	slliw	a1,a1,0x1
   1782a:	07c6861b          	addiw	a2,a3,124
   1782e:	058e                	slli	a1,a1,0x3
   17830:	b5cd                	j	0x17712
   17832:	7f000593          	li	a1,2032
   17836:	07e00613          	li	a2,126
   1783a:	bde1                	j	0x17712
   1783c:	0017e693          	ori	a3,a5,1
   17840:	e714                	sd	a3,8(a4)
   17842:	e21c                	sd	a5,0(a2)
   17844:	b58d                	j	0x176a6
   17846:	1141                	addi	sp,sp,-16
   17848:	872e                	mv	a4,a1
   1784a:	e022                	sd	s0,0(sp)
   1784c:	85b2                	mv	a1,a2
   1784e:	842a                	mv	s0,a0
   17850:	853a                	mv	a0,a4
   17852:	0000c797          	auipc	a5,0xc
   17856:	4e07ab23          	sw	zero,1270(a5) # 0x23d48
   1785a:	e406                	sd	ra,8(sp)
   1785c:	522070ef          	jal	ra,0x1ed7e
   17860:	57fd                	li	a5,-1
   17862:	00f50663          	beq	a0,a5,0x1786e
   17866:	60a2                	ld	ra,8(sp)
   17868:	6402                	ld	s0,0(sp)
   1786a:	0141                	addi	sp,sp,16
   1786c:	8082                	ret
   1786e:	0000c797          	auipc	a5,0xc
   17872:	4da7a783          	lw	a5,1242(a5) # 0x23d48
   17876:	dbe5                	beqz	a5,0x17866
   17878:	60a2                	ld	ra,8(sp)
   1787a:	c01c                	sw	a5,0(s0)
   1787c:	6402                	ld	s0,0(sp)
   1787e:	0141                	addi	sp,sp,16
   17880:	8082                	ret
   17882:	6a1c                	ld	a5,16(a2)
   17884:	1a078c63          	beqz	a5,0x17a3c
   17888:	0105d783          	lhu	a5,16(a1)
   1788c:	711d                	addi	sp,sp,-96
   1788e:	e8a2                	sd	s0,80(sp)
   17890:	f852                	sd	s4,48(sp)
   17892:	f456                	sd	s5,40(sp)
   17894:	ec86                	sd	ra,88(sp)
   17896:	e4a6                	sd	s1,72(sp)
   17898:	e0ca                	sd	s2,64(sp)
   1789a:	fc4e                	sd	s3,56(sp)
   1789c:	f05a                	sd	s6,32(sp)
   1789e:	ec5e                	sd	s7,24(sp)
   178a0:	e862                	sd	s8,16(sp)
   178a2:	e466                	sd	s9,8(sp)
   178a4:	e06a                	sd	s10,0(sp)
   178a6:	0087f713          	andi	a4,a5,8
   178aa:	8a32                	mv	s4,a2
   178ac:	8aaa                	mv	s5,a0
   178ae:	842e                	mv	s0,a1
   178b0:	c325                	beqz	a4,0x17910
   178b2:	6d98                	ld	a4,24(a1)
   178b4:	cf31                	beqz	a4,0x17910
   178b6:	0027f713          	andi	a4,a5,2
   178ba:	000a3903          	ld	s2,0(s4)
   178be:	c735                	beqz	a4,0x1792a
   178c0:	603c                	ld	a5,64(s0)
   178c2:	780c                	ld	a1,48(s0)
   178c4:	80000b37          	lui	s6,0x80000
   178c8:	4981                	li	s3,0
   178ca:	4481                	li	s1,0
   178cc:	c00b4b13          	xori	s6,s6,-1024
   178d0:	864e                	mv	a2,s3
   178d2:	8556                	mv	a0,s5
   178d4:	c885                	beqz	s1,0x17904
   178d6:	86a6                	mv	a3,s1
   178d8:	009b7363          	bgeu	s6,s1,0x178de
   178dc:	86da                	mv	a3,s6
   178de:	2681                	sext.w	a3,a3
   178e0:	9782                	jalr	a5
   178e2:	14a05563          	blez	a0,0x17a2c
   178e6:	010a3783          	ld	a5,16(s4)
   178ea:	99aa                	add	s3,s3,a0
   178ec:	8c89                	sub	s1,s1,a0
   178ee:	40a78533          	sub	a0,a5,a0
   178f2:	00aa3823          	sd	a0,16(s4)
   178f6:	10050763          	beqz	a0,0x17a04
   178fa:	603c                	ld	a5,64(s0)
   178fc:	780c                	ld	a1,48(s0)
   178fe:	864e                	mv	a2,s3
   17900:	8556                	mv	a0,s5
   17902:	f8f1                	bnez	s1,0x178d6
   17904:	00093983          	ld	s3,0(s2)
   17908:	00893483          	ld	s1,8(s2)
   1790c:	0941                	addi	s2,s2,16
   1790e:	b7c9                	j	0x178d0
   17910:	85a2                	mv	a1,s0
   17912:	8556                	mv	a0,s5
   17914:	c3cff0ef          	jal	ra,0x16d50
   17918:	28051863          	bnez	a0,0x17ba8
   1791c:	01045783          	lhu	a5,16(s0)
   17920:	000a3903          	ld	s2,0(s4)
   17924:	0027f713          	andi	a4,a5,2
   17928:	ff41                	bnez	a4,0x178c0
   1792a:	0017f713          	andi	a4,a5,1
   1792e:	eb35                	bnez	a4,0x179a2
   17930:	4444                	lw	s1,12(s0)
   17932:	6008                	ld	a0,0(s0)
   17934:	80000b37          	lui	s6,0x80000
   17938:	ffeb4b93          	xori	s7,s6,-2
   1793c:	4c01                	li	s8,0
   1793e:	4981                	li	s3,0
   17940:	fffb4b13          	not	s6,s6
   17944:	8ca6                	mv	s9,s1
   17946:	04098863          	beqz	s3,0x17996
   1794a:	2007f713          	andi	a4,a5,512
   1794e:	12070a63          	beqz	a4,0x17a82
   17952:	8d26                	mv	s10,s1
   17954:	1899f763          	bgeu	s3,s1,0x17ae2
   17958:	8cce                	mv	s9,s3
   1795a:	8d4e                	mv	s10,s3
   1795c:	866a                	mv	a2,s10
   1795e:	85e2                	mv	a1,s8
   17960:	721020ef          	jal	ra,0x1a880
   17964:	4458                	lw	a4,12(s0)
   17966:	601c                	ld	a5,0(s0)
   17968:	84ce                	mv	s1,s3
   1796a:	41970cbb          	subw	s9,a4,s9
   1796e:	97ea                	add	a5,a5,s10
   17970:	01942623          	sw	s9,12(s0)
   17974:	e01c                	sd	a5,0(s0)
   17976:	4981                	li	s3,0
   17978:	010a3603          	ld	a2,16(s4)
   1797c:	9c26                	add	s8,s8,s1
   1797e:	409604b3          	sub	s1,a2,s1
   17982:	009a3823          	sd	s1,16(s4)
   17986:	ccbd                	beqz	s1,0x17a04
   17988:	4444                	lw	s1,12(s0)
   1798a:	6008                	ld	a0,0(s0)
   1798c:	01045783          	lhu	a5,16(s0)
   17990:	8ca6                	mv	s9,s1
   17992:	fa099ce3          	bnez	s3,0x1794a
   17996:	00093c03          	ld	s8,0(s2)
   1799a:	00893983          	ld	s3,8(s2)
   1799e:	0941                	addi	s2,s2,16
   179a0:	b755                	j	0x17944
   179a2:	4981                	li	s3,0
   179a4:	4501                	li	a0,0
   179a6:	4c81                	li	s9,0
   179a8:	4c01                	li	s8,0
   179aa:	080c0b63          	beqz	s8,0x17a40
   179ae:	c145                	beqz	a0,0x17a4e
   179b0:	8bce                	mv	s7,s3
   179b2:	013c7363          	bgeu	s8,s3,0x179b8
   179b6:	8be2                	mv	s7,s8
   179b8:	6008                	ld	a0,0(s0)
   179ba:	6c1c                	ld	a5,24(s0)
   179bc:	5014                	lw	a3,32(s0)
   179be:	84de                	mv	s1,s7
   179c0:	00a7f763          	bgeu	a5,a0,0x179ce
   179c4:	445c                	lw	a5,12(s0)
   179c6:	00d78b3b          	addw	s6,a5,a3
   179ca:	097b4d63          	blt	s6,s7,0x17a64
   179ce:	18dbc463          	blt	s7,a3,0x17b56
   179d2:	603c                	ld	a5,64(s0)
   179d4:	780c                	ld	a1,48(s0)
   179d6:	8666                	mv	a2,s9
   179d8:	8556                	mv	a0,s5
   179da:	9782                	jalr	a5
   179dc:	84aa                	mv	s1,a0
   179de:	04a05763          	blez	a0,0x17a2c
   179e2:	0005079b          	sext.w	a5,a0
   179e6:	40f989bb          	subw	s3,s3,a5
   179ea:	4505                	li	a0,1
   179ec:	02098b63          	beqz	s3,0x17a22
   179f0:	010a3783          	ld	a5,16(s4)
   179f4:	9ca6                	add	s9,s9,s1
   179f6:	409c0c33          	sub	s8,s8,s1
   179fa:	409784b3          	sub	s1,a5,s1
   179fe:	009a3823          	sd	s1,16(s4)
   17a02:	f4c5                	bnez	s1,0x179aa
   17a04:	4501                	li	a0,0
   17a06:	60e6                	ld	ra,88(sp)
   17a08:	6446                	ld	s0,80(sp)
   17a0a:	64a6                	ld	s1,72(sp)
   17a0c:	6906                	ld	s2,64(sp)
   17a0e:	79e2                	ld	s3,56(sp)
   17a10:	7a42                	ld	s4,48(sp)
   17a12:	7aa2                	ld	s5,40(sp)
   17a14:	7b02                	ld	s6,32(sp)
   17a16:	6be2                	ld	s7,24(sp)
   17a18:	6c42                	ld	s8,16(sp)
   17a1a:	6ca2                	ld	s9,8(sp)
   17a1c:	6d02                	ld	s10,0(sp)
   17a1e:	6125                	addi	sp,sp,96
   17a20:	8082                	ret
   17a22:	85a2                	mv	a1,s0
   17a24:	8556                	mv	a0,s5
   17a26:	ebcff0ef          	jal	ra,0x170e2
   17a2a:	d179                	beqz	a0,0x179f0
   17a2c:	01041783          	lh	a5,16(s0)
   17a30:	0407e793          	ori	a5,a5,64
   17a34:	00f41823          	sh	a5,16(s0)
   17a38:	557d                	li	a0,-1
   17a3a:	b7f1                	j	0x17a06
   17a3c:	4501                	li	a0,0
   17a3e:	8082                	ret
   17a40:	00893c03          	ld	s8,8(s2)
   17a44:	00093c83          	ld	s9,0(s2)
   17a48:	0941                	addi	s2,s2,16
   17a4a:	fe0c0be3          	beqz	s8,0x17a40
   17a4e:	8662                	mv	a2,s8
   17a50:	45a9                	li	a1,10
   17a52:	8566                	mv	a0,s9
   17a54:	58f020ef          	jal	ra,0x1a7e2
   17a58:	12050f63          	beqz	a0,0x17b96
   17a5c:	0505                	addi	a0,a0,1
   17a5e:	419509bb          	subw	s3,a0,s9
   17a62:	b7b9                	j	0x179b0
   17a64:	85e6                	mv	a1,s9
   17a66:	865a                	mv	a2,s6
   17a68:	619020ef          	jal	ra,0x1a880
   17a6c:	601c                	ld	a5,0(s0)
   17a6e:	85a2                	mv	a1,s0
   17a70:	8556                	mv	a0,s5
   17a72:	97da                	add	a5,a5,s6
   17a74:	e01c                	sd	a5,0(s0)
   17a76:	e6cff0ef          	jal	ra,0x170e2
   17a7a:	f94d                	bnez	a0,0x17a2c
   17a7c:	87da                	mv	a5,s6
   17a7e:	84da                	mv	s1,s6
   17a80:	b79d                	j	0x179e6
   17a82:	6c1c                	ld	a5,24(s0)
   17a84:	02a7e863          	bltu	a5,a0,0x17ab4
   17a88:	501c                	lw	a5,32(s0)
   17a8a:	02f9e563          	bltu	s3,a5,0x17ab4
   17a8e:	86ce                	mv	a3,s3
   17a90:	013bf363          	bgeu	s7,s3,0x17a96
   17a94:	86da                	mv	a3,s6
   17a96:	02f6c6bb          	divw	a3,a3,a5
   17a9a:	6038                	ld	a4,64(s0)
   17a9c:	780c                	ld	a1,48(s0)
   17a9e:	8662                	mv	a2,s8
   17aa0:	8556                	mv	a0,s5
   17aa2:	02f686bb          	mulw	a3,a3,a5
   17aa6:	9702                	jalr	a4
   17aa8:	84aa                	mv	s1,a0
   17aaa:	f8a051e3          	blez	a0,0x17a2c
   17aae:	409989b3          	sub	s3,s3,s1
   17ab2:	b5d9                	j	0x17978
   17ab4:	0099f363          	bgeu	s3,s1,0x17aba
   17ab8:	84ce                	mv	s1,s3
   17aba:	8626                	mv	a2,s1
   17abc:	85e2                	mv	a1,s8
   17abe:	5c3020ef          	jal	ra,0x1a880
   17ac2:	445c                	lw	a5,12(s0)
   17ac4:	6018                	ld	a4,0(s0)
   17ac6:	409786bb          	subw	a3,a5,s1
   17aca:	9726                	add	a4,a4,s1
   17acc:	c454                	sw	a3,12(s0)
   17ace:	e018                	sd	a4,0(s0)
   17ad0:	fef9                	bnez	a3,0x17aae
   17ad2:	85a2                	mv	a1,s0
   17ad4:	8556                	mv	a0,s5
   17ad6:	e0cff0ef          	jal	ra,0x170e2
   17ada:	f929                	bnez	a0,0x17a2c
   17adc:	409989b3          	sub	s3,s3,s1
   17ae0:	bd61                	j	0x17978
   17ae2:	4807f713          	andi	a4,a5,1152
   17ae6:	e6070be3          	beqz	a4,0x1795c
   17aea:	5004                	lw	s1,32(s0)
   17aec:	6c0c                	ld	a1,24(s0)
   17aee:	00198713          	addi	a4,s3,1
   17af2:	0014969b          	slliw	a3,s1,0x1
   17af6:	9ea5                	addw	a3,a3,s1
   17af8:	8d0d                	sub	a0,a0,a1
   17afa:	01f6d49b          	srliw	s1,a3,0x1f
   17afe:	00050d1b          	sext.w	s10,a0
   17b02:	9cb5                	addw	s1,s1,a3
   17b04:	4014d49b          	sraiw	s1,s1,0x1
   17b08:	976a                	add	a4,a4,s10
   17b0a:	00e4f563          	bgeu	s1,a4,0x17b14
   17b0e:	0019849b          	addiw	s1,s3,1
   17b12:	9ca9                	addw	s1,s1,a0
   17b14:	4007f793          	andi	a5,a5,1024
   17b18:	cfa9                	beqz	a5,0x17b72
   17b1a:	85a6                	mv	a1,s1
   17b1c:	8556                	mv	a0,s5
   17b1e:	be9fa0ef          	jal	ra,0x12706
   17b22:	8caa                	mv	s9,a0
   17b24:	cd25                	beqz	a0,0x17b9c
   17b26:	6c0c                	ld	a1,24(s0)
   17b28:	866a                	mv	a2,s10
   17b2a:	a54fb0ef          	jal	ra,0x12d7e
   17b2e:	01045783          	lhu	a5,16(s0)
   17b32:	b7f7f793          	andi	a5,a5,-1153
   17b36:	0807e793          	ori	a5,a5,128
   17b3a:	00f41823          	sh	a5,16(s0)
   17b3e:	01ac8533          	add	a0,s9,s10
   17b42:	41a487bb          	subw	a5,s1,s10
   17b46:	01943c23          	sd	s9,24(s0)
   17b4a:	e008                	sd	a0,0(s0)
   17b4c:	d004                	sw	s1,32(s0)
   17b4e:	8cce                	mv	s9,s3
   17b50:	c45c                	sw	a5,12(s0)
   17b52:	8d4e                	mv	s10,s3
   17b54:	b521                	j	0x1795c
   17b56:	865e                	mv	a2,s7
   17b58:	85e6                	mv	a1,s9
   17b5a:	527020ef          	jal	ra,0x1a880
   17b5e:	4458                	lw	a4,12(s0)
   17b60:	6010                	ld	a2,0(s0)
   17b62:	000b879b          	sext.w	a5,s7
   17b66:	4177073b          	subw	a4,a4,s7
   17b6a:	965e                	add	a2,a2,s7
   17b6c:	c458                	sw	a4,12(s0)
   17b6e:	e010                	sd	a2,0(s0)
   17b70:	bd9d                	j	0x179e6
   17b72:	8626                	mv	a2,s1
   17b74:	8556                	mv	a0,s5
   17b76:	1db030ef          	jal	ra,0x1b550
   17b7a:	8caa                	mv	s9,a0
   17b7c:	f169                	bnez	a0,0x17b3e
   17b7e:	6c0c                	ld	a1,24(s0)
   17b80:	8556                	mv	a0,s5
   17b82:	a75ff0ef          	jal	ra,0x175f6
   17b86:	01041783          	lh	a5,16(s0)
   17b8a:	4731                	li	a4,12
   17b8c:	00eaa023          	sw	a4,0(s5)
   17b90:	f7f7f793          	andi	a5,a5,-129
   17b94:	bd71                	j	0x17a30
   17b96:	001c099b          	addiw	s3,s8,1
   17b9a:	bd19                	j	0x179b0
   17b9c:	4731                	li	a4,12
   17b9e:	01041783          	lh	a5,16(s0)
   17ba2:	00eaa023          	sw	a4,0(s5)
   17ba6:	b569                	j	0x17a30
   17ba8:	557d                	li	a0,-1
   17baa:	bdb1                	j	0x17a06
   17bac:	715d                	addi	sp,sp,-80
   17bae:	f84a                	sd	s2,48(sp)
   17bb0:	f44e                	sd	s3,40(sp)
   17bb2:	f052                	sd	s4,32(sp)
   17bb4:	ec56                	sd	s5,24(sp)
   17bb6:	e85a                	sd	s6,16(sp)
   17bb8:	e45e                	sd	s7,8(sp)
   17bba:	e486                	sd	ra,72(sp)
   17bbc:	e0a2                	sd	s0,64(sp)
   17bbe:	fc26                	sd	s1,56(sp)
   17bc0:	8a2e                	mv	s4,a1
   17bc2:	52050913          	addi	s2,a0,1312
   17bc6:	4b01                	li	s6,0
   17bc8:	0b000a93          	li	s5,176
   17bcc:	4b85                	li	s7,1
   17bce:	59fd                	li	s3,-1
   17bd0:	00892783          	lw	a5,8(s2)
   17bd4:	01093403          	ld	s0,16(s2)
   17bd8:	02f05b63          	blez	a5,0x17c0e
   17bdc:	fff7849b          	addiw	s1,a5,-1
   17be0:	1482                	slli	s1,s1,0x20
   17be2:	9081                	srli	s1,s1,0x20
   17be4:	0485                	addi	s1,s1,1
   17be6:	035484b3          	mul	s1,s1,s5
   17bea:	94a2                	add	s1,s1,s0
   17bec:	01045783          	lhu	a5,16(s0)
   17bf0:	00fbfb63          	bgeu	s7,a5,0x17c06
   17bf4:	01241783          	lh	a5,18(s0)
   17bf8:	8522                	mv	a0,s0
   17bfa:	01378663          	beq	a5,s3,0x17c06
   17bfe:	9a02                	jalr	s4
   17c00:	01656b33          	or	s6,a0,s6
   17c04:	2b01                	sext.w	s6,s6
   17c06:	0b040413          	addi	s0,s0,176
   17c0a:	fe8491e3          	bne	s1,s0,0x17bec
   17c0e:	00093903          	ld	s2,0(s2)
   17c12:	fa091fe3          	bnez	s2,0x17bd0
   17c16:	60a6                	ld	ra,72(sp)
   17c18:	6406                	ld	s0,64(sp)
   17c1a:	74e2                	ld	s1,56(sp)
   17c1c:	7942                	ld	s2,48(sp)
   17c1e:	79a2                	ld	s3,40(sp)
   17c20:	7a02                	ld	s4,32(sp)
   17c22:	6ae2                	ld	s5,24(sp)
   17c24:	6ba2                	ld	s7,8(sp)
   17c26:	855a                	mv	a0,s6
   17c28:	6b42                	ld	s6,16(sp)
   17c2a:	6161                	addi	sp,sp,80
   17c2c:	8082                	ret
   17c2e:	715d                	addi	sp,sp,-80
   17c30:	f84a                	sd	s2,48(sp)
   17c32:	f44e                	sd	s3,40(sp)
   17c34:	f052                	sd	s4,32(sp)
   17c36:	ec56                	sd	s5,24(sp)
   17c38:	e85a                	sd	s6,16(sp)
   17c3a:	e45e                	sd	s7,8(sp)
   17c3c:	e062                	sd	s8,0(sp)
   17c3e:	e486                	sd	ra,72(sp)
   17c40:	e0a2                	sd	s0,64(sp)
   17c42:	fc26                	sd	s1,56(sp)
   17c44:	8c2a                	mv	s8,a0
   17c46:	8a2e                	mv	s4,a1
   17c48:	52050913          	addi	s2,a0,1312
   17c4c:	4b01                	li	s6,0
   17c4e:	0b000a93          	li	s5,176
   17c52:	4b85                	li	s7,1
   17c54:	59fd                	li	s3,-1
   17c56:	00892783          	lw	a5,8(s2)
   17c5a:	01093403          	ld	s0,16(s2)
   17c5e:	02f05c63          	blez	a5,0x17c96
   17c62:	fff7849b          	addiw	s1,a5,-1
   17c66:	1482                	slli	s1,s1,0x20
   17c68:	9081                	srli	s1,s1,0x20
   17c6a:	0485                	addi	s1,s1,1
   17c6c:	035484b3          	mul	s1,s1,s5
   17c70:	94a2                	add	s1,s1,s0
   17c72:	01045783          	lhu	a5,16(s0)
   17c76:	00fbfc63          	bgeu	s7,a5,0x17c8e
   17c7a:	01241783          	lh	a5,18(s0)
   17c7e:	85a2                	mv	a1,s0
   17c80:	8562                	mv	a0,s8
   17c82:	01378663          	beq	a5,s3,0x17c8e
   17c86:	9a02                	jalr	s4
   17c88:	01656b33          	or	s6,a0,s6
   17c8c:	2b01                	sext.w	s6,s6
   17c8e:	0b040413          	addi	s0,s0,176
   17c92:	fe8490e3          	bne	s1,s0,0x17c72
   17c96:	00093903          	ld	s2,0(s2)
   17c9a:	fa091ee3          	bnez	s2,0x17c56
   17c9e:	60a6                	ld	ra,72(sp)
   17ca0:	6406                	ld	s0,64(sp)
   17ca2:	74e2                	ld	s1,56(sp)
   17ca4:	7942                	ld	s2,48(sp)
   17ca6:	79a2                	ld	s3,40(sp)
   17ca8:	7a02                	ld	s4,32(sp)
   17caa:	6ae2                	ld	s5,24(sp)
   17cac:	6ba2                	ld	s7,8(sp)
   17cae:	6c02                	ld	s8,0(sp)
   17cb0:	855a                	mv	a0,s6
   17cb2:	6b42                	ld	s6,16(sp)
   17cb4:	6161                	addi	sp,sp,80
   17cb6:	8082                	ret
   17cb8:	4954                	lw	a3,20(a0)
   17cba:	4055d313          	srai	t1,a1,0x5
   17cbe:	06d35263          	bge	t1,a3,0x17d22
   17cc2:	01850e13          	addi	t3,a0,24
   17cc6:	00269813          	slli	a6,a3,0x2
   17cca:	00231793          	slli	a5,t1,0x2
   17cce:	89fd                	andi	a1,a1,31
   17cd0:	9872                	add	a6,a6,t3
   17cd2:	97f2                	add	a5,a5,t3
   17cd4:	cda1                	beqz	a1,0x17d2c
   17cd6:	4390                	lw	a2,0(a5)
   17cd8:	02000e93          	li	t4,32
   17cdc:	0791                	addi	a5,a5,4
   17cde:	00b6573b          	srlw	a4,a2,a1
   17ce2:	40be8ebb          	subw	t4,t4,a1
   17ce6:	0307fb63          	bgeu	a5,a6,0x17d1c
   17cea:	88f2                	mv	a7,t3
   17cec:	4390                	lw	a2,0(a5)
   17cee:	0891                	addi	a7,a7,4
   17cf0:	0791                	addi	a5,a5,4
   17cf2:	01d6163b          	sllw	a2,a2,t4
   17cf6:	8f51                	or	a4,a4,a2
   17cf8:	fee8ae23          	sw	a4,-4(a7)
   17cfc:	ffc7a703          	lw	a4,-4(a5)
   17d00:	00b7573b          	srlw	a4,a4,a1
   17d04:	ff07e4e3          	bltu	a5,a6,0x17cec
   17d08:	406686b3          	sub	a3,a3,t1
   17d0c:	068a                	slli	a3,a3,0x2
   17d0e:	16f1                	addi	a3,a3,-4
   17d10:	00de07b3          	add	a5,t3,a3
   17d14:	c398                	sw	a4,0(a5)
   17d16:	cb15                	beqz	a4,0x17d4a
   17d18:	0791                	addi	a5,a5,4
   17d1a:	a805                	j	0x17d4a
   17d1c:	cd18                	sw	a4,24(a0)
   17d1e:	87f2                	mv	a5,t3
   17d20:	ff65                	bnez	a4,0x17d18
   17d22:	00052a23          	sw	zero,20(a0)
   17d26:	00052c23          	sw	zero,24(a0)
   17d2a:	8082                	ret
   17d2c:	8772                	mv	a4,t3
   17d2e:	ff07fae3          	bgeu	a5,a6,0x17d22
   17d32:	4390                	lw	a2,0(a5)
   17d34:	0791                	addi	a5,a5,4
   17d36:	0711                	addi	a4,a4,4
   17d38:	fec72e23          	sw	a2,-4(a4)
   17d3c:	ff07ebe3          	bltu	a5,a6,0x17d32
   17d40:	406686b3          	sub	a3,a3,t1
   17d44:	068a                	slli	a3,a3,0x2
   17d46:	00de07b3          	add	a5,t3,a3
   17d4a:	41c787b3          	sub	a5,a5,t3
   17d4e:	8789                	srai	a5,a5,0x2
   17d50:	2781                	sext.w	a5,a5
   17d52:	c95c                	sw	a5,20(a0)
   17d54:	dbe9                	beqz	a5,0x17d26
   17d56:	8082                	ret
   17d58:	7131                	addi	sp,sp,-192
   17d5a:	f526                	sd	s1,168(sp)
   17d5c:	00009497          	auipc	s1,0x9
   17d60:	7d44b483          	ld	s1,2004(s1) # 0x21530
   17d64:	f14a                	sd	s2,160(sp)
   17d66:	892a                	mv	s2,a0
   17d68:	8526                	mv	a0,s1
   17d6a:	f922                	sd	s0,176(sp)
   17d6c:	f8e2                	sd	s8,112(sp)
   17d6e:	f0ea                	sd	s10,96(sp)
   17d70:	ecee                	sd	s11,88(sp)
   17d72:	8c2e                	mv	s8,a1
   17d74:	ec36                	sd	a3,24(sp)
   17d76:	e43a                	sd	a4,8(sp)
   17d78:	f03e                	sd	a5,32(sp)
   17d7a:	fd06                	sd	ra,184(sp)
   17d7c:	ed4e                	sd	s3,152(sp)
   17d7e:	e952                	sd	s4,144(sp)
   17d80:	e556                	sd	s5,136(sp)
   17d82:	e15a                	sd	s6,128(sp)
   17d84:	fcde                	sd	s7,120(sp)
   17d86:	f4e6                	sd	s9,104(sp)
   17d88:	8432                	mv	s0,a2
   17d8a:	a40fb0ef          	jal	ra,0x12fca
   17d8e:	000c3803          	ld	a6,0(s8)
   17d92:	00a486b3          	add	a3,s1,a0
   17d96:	03000713          	li	a4,48
   17d9a:	00284783          	lbu	a5,2(a6)
   17d9e:	fff6cd03          	lbu	s10,-1(a3)
   17da2:	8daa                	mv	s11,a0
   17da4:	46e79563          	bne	a5,a4,0x1820e
   17da8:	080d                	addi	a6,a6,3
   17daa:	4705                	li	a4,1
   17dac:	4107073b          	subw	a4,a4,a6
   17db0:	03000693          	li	a3,48
   17db4:	00084783          	lbu	a5,0(a6)
   17db8:	01070abb          	addw	s5,a4,a6
   17dbc:	8cc2                	mv	s9,a6
   17dbe:	0805                	addi	a6,a6,1
   17dc0:	fed78ae3          	beq	a5,a3,0x17db4
   17dc4:	00009a17          	auipc	s4,0x9
   17dc8:	3c4a0a13          	addi	s4,s4,964 # 0x21188
   17dcc:	97d2                	add	a5,a5,s4
   17dce:	0007c783          	lbu	a5,0(a5)
   17dd2:	24078363          	beqz	a5,0x18018
   17dd6:	000cc783          	lbu	a5,0(s9)
   17dda:	4681                	li	a3,0
   17ddc:	4b01                	li	s6,0
   17dde:	97d2                	add	a5,a5,s4
   17de0:	0007c783          	lbu	a5,0(a5)
   17de4:	8be6                	mv	s7,s9
   17de6:	cb81                	beqz	a5,0x17df6
   17de8:	001bc783          	lbu	a5,1(s7)
   17dec:	0b85                	addi	s7,s7,1
   17dee:	97d2                	add	a5,a5,s4
   17df0:	0007c783          	lbu	a5,0(a5)
   17df4:	fbf5                	bnez	a5,0x17de8
   17df6:	866e                	mv	a2,s11
   17df8:	85a6                	mv	a1,s1
   17dfa:	855e                	mv	a0,s7
   17dfc:	e836                	sd	a3,16(sp)
   17dfe:	1d0040ef          	jal	ra,0x1bfce
   17e02:	66c2                	ld	a3,16(sp)
   17e04:	89aa                	mv	s3,a0
   17e06:	10051f63          	bnez	a0,0x17f24
   17e0a:	3c0b0a63          	beqz	s6,0x181de
   17e0e:	000bc783          	lbu	a5,0(s7)
   17e12:	417b0b3b          	subw	s6,s6,s7
   17e16:	002b199b          	slliw	s3,s6,0x2
   17e1a:	0df7f793          	andi	a5,a5,223
   17e1e:	05000613          	li	a2,80
   17e22:	8b5e                	mv	s6,s7
   17e24:	12c78063          	beq	a5,a2,0x17f44
   17e28:	017c3023          	sd	s7,0(s8)
   17e2c:	16069763          	bnez	a3,0x17f9a
   17e30:	419b07b3          	sub	a5,s6,s9
   17e34:	37fd                	addiw	a5,a5,-1
   17e36:	469d                	li	a3,7
   17e38:	4581                	li	a1,0
   17e3a:	00f6d663          	bge	a3,a5,0x17e46
   17e3e:	8785                	srai	a5,a5,0x1
   17e40:	2585                	addiw	a1,a1,1
   17e42:	fef6cee3          	blt	a3,a5,0x17e3e
   17e46:	854a                	mv	a0,s2
   17e48:	30f020ef          	jal	ra,0x1a956
   17e4c:	8aaa                	mv	s5,a0
   17e4e:	01850b93          	addi	s7,a0,24
   17e52:	3d6cfe63          	bgeu	s9,s6,0x1822e
   17e56:	4e85                	li	t4,1
   17e58:	885e                	mv	a6,s7
   17e5a:	4681                	li	a3,0
   17e5c:	4f01                	li	t5,0
   17e5e:	41be8eb3          	sub	t4,t4,s11
   17e62:	02000313          	li	t1,32
   17e66:	fffb4783          	lbu	a5,-1(s6) # 0xffffffff7fffffff
   17e6a:	fffb0f93          	addi	t6,s6,-1
   17e6e:	00480c13          	addi	s8,a6,4
   17e72:	13a78963          	beq	a5,s10,0x17fa4
   17e76:	16668463          	beq	a3,t1,0x17fde
   17e7a:	8636                	mv	a2,a3
   17e7c:	2691                	addiw	a3,a3,4
   17e7e:	fffb4783          	lbu	a5,-1(s6)
   17e82:	8b7e                	mv	s6,t6
   17e84:	97d2                	add	a5,a5,s4
   17e86:	0007c583          	lbu	a1,0(a5)
   17e8a:	89bd                	andi	a1,a1,15
   17e8c:	00c595bb          	sllw	a1,a1,a2
   17e90:	00bf65b3          	or	a1,t5,a1
   17e94:	00058f1b          	sext.w	t5,a1
   17e98:	fd6ce7e3          	bltu	s9,s6,0x17e66
   17e9c:	417c0c33          	sub	s8,s8,s7
   17ea0:	402c5c13          	srai	s8,s8,0x2
   17ea4:	2c01                	sext.w	s8,s8
   17ea6:	01e82023          	sw	t5,0(a6)
   17eaa:	018aaa23          	sw	s8,20(s5)
   17eae:	857a                	mv	a0,t5
   17eb0:	4a7020ef          	jal	ra,0x1ab56
   17eb4:	4004                	lw	s1,0(s0)
   17eb6:	005c1c1b          	slliw	s8,s8,0x5
   17eba:	40ac073b          	subw	a4,s8,a0
   17ebe:	1ce4cc63          	blt	s1,a4,0x18096
   17ec2:	4c81                	li	s9,0
   17ec4:	30974063          	blt	a4,s1,0x181c4
   17ec8:	4418                	lw	a4,8(s0)
   17eca:	35374663          	blt	a4,s3,0x18216
   17ece:	4058                	lw	a4,4(s0)
   17ed0:	18e9d763          	bge	s3,a4,0x1805e
   17ed4:	41370d3b          	subw	s10,a4,s3
   17ed8:	89ea                	mv	s3,s10
   17eda:	209d4163          	blt	s10,s1,0x180dc
   17ede:	445c                	lw	a5,12(s0)
   17ee0:	4689                	li	a3,2
   17ee2:	38d78063          	beq	a5,a3,0x18262
   17ee6:	468d                	li	a3,3
   17ee8:	3ad78c63          	beq	a5,a3,0x182a0
   17eec:	4685                	li	a3,1
   17eee:	38d78a63          	beq	a5,a3,0x18282
   17ef2:	85d6                	mv	a1,s5
   17ef4:	854a                	mv	a0,s2
   17ef6:	2c5020ef          	jal	ra,0x1a9ba
   17efa:	67a2                	ld	a5,8(sp)
   17efc:	05000b13          	li	s6,80
   17f00:	0007b023          	sd	zero,0(a5)
   17f04:	70ea                	ld	ra,184(sp)
   17f06:	744a                	ld	s0,176(sp)
   17f08:	74aa                	ld	s1,168(sp)
   17f0a:	790a                	ld	s2,160(sp)
   17f0c:	69ea                	ld	s3,152(sp)
   17f0e:	6a4a                	ld	s4,144(sp)
   17f10:	6aaa                	ld	s5,136(sp)
   17f12:	7be6                	ld	s7,120(sp)
   17f14:	7c46                	ld	s8,112(sp)
   17f16:	7ca6                	ld	s9,104(sp)
   17f18:	7d06                	ld	s10,96(sp)
   17f1a:	6de6                	ld	s11,88(sp)
   17f1c:	855a                	mv	a0,s6
   17f1e:	6b0a                	ld	s6,128(sp)
   17f20:	6129                	addi	sp,sp,192
   17f22:	8082                	ret
   17f24:	000bc783          	lbu	a5,0(s7)
   17f28:	4981                	li	s3,0
   17f2a:	ee0b08e3          	beqz	s6,0x17e1a
   17f2e:	417b0b3b          	subw	s6,s6,s7
   17f32:	0df7f793          	andi	a5,a5,223
   17f36:	05000613          	li	a2,80
   17f3a:	002b199b          	slliw	s3,s6,0x2
   17f3e:	8b5e                	mv	s6,s7
   17f40:	eec794e3          	bne	a5,a2,0x17e28
   17f44:	001b4783          	lbu	a5,1(s6)
   17f48:	02b00613          	li	a2,43
   17f4c:	26c78a63          	beq	a5,a2,0x181c0
   17f50:	02d00613          	li	a2,45
   17f54:	12c78b63          	beq	a5,a2,0x1808a
   17f58:	001b0813          	addi	a6,s6,1
   17f5c:	4501                	li	a0,0
   17f5e:	97d2                	add	a5,a5,s4
   17f60:	0007c603          	lbu	a2,0(a5)
   17f64:	45e1                	li	a1,24
   17f66:	8bda                	mv	s7,s6
   17f68:	fff6079b          	addiw	a5,a2,-1
   17f6c:	0ff7f793          	andi	a5,a5,255
   17f70:	eaf5ece3          	bltu	a1,a5,0x17e28
   17f74:	00184783          	lbu	a5,1(a6)
   17f78:	00180b93          	addi	s7,a6,1
   17f7c:	3641                	addiw	a2,a2,-16
   17f7e:	97d2                	add	a5,a5,s4
   17f80:	0007c583          	lbu	a1,0(a5)
   17f84:	4865                	li	a6,25
   17f86:	e1c1                	bnez	a1,0x18006
   17f88:	c119                	beqz	a0,0x17f8e
   17f8a:	40c0063b          	negw	a2,a2
   17f8e:	017c3023          	sd	s7,0(s8)
   17f92:	013609bb          	addw	s3,a2,s3
   17f96:	e8068de3          	beqz	a3,0x17e30
   17f9a:	4b01                	li	s6,0
   17f9c:	f60a94e3          	bnez	s5,0x17f04
   17fa0:	4b19                	li	s6,6
   17fa2:	b78d                	j	0x17f04
   17fa4:	01df87b3          	add	a5,t6,t4
   17fa8:	ed97e7e3          	bltu	a5,s9,0x17e76
   17fac:	853e                	mv	a0,a5
   17fae:	866e                	mv	a2,s11
   17fb0:	85a6                	mv	a1,s1
   17fb2:	e4f6                	sd	t4,72(sp)
   17fb4:	e0c2                	sd	a6,64(sp)
   17fb6:	fc7e                	sd	t6,56(sp)
   17fb8:	f836                	sd	a3,48(sp)
   17fba:	f47a                	sd	t5,40(sp)
   17fbc:	e83e                	sd	a5,16(sp)
   17fbe:	010040ef          	jal	ra,0x1bfce
   17fc2:	67c2                	ld	a5,16(sp)
   17fc4:	7f22                	ld	t5,40(sp)
   17fc6:	76c2                	ld	a3,48(sp)
   17fc8:	7fe2                	ld	t6,56(sp)
   17fca:	6806                	ld	a6,64(sp)
   17fcc:	6ea6                	ld	t4,72(sp)
   17fce:	02000313          	li	t1,32
   17fd2:	ea0512e3          	bnez	a0,0x17e76
   17fd6:	8b3e                	mv	s6,a5
   17fd8:	e96ce7e3          	bltu	s9,s6,0x17e66
   17fdc:	b5c1                	j	0x17e9c
   17fde:	00880793          	addi	a5,a6,8
   17fe2:	01e82023          	sw	t5,0(a6)
   17fe6:	4601                	li	a2,0
   17fe8:	8862                	mv	a6,s8
   17fea:	4691                	li	a3,4
   17fec:	8c3e                	mv	s8,a5
   17fee:	4f01                	li	t5,0
   17ff0:	b579                	j	0x17e7e
   17ff2:	001bc583          	lbu	a1,1(s7)
   17ff6:	ff07861b          	addiw	a2,a5,-16
   17ffa:	0b85                	addi	s7,s7,1
   17ffc:	00ba07b3          	add	a5,s4,a1
   18000:	0007c583          	lbu	a1,0(a5)
   18004:	d1d1                	beqz	a1,0x17f88
   18006:	0026179b          	slliw	a5,a2,0x2
   1800a:	9fb1                	addw	a5,a5,a2
   1800c:	0017979b          	slliw	a5,a5,0x1
   18010:	9fad                	addw	a5,a5,a1
   18012:	feb850e3          	bge	a6,a1,0x17ff2
   18016:	bf8d                	j	0x17f88
   18018:	866e                	mv	a2,s11
   1801a:	85a6                	mv	a1,s1
   1801c:	8566                	mv	a0,s9
   1801e:	7b1030ef          	jal	ra,0x1bfce
   18022:	0e051b63          	bnez	a0,0x18118
   18026:	01bc8b33          	add	s6,s9,s11
   1802a:	000b4683          	lbu	a3,0(s6)
   1802e:	00da07b3          	add	a5,s4,a3
   18032:	0007c783          	lbu	a5,0(a5)
   18036:	c7e5                	beqz	a5,0x1811e
   18038:	03000613          	li	a2,48
   1803c:	8cda                	mv	s9,s6
   1803e:	00c69c63          	bne	a3,a2,0x18056
   18042:	03000693          	li	a3,48
   18046:	001cc783          	lbu	a5,1(s9)
   1804a:	0c85                	addi	s9,s9,1
   1804c:	fed78de3          	beq	a5,a3,0x18046
   18050:	97d2                	add	a5,a5,s4
   18052:	0007c783          	lbu	a5,0(a5)
   18056:	0017b693          	seqz	a3,a5
   1805a:	4a85                	li	s5,1
   1805c:	b361                	j	0x17de4
   1805e:	4b05                	li	s6,1
   18060:	000c8e63          	beqz	s9,0x1807c
   18064:	445c                	lw	a5,12(s0)
   18066:	4709                	li	a4,2
   18068:	0ce78463          	beq	a5,a4,0x18130
   1806c:	470d                	li	a4,3
   1806e:	0ce78563          	beq	a5,a4,0x18138
   18072:	4705                	li	a4,1
   18074:	12e78963          	beq	a5,a4,0x181a6
   18078:	010b6b13          	ori	s6,s6,16
   1807c:	67a2                	ld	a5,8(sp)
   1807e:	0157b023          	sd	s5,0(a5)
   18082:	67e2                	ld	a5,24(sp)
   18084:	0137a023          	sw	s3,0(a5)
   18088:	bdb5                	j	0x17f04
   1808a:	4505                	li	a0,1
   1808c:	002b4783          	lbu	a5,2(s6)
   18090:	002b0813          	addi	a6,s6,2
   18094:	b5e9                	j	0x17f5e
   18096:	40970b3b          	subw	s6,a4,s1
   1809a:	85da                	mv	a1,s6
   1809c:	8556                	mv	a0,s5
   1809e:	3ee030ef          	jal	ra,0x1b48c
   180a2:	00050c9b          	sext.w	s9,a0
   180a6:	8c5a                	mv	s8,s6
   180a8:	020c8363          	beqz	s9,0x180ce
   180ac:	fffb071b          	addiw	a4,s6,-1
   180b0:	4057579b          	sraiw	a5,a4,0x5
   180b4:	078a                	slli	a5,a5,0x2
   180b6:	97de                	add	a5,a5,s7
   180b8:	439c                	lw	a5,0(a5)
   180ba:	4685                	li	a3,1
   180bc:	00e696bb          	sllw	a3,a3,a4
   180c0:	8ff5                	and	a5,a5,a3
   180c2:	2781                	sext.w	a5,a5
   180c4:	4c85                	li	s9,1
   180c6:	c781                	beqz	a5,0x180ce
   180c8:	16eccf63          	blt	s9,a4,0x18246
   180cc:	4c89                	li	s9,2
   180ce:	85da                	mv	a1,s6
   180d0:	8556                	mv	a0,s5
   180d2:	be7ff0ef          	jal	ra,0x17cb8
   180d6:	013c09bb          	addw	s3,s8,s3
   180da:	b3fd                	j	0x17ec8
   180dc:	fffd0d9b          	addiw	s11,s10,-1
   180e0:	8c6e                	mv	s8,s11
   180e2:	140c9463          	bnez	s9,0x1822a
   180e6:	140d9963          	bnez	s11,0x18238
   180ea:	405c571b          	sraiw	a4,s8,0x5
   180ee:	070a                	slli	a4,a4,0x2
   180f0:	975e                	add	a4,a4,s7
   180f2:	431c                	lw	a5,0(a4)
   180f4:	4705                	li	a4,1
   180f6:	01b7173b          	sllw	a4,a4,s11
   180fa:	8ff9                	and	a5,a5,a4
   180fc:	2781                	sext.w	a5,a5
   180fe:	c399                	beqz	a5,0x18104
   18100:	002cec93          	ori	s9,s9,2
   18104:	85ea                	mv	a1,s10
   18106:	8556                	mv	a0,s5
   18108:	bb1ff0ef          	jal	ra,0x17cb8
   1810c:	413484bb          	subw	s1,s1,s3
   18110:	4b09                	li	s6,2
   18112:	00442983          	lw	s3,4(s0)
   18116:	b7a9                	j	0x18060
   18118:	000cc683          	lbu	a3,0(s9)
   1811c:	8b66                	mv	s6,s9
   1811e:	0df6f693          	andi	a3,a3,223
   18122:	05000793          	li	a5,80
   18126:	12f68b63          	beq	a3,a5,0x1825c
   1812a:	016c3023          	sd	s6,0(s8)
   1812e:	b5b5                	j	0x17f9a
   18130:	7702                	ld	a4,32(sp)
   18132:	4785                	li	a5,1
   18134:	9f99                	subw	a5,a5,a4
   18136:	f03e                	sd	a5,32(sp)
   18138:	7782                	ld	a5,32(sp)
   1813a:	df9d                	beqz	a5,0x18078
   1813c:	014aaa03          	lw	s4,20(s5)
   18140:	87de                	mv	a5,s7
   18142:	56fd                	li	a3,-1
   18144:	002a1c13          	slli	s8,s4,0x2
   18148:	018b8633          	add	a2,s7,s8
   1814c:	a031                	j	0x18158
   1814e:	0791                	addi	a5,a5,4
   18150:	fe07ae23          	sw	zero,-4(a5)
   18154:	14c7fa63          	bgeu	a5,a2,0x182a8
   18158:	4398                	lw	a4,0(a5)
   1815a:	fed70ae3          	beq	a4,a3,0x1814e
   1815e:	2705                	addiw	a4,a4,1
   18160:	c398                	sw	a4,0(a5)
   18162:	4789                	li	a5,2
   18164:	16fb0363          	beq	s6,a5,0x182ca
   18168:	014aa783          	lw	a5,20(s5)
   1816c:	02fa4263          	blt	s4,a5,0x18190
   18170:	88fd                	andi	s1,s1,31
   18172:	02100b13          	li	s6,33
   18176:	f00483e3          	beqz	s1,0x1807c
   1817a:	9be2                	add	s7,s7,s8
   1817c:	ffcba503          	lw	a0,-4(s7)
   18180:	1d7020ef          	jal	ra,0x1ab56
   18184:	02000793          	li	a5,32
   18188:	409784bb          	subw	s1,a5,s1
   1818c:	ee9558e3          	bge	a0,s1,0x1807c
   18190:	4585                	li	a1,1
   18192:	8556                	mv	a0,s5
   18194:	b25ff0ef          	jal	ra,0x17cb8
   18198:	441c                	lw	a5,8(s0)
   1819a:	2985                	addiw	s3,s3,1
   1819c:	0737cd63          	blt	a5,s3,0x18216
   181a0:	02100b13          	li	s6,33
   181a4:	bde1                	j	0x1807c
   181a6:	002cf793          	andi	a5,s9,2
   181aa:	ec0787e3          	beqz	a5,0x18078
   181ae:	000ba783          	lw	a5,0(s7)
   181b2:	00fce7b3          	or	a5,s9,a5
   181b6:	8b85                	andi	a5,a5,1
   181b8:	f3d1                	bnez	a5,0x1813c
   181ba:	010b6b13          	ori	s6,s6,16
   181be:	bd7d                	j	0x1807c
   181c0:	4501                	li	a0,0
   181c2:	b5e9                	j	0x1808c
   181c4:	40e4863b          	subw	a2,s1,a4
   181c8:	85d6                	mv	a1,s5
   181ca:	854a                	mv	a0,s2
   181cc:	8c32                	mv	s8,a2
   181ce:	4c5020ef          	jal	ra,0x1ae92
   181d2:	8aaa                	mv	s5,a0
   181d4:	418989bb          	subw	s3,s3,s8
   181d8:	01850b93          	addi	s7,a0,24
   181dc:	b1f5                	j	0x17ec8
   181de:	01bb85b3          	add	a1,s7,s11
   181e2:	0005c783          	lbu	a5,0(a1)
   181e6:	8bae                	mv	s7,a1
   181e8:	00fa0633          	add	a2,s4,a5
   181ec:	00064603          	lbu	a2,0(a2)
   181f0:	c20605e3          	beqz	a2,0x17e1a
   181f4:	001bc783          	lbu	a5,1(s7)
   181f8:	0b85                	addi	s7,s7,1
   181fa:	00fa0633          	add	a2,s4,a5
   181fe:	00064603          	lbu	a2,0(a2)
   18202:	fa6d                	bnez	a2,0x181f4
   18204:	417585bb          	subw	a1,a1,s7
   18208:	0025999b          	slliw	s3,a1,0x2
   1820c:	b139                	j	0x17e1a
   1820e:	00280c93          	addi	s9,a6,2
   18212:	4a81                	li	s5,0
   18214:	be45                	j	0x17dc4
   18216:	85d6                	mv	a1,s5
   18218:	854a                	mv	a0,s2
   1821a:	7a0020ef          	jal	ra,0x1a9ba
   1821e:	67a2                	ld	a5,8(sp)
   18220:	0a300b13          	li	s6,163
   18224:	0007b023          	sd	zero,0(a5)
   18228:	b9f1                	j	0x17f04
   1822a:	4c85                	li	s9,1
   1822c:	bd7d                	j	0x180ea
   1822e:	01c50c13          	addi	s8,a0,28
   18232:	885e                	mv	a6,s7
   18234:	4f01                	li	t5,0
   18236:	b19d                	j	0x17e9c
   18238:	85ee                	mv	a1,s11
   1823a:	8556                	mv	a0,s5
   1823c:	250030ef          	jal	ra,0x1b48c
   18240:	00050c9b          	sext.w	s9,a0
   18244:	b55d                	j	0x180ea
   18246:	ffeb059b          	addiw	a1,s6,-2
   1824a:	8556                	mv	a0,s5
   1824c:	240030ef          	jal	ra,0x1b48c
   18250:	0005079b          	sext.w	a5,a0
   18254:	4c8d                	li	s9,3
   18256:	e6079ce3          	bnez	a5,0x180ce
   1825a:	bd8d                	j	0x180cc
   1825c:	4981                	li	s3,0
   1825e:	4685                	li	a3,1
   18260:	b1d5                	j	0x17f44
   18262:	7782                	ld	a5,32(sp)
   18264:	c80797e3          	bnez	a5,0x17ef2
   18268:	67e2                	ld	a5,24(sp)
   1826a:	06200b13          	li	s6,98
   1826e:	c398                	sw	a4,0(a5)
   18270:	4785                	li	a5,1
   18272:	00faaa23          	sw	a5,20(s5)
   18276:	00fba023          	sw	a5,0(s7)
   1827a:	67a2                	ld	a5,8(sp)
   1827c:	0157b023          	sd	s5,0(a5)
   18280:	b151                	j	0x17f04
   18282:	c7a498e3          	bne	s1,s10,0x17ef2
   18286:	fef481e3          	beq	s1,a5,0x18268
   1828a:	fff4859b          	addiw	a1,s1,-1
   1828e:	8556                	mv	a0,s5
   18290:	1fc030ef          	jal	ra,0x1b48c
   18294:	0005079b          	sext.w	a5,a0
   18298:	c4078de3          	beqz	a5,0x17ef2
   1829c:	4058                	lw	a4,4(s0)
   1829e:	b7e9                	j	0x18268
   182a0:	7782                	ld	a5,32(sp)
   182a2:	c40788e3          	beqz	a5,0x17ef2
   182a6:	b7c9                	j	0x18268
   182a8:	014aa783          	lw	a5,20(s5)
   182ac:	00caa703          	lw	a4,12(s5)
   182b0:	04e7d463          	bge	a5,a4,0x182f8
   182b4:	00478713          	addi	a4,a5,4
   182b8:	070a                	slli	a4,a4,0x2
   182ba:	2785                	addiw	a5,a5,1
   182bc:	00faaa23          	sw	a5,20(s5)
   182c0:	00ea87b3          	add	a5,s5,a4
   182c4:	4705                	li	a4,1
   182c6:	c798                	sw	a4,8(a5)
   182c8:	bd69                	j	0x18162
   182ca:	401c                	lw	a5,0(s0)
   182cc:	02200b13          	li	s6,34
   182d0:	37fd                	addiw	a5,a5,-1
   182d2:	da9795e3          	bne	a5,s1,0x1807c
   182d6:	4054d793          	srai	a5,s1,0x5
   182da:	078a                	slli	a5,a5,0x2
   182dc:	9bbe                	add	s7,s7,a5
   182de:	000bab03          	lw	s6,0(s7)
   182e2:	4785                	li	a5,1
   182e4:	009794bb          	sllw	s1,a5,s1
   182e8:	009b7b33          	and	s6,s6,s1
   182ec:	2b01                	sext.w	s6,s6
   182ee:	001b3b13          	seqz	s6,s6
   182f2:	021b0b13          	addi	s6,s6,33
   182f6:	b359                	j	0x1807c
   182f8:	008aa583          	lw	a1,8(s5)
   182fc:	854a                	mv	a0,s2
   182fe:	2585                	addiw	a1,a1,1
   18300:	656020ef          	jal	ra,0x1a956
   18304:	014aa783          	lw	a5,20(s5)
   18308:	8caa                	mv	s9,a0
   1830a:	010a8593          	addi	a1,s5,16
   1830e:	0789                	addi	a5,a5,2
   18310:	00279613          	slli	a2,a5,0x2
   18314:	0541                	addi	a0,a0,16
   18316:	a69fa0ef          	jal	ra,0x12d7e
   1831a:	85d6                	mv	a1,s5
   1831c:	854a                	mv	a0,s2
   1831e:	69c020ef          	jal	ra,0x1a9ba
   18322:	014ca783          	lw	a5,20(s9)
   18326:	018c8b93          	addi	s7,s9,24
   1832a:	8ae6                	mv	s5,s9
   1832c:	b761                	j	0x182b4
   1832e:	6114                	ld	a3,0(a0)
   18330:	4865                	li	a6,25
   18332:	0005c603          	lbu	a2,0(a1)
   18336:	0685                	addi	a3,a3,1
   18338:	0585                	addi	a1,a1,1
   1833a:	c205                	beqz	a2,0x1835a
   1833c:	0006c783          	lbu	a5,0(a3)
   18340:	fbf7871b          	addiw	a4,a5,-65
   18344:	0ff77713          	andi	a4,a4,255
   18348:	2781                	sext.w	a5,a5
   1834a:	00e86463          	bltu	a6,a4,0x18352
   1834e:	02078793          	addi	a5,a5,32
   18352:	fec780e3          	beq	a5,a2,0x18332
   18356:	4501                	li	a0,0
   18358:	8082                	ret
   1835a:	e114                	sd	a3,0(a0)
   1835c:	4505                	li	a0,1
   1835e:	8082                	ret
   18360:	0005a383          	lw	t2,0(a1)
   18364:	7139                	addi	sp,sp,-64
   18366:	fc22                	sd	s0,56(sp)
   18368:	4053d793          	srai	a5,t2,0x5
   1836c:	078a                	slli	a5,a5,0x2
   1836e:	f826                	sd	s1,48(sp)
   18370:	f44a                	sd	s2,40(sp)
   18372:	f04e                	sd	s3,32(sp)
   18374:	ec52                	sd	s4,24(sp)
   18376:	e856                	sd	s5,16(sp)
   18378:	e45a                	sd	s6,8(sp)
   1837a:	01f3f393          	andi	t2,t2,31
   1837e:	97b2                	add	a5,a5,a2
   18380:	12039363          	bnez	t2,0x184a6
   18384:	ffc78893          	addi	a7,a5,-4
   18388:	843e                	mv	s0,a5
   1838a:	6118                	ld	a4,0(a0)
   1838c:	fe042e23          	sw	zero,-4(s0)
   18390:	00174783          	lbu	a5,1(a4)
   18394:	16078a63          	beqz	a5,0x18508
   18398:	8e46                	mv	t3,a7
   1839a:	8846                	mv	a6,a7
   1839c:	4581                	li	a1,0
   1839e:	4f01                	li	t5,0
   183a0:	4301                	li	t1,0
   183a2:	00009e97          	auipc	t4,0x9
   183a6:	de6e8e93          	addi	t4,t4,-538 # 0x21188
   183aa:	42a1                	li	t0,8
   183ac:	02000f93          	li	t6,32
   183b0:	449d                	li	s1,7
   183b2:	49a1                	li	s3,8
   183b4:	02000913          	li	s2,32
   183b8:	a03d                	j	0x183e6
   183ba:	14ffe363          	bltu	t6,a5,0x18500
   183be:	026f5063          	bge	t5,t1,0x183de
   183c2:	01c87463          	bgeu	a6,t3,0x183ca
   183c6:	10b4d463          	bge	s1,a1,0x184ce
   183ca:	45a1                	li	a1,8
   183cc:	01067963          	bgeu	a2,a6,0x183de
   183d0:	ffc80e13          	addi	t3,a6,-4
   183d4:	fe082e23          	sw	zero,-4(a6)
   183d8:	8f1a                	mv	t5,t1
   183da:	8872                	mv	a6,t3
   183dc:	4581                	li	a1,0
   183de:	00274783          	lbu	a5,2(a4)
   183e2:	0705                	addi	a4,a4,1
   183e4:	c795                	beqz	a5,0x18410
   183e6:	00fe86b3          	add	a3,t4,a5
   183ea:	0006c683          	lbu	a3,0(a3)
   183ee:	d6f1                	beqz	a3,0x183ba
   183f0:	2585                	addiw	a1,a1,1
   183f2:	2305                	addiw	t1,t1,1
   183f4:	0ab2c163          	blt	t0,a1,0x18496
   183f8:	00082783          	lw	a5,0(a6)
   183fc:	0047979b          	slliw	a5,a5,0x4
   18400:	8abd                	andi	a3,a3,15
   18402:	8edd                	or	a3,a3,a5
   18404:	00d82023          	sw	a3,0(a6)
   18408:	00274783          	lbu	a5,2(a4)
   1840c:	0705                	addi	a4,a4,1
   1840e:	ffe1                	bnez	a5,0x183e6
   18410:	0e030c63          	beqz	t1,0x18508
   18414:	03c87e63          	bgeu	a6,t3,0x18450
   18418:	479d                	li	a5,7
   1841a:	02b7cb63          	blt	a5,a1,0x18450
   1841e:	47a1                	li	a5,8
   18420:	9f8d                	subw	a5,a5,a1
   18422:	00082683          	lw	a3,0(a6)
   18426:	0027931b          	slliw	t1,a5,0x2
   1842a:	02000513          	li	a0,32
   1842e:	4065053b          	subw	a0,a0,t1
   18432:	87c2                	mv	a5,a6
   18434:	43d8                	lw	a4,4(a5)
   18436:	0791                	addi	a5,a5,4
   18438:	00a715bb          	sllw	a1,a4,a0
   1843c:	8ecd                	or	a3,a3,a1
   1843e:	0067573b          	srlw	a4,a4,t1
   18442:	fed7ae23          	sw	a3,-4(a5)
   18446:	c398                	sw	a4,0(a5)
   18448:	0007069b          	sext.w	a3,a4
   1844c:	ffc7e4e3          	bltu	a5,t3,0x18434
   18450:	05067f63          	bgeu	a2,a6,0x184ae
   18454:	8732                	mv	a4,a2
   18456:	87c2                	mv	a5,a6
   18458:	4394                	lw	a3,0(a5)
   1845a:	0791                	addi	a5,a5,4
   1845c:	0711                	addi	a4,a4,4
   1845e:	fed72e23          	sw	a3,-4(a4)
   18462:	fef8fbe3          	bgeu	a7,a5,0x18458
   18466:	00188693          	addi	a3,a7,1
   1846a:	00180713          	addi	a4,a6,1
   1846e:	4791                	li	a5,4
   18470:	0ae6fe63          	bgeu	a3,a4,0x1852c
   18474:	97b2                	add	a5,a5,a2
   18476:	0791                	addi	a5,a5,4
   18478:	fe07ae23          	sw	zero,-4(a5)
   1847c:	fef8fde3          	bgeu	a7,a5,0x18476
   18480:	ffc42783          	lw	a5,-4(s0)
   18484:	e799                	bnez	a5,0x18492
   18486:	09160b63          	beq	a2,a7,0x1851c
   1848a:	ffc8a783          	lw	a5,-4(a7)
   1848e:	18f1                	addi	a7,a7,-4
   18490:	dbfd                	beqz	a5,0x18486
   18492:	4515                	li	a0,5
   18494:	a89d                	j	0x1850a
   18496:	f50674e3          	bgeu	a2,a6,0x183de
   1849a:	fe082e23          	sw	zero,-4(a6)
   1849e:	4781                	li	a5,0
   184a0:	1871                	addi	a6,a6,-4
   184a2:	4585                	li	a1,1
   184a4:	bfb1                	j	0x18400
   184a6:	00478413          	addi	s0,a5,4
   184aa:	88be                	mv	a7,a5
   184ac:	bdf9                	j	0x1838a
   184ae:	ffc42783          	lw	a5,-4(s0)
   184b2:	fc0389e3          	beqz	t2,0x18484
   184b6:	02000713          	li	a4,32
   184ba:	407703bb          	subw	t2,a4,t2
   184be:	577d                	li	a4,-1
   184c0:	0077573b          	srlw	a4,a4,t2
   184c4:	8ff9                	and	a5,a5,a4
   184c6:	2781                	sext.w	a5,a5
   184c8:	fef42e23          	sw	a5,-4(s0)
   184cc:	bf65                	j	0x18484
   184ce:	40b98abb          	subw	s5,s3,a1
   184d2:	00082a03          	lw	s4,0(a6)
   184d6:	002a9b1b          	slliw	s6,s5,0x2
   184da:	41690abb          	subw	s5,s2,s6
   184de:	87c2                	mv	a5,a6
   184e0:	43d4                	lw	a3,4(a5)
   184e2:	0791                	addi	a5,a5,4
   184e4:	015695bb          	sllw	a1,a3,s5
   184e8:	00ba6a33          	or	s4,s4,a1
   184ec:	0166d6bb          	srlw	a3,a3,s6
   184f0:	ff47ae23          	sw	s4,-4(a5)
   184f4:	c394                	sw	a3,0(a5)
   184f6:	00068a1b          	sext.w	s4,a3
   184fa:	ffc7e3e3          	bltu	a5,t3,0x184e0
   184fe:	b5f1                	j	0x183ca
   18500:	02900693          	li	a3,41
   18504:	02d78163          	beq	a5,a3,0x18526
   18508:	4511                	li	a0,4
   1850a:	7462                	ld	s0,56(sp)
   1850c:	74c2                	ld	s1,48(sp)
   1850e:	7922                	ld	s2,40(sp)
   18510:	7982                	ld	s3,32(sp)
   18512:	6a62                	ld	s4,24(sp)
   18514:	6ac2                	ld	s5,16(sp)
   18516:	6b22                	ld	s6,8(sp)
   18518:	6121                	addi	sp,sp,64
   1851a:	8082                	ret
   1851c:	4785                	li	a5,1
   1851e:	00f8a023          	sw	a5,0(a7)
   18522:	4515                	li	a0,5
   18524:	b7dd                	j	0x1850a
   18526:	0709                	addi	a4,a4,2
   18528:	e118                	sd	a4,0(a0)
   1852a:	b5dd                	j	0x18410
   1852c:	410887b3          	sub	a5,a7,a6
   18530:	9bf1                	andi	a5,a5,-4
   18532:	0791                	addi	a5,a5,4
   18534:	b781                	j	0x18474
   18536:	00450693          	addi	a3,a0,4
   1853a:	4781                	li	a5,0
   1853c:	0569                	addi	a0,a0,26
   1853e:	7861                	lui	a6,0xffff8
   18540:	a811                	j	0x18554
   18542:	0017979b          	slliw	a5,a5,0x1
   18546:	00e69023          	sh	a4,0(a3)
   1854a:	17c2                	slli	a5,a5,0x30
   1854c:	0689                	addi	a3,a3,2
   1854e:	93c1                	srli	a5,a5,0x30
   18550:	02d50863          	beq	a0,a3,0x18580
   18554:	0006d703          	lhu	a4,0(a3)
   18558:	00177613          	andi	a2,a4,1
   1855c:	c219                	beqz	a2,0x18562
   1855e:	0017e793          	ori	a5,a5,1
   18562:	8305                	srli	a4,a4,0x1
   18564:	0027f613          	andi	a2,a5,2
   18568:	010765b3          	or	a1,a4,a6
   1856c:	da79                	beqz	a2,0x18542
   1856e:	0017979b          	slliw	a5,a5,0x1
   18572:	00b69023          	sh	a1,0(a3)
   18576:	17c2                	slli	a5,a5,0x30
   18578:	0689                	addi	a3,a3,2
   1857a:	93c1                	srli	a5,a5,0x30
   1857c:	fcd51ce3          	bne	a0,a3,0x18554
   18580:	8082                	ret
   18582:	01850693          	addi	a3,a0,24
   18586:	4701                	li	a4,0
   18588:	0509                	addi	a0,a0,2
   1858a:	a811                	j	0x1859e
   1858c:	0017171b          	slliw	a4,a4,0x1
   18590:	00f69023          	sh	a5,0(a3)
   18594:	1742                	slli	a4,a4,0x30
   18596:	16f9                	addi	a3,a3,-2
   18598:	9341                	srli	a4,a4,0x30
   1859a:	04d50063          	beq	a0,a3,0x185da
   1859e:	0006d783          	lhu	a5,0(a3)
   185a2:	0107961b          	slliw	a2,a5,0x10
   185a6:	4106561b          	sraiw	a2,a2,0x10
   185aa:	02061593          	slli	a1,a2,0x20
   185ae:	0017979b          	slliw	a5,a5,0x1
   185b2:	0005d463          	bgez	a1,0x185ba
   185b6:	00176713          	ori	a4,a4,1
   185ba:	17c2                	slli	a5,a5,0x30
   185bc:	93c1                	srli	a5,a5,0x30
   185be:	00277613          	andi	a2,a4,2
   185c2:	0017e593          	ori	a1,a5,1
   185c6:	d279                	beqz	a2,0x1858c
   185c8:	0017171b          	slliw	a4,a4,0x1
   185cc:	00b69023          	sh	a1,0(a3)
   185d0:	1742                	slli	a4,a4,0x30
   185d2:	16f9                	addi	a3,a3,-2
   185d4:	9341                	srli	a4,a4,0x30
   185d6:	fcd514e3          	bne	a0,a3,0x1859e
   185da:	8082                	ret
   185dc:	1101                	addi	sp,sp,-32
   185de:	6e41                	lui	t3,0x10
   185e0:	00011b23          	sh	zero,22(sp)
   185e4:	00011c23          	sh	zero,24(sp)
   185e8:	05e1                	addi	a1,a1,24
   185ea:	083c                	addi	a5,sp,24
   185ec:	00410813          	addi	a6,sp,4
   185f0:	1e7d                	addi	t3,t3,-1
   185f2:	0005d703          	lhu	a4,0(a1)
   185f6:	17f9                	addi	a5,a5,-2
   185f8:	15f9                	addi	a1,a1,-2
   185fa:	e315                	bnez	a4,0x1861e
   185fc:	fe079f23          	sh	zero,-2(a5)
   18600:	ff0799e3          	bne	a5,a6,0x185f2
   18604:	0611                	addi	a2,a2,4
   18606:	01a10693          	addi	a3,sp,26
   1860a:	0007d703          	lhu	a4,0(a5)
   1860e:	0789                	addi	a5,a5,2
   18610:	0609                	addi	a2,a2,2
   18612:	fee61f23          	sh	a4,-2(a2)
   18616:	fed79ae3          	bne	a5,a3,0x1860a
   1861a:	6105                	addi	sp,sp,32
   1861c:	8082                	ret
   1861e:	02a70733          	mul	a4,a4,a0
   18622:	0027d883          	lhu	a7,2(a5)
   18626:	0007d303          	lhu	t1,0(a5)
   1862a:	01c776b3          	and	a3,a4,t3
   1862e:	96c6                	add	a3,a3,a7
   18630:	8341                	srli	a4,a4,0x10
   18632:	0106d893          	srli	a7,a3,0x10
   18636:	971a                	add	a4,a4,t1
   18638:	9746                	add	a4,a4,a7
   1863a:	01075893          	srli	a7,a4,0x10
   1863e:	00d79123          	sh	a3,2(a5)
   18642:	00e79023          	sh	a4,0(a5)
   18646:	ff179f23          	sh	a7,-2(a5)
   1864a:	fb0794e3          	bne	a5,a6,0x185f2
   1864e:	bf5d                	j	0x18604
   18650:	01250713          	addi	a4,a0,18
   18654:	00055783          	lhu	a5,0(a0)
   18658:	0509                	addi	a0,a0,2
   1865a:	e789                	bnez	a5,0x18664
   1865c:	fee51ce3          	bne	a0,a4,0x18654
   18660:	4501                	li	a0,0
   18662:	8082                	ret
   18664:	4505                	li	a0,1
   18666:	8082                	ret
   18668:	1101                	addi	sp,sp,-32
   1866a:	e426                	sd	s1,8(sp)
   1866c:	01255483          	lhu	s1,18(a0)
   18670:	e822                	sd	s0,16(sp)
   18672:	ec06                	sd	ra,24(sp)
   18674:	fff4c793          	not	a5,s1
   18678:	03179713          	slli	a4,a5,0x31
   1867c:	842a                	mv	s0,a0
   1867e:	e701                	bnez	a4,0x18686
   18680:	fd1ff0ef          	jal	ra,0x18650
   18684:	e509                	bnez	a0,0x1868e
   18686:	77e1                	lui	a5,0xffff8
   18688:	8cbd                	xor	s1,s1,a5
   1868a:	00941923          	sh	s1,18(s0)
   1868e:	60e2                	ld	ra,24(sp)
   18690:	6442                	ld	s0,16(sp)
   18692:	64a2                	ld	s1,8(sp)
   18694:	6105                	addi	sp,sp,32
   18696:	8082                	ret
   18698:	1141                	addi	sp,sp,-16
   1869a:	e022                	sd	s0,0(sp)
   1869c:	01255403          	lhu	s0,18(a0)
   186a0:	e406                	sd	ra,8(sp)
   186a2:	fff44793          	not	a5,s0
   186a6:	03179713          	slli	a4,a5,0x31
   186aa:	e711                	bnez	a4,0x186b6
   186ac:	fa5ff0ef          	jal	ra,0x18650
   186b0:	87aa                	mv	a5,a0
   186b2:	4501                	li	a0,0
   186b4:	e399                	bnez	a5,0x186ba
   186b6:	00f45513          	srli	a0,s0,0xf
   186ba:	60a2                	ld	ra,8(sp)
   186bc:	6402                	ld	s0,0(sp)
   186be:	0141                	addi	sp,sp,16
   186c0:	8082                	ret
   186c2:	01255783          	lhu	a5,18(a0)
   186c6:	7139                	addi	sp,sp,-64
   186c8:	f822                	sd	s0,48(sp)
   186ca:	00f7d79b          	srliw	a5,a5,0xf
   186ce:	f426                	sd	s1,40(sp)
   186d0:	fc06                	sd	ra,56(sp)
   186d2:	f04a                	sd	s2,32(sp)
   186d4:	ec4e                	sd	s3,24(sp)
   186d6:	40f007bb          	negw	a5,a5
   186da:	00f59023          	sh	a5,0(a1)
   186de:	01255783          	lhu	a5,18(a0)
   186e2:	6721                	lui	a4,0x8
   186e4:	177d                	addi	a4,a4,-1
   186e6:	8ff9                	and	a5,a5,a4
   186e8:	00f59123          	sh	a5,2(a1)
   186ec:	84aa                	mv	s1,a0
   186ee:	01050413          	addi	s0,a0,16
   186f2:	02e78863          	beq	a5,a4,0x18722
   186f6:	00658793          	addi	a5,a1,6
   186fa:	00059223          	sh	zero,4(a1)
   186fe:	1579                	addi	a0,a0,-2
   18700:	00045703          	lhu	a4,0(s0)
   18704:	1479                	addi	s0,s0,-2
   18706:	0789                	addi	a5,a5,2
   18708:	fee79f23          	sh	a4,-2(a5) # 0xffffffffffff7ffe
   1870c:	fe851ae3          	bne	a0,s0,0x18700
   18710:	00059c23          	sh	zero,24(a1)
   18714:	70e2                	ld	ra,56(sp)
   18716:	7442                	ld	s0,48(sp)
   18718:	74a2                	ld	s1,40(sp)
   1871a:	7902                	ld	s2,32(sp)
   1871c:	69e2                	ld	s3,24(sp)
   1871e:	6121                	addi	sp,sp,64
   18720:	8082                	ret
   18722:	0007869b          	sext.w	a3,a5
   18726:	01255783          	lhu	a5,18(a0)
   1872a:	00458913          	addi	s2,a1,4
   1872e:	8ff5                	and	a5,a5,a3
   18730:	02d79663          	bne	a5,a3,0x1875c
   18734:	e42e                	sd	a1,8(sp)
   18736:	f1bff0ef          	jal	ra,0x18650
   1873a:	65a2                	ld	a1,8(sp)
   1873c:	c105                	beqz	a0,0x1875c
   1873e:	00658793          	addi	a5,a1,6
   18742:	00059223          	sh	zero,4(a1)
   18746:	ffc48513          	addi	a0,s1,-4
   1874a:	00045703          	lhu	a4,0(s0)
   1874e:	1479                	addi	s0,s0,-2
   18750:	0789                	addi	a5,a5,2
   18752:	fee79f23          	sh	a4,-2(a5)
   18756:	fe851ae3          	bne	a0,s0,0x1874a
   1875a:	bf6d                	j	0x18714
   1875c:	01a58993          	addi	s3,a1,26
   18760:	0909                	addi	s2,s2,2
   18762:	fe091f23          	sh	zero,-2(s2)
   18766:	ff299de3          	bne	s3,s2,0x18760
   1876a:	70e2                	ld	ra,56(sp)
   1876c:	7442                	ld	s0,48(sp)
   1876e:	74a2                	ld	s1,40(sp)
   18770:	7902                	ld	s2,32(sp)
   18772:	69e2                	ld	s3,24(sp)
   18774:	6121                	addi	sp,sp,64
   18776:	8082                	ret
   18778:	01255783          	lhu	a5,18(a0)
   1877c:	711d                	addi	sp,sp,-96
   1877e:	e8a2                	sd	s0,80(sp)
   18780:	fff7c793          	not	a5,a5
   18784:	e4a6                	sd	s1,72(sp)
   18786:	ec86                	sd	ra,88(sp)
   18788:	03179713          	slli	a4,a5,0x31
   1878c:	84aa                	mv	s1,a0
   1878e:	842e                	mv	s0,a1
   18790:	e701                	bnez	a4,0x18798
   18792:	ebfff0ef          	jal	ra,0x18650
   18796:	ed39                	bnez	a0,0x187f4
   18798:	01245783          	lhu	a5,18(s0)
   1879c:	fff7c793          	not	a5,a5
   187a0:	03179713          	slli	a4,a5,0x31
   187a4:	c721                	beqz	a4,0x187ec
   187a6:	858a                	mv	a1,sp
   187a8:	8526                	mv	a0,s1
   187aa:	f19ff0ef          	jal	ra,0x186c2
   187ae:	100c                	addi	a1,sp,32
   187b0:	8522                	mv	a0,s0
   187b2:	f11ff0ef          	jal	ra,0x186c2
   187b6:	00015583          	lhu	a1,0(sp)
   187ba:	02015783          	lhu	a5,32(sp)
   187be:	02b78d63          	beq	a5,a1,0x187f8
   187c2:	00210793          	addi	a5,sp,2
   187c6:	02210713          	addi	a4,sp,34
   187ca:	0830                	addi	a2,sp,24
   187cc:	0007d683          	lhu	a3,0(a5)
   187d0:	0789                	addi	a5,a5,2
   187d2:	e2ad                	bnez	a3,0x18834
   187d4:	00075683          	lhu	a3,0(a4) # 0x8000
   187d8:	0709                	addi	a4,a4,2
   187da:	eea9                	bnez	a3,0x18834
   187dc:	fec798e3          	bne	a5,a2,0x187cc
   187e0:	4501                	li	a0,0
   187e2:	60e6                	ld	ra,88(sp)
   187e4:	6446                	ld	s0,80(sp)
   187e6:	64a6                	ld	s1,72(sp)
   187e8:	6125                	addi	sp,sp,96
   187ea:	8082                	ret
   187ec:	8522                	mv	a0,s0
   187ee:	e63ff0ef          	jal	ra,0x18650
   187f2:	d955                	beqz	a0,0x187a6
   187f4:	5579                	li	a0,-2
   187f6:	b7f5                	j	0x187e2
   187f8:	4505                	li	a0,1
   187fa:	e1a9                	bnez	a1,0x1883c
   187fc:	00215603          	lhu	a2,2(sp)
   18800:	02215683          	lhu	a3,34(sp)
   18804:	00210713          	addi	a4,sp,2
   18808:	02210793          	addi	a5,sp,34
   1880c:	182c                	addi	a1,sp,56
   1880e:	0789                	addi	a5,a5,2
   18810:	0709                	addi	a4,a4,2
   18812:	00d61c63          	bne	a2,a3,0x1882a
   18816:	fcb785e3          	beq	a5,a1,0x187e0
   1881a:	00075603          	lhu	a2,0(a4)
   1881e:	0007d683          	lhu	a3,0(a5)
   18822:	0709                	addi	a4,a4,2
   18824:	0789                	addi	a5,a5,2
   18826:	fed608e3          	beq	a2,a3,0x18816
   1882a:	fac6ece3          	bltu	a3,a2,0x187e2
   1882e:	40a0053b          	negw	a0,a0
   18832:	bf45                	j	0x187e2
   18834:	4505                	li	a0,1
   18836:	d5d5                	beqz	a1,0x187e2
   18838:	557d                	li	a0,-1
   1883a:	b765                	j	0x187e2
   1883c:	557d                	li	a0,-1
   1883e:	bf7d                	j	0x187fc
   18840:	1141                	addi	sp,sp,-16
   18842:	e406                	sd	ra,8(sp)
   18844:	e0dff0ef          	jal	ra,0x18650
   18848:	60a2                	ld	ra,8(sp)
   1884a:	00153513          	seqz	a0,a0
   1884e:	0141                	addi	sp,sp,16
   18850:	8082                	ret
   18852:	7179                	addi	sp,sp,-48
   18854:	f022                	sd	s0,32(sp)
   18856:	ec26                	sd	s1,24(sp)
   18858:	f406                	sd	ra,40(sp)
   1885a:	e84a                	sd	s2,16(sp)
   1885c:	e44e                	sd	s3,8(sp)
   1885e:	84ae                	mv	s1,a1
   18860:	842a                	mv	s0,a0
   18862:	0605cb63          	bltz	a1,0x188d8
   18866:	47bd                	li	a5,15
   18868:	862e                	mv	a2,a1
   1886a:	0511                	addi	a0,a0,4
   1886c:	01840693          	addi	a3,s0,24
   18870:	45bd                	li	a1,15
   18872:	0297d063          	bge	a5,s1,0x18892
   18876:	87aa                	mv	a5,a0
   18878:	0027d703          	lhu	a4,2(a5)
   1887c:	0789                	addi	a5,a5,2
   1887e:	fee79f23          	sh	a4,-2(a5)
   18882:	fed79be3          	bne	a5,a3,0x18878
   18886:	00041c23          	sh	zero,24(s0)
   1888a:	3641                	addiw	a2,a2,-16
   1888c:	fec5c5e3          	blt	a1,a2,0x18876
   18890:	88bd                	andi	s1,s1,15
   18892:	479d                	li	a5,7
   18894:	0297d463          	bge	a5,s1,0x188bc
   18898:	01840713          	addi	a4,s0,24
   1889c:	00240593          	addi	a1,s0,2
   188a0:	4781                	li	a5,0
   188a2:	00075683          	lhu	a3,0(a4)
   188a6:	1779                	addi	a4,a4,-2
   188a8:	00869613          	slli	a2,a3,0x8
   188ac:	8fd1                	or	a5,a5,a2
   188ae:	00f71123          	sh	a5,2(a4)
   188b2:	0086d793          	srli	a5,a3,0x8
   188b6:	feb716e3          	bne	a4,a1,0x188a2
   188ba:	34e1                	addiw	s1,s1,-8
   188bc:	c491                	beqz	s1,0x188c8
   188be:	34fd                	addiw	s1,s1,-1
   188c0:	8522                	mv	a0,s0
   188c2:	cc1ff0ef          	jal	ra,0x18582
   188c6:	fce5                	bnez	s1,0x188be
   188c8:	4501                	li	a0,0
   188ca:	70a2                	ld	ra,40(sp)
   188cc:	7402                	ld	s0,32(sp)
   188ce:	64e2                	ld	s1,24(sp)
   188d0:	6942                	ld	s2,16(sp)
   188d2:	69a2                	ld	s3,8(sp)
   188d4:	6145                	addi	sp,sp,48
   188d6:	8082                	ret
   188d8:	57c5                	li	a5,-15
   188da:	40b0093b          	negw	s2,a1
   188de:	0ef5d463          	bge	a1,a5,0x189c6
   188e2:	01850593          	addi	a1,a0,24
   188e6:	4981                	li	s3,0
   188e8:	00450693          	addi	a3,a0,4
   188ec:	463d                	li	a2,15
   188ee:	01845703          	lhu	a4,24(s0)
   188f2:	87ae                	mv	a5,a1
   188f4:	00e9e9b3          	or	s3,s3,a4
   188f8:	ffe7d703          	lhu	a4,-2(a5)
   188fc:	17f9                	addi	a5,a5,-2
   188fe:	00e79123          	sh	a4,2(a5)
   18902:	fed79be3          	bne	a5,a3,0x188f8
   18906:	00041223          	sh	zero,4(s0)
   1890a:	3941                	addiw	s2,s2,-16
   1890c:	ff2641e3          	blt	a2,s2,0x188ee
   18910:	57c1                	li	a5,-16
   18912:	5745                	li	a4,-15
   18914:	9f85                	subw	a5,a5,s1
   18916:	4901                	li	s2,0
   18918:	08e4c063          	blt	s1,a4,0x18998
   1891c:	00f9093b          	addw	s2,s2,a5
   18920:	479d                	li	a5,7
   18922:	0327df63          	bge	a5,s2,0x18960
   18926:	0109999b          	slliw	s3,s3,0x10
   1892a:	4109d99b          	sraiw	s3,s3,0x10
   1892e:	01844783          	lbu	a5,24(s0)
   18932:	01a40593          	addi	a1,s0,26
   18936:	00f9e9b3          	or	s3,s3,a5
   1893a:	19c2                	slli	s3,s3,0x30
   1893c:	0309d993          	srli	s3,s3,0x30
   18940:	4781                	li	a5,0
   18942:	0006d603          	lhu	a2,0(a3)
   18946:	0689                	addi	a3,a3,2
   18948:	0086571b          	srliw	a4,a2,0x8
   1894c:	8f5d                	or	a4,a4,a5
   1894e:	0086179b          	slliw	a5,a2,0x8
   18952:	17c2                	slli	a5,a5,0x30
   18954:	fee69f23          	sh	a4,-2(a3)
   18958:	93c1                	srli	a5,a5,0x30
   1895a:	feb694e3          	bne	a3,a1,0x18942
   1895e:	3961                	addiw	s2,s2,-8
   18960:	04090b63          	beqz	s2,0x189b6
   18964:	01845783          	lhu	a5,24(s0)
   18968:	397d                	addiw	s2,s2,-1
   1896a:	8522                	mv	a0,s0
   1896c:	8b85                	andi	a5,a5,1
   1896e:	0137e9b3          	or	s3,a5,s3
   18972:	bc5ff0ef          	jal	ra,0x18536
   18976:	fe0917e3          	bnez	s2,0x18964
   1897a:	0109979b          	slliw	a5,s3,0x10
   1897e:	4107d79b          	sraiw	a5,a5,0x10
   18982:	e78d                	bnez	a5,0x189ac
   18984:	03099513          	slli	a0,s3,0x30
   18988:	9141                	srli	a0,a0,0x30
   1898a:	70a2                	ld	ra,40(sp)
   1898c:	7402                	ld	s0,32(sp)
   1898e:	64e2                	ld	s1,24(sp)
   18990:	6942                	ld	s2,16(sp)
   18992:	69a2                	ld	s3,8(sp)
   18994:	6145                	addi	sp,sp,48
   18996:	8082                	ret
   18998:	ff07f913          	andi	s2,a5,-16
   1899c:	4120093b          	negw	s2,s2
   189a0:	00f9093b          	addw	s2,s2,a5
   189a4:	479d                	li	a5,7
   189a6:	fb27dde3          	bge	a5,s2,0x18960
   189aa:	bfb5                	j	0x18926
   189ac:	4985                	li	s3,1
   189ae:	03099513          	slli	a0,s3,0x30
   189b2:	9141                	srli	a0,a0,0x30
   189b4:	bfd9                	j	0x1898a
   189b6:	854e                	mv	a0,s3
   189b8:	00099563          	bnez	s3,0x189c2
   189bc:	1542                	slli	a0,a0,0x30
   189be:	9141                	srli	a0,a0,0x30
   189c0:	b729                	j	0x188ca
   189c2:	4505                	li	a0,1
   189c4:	bfe5                	j	0x189bc
   189c6:	57e5                	li	a5,-7
   189c8:	4981                	li	s3,0
   189ca:	f8f5dde3          	bge	a1,a5,0x18964
   189ce:	00440693          	addi	a3,s0,4
   189d2:	bfb1                	j	0x1892e
   189d4:	00455783          	lhu	a5,4(a0)
   189d8:	1101                	addi	sp,sp,-32
   189da:	e426                	sd	s1,8(sp)
   189dc:	ec06                	sd	ra,24(sp)
   189de:	e822                	sd	s0,16(sp)
   189e0:	e04a                	sd	s2,0(sp)
   189e2:	84aa                	mv	s1,a0
   189e4:	ebc5                	bnez	a5,0x18a94
   189e6:	00655703          	lhu	a4,6(a0)
   189ea:	4401                	li	s0,0
   189ec:	0107179b          	slliw	a5,a4,0x10
   189f0:	4107d79b          	sraiw	a5,a5,0x10
   189f4:	02079693          	slli	a3,a5,0x20
   189f8:	0806c763          	bltz	a3,0x18a86
   189fc:	01a50693          	addi	a3,a0,26
   18a00:	0a000613          	li	a2,160
   18a04:	e31d                	bnez	a4,0x18a2a
   18a06:	00648793          	addi	a5,s1,6
   18a0a:	a019                	j	0x18a10
   18a0c:	0007d703          	lhu	a4,0(a5)
   18a10:	0789                	addi	a5,a5,2
   18a12:	fee79e23          	sh	a4,-4(a5)
   18a16:	fef69be3          	bne	a3,a5,0x18a0c
   18a1a:	00049c23          	sh	zero,24(s1)
   18a1e:	2441                	addiw	s0,s0,16
   18a20:	06c40363          	beq	s0,a2,0x18a86
   18a24:	0064d703          	lhu	a4,6(s1)
   18a28:	df79                	beqz	a4,0x18a06
   18a2a:	f0077793          	andi	a5,a4,-256
   18a2e:	eb8d                	bnez	a5,0x18a60
   18a30:	01848513          	addi	a0,s1,24
   18a34:	00248593          	addi	a1,s1,2
   18a38:	4781                	li	a5,0
   18a3a:	872a                	mv	a4,a0
   18a3c:	00075683          	lhu	a3,0(a4)
   18a40:	1779                	addi	a4,a4,-2
   18a42:	00869613          	slli	a2,a3,0x8
   18a46:	8fd1                	or	a5,a5,a2
   18a48:	00f71123          	sh	a5,2(a4)
   18a4c:	0086d793          	srli	a5,a3,0x8
   18a50:	fee596e3          	bne	a1,a4,0x18a3c
   18a54:	0064d703          	lhu	a4,6(s1)
   18a58:	2421                	addiw	s0,s0,8
   18a5a:	f0077793          	andi	a5,a4,-256
   18a5e:	dfe9                	beqz	a5,0x18a38
   18a60:	0a000913          	li	s2,160
   18a64:	a801                	j	0x18a74
   18a66:	2405                	addiw	s0,s0,1
   18a68:	b1bff0ef          	jal	ra,0x18582
   18a6c:	00894d63          	blt	s2,s0,0x18a86
   18a70:	0064d703          	lhu	a4,6(s1)
   18a74:	0107171b          	slliw	a4,a4,0x10
   18a78:	4107571b          	sraiw	a4,a4,0x10
   18a7c:	02071793          	slli	a5,a4,0x20
   18a80:	8526                	mv	a0,s1
   18a82:	fe07d2e3          	bgez	a5,0x18a66
   18a86:	60e2                	ld	ra,24(sp)
   18a88:	8522                	mv	a0,s0
   18a8a:	6442                	ld	s0,16(sp)
   18a8c:	64a2                	ld	s1,8(sp)
   18a8e:	6902                	ld	s2,0(sp)
   18a90:	6105                	addi	sp,sp,32
   18a92:	8082                	ret
   18a94:	f007f713          	andi	a4,a5,-256
   18a98:	4401                	li	s0,0
   18a9a:	e705                	bnez	a4,0x18ac2
   18a9c:	f6f00913          	li	s2,-145
   18aa0:	a801                	j	0x18ab0
   18aa2:	347d                	addiw	s0,s0,-1
   18aa4:	a93ff0ef          	jal	ra,0x18536
   18aa8:	fd240fe3          	beq	s0,s2,0x18a86
   18aac:	0044d783          	lhu	a5,4(s1)
   18ab0:	8526                	mv	a0,s1
   18ab2:	fbe5                	bnez	a5,0x18aa2
   18ab4:	60e2                	ld	ra,24(sp)
   18ab6:	8522                	mv	a0,s0
   18ab8:	6442                	ld	s0,16(sp)
   18aba:	64a2                	ld	s1,8(sp)
   18abc:	6902                	ld	s2,0(sp)
   18abe:	6105                	addi	sp,sp,32
   18ac0:	8082                	ret
   18ac2:	00450693          	addi	a3,a0,4
   18ac6:	01a50593          	addi	a1,a0,26
   18aca:	4701                	li	a4,0
   18acc:	a019                	j	0x18ad2
   18ace:	0006d783          	lhu	a5,0(a3)
   18ad2:	0087d61b          	srliw	a2,a5,0x8
   18ad6:	8f51                	or	a4,a4,a2
   18ad8:	0087979b          	slliw	a5,a5,0x8
   18adc:	00e69023          	sh	a4,0(a3)
   18ae0:	03079713          	slli	a4,a5,0x30
   18ae4:	0689                	addi	a3,a3,2
   18ae6:	9341                	srli	a4,a4,0x30
   18ae8:	feb693e3          	bne	a3,a1,0x18ace
   18aec:	0044d783          	lhu	a5,4(s1)
   18af0:	5461                	li	s0,-8
   18af2:	b76d                	j	0x18a9c
   18af4:	7139                	addi	sp,sp,-64
   18af6:	f822                	sd	s0,48(sp)
   18af8:	f426                	sd	s1,40(sp)
   18afa:	f04a                	sd	s2,32(sp)
   18afc:	ec4e                	sd	s3,24(sp)
   18afe:	e852                	sd	s4,16(sp)
   18b00:	e456                	sd	s5,8(sp)
   18b02:	8936                	mv	s2,a3
   18b04:	84be                	mv	s1,a5
   18b06:	fc06                	sd	ra,56(sp)
   18b08:	842a                	mv	s0,a0
   18b0a:	89ae                	mv	s3,a1
   18b0c:	8a32                	mv	s4,a2
   18b0e:	8aba                	mv	s5,a4
   18b10:	ec5ff0ef          	jal	ra,0x189d4
   18b14:	09000793          	li	a5,144
   18b18:	40a90933          	sub	s2,s2,a0
   18b1c:	12a7db63          	bge	a5,a0,0x18c52
   18b20:	67a1                	lui	a5,0x8
   18b22:	17f9                	addi	a5,a5,-2
   18b24:	1927dd63          	bge	a5,s2,0x18cbe
   18b28:	160a8b63          	beqz	s5,0x18c9e
   18b2c:	40c8                	lw	a0,4(s1)
   18b2e:	409c                	lw	a5,0(s1)
   18b30:	04a78e63          	beq	a5,a0,0x18b8c
   18b34:	01a48713          	addi	a4,s1,26
   18b38:	03448793          	addi	a5,s1,52
   18b3c:	0709                	addi	a4,a4,2
   18b3e:	fe071f23          	sh	zero,-2(a4)
   18b42:	fef71de3          	bne	a4,a5,0x18b3c
   18b46:	03800793          	li	a5,56
   18b4a:	28f50263          	beq	a0,a5,0x18dce
   18b4e:	12a7d163          	bge	a5,a0,0x18c70
   18b52:	04000793          	li	a5,64
   18b56:	24f50c63          	beq	a0,a5,0x18dae
   18b5a:	07100793          	li	a5,113
   18b5e:	28f51163          	bne	a0,a5,0x18de0
   18b62:	47a9                	li	a5,10
   18b64:	40008737          	lui	a4,0x40008
   18b68:	177d                	addi	a4,a4,-1
   18b6a:	1782                	slli	a5,a5,0x20
   18b6c:	07a9                	addi	a5,a5,10
   18b6e:	c8d8                	sw	a4,20(s1)
   18b70:	7761                	lui	a4,0xffff8
   18b72:	00e49c23          	sh	a4,24(s1)
   18b76:	e49c                	sd	a5,8(s1)
   18b78:	6721                	lui	a4,0x8
   18b7a:	47a9                	li	a5,10
   18b7c:	07a1                	addi	a5,a5,8
   18b7e:	0786                	slli	a5,a5,0x1
   18b80:	97a6                	add	a5,a5,s1
   18b82:	00e79523          	sh	a4,10(a5) # 0x800a
   18b86:	c088                	sw	a0,0(s1)
   18b88:	17205163          	blez	s2,0x18cea
   18b8c:	4494                	lw	a3,8(s1)
   18b8e:	0144d603          	lhu	a2,20(s1)
   18b92:	08f00793          	li	a5,143
   18b96:	00169713          	slli	a4,a3,0x1
   18b9a:	00e40833          	add	a6,s0,a4
   18b9e:	00085883          	lhu	a7,0(a6) # 0xffffffffffff8000
   18ba2:	00c8f5b3          	and	a1,a7,a2
   18ba6:	02a7ce63          	blt	a5,a0,0x18be2
   18baa:	47ad                	li	a5,11
   18bac:	02d7cb63          	blt	a5,a3,0x18be2
   18bb0:	9f95                	subw	a5,a5,a3
   18bb2:	1782                	slli	a5,a5,0x20
   18bb4:	9381                	srli	a5,a5,0x20
   18bb6:	97b6                	add	a5,a5,a3
   18bb8:	00179693          	slli	a3,a5,0x1
   18bbc:	0709                	addi	a4,a4,2
   18bbe:	00440793          	addi	a5,s0,4
   18bc2:	9722                	add	a4,a4,s0
   18bc4:	97b6                	add	a5,a5,a3
   18bc6:	00075683          	lhu	a3,0(a4) # 0x8000
   18bca:	c299                	beqz	a3,0x18bd0
   18bcc:	0015e593          	ori	a1,a1,1
   18bd0:	00071023          	sh	zero,0(a4)
   18bd4:	0709                	addi	a4,a4,2
   18bd6:	fee798e3          	bne	a5,a4,0x18bc6
   18bda:	00085883          	lhu	a7,0(a6)
   18bde:	0144d603          	lhu	a2,20(s1)
   18be2:	fff64613          	not	a2,a2
   18be6:	01167633          	and	a2,a2,a7
   18bea:	00c81023          	sh	a2,0(a6)
   18bee:	0164d783          	lhu	a5,22(s1)
   18bf2:	00b7f733          	and	a4,a5,a1
   18bf6:	cb05                	beqz	a4,0x18c26
   18bf8:	12b78f63          	beq	a5,a1,0x18d36
   18bfc:	03248613          	addi	a2,s1,50
   18c00:	01840693          	addi	a3,s0,24
   18c04:	04f1                	addi	s1,s1,28
   18c06:	4701                	li	a4,0
   18c08:	00065783          	lhu	a5,0(a2)
   18c0c:	0006d583          	lhu	a1,0(a3)
   18c10:	16f9                	addi	a3,a3,-2
   18c12:	1679                	addi	a2,a2,-2
   18c14:	97ae                	add	a5,a5,a1
   18c16:	97ba                	add	a5,a5,a4
   18c18:	0107d713          	srli	a4,a5,0x10
   18c1c:	00f69123          	sh	a5,2(a3)
   18c20:	8b05                	andi	a4,a4,1
   18c22:	fe9613e3          	bne	a2,s1,0x18c08
   18c26:	13205663          	blez	s2,0x18d52
   18c2a:	00445783          	lhu	a5,4(s0)
   18c2e:	e7ed                	bnez	a5,0x18d18
   18c30:	67a1                	lui	a5,0x8
   18c32:	00041c23          	sh	zero,24(s0)
   18c36:	17f9                	addi	a5,a5,-2
   18c38:	0727c563          	blt	a5,s2,0x18ca2
   18c3c:	01241123          	sh	s2,2(s0)
   18c40:	70e2                	ld	ra,56(sp)
   18c42:	7442                	ld	s0,48(sp)
   18c44:	74a2                	ld	s1,40(sp)
   18c46:	7902                	ld	s2,32(sp)
   18c48:	69e2                	ld	s3,24(sp)
   18c4a:	6a42                	ld	s4,16(sp)
   18c4c:	6aa2                	ld	s5,8(sp)
   18c4e:	6121                	addi	sp,sp,64
   18c50:	8082                	ret
   18c52:	0a095a63          	bgez	s2,0x18d06
   18c56:	f7000793          	li	a5,-144
   18c5a:	06f95b63          	bge	s2,a5,0x18cd0
   18c5e:	00240793          	addi	a5,s0,2
   18c62:	0469                	addi	s0,s0,26
   18c64:	0789                	addi	a5,a5,2
   18c66:	fe079f23          	sh	zero,-2(a5) # 0x7ffe
   18c6a:	fe879de3          	bne	a5,s0,0x18c64
   18c6e:	bfc9                	j	0x18c40
   18c70:	47e1                	li	a5,24
   18c72:	10f50f63          	beq	a0,a5,0x18d90
   18c76:	03500793          	li	a5,53
   18c7a:	16f51363          	bne	a0,a5,0x18de0
   18c7e:	040006b7          	lui	a3,0x4000
   18c82:	6705                	lui	a4,0x1
   18c84:	7ff68693          	addi	a3,a3,2047 # 0x40007ff
   18c88:	4799                	li	a5,6
   18c8a:	80070713          	addi	a4,a4,-2048 # 0x800
   18c8e:	c8d4                	sw	a3,20(s1)
   18c90:	1782                	slli	a5,a5,0x20
   18c92:	0799                	addi	a5,a5,6
   18c94:	e49c                	sd	a5,8(s1)
   18c96:	00e49c23          	sh	a4,24(s1)
   18c9a:	4799                	li	a5,6
   18c9c:	b5c5                	j	0x18b7c
   18c9e:	00041c23          	sh	zero,24(s0)
   18ca2:	77e1                	lui	a5,0xffff8
   18ca4:	fff7c793          	not	a5,a5
   18ca8:	00f41123          	sh	a5,2(s0)
   18cac:	00440793          	addi	a5,s0,4
   18cb0:	0461                	addi	s0,s0,24
   18cb2:	00079023          	sh	zero,0(a5) # 0xffffffffffff8000
   18cb6:	0789                	addi	a5,a5,2
   18cb8:	fef41de3          	bne	s0,a5,0x18cb2
   18cbc:	b751                	j	0x18c40
   18cbe:	00240793          	addi	a5,s0,2
   18cc2:	0469                	addi	s0,s0,26
   18cc4:	0789                	addi	a5,a5,2
   18cc6:	fe079f23          	sh	zero,-2(a5)
   18cca:	fe879de3          	bne	a5,s0,0x18cc4
   18cce:	bf8d                	j	0x18c40
   18cd0:	0009059b          	sext.w	a1,s2
   18cd4:	8522                	mv	a0,s0
   18cd6:	b7dff0ef          	jal	ra,0x18852
   18cda:	c111                	beqz	a0,0x18cde
   18cdc:	4985                	li	s3,1
   18cde:	0a0a8463          	beqz	s5,0x18d86
   18ce2:	40c8                	lw	a0,4(s1)
   18ce4:	409c                	lw	a5,0(s1)
   18ce6:	e4a797e3          	bne	a5,a0,0x18b34
   18cea:	09000793          	li	a5,144
   18cee:	08f50163          	beq	a0,a5,0x18d70
   18cf2:	01845783          	lhu	a5,24(s0)
   18cf6:	8522                	mv	a0,s0
   18cf8:	8b85                	andi	a5,a5,1
   18cfa:	00f9e9b3          	or	s3,s3,a5
   18cfe:	839ff0ef          	jal	ra,0x18536
   18d02:	40c8                	lw	a0,4(s1)
   18d04:	b561                	j	0x18b8c
   18d06:	f20a85e3          	beqz	s5,0x18c30
   18d0a:	40c8                	lw	a0,4(s1)
   18d0c:	409c                	lw	a5,0(s1)
   18d0e:	e2a793e3          	bne	a5,a0,0x18b34
   18d12:	e7204de3          	bgtz	s2,0x18b8c
   18d16:	bfd1                	j	0x18cea
   18d18:	8522                	mv	a0,s0
   18d1a:	81dff0ef          	jal	ra,0x18536
   18d1e:	67a1                	lui	a5,0x8
   18d20:	0905                	addi	s2,s2,1
   18d22:	00041c23          	sh	zero,24(s0)
   18d26:	17f9                	addi	a5,a5,-2
   18d28:	f727cde3          	blt	a5,s2,0x18ca2
   18d2c:	f00958e3          	bgez	s2,0x18c3c
   18d30:	00041123          	sh	zero,2(s0)
   18d34:	b731                	j	0x18c40
   18d36:	08099963          	bnez	s3,0x18dc8
   18d3a:	44dc                	lw	a5,12(s1)
   18d3c:	0184d703          	lhu	a4,24(s1)
   18d40:	0786                	slli	a5,a5,0x1
   18d42:	97a2                	add	a5,a5,s0
   18d44:	0007d783          	lhu	a5,0(a5) # 0x8000
   18d48:	8ff9                	and	a5,a5,a4
   18d4a:	ea0799e3          	bnez	a5,0x18bfc
   18d4e:	ed204ee3          	bgtz	s2,0x18c2a
   18d52:	09000793          	li	a5,144
   18d56:	00f50563          	beq	a0,a5,0x18d60
   18d5a:	8522                	mv	a0,s0
   18d5c:	827ff0ef          	jal	ra,0x18582
   18d60:	00445783          	lhu	a5,4(s0)
   18d64:	fbd5                	bnez	a5,0x18d18
   18d66:	00041c23          	sh	zero,24(s0)
   18d6a:	fc0943e3          	bltz	s2,0x18d30
   18d6e:	b5f9                	j	0x18c3c
   18d70:	0084a803          	lw	a6,8(s1)
   18d74:	0144d603          	lhu	a2,20(s1)
   18d78:	0806                	slli	a6,a6,0x1
   18d7a:	9822                	add	a6,a6,s0
   18d7c:	00085883          	lhu	a7,0(a6)
   18d80:	011675b3          	and	a1,a2,a7
   18d84:	bdb9                	j	0x18be2
   18d86:	00041c23          	sh	zero,24(s0)
   18d8a:	00041123          	sh	zero,2(s0)
   18d8e:	bd4d                	j	0x18c40
   18d90:	4791                	li	a5,4
   18d92:	00800737          	lui	a4,0x800
   18d96:	0ff70713          	addi	a4,a4,255 # 0x8000ff
   18d9a:	1782                	slli	a5,a5,0x20
   18d9c:	0791                	addi	a5,a5,4
   18d9e:	c8d8                	sw	a4,20(s1)
   18da0:	10000713          	li	a4,256
   18da4:	e49c                	sd	a5,8(s1)
   18da6:	00e49c23          	sh	a4,24(s1)
   18daa:	4791                	li	a5,4
   18dac:	bbc1                	j	0x18b7c
   18dae:	478d                	li	a5,3
   18db0:	80010737          	lui	a4,0x80010
   18db4:	177d                	addi	a4,a4,-1
   18db6:	1786                	slli	a5,a5,0x21
   18db8:	079d                	addi	a5,a5,7
   18dba:	c8d8                	sw	a4,20(s1)
   18dbc:	4705                	li	a4,1
   18dbe:	e49c                	sd	a5,8(s1)
   18dc0:	00e49c23          	sh	a4,24(s1)
   18dc4:	4799                	li	a5,6
   18dc6:	bb5d                	j	0x18b7c
   18dc8:	e20a0ae3          	beqz	s4,0x18bfc
   18dcc:	bda9                	j	0x18c26
   18dce:	00800737          	lui	a4,0x800
   18dd2:	0ff70713          	addi	a4,a4,255 # 0x8000ff
   18dd6:	c8d8                	sw	a4,20(s1)
   18dd8:	4799                	li	a5,6
   18dda:	10000713          	li	a4,256
   18dde:	bd4d                	j	0x18c90
   18de0:	47ad                	li	a5,11
   18de2:	80010737          	lui	a4,0x80010
   18de6:	177d                	addi	a4,a4,-1
   18de8:	1782                	slli	a5,a5,0x20
   18dea:	07b1                	addi	a5,a5,12
   18dec:	c8d8                	sw	a4,20(s1)
   18dee:	4705                	li	a4,1
   18df0:	e49c                	sd	a5,8(s1)
   18df2:	00e49c23          	sh	a4,24(s1)
   18df6:	47ad                	li	a5,11
   18df8:	b351                	j	0x18b7c
   18dfa:	711d                	addi	sp,sp,-96
   18dfc:	e4a6                	sd	s1,72(sp)
   18dfe:	fc4e                	sd	s3,56(sp)
   18e00:	84ae                	mv	s1,a1
   18e02:	00255983          	lhu	s3,2(a0)
   18e06:	ec86                	sd	ra,88(sp)
   18e08:	e8a2                	sd	s0,80(sp)
   18e0a:	e0ca                	sd	s2,64(sp)
   18e0c:	f852                	sd	s4,48(sp)
   18e0e:	8932                	mv	s2,a2
   18e10:	f456                	sd	s5,40(sp)
   18e12:	f05a                	sd	s6,32(sp)
   18e14:	ec5e                	sd	s7,24(sp)
   18e16:	e862                	sd	s8,16(sp)
   18e18:	e466                	sd	s9,8(sp)
   18e1a:	e06a                	sd	s10,0(sp)
   18e1c:	8a2a                	mv	s4,a0
   18e1e:	bb7ff0ef          	jal	ra,0x189d4
   18e22:	0024d403          	lhu	s0,2(s1)
   18e26:	87aa                	mv	a5,a0
   18e28:	8526                	mv	a0,s1
   18e2a:	40f989b3          	sub	s3,s3,a5
   18e2e:	03490a93          	addi	s5,s2,52
   18e32:	ba3ff0ef          	jal	ra,0x189d4
   18e36:	8c09                	sub	s0,s0,a0
   18e38:	04e90713          	addi	a4,s2,78
   18e3c:	87d6                	mv	a5,s5
   18e3e:	0789                	addi	a5,a5,2
   18e40:	fe079f23          	sh	zero,-2(a5)
   18e44:	fee79de3          	bne	a5,a4,0x18e3e
   18e48:	07344b63          	blt	s0,s3,0x18ebe
   18e4c:	004a0b93          	addi	s7,s4,4
   18e50:	00448b13          	addi	s6,s1,4
   18e54:	19fd                	addi	s3,s3,-1
   18e56:	01aa0c93          	addi	s9,s4,26
   18e5a:	00248c13          	addi	s8,s1,2
   18e5e:	875a                	mv	a4,s6
   18e60:	87de                	mv	a5,s7
   18e62:	0007d603          	lhu	a2,0(a5)
   18e66:	00075683          	lhu	a3,0(a4) # 0xffffffff80010000
   18e6a:	0789                	addi	a5,a5,2
   18e6c:	0709                	addi	a4,a4,2
   18e6e:	06d61c63          	bne	a2,a3,0x18ee6
   18e72:	fefc98e3          	bne	s9,a5,0x18e62
   18e76:	018a0613          	addi	a2,s4,24
   18e7a:	01848713          	addi	a4,s1,24
   18e7e:	4681                	li	a3,0
   18e80:	00075783          	lhu	a5,0(a4)
   18e84:	00065583          	lhu	a1,0(a2)
   18e88:	1779                	addi	a4,a4,-2
   18e8a:	8f95                	sub	a5,a5,a3
   18e8c:	8f8d                	sub	a5,a5,a1
   18e8e:	0107d693          	srli	a3,a5,0x10
   18e92:	00f71123          	sh	a5,2(a4)
   18e96:	8a85                	andi	a3,a3,1
   18e98:	1679                	addi	a2,a2,-2
   18e9a:	feec13e3          	bne	s8,a4,0x18e80
   18e9e:	4d05                	li	s10,1
   18ea0:	8556                	mv	a0,s5
   18ea2:	ee0ff0ef          	jal	ra,0x18582
   18ea6:	04c95783          	lhu	a5,76(s2)
   18eaa:	147d                	addi	s0,s0,-1
   18eac:	8526                	mv	a0,s1
   18eae:	00fd6d33          	or	s10,s10,a5
   18eb2:	05a91623          	sh	s10,76(s2)
   18eb6:	eccff0ef          	jal	ra,0x18582
   18eba:	fb3412e3          	bne	s0,s3,0x18e5e
   18ebe:	86a2                	mv	a3,s0
   18ec0:	6446                	ld	s0,80(sp)
   18ec2:	60e6                	ld	ra,88(sp)
   18ec4:	79e2                	ld	s3,56(sp)
   18ec6:	7a42                	ld	s4,48(sp)
   18ec8:	7aa2                	ld	s5,40(sp)
   18eca:	7b02                	ld	s6,32(sp)
   18ecc:	6be2                	ld	s7,24(sp)
   18ece:	6c42                	ld	s8,16(sp)
   18ed0:	6ca2                	ld	s9,8(sp)
   18ed2:	6d02                	ld	s10,0(sp)
   18ed4:	87ca                	mv	a5,s2
   18ed6:	8526                	mv	a0,s1
   18ed8:	6906                	ld	s2,64(sp)
   18eda:	64a6                	ld	s1,72(sp)
   18edc:	4701                	li	a4,0
   18ede:	4601                	li	a2,0
   18ee0:	4581                	li	a1,0
   18ee2:	6125                	addi	sp,sp,96
   18ee4:	b901                	j	0x18af4
   18ee6:	4d01                	li	s10,0
   18ee8:	fac6ece3          	bltu	a3,a2,0x18ea0
   18eec:	b769                	j	0x18e76
   18eee:	00055703          	lhu	a4,0(a0)
   18ef2:	00255783          	lhu	a5,2(a0)
   18ef6:	c319                	beqz	a4,0x18efc
   18ef8:	6721                	lui	a4,0x8
   18efa:	8fd9                	or	a5,a5,a4
   18efc:	00f59923          	sh	a5,18(a1)
   18f00:	00255703          	lhu	a4,2(a0)
   18f04:	67a1                	lui	a5,0x8
   18f06:	17fd                	addi	a5,a5,-1
   18f08:	00f70f63          	beq	a4,a5,0x18f26
   18f0c:	00650793          	addi	a5,a0,6
   18f10:	05c1                	addi	a1,a1,16
   18f12:	0561                	addi	a0,a0,24
   18f14:	0007d703          	lhu	a4,0(a5) # 0x8000
   18f18:	0789                	addi	a5,a5,2
   18f1a:	15f9                	addi	a1,a1,-2
   18f1c:	00e59123          	sh	a4,2(a1)
   18f20:	fea79ae3          	bne	a5,a0,0x18f14
   18f24:	8082                	ret
   18f26:	00650793          	addi	a5,a0,6
   18f2a:	0569                	addi	a0,a0,26
   18f2c:	0007d703          	lhu	a4,0(a5)
   18f30:	0789                	addi	a5,a5,2
   18f32:	e31d                	bnez	a4,0x18f58
   18f34:	fea79ce3          	bne	a5,a0,0x18f2c
   18f38:	01258713          	addi	a4,a1,18
   18f3c:	87ae                	mv	a5,a1
   18f3e:	0789                	addi	a5,a5,2
   18f40:	fe079f23          	sh	zero,-2(a5)
   18f44:	fef71de3          	bne	a4,a5,0x18f3e
   18f48:	0125d783          	lhu	a5,18(a1)
   18f4c:	6721                	lui	a4,0x8
   18f4e:	177d                	addi	a4,a4,-1
   18f50:	8fd9                	or	a5,a5,a4
   18f52:	00f59923          	sh	a5,18(a1)
   18f56:	8082                	ret
   18f58:	01058713          	addi	a4,a1,16
   18f5c:	87ae                	mv	a5,a1
   18f5e:	0789                	addi	a5,a5,2
   18f60:	fe079f23          	sh	zero,-2(a5)
   18f64:	fef71de3          	bne	a4,a5,0x18f5e
   18f68:	7fffc7b7          	lui	a5,0x7fffc
   18f6c:	c99c                	sw	a5,16(a1)
   18f6e:	8082                	ret
   18f70:	7131                	addi	sp,sp,-192
   18f72:	e556                	sd	s5,136(sp)
   18f74:	01255a83          	lhu	s5,18(a0)
   18f78:	67a1                	lui	a5,0x8
   18f7a:	17fd                	addi	a5,a5,-1
   18f7c:	f922                	sd	s0,176(sp)
   18f7e:	f526                	sd	s1,168(sp)
   18f80:	f14a                	sd	s2,160(sp)
   18f82:	ed4e                	sd	s3,152(sp)
   18f84:	e15a                	sd	s6,128(sp)
   18f86:	fd06                	sd	ra,184(sp)
   18f88:	e952                	sd	s4,144(sp)
   18f8a:	fcde                	sd	s7,120(sp)
   18f8c:	f8e2                	sd	s8,112(sp)
   18f8e:	f4e6                	sd	s9,104(sp)
   18f90:	0157fb33          	and	s6,a5,s5
   18f94:	84aa                	mv	s1,a0
   18f96:	892e                	mv	s2,a1
   18f98:	8432                	mv	s0,a2
   18f9a:	89b6                	mv	s3,a3
   18f9c:	0cfb1263          	bne	s6,a5,0x19060
   18fa0:	eb0ff0ef          	jal	ra,0x18650
   18fa4:	1e051863          	bnez	a0,0x19194
   18fa8:	01295a03          	lhu	s4,18(s2)
   18fac:	014b77b3          	and	a5,s6,s4
   18fb0:	1f678d63          	beq	a5,s6,0x191aa
   18fb4:	8526                	mv	a0,s1
   18fb6:	88bff0ef          	jal	ra,0x18840
   18fba:	22050c63          	beqz	a0,0x191f2
   18fbe:	00008597          	auipc	a1,0x8
   18fc2:	30258593          	addi	a1,a1,770 # 0x212c0
   18fc6:	854a                	mv	a0,s2
   18fc8:	fb0ff0ef          	jal	ra,0x18778
   18fcc:	28050963          	beqz	a0,0x1925e
   18fd0:	01295a03          	lhu	s4,18(s2)
   18fd4:	67a1                	lui	a5,0x8
   18fd6:	17fd                	addi	a5,a5,-1
   18fd8:	0147fa33          	and	s4,a5,s4
   18fdc:	1a42                	slli	s4,s4,0x30
   18fde:	030a5a13          	srli	s4,s4,0x30
   18fe2:	20fa1663          	bne	s4,a5,0x191ee
   18fe6:	854a                	mv	a0,s2
   18fe8:	859ff0ef          	jal	ra,0x18840
   18fec:	24051a63          	bnez	a0,0x19240
   18ff0:	0124d783          	lhu	a5,18(s1)
   18ff4:	00fa77b3          	and	a5,s4,a5
   18ff8:	07479a63          	bne	a5,s4,0x1906c
   18ffc:	8526                	mv	a0,s1
   18ffe:	843ff0ef          	jal	ra,0x18840
   19002:	e509                	bnez	a0,0x1900c
   19004:	854a                	mv	a0,s2
   19006:	83bff0ef          	jal	ra,0x18840
   1900a:	c12d                	beqz	a0,0x1906c
   1900c:	8526                	mv	a0,s1
   1900e:	e8aff0ef          	jal	ra,0x18698
   19012:	84aa                	mv	s1,a0
   19014:	854a                	mv	a0,s2
   19016:	e82ff0ef          	jal	ra,0x18698
   1901a:	40a48533          	sub	a0,s1,a0
   1901e:	00a03533          	snez	a0,a0
   19022:	053e                	slli	a0,a0,0xf
   19024:	00a41923          	sh	a0,18(s0)
   19028:	01240713          	addi	a4,s0,18
   1902c:	87a2                	mv	a5,s0
   1902e:	0789                	addi	a5,a5,2
   19030:	fe079f23          	sh	zero,-2(a5) # 0x7ffe
   19034:	fef71de3          	bne	a4,a5,0x1902e
   19038:	01245783          	lhu	a5,18(s0)
   1903c:	6721                	lui	a4,0x8
   1903e:	177d                	addi	a4,a4,-1
   19040:	8fd9                	or	a5,a5,a4
   19042:	00f41923          	sh	a5,18(s0)
   19046:	70ea                	ld	ra,184(sp)
   19048:	744a                	ld	s0,176(sp)
   1904a:	74aa                	ld	s1,168(sp)
   1904c:	790a                	ld	s2,160(sp)
   1904e:	69ea                	ld	s3,152(sp)
   19050:	6a4a                	ld	s4,144(sp)
   19052:	6aaa                	ld	s5,136(sp)
   19054:	6b0a                	ld	s6,128(sp)
   19056:	7be6                	ld	s7,120(sp)
   19058:	7c46                	ld	s8,112(sp)
   1905a:	7ca6                	ld	s9,104(sp)
   1905c:	6129                	addi	sp,sp,192
   1905e:	8082                	ret
   19060:	0125da03          	lhu	s4,18(a1)
   19064:	0147f733          	and	a4,a5,s4
   19068:	02f70f63          	beq	a4,a5,0x190a6
   1906c:	8526                	mv	a0,s1
   1906e:	858a                	mv	a1,sp
   19070:	e52ff0ef          	jal	ra,0x186c2
   19074:	854a                	mv	a0,s2
   19076:	100c                	addi	a1,sp,32
   19078:	e4aff0ef          	jal	ra,0x186c2
   1907c:	00215483          	lhu	s1,2(sp)
   19080:	02215903          	lhu	s2,34(sp)
   19084:	e0a1                	bnez	s1,0x190c4
   19086:	005c                	addi	a5,sp,4
   19088:	0834                	addi	a3,sp,24
   1908a:	18f68b63          	beq	a3,a5,0x19220
   1908e:	0007d703          	lhu	a4,0(a5)
   19092:	0789                	addi	a5,a5,2
   19094:	db7d                	beqz	a4,0x1908a
   19096:	850a                	mv	a0,sp
   19098:	93dff0ef          	jal	ra,0x189d4
   1909c:	02215703          	lhu	a4,34(sp)
   190a0:	40a004b3          	neg	s1,a0
   190a4:	a00d                	j	0x190c6
   190a6:	852e                	mv	a0,a1
   190a8:	da8ff0ef          	jal	ra,0x18650
   190ac:	d505                	beqz	a0,0x18fd4
   190ae:	01490713          	addi	a4,s2,20
   190b2:	00095783          	lhu	a5,0(s2)
   190b6:	0909                	addi	s2,s2,2
   190b8:	0409                	addi	s0,s0,2
   190ba:	fef41f23          	sh	a5,-2(s0)
   190be:	fee91ae3          	bne	s2,a4,0x190b2
   190c2:	b751                	j	0x19046
   190c4:	874a                	mv	a4,s2
   190c6:	8aca                	mv	s5,s2
   190c8:	105c                	addi	a5,sp,36
   190ca:	1834                	addi	a3,sp,56
   190cc:	ef11                	bnez	a4,0x190e8
   190ce:	16f68163          	beq	a3,a5,0x19230
   190d2:	0007d703          	lhu	a4,0(a5)
   190d6:	0789                	addi	a5,a5,2
   190d8:	db7d                	beqz	a4,0x190ce
   190da:	1008                	addi	a0,sp,32
   190dc:	8f9ff0ef          	jal	ra,0x189d4
   190e0:	02215703          	lhu	a4,34(sp)
   190e4:	40a90ab3          	sub	s5,s2,a0
   190e8:	02015783          	lhu	a5,32(sp)
   190ec:	03898c13          	addi	s8,s3,56
   190f0:	02e99b23          	sh	a4,54(s3)
   190f4:	02f99a23          	sh	a5,52(s3)
   190f8:	04e98713          	addi	a4,s3,78
   190fc:	87e2                	mv	a5,s8
   190fe:	00079023          	sh	zero,0(a5)
   19102:	0789                	addi	a5,a5,2
   19104:	fef71de3          	bne	a4,a5,0x190fe
   19108:	04c98a13          	addi	s4,s3,76
   1910c:	4b81                	li	s7,0
   1910e:	01810913          	addi	s2,sp,24
   19112:	00410c93          	addi	s9,sp,4
   19116:	04210b13          	addi	s6,sp,66
   1911a:	00095503          	lhu	a0,0(s2)
   1911e:	1979                	addi	s2,s2,-2
   19120:	e145                	bnez	a0,0x191c0
   19122:	04c9d703          	lhu	a4,76(s3)
   19126:	87d2                	mv	a5,s4
   19128:	00ebebb3          	or	s7,s7,a4
   1912c:	ffe7d703          	lhu	a4,-2(a5)
   19130:	17f9                	addi	a5,a5,-2
   19132:	00e79123          	sh	a4,2(a5)
   19136:	ff879be3          	bne	a5,s8,0x1912c
   1913a:	02099c23          	sh	zero,56(s3)
   1913e:	fd991ee3          	bne	s2,s9,0x1911a
   19142:	03498713          	addi	a4,s3,52
   19146:	101c                	addi	a5,sp,32
   19148:	03a10593          	addi	a1,sp,58
   1914c:	00075603          	lhu	a2,0(a4) # 0x8000
   19150:	0789                	addi	a5,a5,2
   19152:	0709                	addi	a4,a4,2
   19154:	fec79f23          	sh	a2,-2(a5)
   19158:	fef59ae3          	bne	a1,a5,0x1914c
   1915c:	76f1                	lui	a3,0xffffc
   1915e:	94d6                	add	s1,s1,s5
   19160:	0689                	addi	a3,a3,2
   19162:	85de                	mv	a1,s7
   19164:	1008                	addi	a0,sp,32
   19166:	87ce                	mv	a5,s3
   19168:	04000713          	li	a4,64
   1916c:	96a6                	add	a3,a3,s1
   1916e:	4601                	li	a2,0
   19170:	985ff0ef          	jal	ra,0x18af4
   19174:	02015703          	lhu	a4,32(sp)
   19178:	00015783          	lhu	a5,0(sp)
   1917c:	85a2                	mv	a1,s0
   1917e:	1008                	addi	a0,sp,32
   19180:	8f99                	sub	a5,a5,a4
   19182:	00f037b3          	snez	a5,a5
   19186:	40f007bb          	negw	a5,a5
   1918a:	02f11023          	sh	a5,32(sp)
   1918e:	d61ff0ef          	jal	ra,0x18eee
   19192:	bd55                	j	0x19046
   19194:	01448713          	addi	a4,s1,20
   19198:	0004d783          	lhu	a5,0(s1)
   1919c:	0489                	addi	s1,s1,2
   1919e:	0409                	addi	s0,s0,2
   191a0:	fef41f23          	sh	a5,-2(s0)
   191a4:	fee49ae3          	bne	s1,a4,0x19198
   191a8:	bd79                	j	0x19046
   191aa:	854a                	mv	a0,s2
   191ac:	ca4ff0ef          	jal	ra,0x18650
   191b0:	ee051fe3          	bnez	a0,0x190ae
   191b4:	8526                	mv	a0,s1
   191b6:	e8aff0ef          	jal	ra,0x18840
   191ba:	e0050de3          	beqz	a0,0x18fd4
   191be:	b501                	j	0x18fbe
   191c0:	0090                	addi	a2,sp,64
   191c2:	100c                	addi	a1,sp,32
   191c4:	c18ff0ef          	jal	ra,0x185dc
   191c8:	85d2                	mv	a1,s4
   191ca:	4601                	li	a2,0
   191cc:	08b8                	addi	a4,sp,88
   191ce:	0005d803          	lhu	a6,0(a1)
   191d2:	00075783          	lhu	a5,0(a4)
   191d6:	15f9                	addi	a1,a1,-2
   191d8:	1779                	addi	a4,a4,-2
   191da:	97c2                	add	a5,a5,a6
   191dc:	97b2                	add	a5,a5,a2
   191de:	0107d613          	srli	a2,a5,0x10
   191e2:	00f59123          	sh	a5,2(a1)
   191e6:	8a05                	andi	a2,a2,1
   191e8:	ff6713e3          	bne	a4,s6,0x191ce
   191ec:	bf1d                	j	0x19122
   191ee:	0124da83          	lhu	s5,18(s1)
   191f2:	67a1                	lui	a5,0x8
   191f4:	17fd                	addi	a5,a5,-1
   191f6:	0157fab3          	and	s5,a5,s5
   191fa:	1ac2                	slli	s5,s5,0x30
   191fc:	030ada93          	srli	s5,s5,0x30
   19200:	e6fa96e3          	bne	s5,a5,0x1906c
   19204:	8526                	mv	a0,s1
   19206:	e3aff0ef          	jal	ra,0x18840
   1920a:	e00511e3          	bnez	a0,0x1900c
   1920e:	01295783          	lhu	a5,18(s2)
   19212:	fff7c793          	not	a5,a5
   19216:	03179713          	slli	a4,a5,0x31
   1921a:	e40719e3          	bnez	a4,0x1906c
   1921e:	b3dd                	j	0x19004
   19220:	01440793          	addi	a5,s0,20
   19224:	0409                	addi	s0,s0,2
   19226:	fe041f23          	sh	zero,-2(s0)
   1922a:	fef41de3          	bne	s0,a5,0x19224
   1922e:	bd21                	j	0x19046
   19230:	01440793          	addi	a5,s0,20
   19234:	0409                	addi	s0,s0,2
   19236:	fe041f23          	sh	zero,-2(s0)
   1923a:	fef41de3          	bne	s0,a5,0x19234
   1923e:	b521                	j	0x19046
   19240:	00008597          	auipc	a1,0x8
   19244:	08058593          	addi	a1,a1,128 # 0x212c0
   19248:	8526                	mv	a0,s1
   1924a:	d2eff0ef          	jal	ra,0x18778
   1924e:	c901                	beqz	a0,0x1925e
   19250:	0124d783          	lhu	a5,18(s1)
   19254:	00fa77b3          	and	a5,s4,a5
   19258:	fb4786e3          	beq	a5,s4,0x19204
   1925c:	bf4d                	j	0x1920e
   1925e:	01040713          	addi	a4,s0,16
   19262:	87a2                	mv	a5,s0
   19264:	0789                	addi	a5,a5,2
   19266:	fe079f23          	sh	zero,-2(a5) # 0x7ffe
   1926a:	fee79de3          	bne	a5,a4,0x19264
   1926e:	7fffc7b7          	lui	a5,0x7fffc
   19272:	c81c                	sw	a5,16(s0)
   19274:	bbc9                	j	0x19046
   19276:	01255783          	lhu	a5,18(a0)
   1927a:	7115                	addi	sp,sp,-224
   1927c:	e9a2                	sd	s0,208(sp)
   1927e:	fff7c793          	not	a5,a5
   19282:	e5a6                	sd	s1,200(sp)
   19284:	e1ca                	sd	s2,192(sp)
   19286:	fd4e                	sd	s3,184(sp)
   19288:	ed86                	sd	ra,216(sp)
   1928a:	f952                	sd	s4,176(sp)
   1928c:	f556                	sd	s5,168(sp)
   1928e:	f15a                	sd	s6,160(sp)
   19290:	ed5e                	sd	s7,152(sp)
   19292:	e962                	sd	s8,144(sp)
   19294:	e566                	sd	s9,136(sp)
   19296:	e16a                	sd	s10,128(sp)
   19298:	fcee                	sd	s11,120(sp)
   1929a:	03179713          	slli	a4,a5,0x31
   1929e:	892a                	mv	s2,a0
   192a0:	89ae                	mv	s3,a1
   192a2:	8432                	mv	s0,a2
   192a4:	84b6                	mv	s1,a3
   192a6:	e709                	bnez	a4,0x192b0
   192a8:	ba8ff0ef          	jal	ra,0x18650
   192ac:	2a051463          	bnez	a0,0x19554
   192b0:	0129d783          	lhu	a5,18(s3)
   192b4:	fff7c793          	not	a5,a5
   192b8:	03179713          	slli	a4,a5,0x31
   192bc:	c72d                	beqz	a4,0x19326
   192be:	00008597          	auipc	a1,0x8
   192c2:	00258593          	addi	a1,a1,2 # 0x212c0
   192c6:	854a                	mv	a0,s2
   192c8:	cb0ff0ef          	jal	ra,0x18778
   192cc:	cd55                	beqz	a0,0x19388
   192ce:	01295a03          	lhu	s4,18(s2)
   192d2:	0129d703          	lhu	a4,18(s3)
   192d6:	67a1                	lui	a5,0x8
   192d8:	17fd                	addi	a5,a5,-1
   192da:	0147fa33          	and	s4,a5,s4
   192de:	00e7fab3          	and	s5,a5,a4
   192e2:	06fa1163          	bne	s4,a5,0x19344
   192e6:	854a                	mv	a0,s2
   192e8:	d58ff0ef          	jal	ra,0x18840
   192ec:	c171                	beqz	a0,0x193b0
   192ee:	014a9663          	bne	s5,s4,0x192fa
   192f2:	854e                	mv	a0,s3
   192f4:	d4cff0ef          	jal	ra,0x18840
   192f8:	e145                	bnez	a0,0x19398
   192fa:	01440793          	addi	a5,s0,20
   192fe:	0409                	addi	s0,s0,2
   19300:	fe041f23          	sh	zero,-2(s0)
   19304:	fef41de3          	bne	s0,a5,0x192fe
   19308:	60ee                	ld	ra,216(sp)
   1930a:	644e                	ld	s0,208(sp)
   1930c:	64ae                	ld	s1,200(sp)
   1930e:	690e                	ld	s2,192(sp)
   19310:	79ea                	ld	s3,184(sp)
   19312:	7a4a                	ld	s4,176(sp)
   19314:	7aaa                	ld	s5,168(sp)
   19316:	7b0a                	ld	s6,160(sp)
   19318:	6bea                	ld	s7,152(sp)
   1931a:	6c4a                	ld	s8,144(sp)
   1931c:	6caa                	ld	s9,136(sp)
   1931e:	6d0a                	ld	s10,128(sp)
   19320:	7de6                	ld	s11,120(sp)
   19322:	612d                	addi	sp,sp,224
   19324:	8082                	ret
   19326:	854e                	mv	a0,s3
   19328:	b28ff0ef          	jal	ra,0x18650
   1932c:	d949                	beqz	a0,0x192be
   1932e:	01498713          	addi	a4,s3,20
   19332:	0009d783          	lhu	a5,0(s3)
   19336:	0989                	addi	s3,s3,2
   19338:	0409                	addi	s0,s0,2
   1933a:	fef41f23          	sh	a5,-2(s0)
   1933e:	fee99ae3          	bne	s3,a4,0x19332
   19342:	b7d9                	j	0x19308
   19344:	06fa8863          	beq	s5,a5,0x193b4
   19348:	854a                	mv	a0,s2
   1934a:	080c                	addi	a1,sp,16
   1934c:	b76ff0ef          	jal	ra,0x186c2
   19350:	180c                	addi	a1,sp,48
   19352:	854e                	mv	a0,s3
   19354:	b6eff0ef          	jal	ra,0x186c2
   19358:	03215b83          	lhu	s7,50(sp)
   1935c:	01215903          	lhu	s2,18(sp)
   19360:	080b9c63          	bnez	s7,0x193f8
   19364:	185c                	addi	a5,sp,52
   19366:	04810d93          	addi	s11,sp,72
   1936a:	28fd8563          	beq	s11,a5,0x195f4
   1936e:	0007d703          	lhu	a4,0(a5) # 0x8000
   19372:	0789                	addi	a5,a5,2
   19374:	db7d                	beqz	a4,0x1936a
   19376:	1808                	addi	a0,sp,48
   19378:	e5cff0ef          	jal	ra,0x189d4
   1937c:	40a007b3          	neg	a5,a0
   19380:	01215603          	lhu	a2,18(sp)
   19384:	e43e                	sd	a5,8(sp)
   19386:	a89d                	j	0x193fc
   19388:	00008597          	auipc	a1,0x8
   1938c:	f3858593          	addi	a1,a1,-200 # 0x212c0
   19390:	854e                	mv	a0,s3
   19392:	be6ff0ef          	jal	ra,0x18778
   19396:	fd05                	bnez	a0,0x192ce
   19398:	01040713          	addi	a4,s0,16
   1939c:	87a2                	mv	a5,s0
   1939e:	0789                	addi	a5,a5,2
   193a0:	fe079f23          	sh	zero,-2(a5)
   193a4:	fee79de3          	bne	a5,a4,0x1939e
   193a8:	7fffc7b7          	lui	a5,0x7fffc
   193ac:	c81c                	sw	a5,16(s0)
   193ae:	bfa9                	j	0x19308
   193b0:	f94a9ce3          	bne	s5,s4,0x19348
   193b4:	854e                	mv	a0,s3
   193b6:	c8aff0ef          	jal	ra,0x18840
   193ba:	d559                	beqz	a0,0x19348
   193bc:	854a                	mv	a0,s2
   193be:	adaff0ef          	jal	ra,0x18698
   193c2:	84aa                	mv	s1,a0
   193c4:	854e                	mv	a0,s3
   193c6:	ad2ff0ef          	jal	ra,0x18698
   193ca:	40a487b3          	sub	a5,s1,a0
   193ce:	00f037b3          	snez	a5,a5
   193d2:	07be                	slli	a5,a5,0xf
   193d4:	00f41923          	sh	a5,18(s0)
   193d8:	01240713          	addi	a4,s0,18
   193dc:	87a2                	mv	a5,s0
   193de:	0789                	addi	a5,a5,2
   193e0:	fe079f23          	sh	zero,-2(a5) # 0x7fffbffe
   193e4:	fee79de3          	bne	a5,a4,0x193de
   193e8:	01245783          	lhu	a5,18(s0)
   193ec:	6721                	lui	a4,0x8
   193ee:	177d                	addi	a4,a4,-1
   193f0:	8fd9                	or	a5,a5,a4
   193f2:	00f41923          	sh	a5,18(s0)
   193f6:	bf09                	j	0x19308
   193f8:	e45e                	sd	s7,8(sp)
   193fa:	864a                	mv	a2,s2
   193fc:	e04a                	sd	s2,0(sp)
   193fe:	085c                	addi	a5,sp,20
   19400:	1034                	addi	a3,sp,40
   19402:	ee09                	bnez	a2,0x1941c
   19404:	20f68063          	beq	a3,a5,0x19604
   19408:	0007d703          	lhu	a4,0(a5)
   1940c:	0789                	addi	a5,a5,2
   1940e:	db7d                	beqz	a4,0x19404
   19410:	0808                	addi	a0,sp,16
   19412:	dc2ff0ef          	jal	ra,0x189d4
   19416:	40a907b3          	sub	a5,s2,a0
   1941a:	e03e                	sd	a5,0(sp)
   1941c:	5742                	lw	a4,48(sp)
   1941e:	03848d13          	addi	s10,s1,56
   19422:	87ea                	mv	a5,s10
   19424:	d8d8                	sw	a4,52(s1)
   19426:	04e48913          	addi	s2,s1,78
   1942a:	0789                	addi	a5,a5,2
   1942c:	fe079f23          	sh	zero,-2(a5)
   19430:	fef91de3          	bne	s2,a5,0x1942a
   19434:	1808                	addi	a0,sp,48
   19436:	900ff0ef          	jal	ra,0x18536
   1943a:	01615c03          	lhu	s8,22(sp)
   1943e:	6a41                	lui	s4,0x10
   19440:	04810d93          	addi	s11,sp,72
   19444:	010c1a93          	slli	s5,s8,0x10
   19448:	418a8ab3          	sub	s5,s5,s8
   1944c:	03210b13          	addi	s6,sp,50
   19450:	1a7d                	addi	s4,s4,-1
   19452:	06a10c93          	addi	s9,sp,106
   19456:	05210993          	addi	s3,sp,82
   1945a:	03415783          	lhu	a5,52(sp)
   1945e:	03615703          	lhu	a4,54(sp)
   19462:	8bd2                	mv	s7,s4
   19464:	07c2                	slli	a5,a5,0x10
   19466:	97ba                	add	a5,a5,a4
   19468:	00fae863          	bltu	s5,a5,0x19478
   1946c:	0387d7b3          	divu	a5,a5,s8
   19470:	03079b93          	slli	s7,a5,0x30
   19474:	030bdb93          	srli	s7,s7,0x30
   19478:	0890                	addi	a2,sp,80
   1947a:	080c                	addi	a1,sp,16
   1947c:	855e                	mv	a0,s7
   1947e:	95eff0ef          	jal	ra,0x185dc
   19482:	1858                	addi	a4,sp,52
   19484:	08dc                	addi	a5,sp,84
   19486:	0007d583          	lhu	a1,0(a5)
   1948a:	00075603          	lhu	a2,0(a4) # 0x8000
   1948e:	0789                	addi	a5,a5,2
   19490:	0709                	addi	a4,a4,2
   19492:	0cc59c63          	bne	a1,a2,0x1956a
   19496:	ff9798e3          	bne	a5,s9,0x19486
   1949a:	4781                	li	a5,0
   1949c:	10ac                	addi	a1,sp,104
   1949e:	866e                	mv	a2,s11
   194a0:	00065703          	lhu	a4,0(a2)
   194a4:	0005d803          	lhu	a6,0(a1)
   194a8:	1679                	addi	a2,a2,-2
   194aa:	8f1d                	sub	a4,a4,a5
   194ac:	41070733          	sub	a4,a4,a6
   194b0:	01075793          	srli	a5,a4,0x10
   194b4:	00e61123          	sh	a4,2(a2)
   194b8:	8b85                	andi	a5,a5,1
   194ba:	15f9                	addi	a1,a1,-2
   194bc:	ff6612e3          	bne	a2,s6,0x194a0
   194c0:	017d1023          	sh	s7,0(s10)
   194c4:	185c                	addi	a5,sp,52
   194c6:	0027d703          	lhu	a4,2(a5)
   194ca:	0789                	addi	a5,a5,2
   194cc:	fee79f23          	sh	a4,-2(a5)
   194d0:	ffb79be3          	bne	a5,s11,0x194c6
   194d4:	04011423          	sh	zero,72(sp)
   194d8:	0d09                	addi	s10,s10,2
   194da:	f9a910e3          	bne	s2,s10,0x1945a
   194de:	4581                	li	a1,0
   194e0:	185c                	addi	a5,sp,52
   194e2:	04a10693          	addi	a3,sp,74
   194e6:	0007d703          	lhu	a4,0(a5)
   194ea:	0789                	addi	a5,a5,2
   194ec:	8dd9                	or	a1,a1,a4
   194ee:	fed79ce3          	bne	a5,a3,0x194e6
   194f2:	0105979b          	slliw	a5,a1,0x10
   194f6:	4107d79b          	sraiw	a5,a5,0x10
   194fa:	c391                	beqz	a5,0x194fe
   194fc:	4585                	li	a1,1
   194fe:	15c2                	slli	a1,a1,0x30
   19500:	91c1                	srli	a1,a1,0x30
   19502:	03448713          	addi	a4,s1,52
   19506:	181c                	addi	a5,sp,48
   19508:	00075603          	lhu	a2,0(a4)
   1950c:	0789                	addi	a5,a5,2
   1950e:	0709                	addi	a4,a4,2
   19510:	fec79f23          	sh	a2,-2(a5)
   19514:	fef69ae3          	bne	a3,a5,0x19508
   19518:	67a2                	ld	a5,8(sp)
   1951a:	6702                	ld	a4,0(sp)
   1951c:	6691                	lui	a3,0x4
   1951e:	16fd                	addi	a3,a3,-1
   19520:	40e78bb3          	sub	s7,a5,a4
   19524:	1808                	addi	a0,sp,48
   19526:	87a6                	mv	a5,s1
   19528:	04000713          	li	a4,64
   1952c:	96de                	add	a3,a3,s7
   1952e:	4601                	li	a2,0
   19530:	dc4ff0ef          	jal	ra,0x18af4
   19534:	03015703          	lhu	a4,48(sp)
   19538:	01015783          	lhu	a5,16(sp)
   1953c:	85a2                	mv	a1,s0
   1953e:	1808                	addi	a0,sp,48
   19540:	8f99                	sub	a5,a5,a4
   19542:	00f037b3          	snez	a5,a5
   19546:	40f007bb          	negw	a5,a5
   1954a:	02f11823          	sh	a5,48(sp)
   1954e:	9a1ff0ef          	jal	ra,0x18eee
   19552:	bb5d                	j	0x19308
   19554:	01490713          	addi	a4,s2,20
   19558:	00095783          	lhu	a5,0(s2)
   1955c:	0909                	addi	s2,s2,2
   1955e:	0409                	addi	s0,s0,2
   19560:	fef41f23          	sh	a5,-2(s0)
   19564:	fee91ae3          	bne	s2,a4,0x19558
   19568:	b345                	j	0x19308
   1956a:	f2b678e3          	bgeu	a2,a1,0x1949a
   1956e:	fffb879b          	addiw	a5,s7,-1
   19572:	03079893          	slli	a7,a5,0x30
   19576:	0308d893          	srli	a7,a7,0x30
   1957a:	4781                	li	a5,0
   1957c:	102c                	addi	a1,sp,40
   1957e:	10b0                	addi	a2,sp,104
   19580:	00065703          	lhu	a4,0(a2)
   19584:	0005d803          	lhu	a6,0(a1)
   19588:	1679                	addi	a2,a2,-2
   1958a:	8f1d                	sub	a4,a4,a5
   1958c:	41070733          	sub	a4,a4,a6
   19590:	01075793          	srli	a5,a4,0x10
   19594:	00e61123          	sh	a4,2(a2)
   19598:	8b85                	andi	a5,a5,1
   1959a:	15f9                	addi	a1,a1,-2
   1959c:	ff3612e3          	bne	a2,s3,0x19580
   195a0:	1858                	addi	a4,sp,52
   195a2:	08dc                	addi	a5,sp,84
   195a4:	0007d583          	lhu	a1,0(a5)
   195a8:	00075603          	lhu	a2,0(a4)
   195ac:	0789                	addi	a5,a5,2
   195ae:	0709                	addi	a4,a4,2
   195b0:	00c59663          	bne	a1,a2,0x195bc
   195b4:	ff9798e3          	bne	a5,s9,0x195a4
   195b8:	8bc6                	mv	s7,a7
   195ba:	b5c5                	j	0x1949a
   195bc:	feb67ee3          	bgeu	a2,a1,0x195b8
   195c0:	ffeb879b          	addiw	a5,s7,-2
   195c4:	03079b93          	slli	s7,a5,0x30
   195c8:	030bdb93          	srli	s7,s7,0x30
   195cc:	4601                	li	a2,0
   195ce:	102c                	addi	a1,sp,40
   195d0:	10b8                	addi	a4,sp,104
   195d2:	00075783          	lhu	a5,0(a4)
   195d6:	0005d803          	lhu	a6,0(a1)
   195da:	1779                	addi	a4,a4,-2
   195dc:	8f91                	sub	a5,a5,a2
   195de:	410787b3          	sub	a5,a5,a6
   195e2:	0107d613          	srli	a2,a5,0x10
   195e6:	00f71123          	sh	a5,2(a4)
   195ea:	8a05                	andi	a2,a2,1
   195ec:	15f9                	addi	a1,a1,-2
   195ee:	ff3712e3          	bne	a4,s3,0x195d2
   195f2:	b565                	j	0x1949a
   195f4:	01440793          	addi	a5,s0,20
   195f8:	0409                	addi	s0,s0,2
   195fa:	fe041f23          	sh	zero,-2(s0)
   195fe:	fe879de3          	bne	a5,s0,0x195f8
   19602:	b319                	j	0x19308
   19604:	01015703          	lhu	a4,16(sp)
   19608:	03015783          	lhu	a5,48(sp)
   1960c:	00f70363          	beq	a4,a5,0x19612
   19610:	6621                	lui	a2,0x8
   19612:	00c41923          	sh	a2,18(s0)
   19616:	01240713          	addi	a4,s0,18
   1961a:	87a2                	mv	a5,s0
   1961c:	0789                	addi	a5,a5,2
   1961e:	fe079f23          	sh	zero,-2(a5)
   19622:	fef71de3          	bne	a4,a5,0x1961c
   19626:	01245783          	lhu	a5,18(s0)
   1962a:	6721                	lui	a4,0x8
   1962c:	177d                	addi	a4,a4,-1
   1962e:	8fd9                	or	a5,a5,a4
   19630:	00f41923          	sh	a5,18(s0)
   19634:	b9d1                	j	0x19308
   19636:	7179                	addi	sp,sp,-48
   19638:	f022                	sd	s0,32(sp)
   1963a:	f406                	sd	ra,40(sp)
   1963c:	842e                	mv	s0,a1
   1963e:	878a                	mv	a5,sp
   19640:	01a10713          	addi	a4,sp,26
   19644:	0789                	addi	a5,a5,2
   19646:	fe079f23          	sh	zero,-2(a5)
   1964a:	fee79de3          	bne	a5,a4,0x19644
   1964e:	00e55783          	lhu	a5,14(a0)
   19652:	0107971b          	slliw	a4,a5,0x10
   19656:	4107571b          	sraiw	a4,a4,0x10
   1965a:	02071693          	slli	a3,a4,0x20
   1965e:	0406cc63          	bltz	a3,0x196b6
   19662:	6721                	lui	a4,0x8
   19664:	177d                	addi	a4,a4,-1
   19666:	00e7f6b3          	and	a3,a5,a4
   1966a:	00011023          	sh	zero,0(sp)
   1966e:	8636                	mv	a2,a3
   19670:	04e68d63          	beq	a3,a4,0x196ca
   19674:	00e50793          	addi	a5,a0,14
   19678:	00d11123          	sh	a3,2(sp)
   1967c:	00610713          	addi	a4,sp,6
   19680:	ffe7d683          	lhu	a3,-2(a5)
   19684:	17f9                	addi	a5,a5,-2
   19686:	0709                	addi	a4,a4,2
   19688:	fed71f23          	sh	a3,-2(a4) # 0x7ffe
   1968c:	fef51ae3          	bne	a0,a5,0x19680
   19690:	ea19                	bnez	a2,0x196a6
   19692:	00011223          	sh	zero,4(sp)
   19696:	85a2                	mv	a1,s0
   19698:	850a                	mv	a0,sp
   1969a:	855ff0ef          	jal	ra,0x18eee
   1969e:	70a2                	ld	ra,40(sp)
   196a0:	7402                	ld	s0,32(sp)
   196a2:	6145                	addi	sp,sp,48
   196a4:	8082                	ret
   196a6:	4785                	li	a5,1
   196a8:	55fd                	li	a1,-1
   196aa:	850a                	mv	a0,sp
   196ac:	00f11223          	sh	a5,4(sp)
   196b0:	9a2ff0ef          	jal	ra,0x18852
   196b4:	b7cd                	j	0x19696
   196b6:	577d                	li	a4,-1
   196b8:	00e11023          	sh	a4,0(sp)
   196bc:	6721                	lui	a4,0x8
   196be:	177d                	addi	a4,a4,-1
   196c0:	00e7f6b3          	and	a3,a5,a4
   196c4:	8636                	mv	a2,a3
   196c6:	fae697e3          	bne	a3,a4,0x19674
   196ca:	87aa                	mv	a5,a0
   196cc:	00e50693          	addi	a3,a0,14
   196d0:	0007d703          	lhu	a4,0(a5)
   196d4:	0789                	addi	a5,a5,2
   196d6:	e331                	bnez	a4,0x1971a
   196d8:	fed79ce3          	bne	a5,a3,0x196d0
   196dc:	01440713          	addi	a4,s0,20
   196e0:	87a2                	mv	a5,s0
   196e2:	0789                	addi	a5,a5,2
   196e4:	fe079f23          	sh	zero,-2(a5)
   196e8:	fef71de3          	bne	a4,a5,0x196e2
   196ec:	01240713          	addi	a4,s0,18
   196f0:	87a2                	mv	a5,s0
   196f2:	0789                	addi	a5,a5,2
   196f4:	fe079f23          	sh	zero,-2(a5)
   196f8:	fef71de3          	bne	a4,a5,0x196f2
   196fc:	01245783          	lhu	a5,18(s0)
   19700:	6721                	lui	a4,0x8
   19702:	177d                	addi	a4,a4,-1
   19704:	8fd9                	or	a5,a5,a4
   19706:	00f41923          	sh	a5,18(s0)
   1970a:	00e51783          	lh	a5,14(a0)
   1970e:	f807d8e3          	bgez	a5,0x1969e
   19712:	8522                	mv	a0,s0
   19714:	f55fe0ef          	jal	ra,0x18668
   19718:	b759                	j	0x1969e
   1971a:	01040713          	addi	a4,s0,16
   1971e:	87a2                	mv	a5,s0
   19720:	0789                	addi	a5,a5,2
   19722:	fe079f23          	sh	zero,-2(a5)
   19726:	fef71de3          	bne	a4,a5,0x19720
   1972a:	7fffc7b7          	lui	a5,0x7fffc
   1972e:	c81c                	sw	a5,16(s0)
   19730:	b7bd                	j	0x1969e
   19732:	09100313          	li	t1,145
   19736:	1302                	slli	t1,t1,0x20
   19738:	06053e03          	ld	t3,96(a0)
   1973c:	da010113          	addi	sp,sp,-608
   19740:	137d                	addi	t1,t1,-1
   19742:	24813823          	sd	s0,592(sp)
   19746:	23513423          	sd	s5,552(sp)
   1974a:	21713c23          	sd	s7,536(sp)
   1974e:	24113c23          	sd	ra,600(sp)
   19752:	24913423          	sd	s1,584(sp)
   19756:	25213023          	sd	s2,576(sp)
   1975a:	23313c23          	sd	s3,568(sp)
   1975e:	23413823          	sd	s4,560(sp)
   19762:	23613023          	sd	s6,544(sp)
   19766:	21813823          	sd	s8,528(sp)
   1976a:	21913423          	sd	s9,520(sp)
   1976e:	21a13023          	sd	s10,512(sp)
   19772:	ffee                	sd	s11,504(sp)
   19774:	e8ae                	sd	a1,80(sp)
   19776:	ecb2                	sd	a2,88(sp)
   19778:	f31a                	sd	t1,416(sp)
   1977a:	e83a                	sd	a4,16(sp)
   1977c:	ec3e                	sd	a5,24(sp)
   1977e:	f846                	sd	a7,48(sp)
   19780:	8aaa                	mv	s5,a0
   19782:	8bb6                	mv	s7,a3
   19784:	8442                	mv	s0,a6
   19786:	000e0f63          	beqz	t3,0x197a4
   1978a:	5538                	lw	a4,104(a0)
   1978c:	4785                	li	a5,1
   1978e:	85f2                	mv	a1,t3
   19790:	00e797bb          	sllw	a5,a5,a4
   19794:	00ee2423          	sw	a4,8(t3) # 0x10008
   19798:	00fe2623          	sw	a5,12(t3)
   1979c:	21e010ef          	jal	ra,0x1a9ba
   197a0:	060ab023          	sd	zero,96(s5)
   197a4:	010c                	addi	a1,sp,128
   197a6:	0888                	addi	a0,sp,80
   197a8:	e8fff0ef          	jal	ra,0x19636
   197ac:	0108                	addi	a0,sp,128
   197ae:	eebfe0ef          	jal	ra,0x18698
   197b2:	00a03533          	snez	a0,a0
   197b6:	c008                	sw	a0,0(s0)
   197b8:	478d                	li	a5,3
   197ba:	76fb8063          	beq	s7,a5,0x19f1a
   197be:	47d1                	li	a5,20
   197c0:	e43e                	sd	a5,8(sp)
   197c2:	2e0b9ce3          	bnez	s7,0x1a2ba
   197c6:	09215783          	lhu	a5,146(sp)
   197ca:	1a412703          	lw	a4,420(sp)
   197ce:	fff7c793          	not	a5,a5
   197d2:	f43a                	sd	a4,40(sp)
   197d4:	03179713          	slli	a4,a5,0x31
   197d8:	e711                	bnez	a4,0x197e4
   197da:	0108                	addi	a0,sp,128
   197dc:	e75fe0ef          	jal	ra,0x18650
   197e0:	180512e3          	bnez	a0,0x1a164
   197e4:	09000793          	li	a5,144
   197e8:	1af12223          	sw	a5,420(sp)
   197ec:	1118                	addi	a4,sp,160
   197ee:	011c                	addi	a5,sp,128
   197f0:	0950                	addi	a2,sp,148
   197f2:	0007d683          	lhu	a3,0(a5) # 0x7fffc000
   197f6:	0789                	addi	a5,a5,2
   197f8:	0709                	addi	a4,a4,2
   197fa:	fed71f23          	sh	a3,-2(a4) # 0x7ffe
   197fe:	fec79ae3          	bne	a5,a2,0x197f2
   19802:	0b215603          	lhu	a2,178(sp)
   19806:	f002                	sd	zero,32(sp)
   19808:	0106179b          	slliw	a5,a2,0x10
   1980c:	4107d79b          	sraiw	a5,a5,0x10
   19810:	02079713          	slli	a4,a5,0x20
   19814:	00075963          	bgez	a4,0x19826
   19818:	1646                	slli	a2,a2,0x31
   1981a:	67c1                	lui	a5,0x10
   1981c:	9245                	srli	a2,a2,0x31
   1981e:	17fd                	addi	a5,a5,-1
   19820:	0ac11923          	sh	a2,178(sp)
   19824:	f03e                	sd	a5,32(sp)
   19826:	4681                	li	a3,0
   19828:	019c                	addi	a5,sp,192
   1982a:	00008717          	auipc	a4,0x8
   1982e:	aae70713          	addi	a4,a4,-1362 # 0x212d8
   19832:	0d410d93          	addi	s11,sp,212
   19836:	a019                	j	0x1983c
   19838:	00075683          	lhu	a3,0(a4)
   1983c:	0789                	addi	a5,a5,2
   1983e:	fed79f23          	sh	a3,-2(a5) # 0xfffe
   19842:	0709                	addi	a4,a4,2
   19844:	ffb79ae3          	bne	a5,s11,0x19838
   19848:	12060063          	beqz	a2,0x19968
   1984c:	67a1                	lui	a5,0x8
   1984e:	17fd                	addi	a5,a5,-1
   19850:	28f607e3          	beq	a2,a5,0x1a2de
   19854:	0b011783          	lh	a5,176(sp)
   19858:	2c07d0e3          	bgez	a5,0x1a318
   1985c:	110c                	addi	a1,sp,160
   1985e:	00008517          	auipc	a0,0x8
   19862:	a7a50513          	addi	a0,a0,-1414 # 0x212d8
   19866:	f13fe0ef          	jal	ra,0x18778
   1986a:	10050963          	beqz	a0,0x1997c
   1986e:	70054663          	bltz	a0,0x19f7a
   19872:	0b215783          	lhu	a5,178(sp)
   19876:	320797e3          	bnez	a5,0x1a3a4
   1987a:	0b011783          	lh	a5,176(sp)
   1987e:	4481                	li	s1,0
   19880:	1a010993          	addi	s3,sp,416
   19884:	0207c163          	bltz	a5,0x198a6
   19888:	00008417          	auipc	s0,0x8
   1988c:	b5840413          	addi	s0,s0,-1192 # 0x213e0
   19890:	1110                	addi	a2,sp,160
   19892:	86ce                	mv	a3,s3
   19894:	85b2                	mv	a1,a2
   19896:	8522                	mv	a0,s0
   19898:	ed8ff0ef          	jal	ra,0x18f70
   1989c:	0b011783          	lh	a5,176(sp)
   198a0:	34fd                	addiw	s1,s1,-1
   198a2:	fe07d7e3          	bgez	a5,0x19890
   198a6:	0200                	addi	s0,sp,256
   198a8:	11810a13          	addi	s4,sp,280
   198ac:	8722                	mv	a4,s0
   198ae:	111c                	addi	a5,sp,160
   198b0:	1950                	addi	a2,sp,180
   198b2:	0007d683          	lhu	a3,0(a5) # 0x8000
   198b6:	0789                	addi	a5,a5,2
   198b8:	0709                	addi	a4,a4,2
   198ba:	fed71f23          	sh	a3,-2(a4)
   198be:	fec79ae3          	bne	a5,a2,0x198b2
   198c2:	4681                	li	a3,0
   198c4:	019c                	addi	a5,sp,192
   198c6:	00008717          	auipc	a4,0x8
   198ca:	a1270713          	addi	a4,a4,-1518 # 0x212d8
   198ce:	a019                	j	0x198d4
   198d0:	00075683          	lhu	a3,0(a4)
   198d4:	0789                	addi	a5,a5,2
   198d6:	fed79f23          	sh	a3,-2(a5)
   198da:	0709                	addi	a4,a4,2
   198dc:	ffb79ae3          	bne	a5,s11,0x198d0
   198e0:	7b7d                	lui	s6,0xfffff
   198e2:	00008917          	auipc	s2,0x8
   198e6:	a0e90913          	addi	s2,s2,-1522 # 0x212f0
   198ea:	00008d97          	auipc	s11,0x8
   198ee:	b0ed8d93          	addi	s11,s11,-1266 # 0x213f8
   198f2:	00008c97          	auipc	s9,0x8
   198f6:	9e6c8c93          	addi	s9,s9,-1562 # 0x212d8
   198fa:	00008c17          	auipc	s8,0x8
   198fe:	ae6c0c13          	addi	s8,s8,-1306 # 0x213e0
   19902:	a019                	j	0x19908
   19904:	0dd1                	addi	s11,s11,20
   19906:	0951                	addi	s2,s2,20
   19908:	85a2                	mv	a1,s0
   1990a:	8566                	mv	a0,s9
   1990c:	e6dfe0ef          	jal	ra,0x18778
   19910:	87aa                	mv	a5,a0
   19912:	85a2                	mv	a1,s0
   19914:	856e                	mv	a0,s11
   19916:	02f05d63          	blez	a5,0x19950
   1991a:	e5ffe0ef          	jal	ra,0x18778
   1991e:	87aa                	mv	a5,a0
   19920:	86ce                	mv	a3,s3
   19922:	8622                	mv	a2,s0
   19924:	85a2                	mv	a1,s0
   19926:	854a                	mv	a0,s2
   19928:	0007cc63          	bltz	a5,0x19940
   1992c:	e44ff0ef          	jal	ra,0x18f70
   19930:	0190                	addi	a2,sp,192
   19932:	86ce                	mv	a3,s3
   19934:	85b2                	mv	a1,a2
   19936:	854a                	mv	a0,s2
   19938:	e38ff0ef          	jal	ra,0x18f70
   1993c:	009b04bb          	addw	s1,s6,s1
   19940:	01fb579b          	srliw	a5,s6,0x1f
   19944:	01678b3b          	addw	s6,a5,s6
   19948:	401b5b1b          	sraiw	s6,s6,0x1
   1994c:	fb891ce3          	bne	s2,s8,0x19904
   19950:	0190                	addi	a2,sp,192
   19952:	86ce                	mv	a3,s3
   19954:	00008597          	auipc	a1,0x8
   19958:	98458593          	addi	a1,a1,-1660 # 0x212d8
   1995c:	8532                	mv	a0,a2
   1995e:	919ff0ef          	jal	ra,0x19276
   19962:	16010913          	addi	s2,sp,352
   19966:	a01d                	j	0x1998c
   19968:	111c                	addi	a5,sp,160
   1996a:	0b210693          	addi	a3,sp,178
   1996e:	0007d703          	lhu	a4,0(a5)
   19972:	0789                	addi	a5,a5,2
   19974:	ee0714e3          	bnez	a4,0x1985c
   19978:	fef69be3          	bne	a3,a5,0x1996e
   1997c:	4481                	li	s1,0
   1997e:	16010913          	addi	s2,sp,352
   19982:	1a010993          	addi	s3,sp,416
   19986:	0200                	addi	s0,sp,256
   19988:	11810a13          	addi	s4,sp,280
   1998c:	85a2                	mv	a1,s0
   1998e:	0188                	addi	a0,sp,192
   19990:	d33fe0ef          	jal	ra,0x186c2
   19994:	0198                	addi	a4,sp,192
   19996:	87a2                	mv	a5,s0
   19998:	0007d683          	lhu	a3,0(a5)
   1999c:	0789                	addi	a5,a5,2
   1999e:	0709                	addi	a4,a4,2
   199a0:	fed71f23          	sh	a3,-2(a4)
   199a4:	ff479ae3          	bne	a5,s4,0x19998
   199a8:	85a2                	mv	a1,s0
   199aa:	1108                	addi	a0,sp,160
   199ac:	0c011c23          	sh	zero,216(sp)
   199b0:	d13fe0ef          	jal	ra,0x186c2
   199b4:	111c                	addi	a5,sp,160
   199b6:	00045703          	lhu	a4,0(s0)
   199ba:	0409                	addi	s0,s0,2
   199bc:	0789                	addi	a5,a5,2
   199be:	fee79f23          	sh	a4,-2(a5)
   199c2:	ff441ae3          	bne	s0,s4,0x199b6
   199c6:	864e                	mv	a2,s3
   199c8:	110c                	addi	a1,sp,160
   199ca:	0188                	addi	a0,sp,192
   199cc:	0a011c23          	sh	zero,184(sp)
   199d0:	c2aff0ef          	jal	ra,0x18dfa
   199d4:	1ec15d83          	lhu	s11,492(sp)
   199d8:	160d9963          	bnez	s11,0x19b4a
   199dc:	00008b17          	auipc	s6,0x8
   199e0:	8e4b0b13          	addi	s6,s6,-1820 # 0x212c0
   199e4:	0b810c13          	addi	s8,sp,184
   199e8:	0a210413          	addi	s0,sp,162
   199ec:	0e210a13          	addi	s4,sp,226
   199f0:	85da                	mv	a1,s6
   199f2:	1108                	addi	a0,sp,160
   199f4:	d85fe0ef          	jal	ra,0x18778
   199f8:	14050963          	beqz	a0,0x19b4a
   199fc:	4701                	li	a4,0
   199fe:	8662                	mv	a2,s8
   19a00:	a811                	j	0x19a14
   19a02:	0017171b          	slliw	a4,a4,0x1
   19a06:	00f61023          	sh	a5,0(a2) # 0x8000
   19a0a:	1742                	slli	a4,a4,0x30
   19a0c:	1679                	addi	a2,a2,-2
   19a0e:	9341                	srli	a4,a4,0x30
   19a10:	04860063          	beq	a2,s0,0x19a50
   19a14:	00065783          	lhu	a5,0(a2)
   19a18:	0107959b          	slliw	a1,a5,0x10
   19a1c:	4105d59b          	sraiw	a1,a1,0x10
   19a20:	02059693          	slli	a3,a1,0x20
   19a24:	0017979b          	slliw	a5,a5,0x1
   19a28:	0006d463          	bgez	a3,0x19a30
   19a2c:	00176713          	ori	a4,a4,1
   19a30:	17c2                	slli	a5,a5,0x30
   19a32:	93c1                	srli	a5,a5,0x30
   19a34:	00277593          	andi	a1,a4,2
   19a38:	0017e513          	ori	a0,a5,1
   19a3c:	d1f9                	beqz	a1,0x19a02
   19a3e:	0017171b          	slliw	a4,a4,0x1
   19a42:	00a61023          	sh	a0,0(a2)
   19a46:	1742                	slli	a4,a4,0x30
   19a48:	1679                	addi	a2,a2,-2
   19a4a:	9341                	srli	a4,a4,0x30
   19a4c:	fc8614e3          	bne	a2,s0,0x19a14
   19a50:	1198                	addi	a4,sp,224
   19a52:	111c                	addi	a5,sp,160
   19a54:	0007d603          	lhu	a2,0(a5)
   19a58:	0789                	addi	a5,a5,2
   19a5a:	0709                	addi	a4,a4,2
   19a5c:	fec71f23          	sh	a2,-2(a4)
   19a60:	ff879ae3          	bne	a5,s8,0x19a54
   19a64:	0e011c23          	sh	zero,248(sp)
   19a68:	4701                	li	a4,0
   19a6a:	19b0                	addi	a2,sp,248
   19a6c:	a811                	j	0x19a80
   19a6e:	0017171b          	slliw	a4,a4,0x1
   19a72:	00f61023          	sh	a5,0(a2)
   19a76:	1742                	slli	a4,a4,0x30
   19a78:	1679                	addi	a2,a2,-2
   19a7a:	9341                	srli	a4,a4,0x30
   19a7c:	05460063          	beq	a2,s4,0x19abc
   19a80:	00065783          	lhu	a5,0(a2)
   19a84:	0107959b          	slliw	a1,a5,0x10
   19a88:	4105d59b          	sraiw	a1,a1,0x10
   19a8c:	02059693          	slli	a3,a1,0x20
   19a90:	0017979b          	slliw	a5,a5,0x1
   19a94:	0006d463          	bgez	a3,0x19a9c
   19a98:	00176713          	ori	a4,a4,1
   19a9c:	17c2                	slli	a5,a5,0x30
   19a9e:	93c1                	srli	a5,a5,0x30
   19aa0:	00277593          	andi	a1,a4,2
   19aa4:	0017e513          	ori	a0,a5,1
   19aa8:	d1f9                	beqz	a1,0x19a6e
   19aaa:	0017171b          	slliw	a4,a4,0x1
   19aae:	00a61023          	sh	a0,0(a2)
   19ab2:	1742                	slli	a4,a4,0x30
   19ab4:	1679                	addi	a2,a2,-2
   19ab6:	9341                	srli	a4,a4,0x30
   19ab8:	fd4614e3          	bne	a2,s4,0x19a80
   19abc:	4701                	li	a4,0
   19abe:	19b0                	addi	a2,sp,248
   19ac0:	a811                	j	0x19ad4
   19ac2:	0017171b          	slliw	a4,a4,0x1
   19ac6:	00f61023          	sh	a5,0(a2)
   19aca:	1742                	slli	a4,a4,0x30
   19acc:	1679                	addi	a2,a2,-2
   19ace:	9341                	srli	a4,a4,0x30
   19ad0:	05460063          	beq	a2,s4,0x19b10
   19ad4:	00065783          	lhu	a5,0(a2)
   19ad8:	0107959b          	slliw	a1,a5,0x10
   19adc:	4105d59b          	sraiw	a1,a1,0x10
   19ae0:	02059693          	slli	a3,a1,0x20
   19ae4:	0017979b          	slliw	a5,a5,0x1
   19ae8:	0006d463          	bgez	a3,0x19af0
   19aec:	00176713          	ori	a4,a4,1
   19af0:	17c2                	slli	a5,a5,0x30
   19af2:	93c1                	srli	a5,a5,0x30
   19af4:	00277593          	andi	a1,a4,2
   19af8:	0017e513          	ori	a0,a5,1
   19afc:	d1f9                	beqz	a1,0x19ac2
   19afe:	0017171b          	slliw	a4,a4,0x1
   19b02:	00a61023          	sh	a0,0(a2)
   19b06:	1742                	slli	a4,a4,0x30
   19b08:	1679                	addi	a2,a2,-2
   19b0a:	9341                	srli	a4,a4,0x30
   19b0c:	fd4614e3          	bne	a2,s4,0x19ad4
   19b10:	4581                	li	a1,0
   19b12:	8662                	mv	a2,s8
   19b14:	19b8                	addi	a4,sp,248
   19b16:	00065503          	lhu	a0,0(a2)
   19b1a:	00075783          	lhu	a5,0(a4)
   19b1e:	1679                	addi	a2,a2,-2
   19b20:	1779                	addi	a4,a4,-2
   19b22:	97aa                	add	a5,a5,a0
   19b24:	97ae                	add	a5,a5,a1
   19b26:	0107d593          	srli	a1,a5,0x10
   19b2a:	00f61123          	sh	a5,2(a2)
   19b2e:	8985                	andi	a1,a1,1
   19b30:	ff4713e3          	bne	a4,s4,0x19b16
   19b34:	864e                	mv	a2,s3
   19b36:	110c                	addi	a1,sp,160
   19b38:	0188                	addi	a0,sp,192
   19b3a:	ac0ff0ef          	jal	ra,0x18dfa
   19b3e:	1ec15783          	lhu	a5,492(sp)
   19b42:	34fd                	addiw	s1,s1,-1
   19b44:	ea0786e3          	beqz	a5,0x199f0
   19b48:	8dbe                	mv	s11,a5
   19b4a:	7702                	ld	a4,32(sp)
   19b4c:	02d00793          	li	a5,45
   19b50:	e319                	bnez	a4,0x19b56
   19b52:	02000793          	li	a5,32
   19b56:	16f10023          	sb	a5,352(sp)
   19b5a:	470d                	li	a4,3
   19b5c:	67a2                	ld	a5,8(sp)
   19b5e:	00eb9363          	bne	s7,a4,0x19b64
   19b62:	9fa5                	addw	a5,a5,s1
   19b64:	02a00713          	li	a4,42
   19b68:	0007841b          	sext.w	s0,a5
   19b6c:	00f75463          	bge	a4,a5,0x19b74
   19b70:	02a00413          	li	s0,42
   19b74:	4729                	li	a4,10
   19b76:	3ced8f63          	beq	s11,a4,0x19f54
   19b7a:	030d8d9b          	addiw	s11,s11,48
   19b7e:	02e00713          	li	a4,46
   19b82:	17b100a3          	sb	s11,353(sp)
   19b86:	16e10123          	sb	a4,354(sp)
   19b8a:	7a07c463          	bltz	a5,0x1a332
   19b8e:	16310d93          	addi	s11,sp,355
   19b92:	4c01                	li	s8,0
   19b94:	0e010b13          	addi	s6,sp,224
   19b98:	0b810a13          	addi	s4,sp,184
   19b9c:	0a210c93          	addi	s9,sp,162
   19ba0:	0e210d13          	addi	s10,sp,226
   19ba4:	4601                	li	a2,0
   19ba6:	85d2                	mv	a1,s4
   19ba8:	a811                	j	0x19bbc
   19baa:	0016161b          	slliw	a2,a2,0x1
   19bae:	00f59023          	sh	a5,0(a1)
   19bb2:	1642                	slli	a2,a2,0x30
   19bb4:	15f9                	addi	a1,a1,-2
   19bb6:	9241                	srli	a2,a2,0x30
   19bb8:	05958063          	beq	a1,s9,0x19bf8
   19bbc:	0005d783          	lhu	a5,0(a1)
   19bc0:	0107951b          	slliw	a0,a5,0x10
   19bc4:	4105551b          	sraiw	a0,a0,0x10
   19bc8:	02051713          	slli	a4,a0,0x20
   19bcc:	0017979b          	slliw	a5,a5,0x1
   19bd0:	00075463          	bgez	a4,0x19bd8
   19bd4:	00166613          	ori	a2,a2,1
   19bd8:	17c2                	slli	a5,a5,0x30
   19bda:	93c1                	srli	a5,a5,0x30
   19bdc:	00267513          	andi	a0,a2,2
   19be0:	0017e313          	ori	t1,a5,1
   19be4:	d179                	beqz	a0,0x19baa
   19be6:	0016161b          	slliw	a2,a2,0x1
   19bea:	00659023          	sh	t1,0(a1)
   19bee:	1642                	slli	a2,a2,0x30
   19bf0:	15f9                	addi	a1,a1,-2
   19bf2:	9241                	srli	a2,a2,0x30
   19bf4:	fd9594e3          	bne	a1,s9,0x19bbc
   19bf8:	865a                	mv	a2,s6
   19bfa:	111c                	addi	a5,sp,160
   19bfc:	0007d583          	lhu	a1,0(a5)
   19c00:	0789                	addi	a5,a5,2
   19c02:	0609                	addi	a2,a2,2
   19c04:	feb61f23          	sh	a1,-2(a2)
   19c08:	ff479ae3          	bne	a5,s4,0x19bfc
   19c0c:	0e011c23          	sh	zero,248(sp)
   19c10:	4601                	li	a2,0
   19c12:	19ac                	addi	a1,sp,248
   19c14:	a811                	j	0x19c28
   19c16:	0016161b          	slliw	a2,a2,0x1
   19c1a:	00f59023          	sh	a5,0(a1)
   19c1e:	1642                	slli	a2,a2,0x30
   19c20:	15f9                	addi	a1,a1,-2
   19c22:	9241                	srli	a2,a2,0x30
   19c24:	05a58063          	beq	a1,s10,0x19c64
   19c28:	0005d783          	lhu	a5,0(a1)
   19c2c:	0107951b          	slliw	a0,a5,0x10
   19c30:	4105551b          	sraiw	a0,a0,0x10
   19c34:	02051713          	slli	a4,a0,0x20
   19c38:	0017979b          	slliw	a5,a5,0x1
   19c3c:	00075463          	bgez	a4,0x19c44
   19c40:	00166613          	ori	a2,a2,1
   19c44:	17c2                	slli	a5,a5,0x30
   19c46:	93c1                	srli	a5,a5,0x30
   19c48:	00267513          	andi	a0,a2,2
   19c4c:	0017e313          	ori	t1,a5,1
   19c50:	d179                	beqz	a0,0x19c16
   19c52:	0016161b          	slliw	a2,a2,0x1
   19c56:	00659023          	sh	t1,0(a1)
   19c5a:	1642                	slli	a2,a2,0x30
   19c5c:	15f9                	addi	a1,a1,-2
   19c5e:	9241                	srli	a2,a2,0x30
   19c60:	fda594e3          	bne	a1,s10,0x19c28
   19c64:	4601                	li	a2,0
   19c66:	19ac                	addi	a1,sp,248
   19c68:	a811                	j	0x19c7c
   19c6a:	0016161b          	slliw	a2,a2,0x1
   19c6e:	00f59023          	sh	a5,0(a1)
   19c72:	1642                	slli	a2,a2,0x30
   19c74:	15f9                	addi	a1,a1,-2
   19c76:	9241                	srli	a2,a2,0x30
   19c78:	05a58063          	beq	a1,s10,0x19cb8
   19c7c:	0005d783          	lhu	a5,0(a1)
   19c80:	0107951b          	slliw	a0,a5,0x10
   19c84:	4105551b          	sraiw	a0,a0,0x10
   19c88:	02051713          	slli	a4,a0,0x20
   19c8c:	0017979b          	slliw	a5,a5,0x1
   19c90:	00075463          	bgez	a4,0x19c98
   19c94:	00166613          	ori	a2,a2,1
   19c98:	17c2                	slli	a5,a5,0x30
   19c9a:	93c1                	srli	a5,a5,0x30
   19c9c:	00267513          	andi	a0,a2,2
   19ca0:	0017e313          	ori	t1,a5,1
   19ca4:	d179                	beqz	a0,0x19c6a
   19ca6:	0016161b          	slliw	a2,a2,0x1
   19caa:	00659023          	sh	t1,0(a1)
   19cae:	1642                	slli	a2,a2,0x30
   19cb0:	15f9                	addi	a1,a1,-2
   19cb2:	9241                	srli	a2,a2,0x30
   19cb4:	fda594e3          	bne	a1,s10,0x19c7c
   19cb8:	4501                	li	a0,0
   19cba:	85d2                	mv	a1,s4
   19cbc:	19b0                	addi	a2,sp,248
   19cbe:	0005d303          	lhu	t1,0(a1)
   19cc2:	00065783          	lhu	a5,0(a2)
   19cc6:	15f9                	addi	a1,a1,-2
   19cc8:	1679                	addi	a2,a2,-2
   19cca:	979a                	add	a5,a5,t1
   19ccc:	97aa                	add	a5,a5,a0
   19cce:	0107d513          	srli	a0,a5,0x10
   19cd2:	00f59123          	sh	a5,2(a1)
   19cd6:	8905                	andi	a0,a0,1
   19cd8:	ffa613e3          	bne	a2,s10,0x19cbe
   19cdc:	864e                	mv	a2,s3
   19cde:	110c                	addi	a1,sp,160
   19ce0:	0188                	addi	a0,sp,192
   19ce2:	918ff0ef          	jal	ra,0x18dfa
   19ce6:	1ec15783          	lhu	a5,492(sp)
   19cea:	018d8633          	add	a2,s11,s8
   19cee:	0c05                	addi	s8,s8,1
   19cf0:	0307859b          	addiw	a1,a5,48
   19cf4:	00b60023          	sb	a1,0(a2)
   19cf8:	000c061b          	sext.w	a2,s8
   19cfc:	eac454e3          	bge	s0,a2,0x19ba4
   19d00:	fff44513          	not	a0,s0
   19d04:	957d                	srai	a0,a0,0x3f
   19d06:	8d61                	and	a0,a0,s0
   19d08:	2501                	sext.w	a0,a0
   19d0a:	00150993          	addi	s3,a0,1
   19d0e:	99ee                	add	s3,s3,s11
   19d10:	9daa                	add	s11,s11,a0
   19d12:	4711                	li	a4,4
   19d14:	04f75c63          	bge	a4,a5,0x19d6c
   19d18:	4715                	li	a4,5
   19d1a:	62e78e63          	beq	a5,a4,0x1a356
   19d1e:	ffe9c783          	lbu	a5,-2(s3)
   19d22:	ffe98713          	addi	a4,s3,-2
   19d26:	07f7f693          	andi	a3,a5,127
   19d2a:	87b6                	mv	a5,a3
   19d2c:	5c044c63          	bltz	s0,0x1a304
   19d30:	02e00613          	li	a2,46
   19d34:	03800593          	li	a1,56
   19d38:	03000513          	li	a0,48
   19d3c:	00c68d63          	beq	a3,a2,0x19d56
   19d40:	5cf5d863          	bge	a1,a5,0x1a310
   19d44:	fff74783          	lbu	a5,-1(a4)
   19d48:	00a70023          	sb	a0,0(a4)
   19d4c:	177d                	addi	a4,a4,-1
   19d4e:	07f7f693          	andi	a3,a5,127
   19d52:	87b6                	mv	a5,a3
   19d54:	b7e5                	j	0x19d3c
   19d56:	fff74783          	lbu	a5,-1(a4)
   19d5a:	03800693          	li	a3,56
   19d5e:	62f6ff63          	bgeu	a3,a5,0x1a39c
   19d62:	03100793          	li	a5,49
   19d66:	2485                	addiw	s1,s1,1
   19d68:	fef70fa3          	sb	a5,-1(a4)
   19d6c:	8626                	mv	a2,s1
   19d6e:	00007597          	auipc	a1,0x7
   19d72:	54a58593          	addi	a1,a1,1354 # 0x212b8
   19d76:	856e                	mv	a0,s11
   19d78:	7a9010ef          	jal	ra,0x1bd20
   19d7c:	09215783          	lhu	a5,146(sp)
   19d80:	7722                	ld	a4,40(sp)
   19d82:	1a912823          	sw	s1,432(sp)
   19d86:	fff7c793          	not	a5,a5
   19d8a:	1ae12223          	sw	a4,420(sp)
   19d8e:	03179713          	slli	a4,a5,0x31
   19d92:	eb19                	bnez	a4,0x19da8
   19d94:	0108                	addi	a0,sp,128
   19d96:	aabfe0ef          	jal	ra,0x18840
   19d9a:	1a051763          	bnez	a0,0x19f48
   19d9e:	0108                	addi	a0,sp,128
   19da0:	8b1fe0ef          	jal	ra,0x18650
   19da4:	1a051263          	bnez	a0,0x19f48
   19da8:	66e2                	ld	a3,24(sp)
   19daa:	16014703          	lbu	a4,352(sp)
   19dae:	0014879b          	addiw	a5,s1,1
   19db2:	c29c                	sw	a5,0(a3)
   19db4:	87ca                	mv	a5,s2
   19db6:	c70d                	beqz	a4,0x19de0
   19db8:	02e00693          	li	a3,46
   19dbc:	16d70b63          	beq	a4,a3,0x19f32
   19dc0:	0017c703          	lbu	a4,1(a5)
   19dc4:	0785                	addi	a5,a5,1
   19dc6:	fb7d                	bnez	a4,0x19dbc
   19dc8:	04500693          	li	a3,69
   19dcc:	00f96563          	bltu	s2,a5,0x19dd6
   19dd0:	a801                	j	0x19de0
   19dd2:	01278763          	beq	a5,s2,0x19de0
   19dd6:	fff7c703          	lbu	a4,-1(a5)
   19dda:	17fd                	addi	a5,a5,-1
   19ddc:	fed71be3          	bne	a4,a3,0x19dd2
   19de0:	00078023          	sb	zero,0(a5)
   19de4:	87ca                	mv	a5,s2
   19de6:	02000693          	li	a3,32
   19dea:	02d00613          	li	a2,45
   19dee:	0007c703          	lbu	a4,0(a5)
   19df2:	00d70463          	beq	a4,a3,0x19dfa
   19df6:	00c71463          	bne	a4,a2,0x19dfe
   19dfa:	0785                	addi	a5,a5,1
   19dfc:	bfcd                	j	0x19dee
   19dfe:	844a                	mv	s0,s2
   19e00:	a021                	j	0x19e08
   19e02:	0007c703          	lbu	a4,0(a5)
   19e06:	8436                	mv	s0,a3
   19e08:	00e40023          	sb	a4,0(s0)
   19e0c:	00140693          	addi	a3,s0,1
   19e10:	0785                	addi	a5,a5,1
   19e12:	fb65                	bnez	a4,0x19e02
   19e14:	4789                	li	a5,2
   19e16:	fff44703          	lbu	a4,-1(s0)
   19e1a:	0efb8663          	beq	s7,a5,0x19f06
   19e1e:	67a2                	ld	a5,8(sp)
   19e20:	0007869b          	sext.w	a3,a5
   19e24:	0097d463          	bge	a5,s1,0x19e2c
   19e28:	0004869b          	sext.w	a3,s1
   19e2c:	03000793          	li	a5,48
   19e30:	02f71463          	bne	a4,a5,0x19e58
   19e34:	412407b3          	sub	a5,s0,s2
   19e38:	02f6d063          	bge	a3,a5,0x19e58
   19e3c:	03000613          	li	a2,48
   19e40:	a019                	j	0x19e46
   19e42:	00e6db63          	bge	a3,a4,0x19e58
   19e46:	ffe44783          	lbu	a5,-2(s0)
   19e4a:	fe040fa3          	sb	zero,-1(s0)
   19e4e:	147d                	addi	s0,s0,-1
   19e50:	41240733          	sub	a4,s0,s2
   19e54:	fec787e3          	beq	a5,a2,0x19e42
   19e58:	478d                	li	a5,3
   19e5a:	08fb8363          	beq	s7,a5,0x19ee0
   19e5e:	67c2                	ld	a5,16(sp)
   19e60:	060aa423          	sw	zero,104(s5)
   19e64:	00978a1b          	addiw	s4,a5,9
   19e68:	47fd                	li	a5,31
   19e6a:	0947fc63          	bgeu	a5,s4,0x19f02
   19e6e:	4685                	li	a3,1
   19e70:	4791                	li	a5,4
   19e72:	0017979b          	slliw	a5,a5,0x1
   19e76:	01c78613          	addi	a2,a5,28
   19e7a:	0006859b          	sext.w	a1,a3
   19e7e:	2685                	addiw	a3,a3,1
   19e80:	feca79e3          	bgeu	s4,a2,0x19e72
   19e84:	06baa423          	sw	a1,104(s5)
   19e88:	8556                	mv	a0,s5
   19e8a:	2cd000ef          	jal	ra,0x1a956
   19e8e:	06aab023          	sd	a0,96(s5)
   19e92:	85ca                	mv	a1,s2
   19e94:	84aa                	mv	s1,a0
   19e96:	098020ef          	jal	ra,0x1bf2e
   19e9a:	77c2                	ld	a5,48(sp)
   19e9c:	c789                	beqz	a5,0x19ea6
   19e9e:	41240433          	sub	s0,s0,s2
   19ea2:	9426                	add	s0,s0,s1
   19ea4:	e380                	sd	s0,0(a5)
   19ea6:	25813083          	ld	ra,600(sp)
   19eaa:	25013403          	ld	s0,592(sp)
   19eae:	24013903          	ld	s2,576(sp)
   19eb2:	23813983          	ld	s3,568(sp)
   19eb6:	23013a03          	ld	s4,560(sp)
   19eba:	22813a83          	ld	s5,552(sp)
   19ebe:	22013b03          	ld	s6,544(sp)
   19ec2:	21813b83          	ld	s7,536(sp)
   19ec6:	21013c03          	ld	s8,528(sp)
   19eca:	20813c83          	ld	s9,520(sp)
   19ece:	20013d03          	ld	s10,512(sp)
   19ed2:	7dfe                	ld	s11,504(sp)
   19ed4:	8526                	mv	a0,s1
   19ed6:	24813483          	ld	s1,584(sp)
   19eda:	26010113          	addi	sp,sp,608
   19ede:	8082                	ret
   19ee0:	67a2                	ld	a5,8(sp)
   19ee2:	9cbd                	addw	s1,s1,a5
   19ee4:	3c04ce63          	bltz	s1,0x1a2c0
   19ee8:	67e2                	ld	a5,24(sp)
   19eea:	6742                	ld	a4,16(sp)
   19eec:	439c                	lw	a5,0(a5)
   19eee:	9fb9                	addw	a5,a5,a4
   19ef0:	e83e                	sd	a5,16(sp)
   19ef2:	67c2                	ld	a5,16(sp)
   19ef4:	060aa423          	sw	zero,104(s5)
   19ef8:	00378a1b          	addiw	s4,a5,3
   19efc:	47fd                	li	a5,31
   19efe:	f747e8e3          	bltu	a5,s4,0x19e6e
   19f02:	4581                	li	a1,0
   19f04:	b751                	j	0x19e88
   19f06:	03000793          	li	a5,48
   19f0a:	f4f71ae3          	bne	a4,a5,0x19e5e
   19f0e:	412407b3          	sub	a5,s0,s2
   19f12:	4685                	li	a3,1
   19f14:	f2f6c4e3          	blt	a3,a5,0x19e3c
   19f18:	b799                	j	0x19e5e
   19f1a:	67c2                	ld	a5,16(sp)
   19f1c:	02a00713          	li	a4,42
   19f20:	8c3e                	mv	s8,a5
   19f22:	00f75463          	bge	a4,a5,0x19f2a
   19f26:	02a00c13          	li	s8,42
   19f2a:	000c079b          	sext.w	a5,s8
   19f2e:	e43e                	sd	a5,8(sp)
   19f30:	b859                	j	0x197c6
   19f32:	0007c703          	lbu	a4,0(a5)
   19f36:	e80709e3          	beqz	a4,0x19dc8
   19f3a:	0017c703          	lbu	a4,1(a5)
   19f3e:	0785                	addi	a5,a5,1
   19f40:	fee78fa3          	sb	a4,-1(a5)
   19f44:	fb7d                	bnez	a4,0x19f3a
   19f46:	b549                	j	0x19dc8
   19f48:	6762                	ld	a4,24(sp)
   19f4a:	6789                	lui	a5,0x2
   19f4c:	70f78793          	addi	a5,a5,1807 # 0x270f
   19f50:	c31c                	sw	a5,0(a4)
   19f52:	bd49                	j	0x19de4
   19f54:	03100713          	li	a4,49
   19f58:	16e100a3          	sb	a4,353(sp)
   19f5c:	02e00713          	li	a4,46
   19f60:	16e10123          	sb	a4,354(sp)
   19f64:	2485                	addiw	s1,s1,1
   19f66:	20f05c63          	blez	a5,0x1a17e
   19f6a:	03000793          	li	a5,48
   19f6e:	16f101a3          	sb	a5,355(sp)
   19f72:	347d                	addiw	s0,s0,-1
   19f74:	16410d93          	addi	s11,sp,356
   19f78:	b929                	j	0x19b92
   19f7a:	0e010b13          	addi	s6,sp,224
   19f7e:	875a                	mv	a4,s6
   19f80:	111c                	addi	a5,sp,160
   19f82:	1950                	addi	a2,sp,180
   19f84:	0007d683          	lhu	a3,0(a5)
   19f88:	0789                	addi	a5,a5,2
   19f8a:	0709                	addi	a4,a4,2
   19f8c:	fed71f23          	sh	a3,-2(a4)
   19f90:	fec79ae3          	bne	a5,a2,0x19f84
   19f94:	6791                	lui	a5,0x4
   19f96:	08e78793          	addi	a5,a5,142 # 0x408e
   19f9a:	0ef11923          	sh	a5,242(sp)
   19f9e:	67a1                	lui	a5,0x8
   19fa0:	17fd                	addi	a5,a5,-1
   19fa2:	fc3e                	sd	a5,56(sp)
   19fa4:	77f1                	lui	a5,0xffffc
   19fa6:	2789                	addiw	a5,a5,2
   19fa8:	4a41                	li	s4,16
   19faa:	4481                	li	s1,0
   19fac:	00007d17          	auipc	s10,0x7
   19fb0:	3e4d0d13          	addi	s10,s10,996 # 0x21390
   19fb4:	16010913          	addi	s2,sp,352
   19fb8:	1a010993          	addi	s3,sp,416
   19fbc:	0200                	addi	s0,sp,256
   19fbe:	0d210c13          	addi	s8,sp,210
   19fc2:	c2be                	sw	a5,68(sp)
   19fc4:	07a10c93          	addi	s9,sp,122
   19fc8:	86ce                	mv	a3,s3
   19fca:	0190                	addi	a2,sp,192
   19fcc:	85da                	mv	a1,s6
   19fce:	856a                	mv	a0,s10
   19fd0:	aa6ff0ef          	jal	ra,0x19276
   19fd4:	10b8                	addi	a4,sp,104
   19fd6:	019c                	addi	a5,sp,192
   19fd8:	0007d683          	lhu	a3,0(a5) # 0xffffffffffffc000
   19fdc:	0789                	addi	a5,a5,2
   19fde:	0709                	addi	a4,a4,2
   19fe0:	fed71f23          	sh	a3,-2(a4)
   19fe4:	ffb79ae3          	bne	a5,s11,0x19fd8
   19fe8:	77e2                	ld	a5,56(sp)
   19fea:	07a15503          	lhu	a0,122(sp)
   19fee:	00f57eb3          	and	t4,a0,a5
   19ff2:	4796                	lw	a5,68(sp)
   19ff4:	00fe87bb          	addw	a5,t4,a5
   19ff8:	8ebe                	mv	t4,a5
   19ffa:	2cf05a63          	blez	a5,0x1a2ce
   19ffe:	09000593          	li	a1,144
   1a002:	40f58f3b          	subw	t5,a1,a5
   1a006:	85fa                	mv	a1,t5
   1a008:	8722                	mv	a4,s0
   1a00a:	10bc                	addi	a5,sp,104
   1a00c:	18f0                	addi	a2,sp,124
   1a00e:	0007d683          	lhu	a3,0(a5)
   1a012:	0789                	addi	a5,a5,2
   1a014:	0709                	addi	a4,a4,2
   1a016:	fed71f23          	sh	a3,-2(a4)
   1a01a:	fec79ae3          	bne	a5,a2,0x1a00e
   1a01e:	07e05263          	blez	t5,0x1a082
   1a022:	47bd                	li	a5,15
   1a024:	8722                	mv	a4,s0
   1a026:	03e7d863          	bge	a5,t5,0x1a056
   1a02a:	35c1                	addiw	a1,a1,-16
   1a02c:	0045d71b          	srliw	a4,a1,0x4
   1a030:	0705                	addi	a4,a4,1
   1a032:	0706                	slli	a4,a4,0x1
   1a034:	0045d59b          	srliw	a1,a1,0x4
   1a038:	9722                	add	a4,a4,s0
   1a03a:	87a2                	mv	a5,s0
   1a03c:	0789                	addi	a5,a5,2
   1a03e:	fe079f23          	sh	zero,-2(a5)
   1a042:	fef71de3          	bne	a4,a5,0x1a03c
   1a046:	08000f13          	li	t5,128
   1a04a:	41df0ebb          	subw	t4,t5,t4
   1a04e:	0045959b          	slliw	a1,a1,0x4
   1a052:	40be8f3b          	subw	t5,t4,a1
   1a056:	001f1593          	slli	a1,t5,0x1
   1a05a:	00007f17          	auipc	t5,0x7
   1a05e:	266f0f13          	addi	t5,t5,614 # 0x212c0
   1a062:	95fa                	add	a1,a1,t5
   1a064:	00075783          	lhu	a5,0(a4)
   1a068:	2405d683          	lhu	a3,576(a1)
   1a06c:	8ff5                	and	a5,a5,a3
   1a06e:	00f71023          	sh	a5,0(a4)
   1a072:	0105151b          	slliw	a0,a0,0x10
   1a076:	4105551b          	sraiw	a0,a0,0x10
   1a07a:	02051793          	slli	a5,a0,0x20
   1a07e:	1007c563          	bltz	a5,0x1a188
   1a082:	019c                	addi	a5,sp,192
   1a084:	8722                	mv	a4,s0
   1a086:	0007d603          	lhu	a2,0(a5)
   1a08a:	00075683          	lhu	a3,0(a4)
   1a08e:	0789                	addi	a5,a5,2
   1a090:	0709                	addi	a4,a4,2
   1a092:	02d61063          	bne	a2,a3,0x1a0b2
   1a096:	fefc18e3          	bne	s8,a5,0x1a086
   1a09a:	875a                	mv	a4,s6
   1a09c:	019c                	addi	a5,sp,192
   1a09e:	0007d683          	lhu	a3,0(a5)
   1a0a2:	0789                	addi	a5,a5,2
   1a0a4:	0709                	addi	a4,a4,2
   1a0a6:	fed71f23          	sh	a3,-2(a4)
   1a0aa:	ffb79ae3          	bne	a5,s11,0x1a09e
   1a0ae:	009a04bb          	addw	s1,s4,s1
   1a0b2:	0d51                	addi	s10,s10,20
   1a0b4:	00007797          	auipc	a5,0x7
   1a0b8:	34078793          	addi	a5,a5,832 # 0x213f4
   1a0bc:	001a5a13          	srli	s4,s4,0x1
   1a0c0:	f0fd14e3          	bne	s10,a5,0x19fc8
   1a0c4:	0f215783          	lhu	a5,242(sp)
   1a0c8:	0b215703          	lhu	a4,178(sp)
   1a0cc:	19d0                	addi	a2,sp,244
   1a0ce:	9fb9                	addw	a5,a5,a4
   1a0d0:	7771                	lui	a4,0xffffc
   1a0d2:	f727071b          	addiw	a4,a4,-142
   1a0d6:	9fb9                	addw	a5,a5,a4
   1a0d8:	0ef11923          	sh	a5,242(sp)
   1a0dc:	1118                	addi	a4,sp,160
   1a0de:	87da                	mv	a5,s6
   1a0e0:	0007d683          	lhu	a3,0(a5)
   1a0e4:	0789                	addi	a5,a5,2
   1a0e6:	0709                	addi	a4,a4,2
   1a0e8:	fed71f23          	sh	a3,-2(a4) # 0xffffffffffffbffe
   1a0ec:	fec79ae3          	bne	a5,a2,0x1a0e0
   1a0f0:	4681                	li	a3,0
   1a0f2:	019c                	addi	a5,sp,192
   1a0f4:	00007717          	auipc	a4,0x7
   1a0f8:	1e470713          	addi	a4,a4,484 # 0x212d8
   1a0fc:	a019                	j	0x1a102
   1a0fe:	00075683          	lhu	a3,0(a4)
   1a102:	0789                	addi	a5,a5,2
   1a104:	fed79f23          	sh	a3,-2(a5)
   1a108:	0709                	addi	a4,a4,2
   1a10a:	ffb79ae3          	bne	a5,s11,0x1a0fe
   1a10e:	6c05                	lui	s8,0x1
   1a110:	00007a17          	auipc	s4,0x7
   1a114:	1e0a0a13          	addi	s4,s4,480 # 0x212f0
   1a118:	00007d97          	auipc	s11,0x7
   1a11c:	2c8d8d93          	addi	s11,s11,712 # 0x213e0
   1a120:	a031                	j	0x1a12c
   1a122:	001c5c13          	srli	s8,s8,0x1
   1a126:	1dba0b63          	beq	s4,s11,0x1a2fc
   1a12a:	0a51                	addi	s4,s4,20
   1a12c:	85da                	mv	a1,s6
   1a12e:	856e                	mv	a0,s11
   1a130:	e48fe0ef          	jal	ra,0x18778
   1a134:	872a                	mv	a4,a0
   1a136:	85da                	mv	a1,s6
   1a138:	8552                	mv	a0,s4
   1a13a:	1ce04163          	bgtz	a4,0x1a2fc
   1a13e:	e3afe0ef          	jal	ra,0x18778
   1a142:	fea040e3          	bgtz	a0,0x1a122
   1a146:	86ce                	mv	a3,s3
   1a148:	865a                	mv	a2,s6
   1a14a:	85da                	mv	a1,s6
   1a14c:	8552                	mv	a0,s4
   1a14e:	928ff0ef          	jal	ra,0x19276
   1a152:	0190                	addi	a2,sp,192
   1a154:	86ce                	mv	a3,s3
   1a156:	85b2                	mv	a1,a2
   1a158:	8552                	mv	a0,s4
   1a15a:	e17fe0ef          	jal	ra,0x18f70
   1a15e:	009c04bb          	addw	s1,s8,s1
   1a162:	b7c1                	j	0x1a122
   1a164:	16010913          	addi	s2,sp,352
   1a168:	00007597          	auipc	a1,0x7
   1a16c:	12058593          	addi	a1,a1,288 # 0x21288
   1a170:	854a                	mv	a0,s2
   1a172:	6489                	lui	s1,0x2
   1a174:	3ad010ef          	jal	ra,0x1bd20
   1a178:	70f48493          	addi	s1,s1,1807 # 0x270f
   1a17c:	b101                	j	0x19d7c
   1a17e:	16310d93          	addi	s11,sp,355
   1a182:	be0795e3          	bnez	a5,0x19d6c
   1a186:	b431                	j	0x19b92
   1a188:	10bc                	addi	a5,sp,104
   1a18a:	8722                	mv	a4,s0
   1a18c:	a019                	j	0x1a192
   1a18e:	eefc8ae3          	beq	s9,a5,0x1a082
   1a192:	0007d603          	lhu	a2,0(a5)
   1a196:	00075683          	lhu	a3,0(a4)
   1a19a:	0789                	addi	a5,a5,2
   1a19c:	0709                	addi	a4,a4,2
   1a19e:	fed608e3          	beq	a2,a3,0x1a18e
   1a1a2:	11215783          	lhu	a5,274(sp)
   1a1a6:	7762                	ld	a4,56(sp)
   1a1a8:	8ff9                	and	a5,a5,a4
   1a1aa:	00e79c63          	bne	a5,a4,0x1a1c2
   1a1ae:	8522                	mv	a0,s0
   1a1b0:	ca0fe0ef          	jal	ra,0x18650
   1a1b4:	ec0517e3          	bnez	a0,0x1a082
   1a1b8:	8522                	mv	a0,s0
   1a1ba:	e86fe0ef          	jal	ra,0x18840
   1a1be:	ec0512e3          	bnez	a0,0x1a082
   1a1c2:	120c                	addi	a1,sp,288
   1a1c4:	00007517          	auipc	a0,0x7
   1a1c8:	11450513          	addi	a0,a0,276 # 0x212d8
   1a1cc:	cf6fe0ef          	jal	ra,0x186c2
   1a1d0:	028c                	addi	a1,sp,320
   1a1d2:	8522                	mv	a0,s0
   1a1d4:	ceefe0ef          	jal	ra,0x186c2
   1a1d8:	12015603          	lhu	a2,288(sp)
   1a1dc:	14215503          	lhu	a0,322(sp)
   1a1e0:	12215e83          	lhu	t4,290(sp)
   1a1e4:	fff64613          	not	a2,a2
   1a1e8:	1642                	slli	a2,a2,0x30
   1a1ea:	9241                	srli	a2,a2,0x30
   1a1ec:	12c11023          	sh	a2,288(sp)
   1a1f0:	40ae85b3          	sub	a1,t4,a0
   1a1f4:	86aa                	mv	a3,a0
   1a1f6:	04b05e63          	blez	a1,0x1a252
   1a1fa:	86ca                	mv	a3,s2
   1a1fc:	0298                	addi	a4,sp,320
   1a1fe:	0abc                	addi	a5,sp,344
   1a200:	00075583          	lhu	a1,0(a4)
   1a204:	0709                	addi	a4,a4,2
   1a206:	0689                	addi	a3,a3,2
   1a208:	feb69f23          	sh	a1,-2(a3) # 0x3ffe
   1a20c:	fef71ae3          	bne	a4,a5,0x1a200
   1a210:	16011c23          	sh	zero,376(sp)
   1a214:	0298                	addi	a4,sp,320
   1a216:	1214                	addi	a3,sp,288
   1a218:	a019                	j	0x1a21e
   1a21a:	0006d603          	lhu	a2,0(a3)
   1a21e:	0709                	addi	a4,a4,2
   1a220:	fec71f23          	sh	a2,-2(a4)
   1a224:	0689                	addi	a3,a3,2
   1a226:	fef71ae3          	bne	a4,a5,0x1a21a
   1a22a:	14011c23          	sh	zero,344(sp)
   1a22e:	1218                	addi	a4,sp,288
   1a230:	87ca                	mv	a5,s2
   1a232:	1ab0                	addi	a2,sp,376
   1a234:	0007d683          	lhu	a3,0(a5)
   1a238:	0789                	addi	a5,a5,2
   1a23a:	0709                	addi	a4,a4,2
   1a23c:	fed71f23          	sh	a3,-2(a4)
   1a240:	fec79ae3          	bne	a5,a2,0x1a234
   1a244:	14215683          	lhu	a3,322(sp)
   1a248:	41d505b3          	sub	a1,a0,t4
   1a24c:	12011c23          	sh	zero,312(sp)
   1a250:	8536                	mv	a0,a3
   1a252:	22058263          	beqz	a1,0x1a476
   1a256:	e4b6                	sd	a3,72(sp)
   1a258:	f6f00793          	li	a5,-145
   1a25c:	04f5ca63          	blt	a1,a5,0x1a2b0
   1a260:	2581                	sext.w	a1,a1
   1a262:	1208                	addi	a0,sp,288
   1a264:	deefe0ef          	jal	ra,0x18852
   1a268:	66a6                	ld	a3,72(sp)
   1a26a:	85aa                	mv	a1,a0
   1a26c:	0abc                	addi	a5,sp,344
   1a26e:	1a28                	addi	a0,sp,312
   1a270:	12015603          	lhu	a2,288(sp)
   1a274:	14015703          	lhu	a4,320(sp)
   1a278:	24e60163          	beq	a2,a4,0x1a4ba
   1a27c:	4601                	li	a2,0
   1a27e:	0007d703          	lhu	a4,0(a5)
   1a282:	00055e83          	lhu	t4,0(a0)
   1a286:	17f9                	addi	a5,a5,-2
   1a288:	8f11                	sub	a4,a4,a2
   1a28a:	41d70733          	sub	a4,a4,t4
   1a28e:	01075613          	srli	a2,a4,0x10
   1a292:	00e79123          	sh	a4,2(a5)
   1a296:	14210713          	addi	a4,sp,322
   1a29a:	8a05                	andi	a2,a2,1
   1a29c:	1579                	addi	a0,a0,-2
   1a29e:	fee790e3          	bne	a5,a4,0x1a27e
   1a2a2:	4605                	li	a2,1
   1a2a4:	87ce                	mv	a5,s3
   1a2a6:	04000713          	li	a4,64
   1a2aa:	0288                	addi	a0,sp,320
   1a2ac:	849fe0ef          	jal	ra,0x18af4
   1a2b0:	85a2                	mv	a1,s0
   1a2b2:	0288                	addi	a0,sp,320
   1a2b4:	c3bfe0ef          	jal	ra,0x18eee
   1a2b8:	b3e9                	j	0x1a082
   1a2ba:	67c2                	ld	a5,16(sp)
   1a2bc:	37fd                	addiw	a5,a5,-1
   1a2be:	b9b9                	j	0x19f1c
   1a2c0:	67e2                	ld	a5,24(sp)
   1a2c2:	16010023          	sb	zero,352(sp)
   1a2c6:	844a                	mv	s0,s2
   1a2c8:	0007a023          	sw	zero,0(a5)
   1a2cc:	b11d                	j	0x19ef2
   1a2ce:	87a2                	mv	a5,s0
   1a2d0:	0a58                	addi	a4,sp,276
   1a2d2:	0789                	addi	a5,a5,2
   1a2d4:	fe079f23          	sh	zero,-2(a5)
   1a2d8:	fee79de3          	bne	a5,a4,0x1a2d2
   1a2dc:	bb59                	j	0x1a072
   1a2de:	7782                	ld	a5,32(sp)
   1a2e0:	16010913          	addi	s2,sp,352
   1a2e4:	cfb1                	beqz	a5,0x1a340
   1a2e6:	00007597          	auipc	a1,0x7
   1a2ea:	faa58593          	addi	a1,a1,-86 # 0x21290
   1a2ee:	854a                	mv	a0,s2
   1a2f0:	6489                	lui	s1,0x2
   1a2f2:	22f010ef          	jal	ra,0x1bd20
   1a2f6:	70f48493          	addi	s1,s1,1807 # 0x270f
   1a2fa:	b449                	j	0x19d7c
   1a2fc:	11810a13          	addi	s4,sp,280
   1a300:	e8cff06f          	j	0x1998c
   1a304:	03100793          	li	a5,49
   1a308:	fef98f23          	sb	a5,-2(s3)
   1a30c:	2485                	addiw	s1,s1,1
   1a30e:	bcb9                	j	0x19d6c
   1a310:	2685                	addiw	a3,a3,1
   1a312:	00d70023          	sb	a3,0(a4)
   1a316:	bc99                	j	0x19d6c
   1a318:	16010913          	addi	s2,sp,352
   1a31c:	00007597          	auipc	a1,0x7
   1a320:	f9458593          	addi	a1,a1,-108 # 0x212b0
   1a324:	854a                	mv	a0,s2
   1a326:	6489                	lui	s1,0x2
   1a328:	1f9010ef          	jal	ra,0x1bd20
   1a32c:	70f48493          	addi	s1,s1,1807 # 0x270f
   1a330:	b4b1                	j	0x19d7c
   1a332:	1ec15783          	lhu	a5,492(sp)
   1a336:	16210d93          	addi	s11,sp,354
   1a33a:	16310993          	addi	s3,sp,355
   1a33e:	bad1                	j	0x19d12
   1a340:	00007597          	auipc	a1,0x7
   1a344:	f6058593          	addi	a1,a1,-160 # 0x212a0
   1a348:	854a                	mv	a0,s2
   1a34a:	6489                	lui	s1,0x2
   1a34c:	1d5010ef          	jal	ra,0x1bd20
   1a350:	70f48493          	addi	s1,s1,1807 # 0x270f
   1a354:	b425                	j	0x19d7c
   1a356:	018c                	addi	a1,sp,192
   1a358:	1108                	addi	a0,sp,160
   1a35a:	b95fe0ef          	jal	ra,0x18eee
   1a35e:	00007597          	auipc	a1,0x7
   1a362:	f6258593          	addi	a1,a1,-158 # 0x212c0
   1a366:	0188                	addi	a0,sp,192
   1a368:	c10fe0ef          	jal	ra,0x18778
   1a36c:	9a0519e3          	bnez	a0,0x19d1e
   1a370:	9e044ee3          	bltz	s0,0x19d6c
   1a374:	ffe9c783          	lbu	a5,-2(s3)
   1a378:	fd278713          	addi	a4,a5,-46
   1a37c:	00173713          	seqz	a4,a4
   1a380:	fff74713          	not	a4,a4
   1a384:	976e                	add	a4,a4,s11
   1a386:	00074703          	lbu	a4,0(a4)
   1a38a:	8b05                	andi	a4,a4,1
   1a38c:	9e0700e3          	beqz	a4,0x19d6c
   1a390:	07f7f693          	andi	a3,a5,127
   1a394:	ffe98713          	addi	a4,s3,-2
   1a398:	87b6                	mv	a5,a3
   1a39a:	ba59                	j	0x19d30
   1a39c:	2785                	addiw	a5,a5,1
   1a39e:	fef70fa3          	sb	a5,-1(a4)
   1a3a2:	b2e9                	j	0x19d6c
   1a3a4:	0200                	addi	s0,sp,256
   1a3a6:	85a2                	mv	a1,s0
   1a3a8:	1108                	addi	a0,sp,160
   1a3aa:	6b11                	lui	s6,0x4
   1a3ac:	b16fe0ef          	jal	ra,0x186c2
   1a3b0:	4481                	li	s1,0
   1a3b2:	11810a13          	addi	s4,sp,280
   1a3b6:	0f810913          	addi	s2,sp,248
   1a3ba:	10210993          	addi	s3,sp,258
   1a3be:	1b79                	addi	s6,s6,-2
   1a3c0:	fd500c13          	li	s8,-43
   1a3c4:	11815783          	lhu	a5,280(sp)
   1a3c8:	8b9d                	andi	a5,a5,7
   1a3ca:	efd1                	bnez	a5,0x1a466
   1a3cc:	1198                	addi	a4,sp,224
   1a3ce:	87a2                	mv	a5,s0
   1a3d0:	0007d683          	lhu	a3,0(a5)
   1a3d4:	0789                	addi	a5,a5,2
   1a3d6:	0709                	addi	a4,a4,2
   1a3d8:	fed71f23          	sh	a3,-2(a4)
   1a3dc:	ff479ae3          	bne	a5,s4,0x1a3d0
   1a3e0:	1188                	addi	a0,sp,224
   1a3e2:	0e011c23          	sh	zero,248(sp)
   1a3e6:	950fe0ef          	jal	ra,0x18536
   1a3ea:	1188                	addi	a0,sp,224
   1a3ec:	94afe0ef          	jal	ra,0x18536
   1a3f0:	4601                	li	a2,0
   1a3f2:	86ca                	mv	a3,s2
   1a3f4:	8752                	mv	a4,s4
   1a3f6:	0006d583          	lhu	a1,0(a3)
   1a3fa:	00075783          	lhu	a5,0(a4)
   1a3fe:	16f9                	addi	a3,a3,-2
   1a400:	1779                	addi	a4,a4,-2
   1a402:	97ae                	add	a5,a5,a1
   1a404:	97b2                	add	a5,a5,a2
   1a406:	0107d613          	srli	a2,a5,0x10
   1a40a:	00f69123          	sh	a5,2(a3)
   1a40e:	8a05                	andi	a2,a2,1
   1a410:	ff3713e3          	bne	a4,s3,0x1a3f6
   1a414:	0e215783          	lhu	a5,226(sp)
   1a418:	0e415703          	lhu	a4,228(sp)
   1a41c:	278d                	addiw	a5,a5,3
   1a41e:	0ef11123          	sh	a5,226(sp)
   1a422:	cf01                	beqz	a4,0x1a43a
   1a424:	1188                	addi	a0,sp,224
   1a426:	910fe0ef          	jal	ra,0x18536
   1a42a:	0e215783          	lhu	a5,226(sp)
   1a42e:	0e415703          	lhu	a4,228(sp)
   1a432:	2785                	addiw	a5,a5,1
   1a434:	0ef11123          	sh	a5,226(sp)
   1a438:	f775                	bnez	a4,0x1a424
   1a43a:	0f815783          	lhu	a5,248(sp)
   1a43e:	e785                	bnez	a5,0x1a466
   1a440:	0e215783          	lhu	a5,226(sp)
   1a444:	02fb6163          	bltu	s6,a5,0x1a466
   1a448:	8722                	mv	a4,s0
   1a44a:	119c                	addi	a5,sp,224
   1a44c:	0007d683          	lhu	a3,0(a5)
   1a450:	0789                	addi	a5,a5,2
   1a452:	0709                	addi	a4,a4,2
   1a454:	fed71f23          	sh	a3,-2(a4)
   1a458:	ff279ae3          	bne	a5,s2,0x1a44c
   1a45c:	10011c23          	sh	zero,280(sp)
   1a460:	34fd                	addiw	s1,s1,-1
   1a462:	f78491e3          	bne	s1,s8,0x1a3c4
   1a466:	110c                	addi	a1,sp,160
   1a468:	8522                	mv	a0,s0
   1a46a:	a85fe0ef          	jal	ra,0x18eee
   1a46e:	1a010993          	addi	s3,sp,416
   1a472:	c3aff06f          	j	0x198ac
   1a476:	02d8                	addi	a4,sp,324
   1a478:	125c                	addi	a5,sp,292
   1a47a:	0007d583          	lhu	a1,0(a5)
   1a47e:	00075603          	lhu	a2,0(a4)
   1a482:	0789                	addi	a5,a5,2
   1a484:	0709                	addi	a4,a4,2
   1a486:	02c59463          	bne	a1,a2,0x1a4ae
   1a48a:	13a10613          	addi	a2,sp,314
   1a48e:	fec796e3          	bne	a5,a2,0x1a47a
   1a492:	12015703          	lhu	a4,288(sp)
   1a496:	14015783          	lhu	a5,320(sp)
   1a49a:	04f70663          	beq	a4,a5,0x1a4e6
   1a49e:	87a2                	mv	a5,s0
   1a4a0:	0a58                	addi	a4,sp,276
   1a4a2:	0789                	addi	a5,a5,2
   1a4a4:	fe079f23          	sh	zero,-2(a5)
   1a4a8:	fee79de3          	bne	a5,a4,0x1a4a2
   1a4ac:	bed9                	j	0x1a082
   1a4ae:	0ab66063          	bltu	a2,a1,0x1a54e
   1a4b2:	4581                	li	a1,0
   1a4b4:	0abc                	addi	a5,sp,344
   1a4b6:	1a28                	addi	a0,sp,312
   1a4b8:	bb65                	j	0x1a270
   1a4ba:	4e81                	li	t4,0
   1a4bc:	862a                	mv	a2,a0
   1a4be:	12210f13          	addi	t5,sp,290
   1a4c2:	0007d503          	lhu	a0,0(a5)
   1a4c6:	00065703          	lhu	a4,0(a2)
   1a4ca:	17f9                	addi	a5,a5,-2
   1a4cc:	1679                	addi	a2,a2,-2
   1a4ce:	972a                	add	a4,a4,a0
   1a4d0:	9776                	add	a4,a4,t4
   1a4d2:	01075e93          	srli	t4,a4,0x10
   1a4d6:	00e79123          	sh	a4,2(a5)
   1a4da:	001efe93          	andi	t4,t4,1
   1a4de:	ffe612e3          	bne	a2,t5,0x1a4c2
   1a4e2:	4601                	li	a2,0
   1a4e4:	b3c1                	j	0x1a2a4
   1a4e6:	8736                	mv	a4,a3
   1a4e8:	eab1                	bnez	a3,0x1a53c
   1a4ea:	14611783          	lh	a5,326(sp)
   1a4ee:	0407c763          	bltz	a5,0x1a53c
   1a4f2:	0ab4                	addi	a3,sp,344
   1a4f4:	a821                	j	0x1a50c
   1a4f6:	00f69023          	sh	a5,0(a3)
   1a4fa:	0017171b          	slliw	a4,a4,0x1
   1a4fe:	1742                	slli	a4,a4,0x30
   1a500:	16f9                	addi	a3,a3,-2
   1a502:	14210793          	addi	a5,sp,322
   1a506:	9341                	srli	a4,a4,0x30
   1a508:	daf684e3          	beq	a3,a5,0x1a2b0
   1a50c:	0006d783          	lhu	a5,0(a3)
   1a510:	0107961b          	slliw	a2,a5,0x10
   1a514:	4106561b          	sraiw	a2,a2,0x10
   1a518:	02061593          	slli	a1,a2,0x20
   1a51c:	0017979b          	slliw	a5,a5,0x1
   1a520:	0005d463          	bgez	a1,0x1a528
   1a524:	00176713          	ori	a4,a4,1
   1a528:	17c2                	slli	a5,a5,0x30
   1a52a:	93c1                	srli	a5,a5,0x30
   1a52c:	00277613          	andi	a2,a4,2
   1a530:	0017e593          	ori	a1,a5,1
   1a534:	d269                	beqz	a2,0x1a4f6
   1a536:	00b69023          	sh	a1,0(a3)
   1a53a:	b7c1                	j	0x1a4fa
   1a53c:	02d0                	addi	a2,sp,324
   1a53e:	0abc                	addi	a5,sp,344
   1a540:	e325                	bnez	a4,0x1a5a0
   1a542:	06c78163          	beq	a5,a2,0x1a5a4
   1a546:	00065703          	lhu	a4,0(a2)
   1a54a:	0609                	addi	a2,a2,2
   1a54c:	bfd5                	j	0x1a540
   1a54e:	864a                	mv	a2,s2
   1a550:	0298                	addi	a4,sp,320
   1a552:	0abc                	addi	a5,sp,344
   1a554:	00075583          	lhu	a1,0(a4)
   1a558:	0709                	addi	a4,a4,2
   1a55a:	0609                	addi	a2,a2,2
   1a55c:	feb61f23          	sh	a1,-2(a2)
   1a560:	fef71ae3          	bne	a4,a5,0x1a554
   1a564:	16011c23          	sh	zero,376(sp)
   1a568:	0290                	addi	a2,sp,320
   1a56a:	1218                	addi	a4,sp,288
   1a56c:	1a28                	addi	a0,sp,312
   1a56e:	00075583          	lhu	a1,0(a4)
   1a572:	0709                	addi	a4,a4,2
   1a574:	0609                	addi	a2,a2,2
   1a576:	feb61f23          	sh	a1,-2(a2)
   1a57a:	fea71ae3          	bne	a4,a0,0x1a56e
   1a57e:	14011c23          	sh	zero,344(sp)
   1a582:	120c                	addi	a1,sp,288
   1a584:	874a                	mv	a4,s2
   1a586:	1ab0                	addi	a2,sp,376
   1a588:	00075e83          	lhu	t4,0(a4)
   1a58c:	0709                	addi	a4,a4,2
   1a58e:	0589                	addi	a1,a1,2
   1a590:	ffd59f23          	sh	t4,-2(a1)
   1a594:	fec71ae3          	bne	a4,a2,0x1a588
   1a598:	12011c23          	sh	zero,312(sp)
   1a59c:	4581                	li	a1,0
   1a59e:	b9c9                	j	0x1a270
   1a5a0:	00168513          	addi	a0,a3,1
   1a5a4:	14a11123          	sh	a0,322(sp)
   1a5a8:	b321                	j	0x1a2b0
   1a5aa:	6118                	ld	a4,0(a0)
   1a5ac:	651c                	ld	a5,8(a0)
   1a5ae:	7139                	addi	sp,sp,-64
   1a5b0:	850a                	mv	a0,sp
   1a5b2:	080c                	addi	a1,sp,16
   1a5b4:	e03a                	sd	a4,0(sp)
   1a5b6:	e43e                	sd	a5,8(sp)
   1a5b8:	fc06                	sd	ra,56(sp)
   1a5ba:	87cff0ef          	jal	ra,0x19636
   1a5be:	02215783          	lhu	a5,34(sp)
   1a5c2:	4501                	li	a0,0
   1a5c4:	fff7c793          	not	a5,a5
   1a5c8:	03179713          	slli	a4,a5,0x31
   1a5cc:	e719                	bnez	a4,0x1a5da
   1a5ce:	0808                	addi	a0,sp,16
   1a5d0:	880fe0ef          	jal	ra,0x18650
   1a5d4:	00153513          	seqz	a0,a0
   1a5d8:	0505                	addi	a0,a0,1
   1a5da:	70e2                	ld	ra,56(sp)
   1a5dc:	6121                	addi	sp,sp,64
   1a5de:	8082                	ret
   1a5e0:	4501                	li	a0,0
   1a5e2:	8082                	ret
   1a5e4:	10050513          	addi	a0,a0,256
   1a5e8:	8082                	ret
   1a5ea:	60818513          	addi	a0,gp,1544
   1a5ee:	8082                	ret
   1a5f0:	60818513          	addi	a0,gp,1544
   1a5f4:	8082                	ret
   1a5f6:	c60d                	beqz	a2,0x1a620
   1a5f8:	1141                	addi	sp,sp,-16
   1a5fa:	00007597          	auipc	a1,0x7
   1a5fe:	f5658593          	addi	a1,a1,-170 # 0x21550
   1a602:	8532                	mv	a0,a2
   1a604:	e022                	sd	s0,0(sp)
   1a606:	e406                	sd	ra,8(sp)
   1a608:	8432                	mv	s0,a2
   1a60a:	03b010ef          	jal	ra,0x1be44
   1a60e:	ed11                	bnez	a0,0x1a62a
   1a610:	00007517          	auipc	a0,0x7
   1a614:	f3850513          	addi	a0,a0,-200 # 0x21548
   1a618:	60a2                	ld	ra,8(sp)
   1a61a:	6402                	ld	s0,0(sp)
   1a61c:	0141                	addi	sp,sp,16
   1a61e:	8082                	ret
   1a620:	00007517          	auipc	a0,0x7
   1a624:	f2850513          	addi	a0,a0,-216 # 0x21548
   1a628:	8082                	ret
   1a62a:	00007597          	auipc	a1,0x7
   1a62e:	f1e58593          	addi	a1,a1,-226 # 0x21548
   1a632:	8522                	mv	a0,s0
   1a634:	011010ef          	jal	ra,0x1be44
   1a638:	dd61                	beqz	a0,0x1a610
   1a63a:	00006597          	auipc	a1,0x6
   1a63e:	4f658593          	addi	a1,a1,1270 # 0x20b30
   1a642:	8522                	mv	a0,s0
   1a644:	001010ef          	jal	ra,0x1be44
   1a648:	d561                	beqz	a0,0x1a610
   1a64a:	4501                	li	a0,0
   1a64c:	b7f1                	j	0x1a618
   1a64e:	6681c503          	lbu	a0,1640(gp)
   1a652:	8082                	ret
   1a654:	862e                	mv	a2,a1
   1a656:	85aa                	mv	a1,a0
   1a658:	7501b503          	ld	a0,1872(gp)
   1a65c:	bf69                	j	0x1a5f6
   1a65e:	7175                	addi	sp,sp,-144
   1a660:	e122                	sd	s0,128(sp)
   1a662:	842e                	mv	s0,a1
   1a664:	01259583          	lh	a1,18(a1)
   1a668:	fca6                	sd	s1,120(sp)
   1a66a:	f8ca                	sd	s2,112(sp)
   1a66c:	e506                	sd	ra,136(sp)
   1a66e:	84b2                	mv	s1,a2
   1a670:	8936                	mv	s2,a3
   1a672:	0205cc63          	bltz	a1,0x1a6aa
   1a676:	0030                	addi	a2,sp,8
   1a678:	9cefd0ef          	jal	ra,0x17846
   1a67c:	02054763          	bltz	a0,0x1a6aa
   1a680:	47b2                	lw	a5,12(sp)
   1a682:	673d                	lui	a4,0xf
   1a684:	60aa                	ld	ra,136(sp)
   1a686:	8ff9                	and	a5,a5,a4
   1a688:	6709                	lui	a4,0x2
   1a68a:	8f99                	sub	a5,a5,a4
   1a68c:	640a                	ld	s0,128(sp)
   1a68e:	0017b793          	seqz	a5,a5
   1a692:	00f92023          	sw	a5,0(s2)
   1a696:	40000793          	li	a5,1024
   1a69a:	e09c                	sd	a5,0(s1)
   1a69c:	6505                	lui	a0,0x1
   1a69e:	74e6                	ld	s1,120(sp)
   1a6a0:	7946                	ld	s2,112(sp)
   1a6a2:	80050513          	addi	a0,a0,-2048 # 0x800
   1a6a6:	6149                	addi	sp,sp,144
   1a6a8:	8082                	ret
   1a6aa:	01045783          	lhu	a5,16(s0)
   1a6ae:	00092023          	sw	zero,0(s2)
   1a6b2:	0807f793          	andi	a5,a5,128
   1a6b6:	cb99                	beqz	a5,0x1a6cc
   1a6b8:	60aa                	ld	ra,136(sp)
   1a6ba:	640a                	ld	s0,128(sp)
   1a6bc:	04000793          	li	a5,64
   1a6c0:	e09c                	sd	a5,0(s1)
   1a6c2:	7946                	ld	s2,112(sp)
   1a6c4:	74e6                	ld	s1,120(sp)
   1a6c6:	4501                	li	a0,0
   1a6c8:	6149                	addi	sp,sp,144
   1a6ca:	8082                	ret
   1a6cc:	60aa                	ld	ra,136(sp)
   1a6ce:	640a                	ld	s0,128(sp)
   1a6d0:	40000793          	li	a5,1024
   1a6d4:	e09c                	sd	a5,0(s1)
   1a6d6:	7946                	ld	s2,112(sp)
   1a6d8:	74e6                	ld	s1,120(sp)
   1a6da:	4501                	li	a0,0
   1a6dc:	6149                	addi	sp,sp,144
   1a6de:	8082                	ret
   1a6e0:	0105d783          	lhu	a5,16(a1)
   1a6e4:	7179                	addi	sp,sp,-48
   1a6e6:	f022                	sd	s0,32(sp)
   1a6e8:	f406                	sd	ra,40(sp)
   1a6ea:	ec26                	sd	s1,24(sp)
   1a6ec:	e84a                	sd	s2,16(sp)
   1a6ee:	8b89                	andi	a5,a5,2
   1a6f0:	842e                	mv	s0,a1
   1a6f2:	cf89                	beqz	a5,0x1a70c
   1a6f4:	07758793          	addi	a5,a1,119
   1a6f8:	e19c                	sd	a5,0(a1)
   1a6fa:	ed9c                	sd	a5,24(a1)
   1a6fc:	4785                	li	a5,1
   1a6fe:	d19c                	sw	a5,32(a1)
   1a700:	70a2                	ld	ra,40(sp)
   1a702:	7402                	ld	s0,32(sp)
   1a704:	64e2                	ld	s1,24(sp)
   1a706:	6942                	ld	s2,16(sp)
   1a708:	6145                	addi	sp,sp,48
   1a70a:	8082                	ret
   1a70c:	0054                	addi	a3,sp,4
   1a70e:	0030                	addi	a2,sp,8
   1a710:	84aa                	mv	s1,a0
   1a712:	f4dff0ef          	jal	ra,0x1a65e
   1a716:	65a2                	ld	a1,8(sp)
   1a718:	892a                	mv	s2,a0
   1a71a:	8526                	mv	a0,s1
   1a71c:	febf70ef          	jal	ra,0x12706
   1a720:	01041783          	lh	a5,16(s0)
   1a724:	c915                	beqz	a0,0x1a758
   1a726:	ffffd697          	auipc	a3,0xffffd
   1a72a:	a1068693          	addi	a3,a3,-1520 # 0x17136
   1a72e:	ecb4                	sd	a3,88(s1)
   1a730:	66a2                	ld	a3,8(sp)
   1a732:	4712                	lw	a4,4(sp)
   1a734:	0807e793          	ori	a5,a5,128
   1a738:	00f41823          	sh	a5,16(s0)
   1a73c:	e008                	sd	a0,0(s0)
   1a73e:	ec08                	sd	a0,24(s0)
   1a740:	d014                	sw	a3,32(s0)
   1a742:	eb15                	bnez	a4,0x1a776
   1a744:	0127e7b3          	or	a5,a5,s2
   1a748:	70a2                	ld	ra,40(sp)
   1a74a:	00f41823          	sh	a5,16(s0)
   1a74e:	7402                	ld	s0,32(sp)
   1a750:	64e2                	ld	s1,24(sp)
   1a752:	6942                	ld	s2,16(sp)
   1a754:	6145                	addi	sp,sp,48
   1a756:	8082                	ret
   1a758:	2007f713          	andi	a4,a5,512
   1a75c:	f355                	bnez	a4,0x1a700
   1a75e:	9bf1                	andi	a5,a5,-4
   1a760:	0027e793          	ori	a5,a5,2
   1a764:	07740713          	addi	a4,s0,119
   1a768:	00f41823          	sh	a5,16(s0)
   1a76c:	4785                	li	a5,1
   1a76e:	e018                	sd	a4,0(s0)
   1a770:	ec18                	sd	a4,24(s0)
   1a772:	d01c                	sw	a5,32(s0)
   1a774:	b771                	j	0x1a700
   1a776:	01241583          	lh	a1,18(s0)
   1a77a:	8526                	mv	a0,s1
   1a77c:	047030ef          	jal	ra,0x1dfc2
   1a780:	e501                	bnez	a0,0x1a788
   1a782:	01041783          	lh	a5,16(s0)
   1a786:	bf7d                	j	0x1a744
   1a788:	01045703          	lhu	a4,16(s0)
   1a78c:	9b71                	andi	a4,a4,-4
   1a78e:	00176713          	ori	a4,a4,1
   1a792:	0107179b          	slliw	a5,a4,0x10
   1a796:	4107d79b          	sraiw	a5,a5,0x10
   1a79a:	b76d                	j	0x1a744
   1a79c:	5f01b303          	ld	t1,1520(gp)
   1a7a0:	8302                	jr	t1
   1a7a2:	c999                	beqz	a1,0x1a7b8
   1a7a4:	c61d                	beqz	a2,0x1a7d2
   1a7a6:	ca95                	beqz	a3,0x1a7da
   1a7a8:	00064783          	lbu	a5,0(a2)
   1a7ac:	c19c                	sw	a5,0(a1)
   1a7ae:	00064503          	lbu	a0,0(a2)
   1a7b2:	00a03533          	snez	a0,a0
   1a7b6:	8082                	ret
   1a7b8:	1141                	addi	sp,sp,-16
   1a7ba:	006c                	addi	a1,sp,12
   1a7bc:	ce09                	beqz	a2,0x1a7d6
   1a7be:	c285                	beqz	a3,0x1a7de
   1a7c0:	00064783          	lbu	a5,0(a2)
   1a7c4:	c19c                	sw	a5,0(a1)
   1a7c6:	00064503          	lbu	a0,0(a2)
   1a7ca:	00a03533          	snez	a0,a0
   1a7ce:	0141                	addi	sp,sp,16
   1a7d0:	8082                	ret
   1a7d2:	4501                	li	a0,0
   1a7d4:	8082                	ret
   1a7d6:	4501                	li	a0,0
   1a7d8:	bfdd                	j	0x1a7ce
   1a7da:	5579                	li	a0,-2
   1a7dc:	8082                	ret
   1a7de:	5579                	li	a0,-2
   1a7e0:	b7fd                	j	0x1a7ce
   1a7e2:	00757793          	andi	a5,a0,7
   1a7e6:	0ff5f693          	andi	a3,a1,255
   1a7ea:	c395                	beqz	a5,0x1a80e
   1a7ec:	fff60793          	addi	a5,a2,-1
   1a7f0:	c605                	beqz	a2,0x1a818
   1a7f2:	567d                	li	a2,-1
   1a7f4:	a801                	j	0x1a804
   1a7f6:	0505                	addi	a0,a0,1
   1a7f8:	00757713          	andi	a4,a0,7
   1a7fc:	cb11                	beqz	a4,0x1a810
   1a7fe:	17fd                	addi	a5,a5,-1
   1a800:	00c78c63          	beq	a5,a2,0x1a818
   1a804:	00054703          	lbu	a4,0(a0)
   1a808:	fed717e3          	bne	a4,a3,0x1a7f6
   1a80c:	8082                	ret
   1a80e:	87b2                	mv	a5,a2
   1a810:	471d                	li	a4,7
   1a812:	00f76f63          	bltu	a4,a5,0x1a830
   1a816:	e399                	bnez	a5,0x1a81c
   1a818:	4501                	li	a0,0
   1a81a:	8082                	ret
   1a81c:	97aa                	add	a5,a5,a0
   1a81e:	a021                	j	0x1a826
   1a820:	0505                	addi	a0,a0,1
   1a822:	fea78be3          	beq	a5,a0,0x1a818
   1a826:	00054703          	lbu	a4,0(a0)
   1a82a:	fed71be3          	bne	a4,a3,0x1a820
   1a82e:	8082                	ret
   1a830:	6641                	lui	a2,0x10
   1a832:	0085971b          	slliw	a4,a1,0x8
   1a836:	167d                	addi	a2,a2,-1
   1a838:	8f71                	and	a4,a4,a2
   1a83a:	0ff5f593          	andi	a1,a1,255
   1a83e:	8dd9                	or	a1,a1,a4
   1a840:	2581                	sext.w	a1,a1
   1a842:	01059713          	slli	a4,a1,0x10
   1a846:	8f4d                	or	a4,a4,a1
   1a848:	02071593          	slli	a1,a4,0x20
   1a84c:	8dd9                	or	a1,a1,a4
   1a84e:	00009897          	auipc	a7,0x9
   1a852:	4028b883          	ld	a7,1026(a7) # 0x23c50
   1a856:	00009817          	auipc	a6,0x9
   1a85a:	40283803          	ld	a6,1026(a6) # 0x23c58
   1a85e:	431d                	li	t1,7
   1a860:	6118                	ld	a4,0(a0)
   1a862:	8f2d                	xor	a4,a4,a1
   1a864:	01170633          	add	a2,a4,a7
   1a868:	fff74713          	not	a4,a4
   1a86c:	8f71                	and	a4,a4,a2
   1a86e:	01077733          	and	a4,a4,a6
   1a872:	f74d                	bnez	a4,0x1a81c
   1a874:	17e1                	addi	a5,a5,-8
   1a876:	0521                	addi	a0,a0,8
   1a878:	fef364e3          	bltu	t1,a5,0x1a860
   1a87c:	f3c5                	bnez	a5,0x1a81c
   1a87e:	bf69                	j	0x1a818
   1a880:	02a5f263          	bgeu	a1,a0,0x1a8a4
   1a884:	00c587b3          	add	a5,a1,a2
   1a888:	00f57e63          	bgeu	a0,a5,0x1a8a4
   1a88c:	00c50733          	add	a4,a0,a2
   1a890:	ca5d                	beqz	a2,0x1a946
   1a892:	fff7c683          	lbu	a3,-1(a5)
   1a896:	17fd                	addi	a5,a5,-1
   1a898:	177d                	addi	a4,a4,-1
   1a89a:	00d70023          	sb	a3,0(a4) # 0x2000
   1a89e:	fef59ae3          	bne	a1,a5,0x1a892
   1a8a2:	8082                	ret
   1a8a4:	47fd                	li	a5,31
   1a8a6:	02c7e163          	bltu	a5,a2,0x1a8c8
   1a8aa:	87aa                	mv	a5,a0
   1a8ac:	fff60693          	addi	a3,a2,-1 # 0xffff
   1a8b0:	c245                	beqz	a2,0x1a950
   1a8b2:	0685                	addi	a3,a3,1
   1a8b4:	96be                	add	a3,a3,a5
   1a8b6:	0005c703          	lbu	a4,0(a1)
   1a8ba:	0785                	addi	a5,a5,1
   1a8bc:	0585                	addi	a1,a1,1
   1a8be:	fee78fa3          	sb	a4,-1(a5)
   1a8c2:	fed79ae3          	bne	a5,a3,0x1a8b6
   1a8c6:	8082                	ret
   1a8c8:	00a5e7b3          	or	a5,a1,a0
   1a8cc:	8b9d                	andi	a5,a5,7
   1a8ce:	efad                	bnez	a5,0x1a948
   1a8d0:	fe060893          	addi	a7,a2,-32
   1a8d4:	fe08f893          	andi	a7,a7,-32
   1a8d8:	02088893          	addi	a7,a7,32
   1a8dc:	01150833          	add	a6,a0,a7
   1a8e0:	872e                	mv	a4,a1
   1a8e2:	87aa                	mv	a5,a0
   1a8e4:	6314                	ld	a3,0(a4)
   1a8e6:	02070713          	addi	a4,a4,32
   1a8ea:	02078793          	addi	a5,a5,32
   1a8ee:	fed7b023          	sd	a3,-32(a5)
   1a8f2:	fe873683          	ld	a3,-24(a4)
   1a8f6:	fed7b423          	sd	a3,-24(a5)
   1a8fa:	ff073683          	ld	a3,-16(a4)
   1a8fe:	fed7b823          	sd	a3,-16(a5)
   1a902:	ff873683          	ld	a3,-8(a4)
   1a906:	fed7bc23          	sd	a3,-8(a5)
   1a90a:	fcf81de3          	bne	a6,a5,0x1a8e4
   1a90e:	01867713          	andi	a4,a2,24
   1a912:	95c6                	add	a1,a1,a7
   1a914:	01f67813          	andi	a6,a2,31
   1a918:	cf0d                	beqz	a4,0x1a952
   1a91a:	872e                	mv	a4,a1
   1a91c:	88be                	mv	a7,a5
   1a91e:	4e1d                	li	t3,7
   1a920:	00073303          	ld	t1,0(a4)
   1a924:	0721                	addi	a4,a4,8
   1a926:	40e806b3          	sub	a3,a6,a4
   1a92a:	0068b023          	sd	t1,0(a7)
   1a92e:	96ae                	add	a3,a3,a1
   1a930:	08a1                	addi	a7,a7,8
   1a932:	fede67e3          	bltu	t3,a3,0x1a920
   1a936:	ff880713          	addi	a4,a6,-8
   1a93a:	9b61                	andi	a4,a4,-8
   1a93c:	0721                	addi	a4,a4,8
   1a93e:	8a1d                	andi	a2,a2,7
   1a940:	97ba                	add	a5,a5,a4
   1a942:	95ba                	add	a1,a1,a4
   1a944:	b7a5                	j	0x1a8ac
   1a946:	8082                	ret
   1a948:	fff60693          	addi	a3,a2,-1
   1a94c:	87aa                	mv	a5,a0
   1a94e:	b795                	j	0x1a8b2
   1a950:	8082                	ret
   1a952:	8642                	mv	a2,a6
   1a954:	bfa1                	j	0x1a8ac
   1a956:	7d3c                	ld	a5,120(a0)
   1a958:	1101                	addi	sp,sp,-32
   1a95a:	e822                	sd	s0,16(sp)
   1a95c:	e426                	sd	s1,8(sp)
   1a95e:	ec06                	sd	ra,24(sp)
   1a960:	e04a                	sd	s2,0(sp)
   1a962:	842a                	mv	s0,a0
   1a964:	84ae                	mv	s1,a1
   1a966:	c385                	beqz	a5,0x1a986
   1a968:	00349513          	slli	a0,s1,0x3
   1a96c:	97aa                	add	a5,a5,a0
   1a96e:	6388                	ld	a0,0(a5)
   1a970:	c50d                	beqz	a0,0x1a99a
   1a972:	6118                	ld	a4,0(a0)
   1a974:	e398                	sd	a4,0(a5)
   1a976:	00053823          	sd	zero,16(a0)
   1a97a:	60e2                	ld	ra,24(sp)
   1a97c:	6442                	ld	s0,16(sp)
   1a97e:	64a2                	ld	s1,8(sp)
   1a980:	6902                	ld	s2,0(sp)
   1a982:	6105                	addi	sp,sp,32
   1a984:	8082                	ret
   1a986:	04100613          	li	a2,65
   1a98a:	45a1                	li	a1,8
   1a98c:	4fa030ef          	jal	ra,0x1de86
   1a990:	fc28                	sd	a0,120(s0)
   1a992:	87aa                	mv	a5,a0
   1a994:	f971                	bnez	a0,0x1a968
   1a996:	4501                	li	a0,0
   1a998:	b7cd                	j	0x1a97a
   1a99a:	4905                	li	s2,1
   1a99c:	0099193b          	sllw	s2,s2,s1
   1a9a0:	fff9061b          	addiw	a2,s2,-1
   1a9a4:	0621                	addi	a2,a2,8
   1a9a6:	060a                	slli	a2,a2,0x2
   1a9a8:	4585                	li	a1,1
   1a9aa:	8522                	mv	a0,s0
   1a9ac:	4da030ef          	jal	ra,0x1de86
   1a9b0:	d17d                	beqz	a0,0x1a996
   1a9b2:	c504                	sw	s1,8(a0)
   1a9b4:	01252623          	sw	s2,12(a0)
   1a9b8:	bf7d                	j	0x1a976
   1a9ba:	c981                	beqz	a1,0x1a9ca
   1a9bc:	4598                	lw	a4,8(a1)
   1a9be:	7d3c                	ld	a5,120(a0)
   1a9c0:	070e                	slli	a4,a4,0x3
   1a9c2:	97ba                	add	a5,a5,a4
   1a9c4:	6398                	ld	a4,0(a5)
   1a9c6:	e198                	sd	a4,0(a1)
   1a9c8:	e38c                	sd	a1,0(a5)
   1a9ca:	8082                	ret
   1a9cc:	7179                	addi	sp,sp,-48
   1a9ce:	ec26                	sd	s1,24(sp)
   1a9d0:	49c4                	lw	s1,20(a1)
   1a9d2:	6341                	lui	t1,0x10
   1a9d4:	f022                	sd	s0,32(sp)
   1a9d6:	e84a                	sd	s2,16(sp)
   1a9d8:	e44e                	sd	s3,8(sp)
   1a9da:	f406                	sd	ra,40(sp)
   1a9dc:	e052                	sd	s4,0(sp)
   1a9de:	892e                	mv	s2,a1
   1a9e0:	89aa                	mv	s3,a0
   1a9e2:	8436                	mv	s0,a3
   1a9e4:	01858813          	addi	a6,a1,24
   1a9e8:	4881                	li	a7,0
   1a9ea:	137d                	addi	t1,t1,-1
   1a9ec:	00082783          	lw	a5,0(a6)
   1a9f0:	0811                	addi	a6,a6,4
   1a9f2:	2885                	addiw	a7,a7,1
   1a9f4:	0067f6b3          	and	a3,a5,t1
   1a9f8:	02c686bb          	mulw	a3,a3,a2
   1a9fc:	0107d79b          	srliw	a5,a5,0x10
   1aa00:	02c787bb          	mulw	a5,a5,a2
   1aa04:	9ea1                	addw	a3,a3,s0
   1aa06:	0106de1b          	srliw	t3,a3,0x10
   1aa0a:	00d37733          	and	a4,t1,a3
   1aa0e:	01c786bb          	addw	a3,a5,t3
   1aa12:	0106979b          	slliw	a5,a3,0x10
   1aa16:	9f3d                	addw	a4,a4,a5
   1aa18:	fee82e23          	sw	a4,-4(a6)
   1aa1c:	0106d41b          	srliw	s0,a3,0x10
   1aa20:	fc98c6e3          	blt	a7,s1,0x1a9ec
   1aa24:	cc09                	beqz	s0,0x1aa3e
   1aa26:	00c92783          	lw	a5,12(s2)
   1aa2a:	02f4d363          	bge	s1,a5,0x1aa50
   1aa2e:	00448793          	addi	a5,s1,4
   1aa32:	078a                	slli	a5,a5,0x2
   1aa34:	97ca                	add	a5,a5,s2
   1aa36:	c780                	sw	s0,8(a5)
   1aa38:	2485                	addiw	s1,s1,1
   1aa3a:	00992a23          	sw	s1,20(s2)
   1aa3e:	70a2                	ld	ra,40(sp)
   1aa40:	7402                	ld	s0,32(sp)
   1aa42:	64e2                	ld	s1,24(sp)
   1aa44:	69a2                	ld	s3,8(sp)
   1aa46:	6a02                	ld	s4,0(sp)
   1aa48:	854a                	mv	a0,s2
   1aa4a:	6942                	ld	s2,16(sp)
   1aa4c:	6145                	addi	sp,sp,48
   1aa4e:	8082                	ret
   1aa50:	00892583          	lw	a1,8(s2)
   1aa54:	854e                	mv	a0,s3
   1aa56:	2585                	addiw	a1,a1,1
   1aa58:	effff0ef          	jal	ra,0x1a956
   1aa5c:	01492603          	lw	a2,20(s2)
   1aa60:	8a2a                	mv	s4,a0
   1aa62:	01090593          	addi	a1,s2,16
   1aa66:	0609                	addi	a2,a2,2
   1aa68:	060a                	slli	a2,a2,0x2
   1aa6a:	0541                	addi	a0,a0,16
   1aa6c:	b12f80ef          	jal	ra,0x12d7e
   1aa70:	00892703          	lw	a4,8(s2)
   1aa74:	0789b783          	ld	a5,120(s3)
   1aa78:	070e                	slli	a4,a4,0x3
   1aa7a:	97ba                	add	a5,a5,a4
   1aa7c:	6398                	ld	a4,0(a5)
   1aa7e:	00e93023          	sd	a4,0(s2)
   1aa82:	0127b023          	sd	s2,0(a5)
   1aa86:	8952                	mv	s2,s4
   1aa88:	b75d                	j	0x1aa2e
   1aa8a:	7139                	addi	sp,sp,-64
   1aa8c:	f822                	sd	s0,48(sp)
   1aa8e:	f426                	sd	s1,40(sp)
   1aa90:	f04a                	sd	s2,32(sp)
   1aa92:	ec4e                	sd	s3,24(sp)
   1aa94:	e852                	sd	s4,16(sp)
   1aa96:	84b6                	mv	s1,a3
   1aa98:	842e                	mv	s0,a1
   1aa9a:	26a1                	addiw	a3,a3,8
   1aa9c:	45a5                	li	a1,9
   1aa9e:	fc06                	sd	ra,56(sp)
   1aaa0:	e456                	sd	s5,8(sp)
   1aaa2:	e05a                	sd	s6,0(sp)
   1aaa4:	47a5                	li	a5,9
   1aaa6:	02b6c6bb          	divw	a3,a3,a1
   1aaaa:	892a                	mv	s2,a0
   1aaac:	89b2                	mv	s3,a2
   1aaae:	8a3a                	mv	s4,a4
   1aab0:	0a97d163          	bge	a5,s1,0x1ab52
   1aab4:	4785                	li	a5,1
   1aab6:	4581                	li	a1,0
   1aab8:	0017979b          	slliw	a5,a5,0x1
   1aabc:	2585                	addiw	a1,a1,1
   1aabe:	fed7cde3          	blt	a5,a3,0x1aab8
   1aac2:	854a                	mv	a0,s2
   1aac4:	e93ff0ef          	jal	ra,0x1a956
   1aac8:	4785                	li	a5,1
   1aaca:	c95c                	sw	a5,20(a0)
   1aacc:	01452c23          	sw	s4,24(a0)
   1aad0:	47a5                	li	a5,9
   1aad2:	85aa                	mv	a1,a0
   1aad4:	0737dc63          	bge	a5,s3,0x1ab4c
   1aad8:	ff698a9b          	addiw	s5,s3,-10
   1aadc:	1a82                	slli	s5,s5,0x20
   1aade:	020ada93          	srli	s5,s5,0x20
   1aae2:	00940b13          	addi	s6,s0,9
   1aae6:	00aa8793          	addi	a5,s5,10
   1aaea:	943e                	add	s0,s0,a5
   1aaec:	8a5a                	mv	s4,s6
   1aaee:	000a4683          	lbu	a3,0(s4)
   1aaf2:	4629                	li	a2,10
   1aaf4:	854a                	mv	a0,s2
   1aaf6:	fd06869b          	addiw	a3,a3,-48
   1aafa:	ed3ff0ef          	jal	ra,0x1a9cc
   1aafe:	0a05                	addi	s4,s4,1
   1ab00:	85aa                	mv	a1,a0
   1ab02:	fe8a16e3          	bne	s4,s0,0x1aaee
   1ab06:	002a8413          	addi	s0,s5,2
   1ab0a:	945a                	add	s0,s0,s6
   1ab0c:	0299d563          	bge	s3,s1,0x1ab36
   1ab10:	34fd                	addiw	s1,s1,-1
   1ab12:	413484bb          	subw	s1,s1,s3
   1ab16:	1482                	slli	s1,s1,0x20
   1ab18:	9081                	srli	s1,s1,0x20
   1ab1a:	0485                	addi	s1,s1,1
   1ab1c:	94a2                	add	s1,s1,s0
   1ab1e:	00044683          	lbu	a3,0(s0)
   1ab22:	4629                	li	a2,10
   1ab24:	854a                	mv	a0,s2
   1ab26:	fd06869b          	addiw	a3,a3,-48
   1ab2a:	ea3ff0ef          	jal	ra,0x1a9cc
   1ab2e:	0405                	addi	s0,s0,1
   1ab30:	85aa                	mv	a1,a0
   1ab32:	fe9416e3          	bne	s0,s1,0x1ab1e
   1ab36:	70e2                	ld	ra,56(sp)
   1ab38:	7442                	ld	s0,48(sp)
   1ab3a:	74a2                	ld	s1,40(sp)
   1ab3c:	7902                	ld	s2,32(sp)
   1ab3e:	69e2                	ld	s3,24(sp)
   1ab40:	6a42                	ld	s4,16(sp)
   1ab42:	6aa2                	ld	s5,8(sp)
   1ab44:	6b02                	ld	s6,0(sp)
   1ab46:	852e                	mv	a0,a1
   1ab48:	6121                	addi	sp,sp,64
   1ab4a:	8082                	ret
   1ab4c:	0429                	addi	s0,s0,10
   1ab4e:	49a5                	li	s3,9
   1ab50:	bf75                	j	0x1ab0c
   1ab52:	4581                	li	a1,0
   1ab54:	b7bd                	j	0x1aac2
   1ab56:	7741                	lui	a4,0xffff0
   1ab58:	8f69                	and	a4,a4,a0
   1ab5a:	87aa                	mv	a5,a0
   1ab5c:	4501                	li	a0,0
   1ab5e:	e701                	bnez	a4,0x1ab66
   1ab60:	0107979b          	slliw	a5,a5,0x10
   1ab64:	4541                	li	a0,16
   1ab66:	ff000737          	lui	a4,0xff000
   1ab6a:	8f7d                	and	a4,a4,a5
   1ab6c:	e701                	bnez	a4,0x1ab74
   1ab6e:	0087979b          	slliw	a5,a5,0x8
   1ab72:	2521                	addiw	a0,a0,8
   1ab74:	f0000737          	lui	a4,0xf0000
   1ab78:	8f7d                	and	a4,a4,a5
   1ab7a:	e701                	bnez	a4,0x1ab82
   1ab7c:	0047979b          	slliw	a5,a5,0x4
   1ab80:	2511                	addiw	a0,a0,4
   1ab82:	c0000737          	lui	a4,0xc0000
   1ab86:	8f7d                	and	a4,a4,a5
   1ab88:	e701                	bnez	a4,0x1ab90
   1ab8a:	0027979b          	slliw	a5,a5,0x2
   1ab8e:	2509                	addiw	a0,a0,2
   1ab90:	0007c763          	bltz	a5,0x1ab9e
   1ab94:	02179713          	slli	a4,a5,0x21
   1ab98:	2505                	addiw	a0,a0,1
   1ab9a:	00075363          	bgez	a4,0x1aba0
   1ab9e:	8082                	ret
   1aba0:	02000513          	li	a0,32
   1aba4:	8082                	ret
   1aba6:	411c                	lw	a5,0(a0)
   1aba8:	872a                	mv	a4,a0
   1abaa:	0077f693          	andi	a3,a5,7
   1abae:	863e                	mv	a2,a5
   1abb0:	ce81                	beqz	a3,0x1abc8
   1abb2:	0017f693          	andi	a3,a5,1
   1abb6:	4501                	li	a0,0
   1abb8:	eab9                	bnez	a3,0x1ac0e
   1abba:	8a09                	andi	a2,a2,2
   1abbc:	ce21                	beqz	a2,0x1ac14
   1abbe:	0017d79b          	srliw	a5,a5,0x1
   1abc2:	c31c                	sw	a5,0(a4)
   1abc4:	4505                	li	a0,1
   1abc6:	8082                	ret
   1abc8:	03079693          	slli	a3,a5,0x30
   1abcc:	92c1                	srli	a3,a3,0x30
   1abce:	4501                	li	a0,0
   1abd0:	e681                	bnez	a3,0x1abd8
   1abd2:	0107d79b          	srliw	a5,a5,0x10
   1abd6:	4541                	li	a0,16
   1abd8:	0ff7f693          	andi	a3,a5,255
   1abdc:	e681                	bnez	a3,0x1abe4
   1abde:	2521                	addiw	a0,a0,8
   1abe0:	0087d79b          	srliw	a5,a5,0x8
   1abe4:	00f7f693          	andi	a3,a5,15
   1abe8:	e681                	bnez	a3,0x1abf0
   1abea:	2511                	addiw	a0,a0,4
   1abec:	0047d79b          	srliw	a5,a5,0x4
   1abf0:	0037f693          	andi	a3,a5,3
   1abf4:	e681                	bnez	a3,0x1abfc
   1abf6:	2509                	addiw	a0,a0,2
   1abf8:	0027d79b          	srliw	a5,a5,0x2
   1abfc:	0017f693          	andi	a3,a5,1
   1ac00:	ea81                	bnez	a3,0x1ac10
   1ac02:	0017d79b          	srliw	a5,a5,0x1
   1ac06:	2505                	addiw	a0,a0,1
   1ac08:	e781                	bnez	a5,0x1ac10
   1ac0a:	02000513          	li	a0,32
   1ac0e:	8082                	ret
   1ac10:	c31c                	sw	a5,0(a4)
   1ac12:	8082                	ret
   1ac14:	0027d79b          	srliw	a5,a5,0x2
   1ac18:	c31c                	sw	a5,0(a4)
   1ac1a:	4509                	li	a0,2
   1ac1c:	8082                	ret
   1ac1e:	1141                	addi	sp,sp,-16
   1ac20:	e022                	sd	s0,0(sp)
   1ac22:	842e                	mv	s0,a1
   1ac24:	4585                	li	a1,1
   1ac26:	e406                	sd	ra,8(sp)
   1ac28:	d2fff0ef          	jal	ra,0x1a956
   1ac2c:	60a2                	ld	ra,8(sp)
   1ac2e:	cd00                	sw	s0,24(a0)
   1ac30:	6402                	ld	s0,0(sp)
   1ac32:	4705                	li	a4,1
   1ac34:	c958                	sw	a4,20(a0)
   1ac36:	0141                	addi	sp,sp,16
   1ac38:	8082                	ret
   1ac3a:	7179                	addi	sp,sp,-48
   1ac3c:	e84a                	sd	s2,16(sp)
   1ac3e:	e44e                	sd	s3,8(sp)
   1ac40:	01462903          	lw	s2,20(a2)
   1ac44:	0145a983          	lw	s3,20(a1)
   1ac48:	ec26                	sd	s1,24(sp)
   1ac4a:	e052                	sd	s4,0(sp)
   1ac4c:	f406                	sd	ra,40(sp)
   1ac4e:	f022                	sd	s0,32(sp)
   1ac50:	8a2e                	mv	s4,a1
   1ac52:	84b2                	mv	s1,a2
   1ac54:	0129c763          	blt	s3,s2,0x1ac62
   1ac58:	87ca                	mv	a5,s2
   1ac5a:	84ae                	mv	s1,a1
   1ac5c:	894e                	mv	s2,s3
   1ac5e:	8a32                	mv	s4,a2
   1ac60:	89be                	mv	s3,a5
   1ac62:	44dc                	lw	a5,12(s1)
   1ac64:	0139043b          	addw	s0,s2,s3
   1ac68:	448c                	lw	a1,8(s1)
   1ac6a:	0087d363          	bge	a5,s0,0x1ac70
   1ac6e:	2585                	addiw	a1,a1,1
   1ac70:	ce7ff0ef          	jal	ra,0x1a956
   1ac74:	01850313          	addi	t1,a0,24
   1ac78:	00241893          	slli	a7,s0,0x2
   1ac7c:	989a                	add	a7,a7,t1
   1ac7e:	879a                	mv	a5,t1
   1ac80:	01137763          	bgeu	t1,a7,0x1ac8e
   1ac84:	0007a023          	sw	zero,0(a5)
   1ac88:	0791                	addi	a5,a5,4
   1ac8a:	ff17ede3          	bltu	a5,a7,0x1ac84
   1ac8e:	018a0813          	addi	a6,s4,24
   1ac92:	00299e13          	slli	t3,s3,0x2
   1ac96:	01848e93          	addi	t4,s1,24
   1ac9a:	00291593          	slli	a1,s2,0x2
   1ac9e:	9e42                	add	t3,t3,a6
   1aca0:	95f6                	add	a1,a1,t4
   1aca2:	0fc87a63          	bgeu	a6,t3,0x1ad96
   1aca6:	01948793          	addi	a5,s1,25
   1acaa:	4f11                	li	t5,4
   1acac:	10f5f763          	bgeu	a1,a5,0x1adba
   1acb0:	6641                	lui	a2,0x10
   1acb2:	167d                	addi	a2,a2,-1
   1acb4:	a809                	j	0x1acc6
   1acb6:	0102d29b          	srliw	t0,t0,0x10
   1acba:	06029c63          	bnez	t0,0x1ad32
   1acbe:	0811                	addi	a6,a6,4
   1acc0:	0311                	addi	t1,t1,4
   1acc2:	0dc87a63          	bgeu	a6,t3,0x1ad96
   1acc6:	00082283          	lw	t0,0(a6)
   1acca:	00c2f4b3          	and	s1,t0,a2
   1acce:	d4e5                	beqz	s1,0x1acb6
   1acd0:	839a                	mv	t2,t1
   1acd2:	82f6                	mv	t0,t4
   1acd4:	4901                	li	s2,0
   1acd6:	0002a683          	lw	a3,0(t0) # 0x12eec
   1acda:	0003af83          	lw	t6,0(t2)
   1acde:	0391                	addi	t2,t2,4
   1ace0:	00c6f7b3          	and	a5,a3,a2
   1ace4:	029787bb          	mulw	a5,a5,s1
   1ace8:	0106d71b          	srliw	a4,a3,0x10
   1acec:	00cff6b3          	and	a3,t6,a2
   1acf0:	010fdf9b          	srliw	t6,t6,0x10
   1acf4:	0291                	addi	t0,t0,4
   1acf6:	0297073b          	mulw	a4,a4,s1
   1acfa:	9fb5                	addw	a5,a5,a3
   1acfc:	012787bb          	addw	a5,a5,s2
   1ad00:	0107d69b          	srliw	a3,a5,0x10
   1ad04:	8ff1                	and	a5,a5,a2
   1ad06:	01f7073b          	addw	a4,a4,t6
   1ad0a:	9f35                	addw	a4,a4,a3
   1ad0c:	0107169b          	slliw	a3,a4,0x10
   1ad10:	8fd5                	or	a5,a5,a3
   1ad12:	fef3ae23          	sw	a5,-4(t2)
   1ad16:	0107591b          	srliw	s2,a4,0x10
   1ad1a:	fab2eee3          	bltu	t0,a1,0x1acd6
   1ad1e:	01e307b3          	add	a5,t1,t5
   1ad22:	0127a023          	sw	s2,0(a5)
   1ad26:	00082283          	lw	t0,0(a6)
   1ad2a:	0102d29b          	srliw	t0,t0,0x10
   1ad2e:	f80288e3          	beqz	t0,0x1acbe
   1ad32:	00032683          	lw	a3,0(t1) # 0x10000
   1ad36:	839a                	mv	t2,t1
   1ad38:	8ff6                	mv	t6,t4
   1ad3a:	84b6                	mv	s1,a3
   1ad3c:	4701                	li	a4,0
   1ad3e:	000fa783          	lw	a5,0(t6)
   1ad42:	0104d99b          	srliw	s3,s1,0x10
   1ad46:	8ef1                	and	a3,a3,a2
   1ad48:	8ff1                	and	a5,a5,a2
   1ad4a:	025787bb          	mulw	a5,a5,t0
   1ad4e:	0043a483          	lw	s1,4(t2)
   1ad52:	0391                	addi	t2,t2,4
   1ad54:	0f91                	addi	t6,t6,4
   1ad56:	00c4f933          	and	s2,s1,a2
   1ad5a:	013787bb          	addw	a5,a5,s3
   1ad5e:	9fb9                	addw	a5,a5,a4
   1ad60:	0107971b          	slliw	a4,a5,0x10
   1ad64:	8ed9                	or	a3,a3,a4
   1ad66:	fed3ae23          	sw	a3,-4(t2)
   1ad6a:	ffefd703          	lhu	a4,-2(t6)
   1ad6e:	0107d79b          	srliw	a5,a5,0x10
   1ad72:	0257073b          	mulw	a4,a4,t0
   1ad76:	0127073b          	addw	a4,a4,s2
   1ad7a:	9fb9                	addw	a5,a5,a4
   1ad7c:	0007869b          	sext.w	a3,a5
   1ad80:	0107d71b          	srliw	a4,a5,0x10
   1ad84:	fabfede3          	bltu	t6,a1,0x1ad3e
   1ad88:	01e307b3          	add	a5,t1,t5
   1ad8c:	c394                	sw	a3,0(a5)
   1ad8e:	0811                	addi	a6,a6,4
   1ad90:	0311                	addi	t1,t1,4
   1ad92:	f3c86ae3          	bltu	a6,t3,0x1acc6
   1ad96:	00804563          	bgtz	s0,0x1ada0
   1ad9a:	a039                	j	0x1ada8
   1ad9c:	347d                	addiw	s0,s0,-1
   1ad9e:	c409                	beqz	s0,0x1ada8
   1ada0:	ffc8a783          	lw	a5,-4(a7)
   1ada4:	18f1                	addi	a7,a7,-4
   1ada6:	dbfd                	beqz	a5,0x1ad9c
   1ada8:	70a2                	ld	ra,40(sp)
   1adaa:	c940                	sw	s0,20(a0)
   1adac:	7402                	ld	s0,32(sp)
   1adae:	64e2                	ld	s1,24(sp)
   1adb0:	6942                	ld	s2,16(sp)
   1adb2:	69a2                	ld	s3,8(sp)
   1adb4:	6a02                	ld	s4,0(sp)
   1adb6:	6145                	addi	sp,sp,48
   1adb8:	8082                	ret
   1adba:	40958f33          	sub	t5,a1,s1
   1adbe:	1f1d                	addi	t5,t5,-25
   1adc0:	ffcf7f13          	andi	t5,t5,-4
   1adc4:	0f11                	addi	t5,t5,4
   1adc6:	b5ed                	j	0x1acb0
   1adc8:	7179                	addi	sp,sp,-48
   1adca:	f022                	sd	s0,32(sp)
   1adcc:	e44e                	sd	s3,8(sp)
   1adce:	e052                	sd	s4,0(sp)
   1add0:	f406                	sd	ra,40(sp)
   1add2:	ec26                	sd	s1,24(sp)
   1add4:	e84a                	sd	s2,16(sp)
   1add6:	00367793          	andi	a5,a2,3
   1adda:	8432                	mv	s0,a2
   1addc:	89aa                	mv	s3,a0
   1adde:	8a2e                	mv	s4,a1
   1ade0:	efad                	bnez	a5,0x1ae5a
   1ade2:	8409                	srai	s0,s0,0x2
   1ade4:	8952                	mv	s2,s4
   1ade6:	c429                	beqz	s0,0x1ae30
   1ade8:	0709b483          	ld	s1,112(s3)
   1adec:	c4c1                	beqz	s1,0x1ae74
   1adee:	00147793          	andi	a5,s0,1
   1adf2:	8952                	mv	s2,s4
   1adf4:	eb89                	bnez	a5,0x1ae06
   1adf6:	8405                	srai	s0,s0,0x1
   1adf8:	cc05                	beqz	s0,0x1ae30
   1adfa:	6088                	ld	a0,0(s1)
   1adfc:	c139                	beqz	a0,0x1ae42
   1adfe:	84aa                	mv	s1,a0
   1ae00:	00147793          	andi	a5,s0,1
   1ae04:	dbed                	beqz	a5,0x1adf6
   1ae06:	8626                	mv	a2,s1
   1ae08:	85ca                	mv	a1,s2
   1ae0a:	854e                	mv	a0,s3
   1ae0c:	e2fff0ef          	jal	ra,0x1ac3a
   1ae10:	04090363          	beqz	s2,0x1ae56
   1ae14:	00892703          	lw	a4,8(s2)
   1ae18:	0789b783          	ld	a5,120(s3)
   1ae1c:	8405                	srai	s0,s0,0x1
   1ae1e:	070e                	slli	a4,a4,0x3
   1ae20:	97ba                	add	a5,a5,a4
   1ae22:	6398                	ld	a4,0(a5)
   1ae24:	00e93023          	sd	a4,0(s2)
   1ae28:	0127b023          	sd	s2,0(a5)
   1ae2c:	892a                	mv	s2,a0
   1ae2e:	f471                	bnez	s0,0x1adfa
   1ae30:	70a2                	ld	ra,40(sp)
   1ae32:	7402                	ld	s0,32(sp)
   1ae34:	64e2                	ld	s1,24(sp)
   1ae36:	69a2                	ld	s3,8(sp)
   1ae38:	6a02                	ld	s4,0(sp)
   1ae3a:	854a                	mv	a0,s2
   1ae3c:	6942                	ld	s2,16(sp)
   1ae3e:	6145                	addi	sp,sp,48
   1ae40:	8082                	ret
   1ae42:	8626                	mv	a2,s1
   1ae44:	85a6                	mv	a1,s1
   1ae46:	854e                	mv	a0,s3
   1ae48:	df3ff0ef          	jal	ra,0x1ac3a
   1ae4c:	e088                	sd	a0,0(s1)
   1ae4e:	00053023          	sd	zero,0(a0)
   1ae52:	84aa                	mv	s1,a0
   1ae54:	b775                	j	0x1ae00
   1ae56:	892a                	mv	s2,a0
   1ae58:	bf79                	j	0x1adf6
   1ae5a:	37fd                	addiw	a5,a5,-1
   1ae5c:	00006717          	auipc	a4,0x6
   1ae60:	6fc70713          	addi	a4,a4,1788 # 0x21558
   1ae64:	078a                	slli	a5,a5,0x2
   1ae66:	97ba                	add	a5,a5,a4
   1ae68:	4390                	lw	a2,0(a5)
   1ae6a:	4681                	li	a3,0
   1ae6c:	b61ff0ef          	jal	ra,0x1a9cc
   1ae70:	8a2a                	mv	s4,a0
   1ae72:	bf85                	j	0x1ade2
   1ae74:	4585                	li	a1,1
   1ae76:	854e                	mv	a0,s3
   1ae78:	adfff0ef          	jal	ra,0x1a956
   1ae7c:	27100793          	li	a5,625
   1ae80:	cd1c                	sw	a5,24(a0)
   1ae82:	4785                	li	a5,1
   1ae84:	c95c                	sw	a5,20(a0)
   1ae86:	06a9b823          	sd	a0,112(s3)
   1ae8a:	84aa                	mv	s1,a0
   1ae8c:	00053023          	sd	zero,0(a0)
   1ae90:	bfb9                	j	0x1adee
   1ae92:	7139                	addi	sp,sp,-64
   1ae94:	f04a                	sd	s2,32(sp)
   1ae96:	0145a903          	lw	s2,20(a1)
   1ae9a:	45dc                	lw	a5,12(a1)
   1ae9c:	e456                	sd	s5,8(sp)
   1ae9e:	40565a9b          	sraiw	s5,a2,0x5
   1aea2:	0159093b          	addw	s2,s2,s5
   1aea6:	f822                	sd	s0,48(sp)
   1aea8:	f426                	sd	s1,40(sp)
   1aeaa:	ec4e                	sd	s3,24(sp)
   1aeac:	e852                	sd	s4,16(sp)
   1aeae:	e05a                	sd	s6,0(sp)
   1aeb0:	fc06                	sd	ra,56(sp)
   1aeb2:	0019049b          	addiw	s1,s2,1
   1aeb6:	842e                	mv	s0,a1
   1aeb8:	8a32                	mv	s4,a2
   1aeba:	458c                	lw	a1,8(a1)
   1aebc:	89aa                	mv	s3,a0
   1aebe:	40565b13          	srai	s6,a2,0x5
   1aec2:	0097d763          	bge	a5,s1,0x1aed0
   1aec6:	0017979b          	slliw	a5,a5,0x1
   1aeca:	2585                	addiw	a1,a1,1
   1aecc:	fe97cde3          	blt	a5,s1,0x1aec6
   1aed0:	854e                	mv	a0,s3
   1aed2:	a85ff0ef          	jal	ra,0x1a956
   1aed6:	01850693          	addi	a3,a0,24
   1aeda:	03605363          	blez	s6,0x1af00
   1aede:	3afd                	addiw	s5,s5,-1
   1aee0:	1a82                	slli	s5,s5,0x20
   1aee2:	020ada93          	srli	s5,s5,0x20
   1aee6:	007a8713          	addi	a4,s5,7
   1aeea:	070a                	slli	a4,a4,0x2
   1aeec:	972a                	add	a4,a4,a0
   1aeee:	87b6                	mv	a5,a3
   1aef0:	0791                	addi	a5,a5,4
   1aef2:	fe07ae23          	sw	zero,-4(a5)
   1aef6:	fee79de3          	bne	a5,a4,0x1aef0
   1aefa:	0a85                	addi	s5,s5,1
   1aefc:	0a8a                	slli	s5,s5,0x2
   1aefe:	96d6                	add	a3,a3,s5
   1af00:	01442803          	lw	a6,20(s0)
   1af04:	01840793          	addi	a5,s0,24
   1af08:	01fa7593          	andi	a1,s4,31
   1af0c:	080a                	slli	a6,a6,0x2
   1af0e:	983e                	add	a6,a6,a5
   1af10:	c1b5                	beqz	a1,0x1af74
   1af12:	02000313          	li	t1,32
   1af16:	40b3033b          	subw	t1,t1,a1
   1af1a:	88b6                	mv	a7,a3
   1af1c:	4701                	li	a4,0
   1af1e:	4390                	lw	a2,0(a5)
   1af20:	0891                	addi	a7,a7,4
   1af22:	0791                	addi	a5,a5,4
   1af24:	00b6163b          	sllw	a2,a2,a1
   1af28:	8f51                	or	a4,a4,a2
   1af2a:	fee8ae23          	sw	a4,-4(a7)
   1af2e:	ffc7a703          	lw	a4,-4(a5)
   1af32:	0067573b          	srlw	a4,a4,t1
   1af36:	ff07e4e3          	bltu	a5,a6,0x1af1e
   1af3a:	01940613          	addi	a2,s0,25
   1af3e:	4791                	li	a5,4
   1af40:	04c87963          	bgeu	a6,a2,0x1af92
   1af44:	96be                	add	a3,a3,a5
   1af46:	c298                	sw	a4,0(a3)
   1af48:	c311                	beqz	a4,0x1af4c
   1af4a:	8926                	mv	s2,s1
   1af4c:	4418                	lw	a4,8(s0)
   1af4e:	0789b783          	ld	a5,120(s3)
   1af52:	01252a23          	sw	s2,20(a0)
   1af56:	070e                	slli	a4,a4,0x3
   1af58:	97ba                	add	a5,a5,a4
   1af5a:	6398                	ld	a4,0(a5)
   1af5c:	70e2                	ld	ra,56(sp)
   1af5e:	74a2                	ld	s1,40(sp)
   1af60:	e018                	sd	a4,0(s0)
   1af62:	e380                	sd	s0,0(a5)
   1af64:	7442                	ld	s0,48(sp)
   1af66:	7902                	ld	s2,32(sp)
   1af68:	69e2                	ld	s3,24(sp)
   1af6a:	6a42                	ld	s4,16(sp)
   1af6c:	6aa2                	ld	s5,8(sp)
   1af6e:	6b02                	ld	s6,0(sp)
   1af70:	6121                	addi	sp,sp,64
   1af72:	8082                	ret
   1af74:	4398                	lw	a4,0(a5)
   1af76:	0791                	addi	a5,a5,4
   1af78:	0691                	addi	a3,a3,4
   1af7a:	fee6ae23          	sw	a4,-4(a3)
   1af7e:	fd07f7e3          	bgeu	a5,a6,0x1af4c
   1af82:	4398                	lw	a4,0(a5)
   1af84:	0791                	addi	a5,a5,4
   1af86:	0691                	addi	a3,a3,4
   1af88:	fee6ae23          	sw	a4,-4(a3)
   1af8c:	ff07e4e3          	bltu	a5,a6,0x1af74
   1af90:	bf75                	j	0x1af4c
   1af92:	408807b3          	sub	a5,a6,s0
   1af96:	179d                	addi	a5,a5,-25
   1af98:	9bf1                	andi	a5,a5,-4
   1af9a:	0791                	addi	a5,a5,4
   1af9c:	96be                	add	a3,a3,a5
   1af9e:	c298                	sw	a4,0(a3)
   1afa0:	d755                	beqz	a4,0x1af4c
   1afa2:	b765                	j	0x1af4a
   1afa4:	49dc                	lw	a5,20(a1)
   1afa6:	882a                	mv	a6,a0
   1afa8:	4948                	lw	a0,20(a0)
   1afaa:	9d1d                	subw	a0,a0,a5
   1afac:	e50d                	bnez	a0,0x1afd6
   1afae:	078a                	slli	a5,a5,0x2
   1afb0:	0861                	addi	a6,a6,24
   1afb2:	05e1                	addi	a1,a1,24
   1afb4:	00f80733          	add	a4,a6,a5
   1afb8:	97ae                	add	a5,a5,a1
   1afba:	a019                	j	0x1afc0
   1afbc:	00e87d63          	bgeu	a6,a4,0x1afd6
   1afc0:	ffc72603          	lw	a2,-4(a4)
   1afc4:	ffc7a683          	lw	a3,-4(a5)
   1afc8:	1771                	addi	a4,a4,-4
   1afca:	17f1                	addi	a5,a5,-4
   1afcc:	fed608e3          	beq	a2,a3,0x1afbc
   1afd0:	557d                	li	a0,-1
   1afd2:	00d67363          	bgeu	a2,a3,0x1afd8
   1afd6:	8082                	ret
   1afd8:	4505                	li	a0,1
   1afda:	8082                	ret
   1afdc:	7179                	addi	sp,sp,-48
   1afde:	4a58                	lw	a4,20(a2)
   1afe0:	e052                	sd	s4,0(sp)
   1afe2:	0145aa03          	lw	s4,20(a1)
   1afe6:	f022                	sd	s0,32(sp)
   1afe8:	ec26                	sd	s1,24(sp)
   1afea:	e84a                	sd	s2,16(sp)
   1afec:	e44e                	sd	s3,8(sp)
   1afee:	f406                	sd	ra,40(sp)
   1aff0:	40ea0a3b          	subw	s4,s4,a4
   1aff4:	892e                	mv	s2,a1
   1aff6:	89b2                	mv	s3,a2
   1aff8:	01858413          	addi	s0,a1,24
   1affc:	01860493          	addi	s1,a2,24 # 0x10018
   1b000:	020a1b63          	bnez	s4,0x1b036
   1b004:	070a                	slli	a4,a4,0x2
   1b006:	00e407b3          	add	a5,s0,a4
   1b00a:	9726                	add	a4,a4,s1
   1b00c:	a019                	j	0x1b012
   1b00e:	12f47563          	bgeu	s0,a5,0x1b138
   1b012:	ffc7a803          	lw	a6,-4(a5)
   1b016:	ffc72683          	lw	a3,-4(a4)
   1b01a:	17f1                	addi	a5,a5,-4
   1b01c:	1771                	addi	a4,a4,-4
   1b01e:	fed808e3          	beq	a6,a3,0x1b00e
   1b022:	00d87d63          	bgeu	a6,a3,0x1b03c
   1b026:	8722                	mv	a4,s0
   1b028:	87ca                	mv	a5,s2
   1b02a:	8426                	mv	s0,s1
   1b02c:	894e                	mv	s2,s3
   1b02e:	84ba                	mv	s1,a4
   1b030:	89be                	mv	s3,a5
   1b032:	4a05                	li	s4,1
   1b034:	a021                	j	0x1b03c
   1b036:	fe0a48e3          	bltz	s4,0x1b026
   1b03a:	4a01                	li	s4,0
   1b03c:	00892583          	lw	a1,8(s2)
   1b040:	917ff0ef          	jal	ra,0x1a956
   1b044:	01492803          	lw	a6,20(s2)
   1b048:	0149af03          	lw	t5,20(s3)
   1b04c:	01850f93          	addi	t6,a0,24
   1b050:	00281893          	slli	a7,a6,0x2
   1b054:	0f0a                	slli	t5,t5,0x2
   1b056:	6341                	lui	t1,0x10
   1b058:	01452823          	sw	s4,16(a0)
   1b05c:	98a2                	add	a7,a7,s0
   1b05e:	9f26                	add	t5,t5,s1
   1b060:	8efe                	mv	t4,t6
   1b062:	85a6                	mv	a1,s1
   1b064:	8e22                	mv	t3,s0
   1b066:	4701                	li	a4,0
   1b068:	137d                	addi	t1,t1,-1
   1b06a:	000e2683          	lw	a3,0(t3)
   1b06e:	4190                	lw	a2,0(a1)
   1b070:	0e91                	addi	t4,t4,4
   1b072:	0066f7b3          	and	a5,a3,t1
   1b076:	9fb9                	addw	a5,a5,a4
   1b078:	00667733          	and	a4,a2,t1
   1b07c:	9f99                	subw	a5,a5,a4
   1b07e:	0106561b          	srliw	a2,a2,0x10
   1b082:	0106d71b          	srliw	a4,a3,0x10
   1b086:	9f11                	subw	a4,a4,a2
   1b088:	4107d69b          	sraiw	a3,a5,0x10
   1b08c:	9f35                	addw	a4,a4,a3
   1b08e:	0107169b          	slliw	a3,a4,0x10
   1b092:	0067f7b3          	and	a5,a5,t1
   1b096:	8fd5                	or	a5,a5,a3
   1b098:	2781                	sext.w	a5,a5
   1b09a:	0591                	addi	a1,a1,4
   1b09c:	fefeae23          	sw	a5,-4(t4)
   1b0a0:	0e11                	addi	t3,t3,4
   1b0a2:	4107571b          	sraiw	a4,a4,0x10
   1b0a6:	fde5e2e3          	bltu	a1,t5,0x1b06a
   1b0aa:	fff4c613          	not	a2,s1
   1b0ae:	967a                	add	a2,a2,t5
   1b0b0:	0485                	addi	s1,s1,1
   1b0b2:	8209                	srli	a2,a2,0x2
   1b0b4:	4681                	li	a3,0
   1b0b6:	009f6463          	bltu	t5,s1,0x1b0be
   1b0ba:	00261693          	slli	a3,a2,0x2
   1b0be:	96fe                	add	a3,a3,t6
   1b0c0:	4591                	li	a1,4
   1b0c2:	009f6563          	bltu	t5,s1,0x1b0cc
   1b0c6:	0605                	addi	a2,a2,1
   1b0c8:	00261593          	slli	a1,a2,0x2
   1b0cc:	942e                	add	s0,s0,a1
   1b0ce:	9fae                	add	t6,t6,a1
   1b0d0:	05147463          	bgeu	s0,a7,0x1b118
   1b0d4:	6341                	lui	t1,0x10
   1b0d6:	85fe                	mv	a1,t6
   1b0d8:	8622                	mv	a2,s0
   1b0da:	137d                	addi	t1,t1,-1
   1b0dc:	4214                	lw	a3,0(a2)
   1b0de:	0591                	addi	a1,a1,4
   1b0e0:	0611                	addi	a2,a2,4
   1b0e2:	0066f7b3          	and	a5,a3,t1
   1b0e6:	9fb9                	addw	a5,a5,a4
   1b0e8:	4107de1b          	sraiw	t3,a5,0x10
   1b0ec:	0106d71b          	srliw	a4,a3,0x10
   1b0f0:	01c7073b          	addw	a4,a4,t3
   1b0f4:	01071e1b          	slliw	t3,a4,0x10
   1b0f8:	0067f7b3          	and	a5,a5,t1
   1b0fc:	01c7e7b3          	or	a5,a5,t3
   1b100:	2781                	sext.w	a5,a5
   1b102:	fef5ae23          	sw	a5,-4(a1)
   1b106:	4107571b          	sraiw	a4,a4,0x10
   1b10a:	fd1669e3          	bltu	a2,a7,0x1b0dc
   1b10e:	fff88693          	addi	a3,a7,-1
   1b112:	8e81                	sub	a3,a3,s0
   1b114:	9af1                	andi	a3,a3,-4
   1b116:	96fe                	add	a3,a3,t6
   1b118:	e791                	bnez	a5,0x1b124
   1b11a:	ffc6a783          	lw	a5,-4(a3)
   1b11e:	387d                	addiw	a6,a6,-1
   1b120:	16f1                	addi	a3,a3,-4
   1b122:	dfe5                	beqz	a5,0x1b11a
   1b124:	70a2                	ld	ra,40(sp)
   1b126:	7402                	ld	s0,32(sp)
   1b128:	01052a23          	sw	a6,20(a0)
   1b12c:	64e2                	ld	s1,24(sp)
   1b12e:	6942                	ld	s2,16(sp)
   1b130:	69a2                	ld	s3,8(sp)
   1b132:	6a02                	ld	s4,0(sp)
   1b134:	6145                	addi	sp,sp,48
   1b136:	8082                	ret
   1b138:	4581                	li	a1,0
   1b13a:	81dff0ef          	jal	ra,0x1a956
   1b13e:	70a2                	ld	ra,40(sp)
   1b140:	7402                	ld	s0,32(sp)
   1b142:	4785                	li	a5,1
   1b144:	c95c                	sw	a5,20(a0)
   1b146:	00052c23          	sw	zero,24(a0)
   1b14a:	64e2                	ld	s1,24(sp)
   1b14c:	6942                	ld	s2,16(sp)
   1b14e:	69a2                	ld	s3,8(sp)
   1b150:	6a02                	ld	s4,0(sp)
   1b152:	6145                	addi	sp,sp,48
   1b154:	8082                	ret
   1b156:	e20507d3          	fmv.x.d	a5,fa0
   1b15a:	7ff00737          	lui	a4,0x7ff00
   1b15e:	9381                	srli	a5,a5,0x20
   1b160:	8f7d                	and	a4,a4,a5
   1b162:	fcc007b7          	lui	a5,0xfcc00
   1b166:	9fb9                	addw	a5,a5,a4
   1b168:	0007871b          	sext.w	a4,a5
   1b16c:	00e05663          	blez	a4,0x1b178
   1b170:	1782                	slli	a5,a5,0x20
   1b172:	f2078553          	fmv.d.x	fa0,a5
   1b176:	8082                	ret
   1b178:	40f007bb          	negw	a5,a5
   1b17c:	4147d71b          	sraiw	a4,a5,0x14
   1b180:	46cd                	li	a3,19
   1b182:	00e6c763          	blt	a3,a4,0x1b190
   1b186:	000807b7          	lui	a5,0x80
   1b18a:	40e7d7bb          	sraw	a5,a5,a4
   1b18e:	b7cd                	j	0x1b170
   1b190:	fec7069b          	addiw	a3,a4,-20
   1b194:	4679                	li	a2,30
   1b196:	4781                	li	a5,0
   1b198:	4705                	li	a4,1
   1b19a:	00d64663          	blt	a2,a3,0x1b1a6
   1b19e:	80000737          	lui	a4,0x80000
   1b1a2:	00d7573b          	srlw	a4,a4,a3
   1b1a6:	9381                	srli	a5,a5,0x20
   1b1a8:	1702                	slli	a4,a4,0x20
   1b1aa:	9301                	srli	a4,a4,0x20
   1b1ac:	1782                	slli	a5,a5,0x20
   1b1ae:	8fd9                	or	a5,a5,a4
   1b1b0:	f2078553          	fmv.d.x	fa0,a5
   1b1b4:	8082                	ret
   1b1b6:	7179                	addi	sp,sp,-48
   1b1b8:	ec26                	sd	s1,24(sp)
   1b1ba:	4944                	lw	s1,20(a0)
   1b1bc:	f022                	sd	s0,32(sp)
   1b1be:	01850413          	addi	s0,a0,24
   1b1c2:	048a                	slli	s1,s1,0x2
   1b1c4:	94a2                	add	s1,s1,s0
   1b1c6:	e84a                	sd	s2,16(sp)
   1b1c8:	ffc4a903          	lw	s2,-4(s1)
   1b1cc:	e44e                	sd	s3,8(sp)
   1b1ce:	e052                	sd	s4,0(sp)
   1b1d0:	854a                	mv	a0,s2
   1b1d2:	89ae                	mv	s3,a1
   1b1d4:	f406                	sd	ra,40(sp)
   1b1d6:	981ff0ef          	jal	ra,0x1ab56
   1b1da:	02000693          	li	a3,32
   1b1de:	40a687bb          	subw	a5,a3,a0
   1b1e2:	00f9a023          	sw	a5,0(s3)
   1b1e6:	47a9                	li	a5,10
   1b1e8:	ffc48a13          	addi	s4,s1,-4
   1b1ec:	08a7d063          	bge	a5,a0,0x1b26c
   1b1f0:	ff55079b          	addiw	a5,a0,-11
   1b1f4:	05447863          	bgeu	s0,s4,0x1b244
   1b1f8:	ff84a703          	lw	a4,-8(s1)
   1b1fc:	c7b1                	beqz	a5,0x1b248
   1b1fe:	40f6853b          	subw	a0,a3,a5
   1b202:	00f916bb          	sllw	a3,s2,a5
   1b206:	00a7593b          	srlw	s2,a4,a0
   1b20a:	0126e6b3          	or	a3,a3,s2
   1b20e:	3ff00937          	lui	s2,0x3ff00
   1b212:	0126e6b3          	or	a3,a3,s2
   1b216:	00f7173b          	sllw	a4,a4,a5
   1b21a:	ff848613          	addi	a2,s1,-8
   1b21e:	02069793          	slli	a5,a3,0x20
   1b222:	0007069b          	sext.w	a3,a4
   1b226:	00c47963          	bgeu	s0,a2,0x1b238
   1b22a:	ff44a683          	lw	a3,-12(s1)
   1b22e:	00a6d53b          	srlw	a0,a3,a0
   1b232:	00e566b3          	or	a3,a0,a4
   1b236:	2681                	sext.w	a3,a3
   1b238:	9381                	srli	a5,a5,0x20
   1b23a:	1682                	slli	a3,a3,0x20
   1b23c:	9281                	srli	a3,a3,0x20
   1b23e:	1782                	slli	a5,a5,0x20
   1b240:	8fd5                	or	a5,a5,a3
   1b242:	a819                	j	0x1b258
   1b244:	4701                	li	a4,0
   1b246:	efa1                	bnez	a5,0x1b29e
   1b248:	3ff007b7          	lui	a5,0x3ff00
   1b24c:	00f967b3          	or	a5,s2,a5
   1b250:	1702                	slli	a4,a4,0x20
   1b252:	9301                	srli	a4,a4,0x20
   1b254:	1782                	slli	a5,a5,0x20
   1b256:	8fd9                	or	a5,a5,a4
   1b258:	70a2                	ld	ra,40(sp)
   1b25a:	7402                	ld	s0,32(sp)
   1b25c:	64e2                	ld	s1,24(sp)
   1b25e:	6942                	ld	s2,16(sp)
   1b260:	69a2                	ld	s3,8(sp)
   1b262:	6a02                	ld	s4,0(sp)
   1b264:	f2078553          	fmv.d.x	fa0,a5
   1b268:	6145                	addi	sp,sp,48
   1b26a:	8082                	ret
   1b26c:	46ad                	li	a3,11
   1b26e:	9e89                	subw	a3,a3,a0
   1b270:	3ff00737          	lui	a4,0x3ff00
   1b274:	00d957bb          	srlw	a5,s2,a3
   1b278:	8fd9                	or	a5,a5,a4
   1b27a:	1782                	slli	a5,a5,0x20
   1b27c:	4701                	li	a4,0
   1b27e:	01447663          	bgeu	s0,s4,0x1b28a
   1b282:	ff84a703          	lw	a4,-8(s1)
   1b286:	00d7573b          	srlw	a4,a4,a3
   1b28a:	2555                	addiw	a0,a0,21
   1b28c:	00a9153b          	sllw	a0,s2,a0
   1b290:	8d59                	or	a0,a0,a4
   1b292:	9381                	srli	a5,a5,0x20
   1b294:	1502                	slli	a0,a0,0x20
   1b296:	9101                	srli	a0,a0,0x20
   1b298:	1782                	slli	a5,a5,0x20
   1b29a:	8fc9                	or	a5,a5,a0
   1b29c:	bf75                	j	0x1b258
   1b29e:	00f917bb          	sllw	a5,s2,a5
   1b2a2:	3ff00937          	lui	s2,0x3ff00
   1b2a6:	0127e7b3          	or	a5,a5,s2
   1b2aa:	1782                	slli	a5,a5,0x20
   1b2ac:	4681                	li	a3,0
   1b2ae:	b769                	j	0x1b238
   1b2b0:	7139                	addi	sp,sp,-64
   1b2b2:	f822                	sd	s0,48(sp)
   1b2b4:	e2050453          	fmv.x.d	s0,fa0
   1b2b8:	ec4e                	sd	s3,24(sp)
   1b2ba:	89ae                	mv	s3,a1
   1b2bc:	4585                	li	a1,1
   1b2be:	f426                	sd	s1,40(sp)
   1b2c0:	f04a                	sd	s2,32(sp)
   1b2c2:	e852                	sd	s4,16(sp)
   1b2c4:	fc06                	sd	ra,56(sp)
   1b2c6:	8932                	mv	s2,a2
   1b2c8:	e8eff0ef          	jal	ra,0x1a956
   1b2cc:	42045793          	srai	a5,s0,0x20
   1b2d0:	02c79713          	slli	a4,a5,0x2c
   1b2d4:	0147d79b          	srliw	a5,a5,0x14
   1b2d8:	03579693          	slli	a3,a5,0x35
   1b2dc:	84aa                	mv	s1,a0
   1b2de:	9331                	srli	a4,a4,0x2c
   1b2e0:	7ff7fa13          	andi	s4,a5,2047
   1b2e4:	c681                	beqz	a3,0x1b2ec
   1b2e6:	001007b7          	lui	a5,0x100
   1b2ea:	8f5d                	or	a4,a4,a5
   1b2ec:	c63a                	sw	a4,12(sp)
   1b2ee:	2401                	sext.w	s0,s0
   1b2f0:	c429                	beqz	s0,0x1b33a
   1b2f2:	0028                	addi	a0,sp,8
   1b2f4:	c422                	sw	s0,8(sp)
   1b2f6:	8b1ff0ef          	jal	ra,0x1aba6
   1b2fa:	ed25                	bnez	a0,0x1b372
   1b2fc:	4722                	lw	a4,8(sp)
   1b2fe:	47b2                	lw	a5,12(sp)
   1b300:	cc98                	sw	a4,24(s1)
   1b302:	00f03433          	snez	s0,a5
   1b306:	0405                	addi	s0,s0,1
   1b308:	ccdc                	sw	a5,28(s1)
   1b30a:	c8c0                	sw	s0,20(s1)
   1b30c:	040a0363          	beqz	s4,0x1b352
   1b310:	bcda0a1b          	addiw	s4,s4,-1075
   1b314:	00aa0a3b          	addw	s4,s4,a0
   1b318:	03500793          	li	a5,53
   1b31c:	0149a023          	sw	s4,0(s3)
   1b320:	40a7853b          	subw	a0,a5,a0
   1b324:	00a92023          	sw	a0,0(s2) # 0x3ff00000
   1b328:	70e2                	ld	ra,56(sp)
   1b32a:	7442                	ld	s0,48(sp)
   1b32c:	7902                	ld	s2,32(sp)
   1b32e:	69e2                	ld	s3,24(sp)
   1b330:	6a42                	ld	s4,16(sp)
   1b332:	8526                	mv	a0,s1
   1b334:	74a2                	ld	s1,40(sp)
   1b336:	6121                	addi	sp,sp,64
   1b338:	8082                	ret
   1b33a:	0068                	addi	a0,sp,12
   1b33c:	86bff0ef          	jal	ra,0x1aba6
   1b340:	4785                	li	a5,1
   1b342:	c8dc                	sw	a5,20(s1)
   1b344:	47b2                	lw	a5,12(sp)
   1b346:	0205051b          	addiw	a0,a0,32
   1b34a:	4405                	li	s0,1
   1b34c:	cc9c                	sw	a5,24(s1)
   1b34e:	fc0a11e3          	bnez	s4,0x1b310
   1b352:	bce5051b          	addiw	a0,a0,-1074
   1b356:	00241793          	slli	a5,s0,0x2
   1b35a:	00a9a023          	sw	a0,0(s3)
   1b35e:	97a6                	add	a5,a5,s1
   1b360:	4bc8                	lw	a0,20(a5)
   1b362:	0054141b          	slliw	s0,s0,0x5
   1b366:	ff0ff0ef          	jal	ra,0x1ab56
   1b36a:	9c09                	subw	s0,s0,a0
   1b36c:	00892023          	sw	s0,0(s2)
   1b370:	bf65                	j	0x1b328
   1b372:	4732                	lw	a4,12(sp)
   1b374:	46a2                	lw	a3,8(sp)
   1b376:	02000793          	li	a5,32
   1b37a:	9f89                	subw	a5,a5,a0
   1b37c:	00f717bb          	sllw	a5,a4,a5
   1b380:	8fd5                	or	a5,a5,a3
   1b382:	00a7573b          	srlw	a4,a4,a0
   1b386:	cc9c                	sw	a5,24(s1)
   1b388:	c63a                	sw	a4,12(sp)
   1b38a:	0007079b          	sext.w	a5,a4
   1b38e:	bf95                	j	0x1b302
   1b390:	7179                	addi	sp,sp,-48
   1b392:	ec26                	sd	s1,24(sp)
   1b394:	84ae                	mv	s1,a1
   1b396:	002c                	addi	a1,sp,8
   1b398:	f406                	sd	ra,40(sp)
   1b39a:	f022                	sd	s0,32(sp)
   1b39c:	e84a                	sd	s2,16(sp)
   1b39e:	892a                	mv	s2,a0
   1b3a0:	e17ff0ef          	jal	ra,0x1b1b6
   1b3a4:	006c                	addi	a1,sp,12
   1b3a6:	8526                	mv	a0,s1
   1b3a8:	e2050453          	fmv.x.d	s0,fa0
   1b3ac:	e0bff0ef          	jal	ra,0x1b1b6
   1b3b0:	48d8                	lw	a4,20(s1)
   1b3b2:	01492783          	lw	a5,20(s2)
   1b3b6:	46b2                	lw	a3,12(sp)
   1b3b8:	9f99                	subw	a5,a5,a4
   1b3ba:	4722                	lw	a4,8(sp)
   1b3bc:	0057979b          	slliw	a5,a5,0x5
   1b3c0:	9f15                	subw	a4,a4,a3
   1b3c2:	00e786bb          	addw	a3,a5,a4
   1b3c6:	87b6                	mv	a5,a3
   1b3c8:	e2050753          	fmv.x.d	a4,fa0
   1b3cc:	02d05863          	blez	a3,0x1b3fc
   1b3d0:	02045693          	srli	a3,s0,0x20
   1b3d4:	0147979b          	slliw	a5,a5,0x14
   1b3d8:	9fb5                	addw	a5,a5,a3
   1b3da:	56fd                	li	a3,-1
   1b3dc:	9281                	srli	a3,a3,0x20
   1b3de:	1782                	slli	a5,a5,0x20
   1b3e0:	8c75                	and	s0,s0,a3
   1b3e2:	8c5d                	or	s0,s0,a5
   1b3e4:	f20407d3          	fmv.d.x	fa5,s0
   1b3e8:	70a2                	ld	ra,40(sp)
   1b3ea:	7402                	ld	s0,32(sp)
   1b3ec:	f2070753          	fmv.d.x	fa4,a4
   1b3f0:	64e2                	ld	s1,24(sp)
   1b3f2:	6942                	ld	s2,16(sp)
   1b3f4:	1ae7f553          	fdiv.d	fa0,fa5,fa4
   1b3f8:	6145                	addi	sp,sp,48
   1b3fa:	8082                	ret
   1b3fc:	02075693          	srli	a3,a4,0x20
   1b400:	0147979b          	slliw	a5,a5,0x14
   1b404:	40f687bb          	subw	a5,a3,a5
   1b408:	56fd                	li	a3,-1
   1b40a:	9281                	srli	a3,a3,0x20
   1b40c:	1782                	slli	a5,a5,0x20
   1b40e:	8f75                	and	a4,a4,a3
   1b410:	8f5d                	or	a4,a4,a5
   1b412:	bfc9                	j	0x1b3e4
   1b414:	47dd                	li	a5,23
   1b416:	00a7df63          	bge	a5,a0,0x1b434
   1b41a:	00008797          	auipc	a5,0x8
   1b41e:	7fe7b507          	fld	fa0,2046(a5) # 0x23c18
   1b422:	00009797          	auipc	a5,0x9
   1b426:	83e7b787          	fld	fa5,-1986(a5) # 0x23c60
   1b42a:	357d                	addiw	a0,a0,-1
   1b42c:	12f57553          	fmul.d	fa0,fa0,fa5
   1b430:	fd6d                	bnez	a0,0x1b42a
   1b432:	8082                	ret
   1b434:	00006797          	auipc	a5,0x6
   1b438:	12478793          	addi	a5,a5,292 # 0x21558
   1b43c:	050e                	slli	a0,a0,0x3
   1b43e:	953e                	add	a0,a0,a5
   1b440:	2908                	fld	fa0,16(a0)
   1b442:	8082                	ret
   1b444:	4a54                	lw	a3,20(a2)
   1b446:	35fd                	addiw	a1,a1,-1
   1b448:	4055d59b          	sraiw	a1,a1,0x5
   1b44c:	0585                	addi	a1,a1,1
   1b44e:	01860793          	addi	a5,a2,24
   1b452:	068a                	slli	a3,a3,0x2
   1b454:	058a                	slli	a1,a1,0x2
   1b456:	96be                	add	a3,a3,a5
   1b458:	95aa                	add	a1,a1,a0
   1b45a:	02d7f163          	bgeu	a5,a3,0x1b47c
   1b45e:	872a                	mv	a4,a0
   1b460:	0007a803          	lw	a6,0(a5)
   1b464:	0791                	addi	a5,a5,4
   1b466:	0711                	addi	a4,a4,4
   1b468:	ff072e23          	sw	a6,-4(a4) # 0x3feffffc
   1b46c:	fed7eae3          	bltu	a5,a3,0x1b460
   1b470:	40c687b3          	sub	a5,a3,a2
   1b474:	179d                	addi	a5,a5,-25
   1b476:	9bf1                	andi	a5,a5,-4
   1b478:	0791                	addi	a5,a5,4
   1b47a:	953e                	add	a0,a0,a5
   1b47c:	00b57763          	bgeu	a0,a1,0x1b48a
   1b480:	0511                	addi	a0,a0,4
   1b482:	fe052e23          	sw	zero,-4(a0)
   1b486:	feb56de3          	bltu	a0,a1,0x1b480
   1b48a:	8082                	ret
   1b48c:	4958                	lw	a4,20(a0)
   1b48e:	4055d613          	srai	a2,a1,0x5
   1b492:	01850693          	addi	a3,a0,24
   1b496:	00c75d63          	bge	a4,a2,0x1b4b0
   1b49a:	00271793          	slli	a5,a4,0x2
   1b49e:	97b6                	add	a5,a5,a3
   1b4a0:	02f6f863          	bgeu	a3,a5,0x1b4d0
   1b4a4:	ffc7a703          	lw	a4,-4(a5)
   1b4a8:	17f1                	addi	a5,a5,-4
   1b4aa:	db7d                	beqz	a4,0x1b4a0
   1b4ac:	4505                	li	a0,1
   1b4ae:	8082                	ret
   1b4b0:	00261793          	slli	a5,a2,0x2
   1b4b4:	97b6                	add	a5,a5,a3
   1b4b6:	fee655e3          	bge	a2,a4,0x1b4a0
   1b4ba:	89fd                	andi	a1,a1,31
   1b4bc:	d1f5                	beqz	a1,0x1b4a0
   1b4be:	4390                	lw	a2,0(a5)
   1b4c0:	4505                	li	a0,1
   1b4c2:	00b6573b          	srlw	a4,a2,a1
   1b4c6:	00b715bb          	sllw	a1,a4,a1
   1b4ca:	fcc58be3          	beq	a1,a2,0x1b4a0
   1b4ce:	8082                	ret
   1b4d0:	4501                	li	a0,0
   1b4d2:	8082                	ret
   1b4d4:	1141                	addi	sp,sp,-16
   1b4d6:	872e                	mv	a4,a1
   1b4d8:	e022                	sd	s0,0(sp)
   1b4da:	85b2                	mv	a1,a2
   1b4dc:	842a                	mv	s0,a0
   1b4de:	8636                	mv	a2,a3
   1b4e0:	853a                	mv	a0,a4
   1b4e2:	00009797          	auipc	a5,0x9
   1b4e6:	8607a323          	sw	zero,-1946(a5) # 0x23d48
   1b4ea:	e406                	sd	ra,8(sp)
   1b4ec:	14b030ef          	jal	ra,0x1ee36
   1b4f0:	57fd                	li	a5,-1
   1b4f2:	00f50663          	beq	a0,a5,0x1b4fe
   1b4f6:	60a2                	ld	ra,8(sp)
   1b4f8:	6402                	ld	s0,0(sp)
   1b4fa:	0141                	addi	sp,sp,16
   1b4fc:	8082                	ret
   1b4fe:	00009797          	auipc	a5,0x9
   1b502:	84a7a783          	lw	a5,-1974(a5) # 0x23d48
   1b506:	dbe5                	beqz	a5,0x1b4f6
   1b508:	60a2                	ld	ra,8(sp)
   1b50a:	c01c                	sw	a5,0(s0)
   1b50c:	6402                	ld	s0,0(sp)
   1b50e:	0141                	addi	sp,sp,16
   1b510:	8082                	ret
   1b512:	1141                	addi	sp,sp,-16
   1b514:	872e                	mv	a4,a1
   1b516:	e022                	sd	s0,0(sp)
   1b518:	85b2                	mv	a1,a2
   1b51a:	842a                	mv	s0,a0
   1b51c:	8636                	mv	a2,a3
   1b51e:	853a                	mv	a0,a4
   1b520:	00009797          	auipc	a5,0x9
   1b524:	8207a423          	sw	zero,-2008(a5) # 0x23d48
   1b528:	e406                	sd	ra,8(sp)
   1b52a:	13f030ef          	jal	ra,0x1ee68
   1b52e:	57fd                	li	a5,-1
   1b530:	00f50663          	beq	a0,a5,0x1b53c
   1b534:	60a2                	ld	ra,8(sp)
   1b536:	6402                	ld	s0,0(sp)
   1b538:	0141                	addi	sp,sp,16
   1b53a:	8082                	ret
   1b53c:	00009797          	auipc	a5,0x9
   1b540:	80c7a783          	lw	a5,-2036(a5) # 0x23d48
   1b544:	dbe5                	beqz	a5,0x1b534
   1b546:	60a2                	ld	ra,8(sp)
   1b548:	c01c                	sw	a5,0(s0)
   1b54a:	6402                	ld	s0,0(sp)
   1b54c:	0141                	addi	sp,sp,16
   1b54e:	8082                	ret
   1b550:	715d                	addi	sp,sp,-80
   1b552:	f84a                	sd	s2,48(sp)
   1b554:	e486                	sd	ra,72(sp)
   1b556:	e0a2                	sd	s0,64(sp)
   1b558:	fc26                	sd	s1,56(sp)
   1b55a:	f44e                	sd	s3,40(sp)
   1b55c:	f052                	sd	s4,32(sp)
   1b55e:	ec56                	sd	s5,24(sp)
   1b560:	e85a                	sd	s6,16(sp)
   1b562:	e45e                	sd	s7,8(sp)
   1b564:	e062                	sd	s8,0(sp)
   1b566:	8932                	mv	s2,a2
   1b568:	1a058163          	beqz	a1,0x1b70a
   1b56c:	842e                	mv	s0,a1
   1b56e:	8aaa                	mv	s5,a0
   1b570:	997f70ef          	jal	ra,0x12f06
   1b574:	ff843703          	ld	a4,-8(s0)
   1b578:	01790493          	addi	s1,s2,23
   1b57c:	02e00793          	li	a5,46
   1b580:	ff040b13          	addi	s6,s0,-16
   1b584:	ffc77a13          	andi	s4,a4,-4
   1b588:	0a97ff63          	bgeu	a5,s1,0x1b646
   1b58c:	800007b7          	lui	a5,0x80000
   1b590:	98c1                	andi	s1,s1,-16
   1b592:	fff7c793          	not	a5,a5
   1b596:	0a97ec63          	bltu	a5,s1,0x1b64e
   1b59a:	0b24ea63          	bltu	s1,s2,0x1b64e
   1b59e:	014b09b3          	add	s3,s6,s4
   1b5a2:	129a5263          	bge	s4,s1,0x1b6c6
   1b5a6:	00008b97          	auipc	s7,0x8
   1b5aa:	ca2b8b93          	addi	s7,s7,-862 # 0x23248
   1b5ae:	010bb683          	ld	a3,16(s7)
   1b5b2:	0089b783          	ld	a5,8(s3)
   1b5b6:	19368b63          	beq	a3,s3,0x1b74c
   1b5ba:	ffe7f693          	andi	a3,a5,-2
   1b5be:	96ce                	add	a3,a3,s3
   1b5c0:	6694                	ld	a3,8(a3)
   1b5c2:	8a85                	andi	a3,a3,1
   1b5c4:	12069863          	bnez	a3,0x1b6f4
   1b5c8:	9bf1                	andi	a5,a5,-4
   1b5ca:	00fa06b3          	add	a3,s4,a5
   1b5ce:	2496df63          	bge	a3,s1,0x1b82c
   1b5d2:	8b05                	andi	a4,a4,1
   1b5d4:	e30d                	bnez	a4,0x1b5f6
   1b5d6:	ff043c03          	ld	s8,-16(s0)
   1b5da:	418b0c33          	sub	s8,s6,s8
   1b5de:	008c3703          	ld	a4,8(s8) # 0x1008
   1b5e2:	9b71                	andi	a4,a4,-4
   1b5e4:	97ba                	add	a5,a5,a4
   1b5e6:	01478bb3          	add	s7,a5,s4
   1b5ea:	269bd663          	bge	s7,s1,0x1b856
   1b5ee:	00ea0bb3          	add	s7,s4,a4
   1b5f2:	069bdf63          	bge	s7,s1,0x1b670
   1b5f6:	85ca                	mv	a1,s2
   1b5f8:	8556                	mv	a0,s5
   1b5fa:	90cf70ef          	jal	ra,0x12706
   1b5fe:	892a                	mv	s2,a0
   1b600:	cd1d                	beqz	a0,0x1b63e
   1b602:	ff843783          	ld	a5,-8(s0)
   1b606:	ff050713          	addi	a4,a0,-16
   1b60a:	9bf9                	andi	a5,a5,-2
   1b60c:	97da                	add	a5,a5,s6
   1b60e:	22e78963          	beq	a5,a4,0x1b840
   1b612:	ff8a0613          	addi	a2,s4,-8
   1b616:	04800793          	li	a5,72
   1b61a:	22c7ea63          	bltu	a5,a2,0x1b84e
   1b61e:	02700713          	li	a4,39
   1b622:	6014                	ld	a3,0(s0)
   1b624:	1cc76363          	bltu	a4,a2,0x1b7ea
   1b628:	87aa                	mv	a5,a0
   1b62a:	8722                	mv	a4,s0
   1b62c:	e394                	sd	a3,0(a5)
   1b62e:	6714                	ld	a3,8(a4)
   1b630:	e794                	sd	a3,8(a5)
   1b632:	6b18                	ld	a4,16(a4)
   1b634:	eb98                	sd	a4,16(a5)
   1b636:	85a2                	mv	a1,s0
   1b638:	8556                	mv	a0,s5
   1b63a:	fbdfb0ef          	jal	ra,0x175f6
   1b63e:	8556                	mv	a0,s5
   1b640:	8c9f70ef          	jal	ra,0x12f08
   1b644:	a809                	j	0x1b656
   1b646:	02000493          	li	s1,32
   1b64a:	f524fae3          	bgeu	s1,s2,0x1b59e
   1b64e:	47b1                	li	a5,12
   1b650:	00faa023          	sw	a5,0(s5)
   1b654:	4901                	li	s2,0
   1b656:	60a6                	ld	ra,72(sp)
   1b658:	6406                	ld	s0,64(sp)
   1b65a:	74e2                	ld	s1,56(sp)
   1b65c:	79a2                	ld	s3,40(sp)
   1b65e:	7a02                	ld	s4,32(sp)
   1b660:	6ae2                	ld	s5,24(sp)
   1b662:	6b42                	ld	s6,16(sp)
   1b664:	6ba2                	ld	s7,8(sp)
   1b666:	6c02                	ld	s8,0(sp)
   1b668:	854a                	mv	a0,s2
   1b66a:	7942                	ld	s2,48(sp)
   1b66c:	6161                	addi	sp,sp,80
   1b66e:	8082                	ret
   1b670:	018c3783          	ld	a5,24(s8)
   1b674:	010c3703          	ld	a4,16(s8)
   1b678:	ff8a0613          	addi	a2,s4,-8
   1b67c:	04800693          	li	a3,72
   1b680:	ef1c                	sd	a5,24(a4)
   1b682:	eb98                	sd	a4,16(a5)
   1b684:	010c0913          	addi	s2,s8,16
   1b688:	017c09b3          	add	s3,s8,s7
   1b68c:	22c6ea63          	bltu	a3,a2,0x1b8c0
   1b690:	02700593          	li	a1,39
   1b694:	6018                	ld	a4,0(s0)
   1b696:	87ca                	mv	a5,s2
   1b698:	00c5ff63          	bgeu	a1,a2,0x1b6b6
   1b69c:	00ec3823          	sd	a4,16(s8)
   1b6a0:	6418                	ld	a4,8(s0)
   1b6a2:	03700793          	li	a5,55
   1b6a6:	00ec3c23          	sd	a4,24(s8)
   1b6aa:	22c7ef63          	bltu	a5,a2,0x1b8e8
   1b6ae:	6818                	ld	a4,16(s0)
   1b6b0:	020c0793          	addi	a5,s8,32
   1b6b4:	0441                	addi	s0,s0,16
   1b6b6:	e398                	sd	a4,0(a5)
   1b6b8:	6418                	ld	a4,8(s0)
   1b6ba:	8a5e                	mv	s4,s7
   1b6bc:	8b62                	mv	s6,s8
   1b6be:	e798                	sd	a4,8(a5)
   1b6c0:	6818                	ld	a4,16(s0)
   1b6c2:	844a                	mv	s0,s2
   1b6c4:	eb98                	sd	a4,16(a5)
   1b6c6:	008b3783          	ld	a5,8(s6) # 0x4008
   1b6ca:	409a0733          	sub	a4,s4,s1
   1b6ce:	46fd                	li	a3,31
   1b6d0:	8b85                	andi	a5,a5,1
   1b6d2:	04e6ea63          	bltu	a3,a4,0x1b726
   1b6d6:	00fa67b3          	or	a5,s4,a5
   1b6da:	00fb3423          	sd	a5,8(s6)
   1b6de:	0089b783          	ld	a5,8(s3)
   1b6e2:	0017e793          	ori	a5,a5,1
   1b6e6:	00f9b423          	sd	a5,8(s3)
   1b6ea:	8556                	mv	a0,s5
   1b6ec:	81df70ef          	jal	ra,0x12f08
   1b6f0:	8922                	mv	s2,s0
   1b6f2:	b795                	j	0x1b656
   1b6f4:	8b05                	andi	a4,a4,1
   1b6f6:	f00710e3          	bnez	a4,0x1b5f6
   1b6fa:	ff043c03          	ld	s8,-16(s0)
   1b6fe:	418b0c33          	sub	s8,s6,s8
   1b702:	008c3703          	ld	a4,8(s8)
   1b706:	9b71                	andi	a4,a4,-4
   1b708:	b5dd                	j	0x1b5ee
   1b70a:	6406                	ld	s0,64(sp)
   1b70c:	60a6                	ld	ra,72(sp)
   1b70e:	74e2                	ld	s1,56(sp)
   1b710:	7942                	ld	s2,48(sp)
   1b712:	79a2                	ld	s3,40(sp)
   1b714:	7a02                	ld	s4,32(sp)
   1b716:	6ae2                	ld	s5,24(sp)
   1b718:	6b42                	ld	s6,16(sp)
   1b71a:	6ba2                	ld	s7,8(sp)
   1b71c:	6c02                	ld	s8,0(sp)
   1b71e:	85b2                	mv	a1,a2
   1b720:	6161                	addi	sp,sp,80
   1b722:	fe5f606f          	j	0x12706
   1b726:	8fc5                	or	a5,a5,s1
   1b728:	00fb3423          	sd	a5,8(s6)
   1b72c:	009b05b3          	add	a1,s6,s1
   1b730:	00176713          	ori	a4,a4,1
   1b734:	e598                	sd	a4,8(a1)
   1b736:	0089b783          	ld	a5,8(s3)
   1b73a:	05c1                	addi	a1,a1,16
   1b73c:	8556                	mv	a0,s5
   1b73e:	0017e793          	ori	a5,a5,1
   1b742:	00f9b423          	sd	a5,8(s3)
   1b746:	eb1fb0ef          	jal	ra,0x175f6
   1b74a:	b745                	j	0x1b6ea
   1b74c:	9bf1                	andi	a5,a5,-4
   1b74e:	00fa06b3          	add	a3,s4,a5
   1b752:	02048613          	addi	a2,s1,32
   1b756:	0ac6d763          	bge	a3,a2,0x1b804
   1b75a:	8b05                	andi	a4,a4,1
   1b75c:	e8071de3          	bnez	a4,0x1b5f6
   1b760:	ff043c03          	ld	s8,-16(s0)
   1b764:	418b0c33          	sub	s8,s6,s8
   1b768:	008c3703          	ld	a4,8(s8)
   1b76c:	9b71                	andi	a4,a4,-4
   1b76e:	97ba                	add	a5,a5,a4
   1b770:	014789b3          	add	s3,a5,s4
   1b774:	e6c9cde3          	blt	s3,a2,0x1b5ee
   1b778:	018c3783          	ld	a5,24(s8)
   1b77c:	010c3703          	ld	a4,16(s8)
   1b780:	ff8a0613          	addi	a2,s4,-8
   1b784:	04800693          	li	a3,72
   1b788:	ef1c                	sd	a5,24(a4)
   1b78a:	eb98                	sd	a4,16(a5)
   1b78c:	010c0913          	addi	s2,s8,16
   1b790:	18c6e963          	bltu	a3,a2,0x1b922
   1b794:	02700593          	li	a1,39
   1b798:	6018                	ld	a4,0(s0)
   1b79a:	87ca                	mv	a5,s2
   1b79c:	00c5ff63          	bgeu	a1,a2,0x1b7ba
   1b7a0:	00ec3823          	sd	a4,16(s8)
   1b7a4:	6418                	ld	a4,8(s0)
   1b7a6:	03700793          	li	a5,55
   1b7aa:	00ec3c23          	sd	a4,24(s8)
   1b7ae:	16c7ef63          	bltu	a5,a2,0x1b92c
   1b7b2:	6818                	ld	a4,16(s0)
   1b7b4:	020c0793          	addi	a5,s8,32
   1b7b8:	0441                	addi	s0,s0,16
   1b7ba:	e398                	sd	a4,0(a5)
   1b7bc:	6418                	ld	a4,8(s0)
   1b7be:	e798                	sd	a4,8(a5)
   1b7c0:	6818                	ld	a4,16(s0)
   1b7c2:	eb98                	sd	a4,16(a5)
   1b7c4:	009c0733          	add	a4,s8,s1
   1b7c8:	409987b3          	sub	a5,s3,s1
   1b7cc:	00ebb823          	sd	a4,16(s7)
   1b7d0:	0017e793          	ori	a5,a5,1
   1b7d4:	e71c                	sd	a5,8(a4)
   1b7d6:	008c3783          	ld	a5,8(s8)
   1b7da:	8556                	mv	a0,s5
   1b7dc:	8b85                	andi	a5,a5,1
   1b7de:	8cdd                	or	s1,s1,a5
   1b7e0:	009c3423          	sd	s1,8(s8)
   1b7e4:	f24f70ef          	jal	ra,0x12f08
   1b7e8:	b5bd                	j	0x1b656
   1b7ea:	e114                	sd	a3,0(a0)
   1b7ec:	6414                	ld	a3,8(s0)
   1b7ee:	03700713          	li	a4,55
   1b7f2:	e514                	sd	a3,8(a0)
   1b7f4:	0cc76e63          	bltu	a4,a2,0x1b8d0
   1b7f8:	6814                	ld	a3,16(s0)
   1b7fa:	01040713          	addi	a4,s0,16
   1b7fe:	01050793          	addi	a5,a0,16
   1b802:	b52d                	j	0x1b62c
   1b804:	9b26                	add	s6,s6,s1
   1b806:	409687b3          	sub	a5,a3,s1
   1b80a:	016bb823          	sd	s6,16(s7)
   1b80e:	0017e793          	ori	a5,a5,1
   1b812:	00fb3423          	sd	a5,8(s6)
   1b816:	ff843783          	ld	a5,-8(s0)
   1b81a:	8556                	mv	a0,s5
   1b81c:	8922                	mv	s2,s0
   1b81e:	8b85                	andi	a5,a5,1
   1b820:	8cdd                	or	s1,s1,a5
   1b822:	fe943c23          	sd	s1,-8(s0)
   1b826:	ee2f70ef          	jal	ra,0x12f08
   1b82a:	b535                	j	0x1b656
   1b82c:	0189b783          	ld	a5,24(s3)
   1b830:	0109b703          	ld	a4,16(s3)
   1b834:	8a36                	mv	s4,a3
   1b836:	00db09b3          	add	s3,s6,a3
   1b83a:	ef1c                	sd	a5,24(a4)
   1b83c:	eb98                	sd	a4,16(a5)
   1b83e:	b561                	j	0x1b6c6
   1b840:	ff853783          	ld	a5,-8(a0)
   1b844:	9bf1                	andi	a5,a5,-4
   1b846:	9a3e                	add	s4,s4,a5
   1b848:	014b09b3          	add	s3,s6,s4
   1b84c:	bdad                	j	0x1b6c6
   1b84e:	85a2                	mv	a1,s0
   1b850:	830ff0ef          	jal	ra,0x1a880
   1b854:	b3cd                	j	0x1b636
   1b856:	0189b783          	ld	a5,24(s3)
   1b85a:	0109b703          	ld	a4,16(s3)
   1b85e:	ff8a0613          	addi	a2,s4,-8
   1b862:	04800693          	li	a3,72
   1b866:	ef1c                	sd	a5,24(a4)
   1b868:	eb98                	sd	a4,16(a5)
   1b86a:	010c3703          	ld	a4,16(s8)
   1b86e:	018c3783          	ld	a5,24(s8)
   1b872:	010c0913          	addi	s2,s8,16
   1b876:	017c09b3          	add	s3,s8,s7
   1b87a:	ef1c                	sd	a5,24(a4)
   1b87c:	eb98                	sd	a4,16(a5)
   1b87e:	04c6e163          	bltu	a3,a2,0x1b8c0
   1b882:	02700693          	li	a3,39
   1b886:	6018                	ld	a4,0(s0)
   1b888:	87ca                	mv	a5,s2
   1b88a:	e2c6f6e3          	bgeu	a3,a2,0x1b6b6
   1b88e:	00ec3823          	sd	a4,16(s8)
   1b892:	6418                	ld	a4,8(s0)
   1b894:	03700793          	li	a5,55
   1b898:	00ec3c23          	sd	a4,24(s8)
   1b89c:	6818                	ld	a4,16(s0)
   1b89e:	e0c7f9e3          	bgeu	a5,a2,0x1b6b0
   1b8a2:	02ec3023          	sd	a4,32(s8)
   1b8a6:	6c18                	ld	a4,24(s0)
   1b8a8:	04800793          	li	a5,72
   1b8ac:	02ec3423          	sd	a4,40(s8)
   1b8b0:	7018                	ld	a4,32(s0)
   1b8b2:	04f60463          	beq	a2,a5,0x1b8fa
   1b8b6:	030c0793          	addi	a5,s8,48
   1b8ba:	02040413          	addi	s0,s0,32
   1b8be:	bbe5                	j	0x1b6b6
   1b8c0:	85a2                	mv	a1,s0
   1b8c2:	854a                	mv	a0,s2
   1b8c4:	fbdfe0ef          	jal	ra,0x1a880
   1b8c8:	844a                	mv	s0,s2
   1b8ca:	8a5e                	mv	s4,s7
   1b8cc:	8b62                	mv	s6,s8
   1b8ce:	bbe5                	j	0x1b6c6
   1b8d0:	6818                	ld	a4,16(s0)
   1b8d2:	e918                	sd	a4,16(a0)
   1b8d4:	6c18                	ld	a4,24(s0)
   1b8d6:	ed18                	sd	a4,24(a0)
   1b8d8:	7014                	ld	a3,32(s0)
   1b8da:	02f60b63          	beq	a2,a5,0x1b910
   1b8de:	02040713          	addi	a4,s0,32
   1b8e2:	02050793          	addi	a5,a0,32
   1b8e6:	b399                	j	0x1b62c
   1b8e8:	681c                	ld	a5,16(s0)
   1b8ea:	02fc3023          	sd	a5,32(s8)
   1b8ee:	6c1c                	ld	a5,24(s0)
   1b8f0:	02fc3423          	sd	a5,40(s8)
   1b8f4:	7018                	ld	a4,32(s0)
   1b8f6:	fcd610e3          	bne	a2,a3,0x1b8b6
   1b8fa:	02ec3823          	sd	a4,48(s8)
   1b8fe:	7418                	ld	a4,40(s0)
   1b900:	040c0793          	addi	a5,s8,64
   1b904:	03040413          	addi	s0,s0,48
   1b908:	02ec3c23          	sd	a4,56(s8)
   1b90c:	6018                	ld	a4,0(s0)
   1b90e:	b365                	j	0x1b6b6
   1b910:	f114                	sd	a3,32(a0)
   1b912:	7414                	ld	a3,40(s0)
   1b914:	03040713          	addi	a4,s0,48
   1b918:	03050793          	addi	a5,a0,48
   1b91c:	f514                	sd	a3,40(a0)
   1b91e:	7814                	ld	a3,48(s0)
   1b920:	b331                	j	0x1b62c
   1b922:	85a2                	mv	a1,s0
   1b924:	854a                	mv	a0,s2
   1b926:	f5bfe0ef          	jal	ra,0x1a880
   1b92a:	bd69                	j	0x1b7c4
   1b92c:	681c                	ld	a5,16(s0)
   1b92e:	02fc3023          	sd	a5,32(s8)
   1b932:	6c1c                	ld	a5,24(s0)
   1b934:	02fc3423          	sd	a5,40(s8)
   1b938:	7018                	ld	a4,32(s0)
   1b93a:	00d60763          	beq	a2,a3,0x1b948
   1b93e:	030c0793          	addi	a5,s8,48
   1b942:	02040413          	addi	s0,s0,32
   1b946:	bd95                	j	0x1b7ba
   1b948:	02ec3823          	sd	a4,48(s8)
   1b94c:	7418                	ld	a4,40(s0)
   1b94e:	040c0793          	addi	a5,s8,64
   1b952:	03040413          	addi	s0,s0,48
   1b956:	02ec3c23          	sd	a4,56(s8)
   1b95a:	6018                	ld	a4,0(s0)
   1b95c:	bdb9                	j	0x1b7ba
   1b95e:	1101                	addi	sp,sp,-32
   1b960:	e822                	sd	s0,16(sp)
   1b962:	842e                	mv	s0,a1
   1b964:	618c                	ld	a1,0(a1)
   1b966:	e426                	sd	s1,8(sp)
   1b968:	ec06                	sd	ra,24(sp)
   1b96a:	84aa                	mv	s1,a0
   1b96c:	c199                	beqz	a1,0x1b972
   1b96e:	ff1ff0ef          	jal	ra,0x1b95e
   1b972:	85a2                	mv	a1,s0
   1b974:	6442                	ld	s0,16(sp)
   1b976:	60e2                	ld	ra,24(sp)
   1b978:	8526                	mv	a0,s1
   1b97a:	64a2                	ld	s1,8(sp)
   1b97c:	6105                	addi	sp,sp,32
   1b97e:	c79fb06f          	j	0x175f6
   1b982:	7501b783          	ld	a5,1872(gp)
   1b986:	08a78e63          	beq	a5,a0,0x1ba22
   1b98a:	7d2c                	ld	a1,120(a0)
   1b98c:	7179                	addi	sp,sp,-48
   1b98e:	ec26                	sd	s1,24(sp)
   1b990:	f406                	sd	ra,40(sp)
   1b992:	f022                	sd	s0,32(sp)
   1b994:	e84a                	sd	s2,16(sp)
   1b996:	e44e                	sd	s3,8(sp)
   1b998:	84aa                	mv	s1,a0
   1b99a:	c58d                	beqz	a1,0x1b9c4
   1b99c:	4901                	li	s2,0
   1b99e:	20000993          	li	s3,512
   1b9a2:	012587b3          	add	a5,a1,s2
   1b9a6:	6380                	ld	s0,0(a5)
   1b9a8:	c801                	beqz	s0,0x1b9b8
   1b9aa:	85a2                	mv	a1,s0
   1b9ac:	6000                	ld	s0,0(s0)
   1b9ae:	8526                	mv	a0,s1
   1b9b0:	c47fb0ef          	jal	ra,0x175f6
   1b9b4:	f87d                	bnez	s0,0x1b9aa
   1b9b6:	7cac                	ld	a1,120(s1)
   1b9b8:	0921                	addi	s2,s2,8
   1b9ba:	ff3914e3          	bne	s2,s3,0x1b9a2
   1b9be:	8526                	mv	a0,s1
   1b9c0:	c37fb0ef          	jal	ra,0x175f6
   1b9c4:	70ac                	ld	a1,96(s1)
   1b9c6:	c581                	beqz	a1,0x1b9ce
   1b9c8:	8526                	mv	a0,s1
   1b9ca:	c2dfb0ef          	jal	ra,0x175f6
   1b9ce:	1f84b403          	ld	s0,504(s1)
   1b9d2:	cc01                	beqz	s0,0x1b9ea
   1b9d4:	20048913          	addi	s2,s1,512
   1b9d8:	01240963          	beq	s0,s2,0x1b9ea
   1b9dc:	85a2                	mv	a1,s0
   1b9de:	6000                	ld	s0,0(s0)
   1b9e0:	8526                	mv	a0,s1
   1b9e2:	c15fb0ef          	jal	ra,0x175f6
   1b9e6:	fe891be3          	bne	s2,s0,0x1b9dc
   1b9ea:	64cc                	ld	a1,136(s1)
   1b9ec:	c581                	beqz	a1,0x1b9f4
   1b9ee:	8526                	mv	a0,s1
   1b9f0:	c07fb0ef          	jal	ra,0x175f6
   1b9f4:	48bc                	lw	a5,80(s1)
   1b9f6:	cf99                	beqz	a5,0x1ba14
   1b9f8:	6cbc                	ld	a5,88(s1)
   1b9fa:	8526                	mv	a0,s1
   1b9fc:	9782                	jalr	a5
   1b9fe:	5204b583          	ld	a1,1312(s1)
   1ba02:	c989                	beqz	a1,0x1ba14
   1ba04:	7402                	ld	s0,32(sp)
   1ba06:	70a2                	ld	ra,40(sp)
   1ba08:	6942                	ld	s2,16(sp)
   1ba0a:	69a2                	ld	s3,8(sp)
   1ba0c:	8526                	mv	a0,s1
   1ba0e:	64e2                	ld	s1,24(sp)
   1ba10:	6145                	addi	sp,sp,48
   1ba12:	b7b1                	j	0x1b95e
   1ba14:	70a2                	ld	ra,40(sp)
   1ba16:	7402                	ld	s0,32(sp)
   1ba18:	64e2                	ld	s1,24(sp)
   1ba1a:	6942                	ld	s2,16(sp)
   1ba1c:	69a2                	ld	s3,8(sp)
   1ba1e:	6145                	addi	sp,sp,48
   1ba20:	8082                	ret
   1ba22:	8082                	ret
   1ba24:	00008797          	auipc	a5,0x8
   1ba28:	2587a507          	flw	fa0,600(a5) # 0x23c7c
   1ba2c:	8082                	ret
   1ba2e:	e20507d3          	fmv.x.d	a5,fa0
   1ba32:	80000637          	lui	a2,0x80000
   1ba36:	fff64613          	not	a2,a2
   1ba3a:	4207d593          	srai	a1,a5,0x20
   1ba3e:	00c5f733          	and	a4,a1,a2
   1ba42:	00052023          	sw	zero,0(a0)
   1ba46:	7ff00837          	lui	a6,0x7ff00
   1ba4a:	86ae                	mv	a3,a1
   1ba4c:	05075e63          	bge	a4,a6,0x1baa8
   1ba50:	00f76833          	or	a6,a4,a5
   1ba54:	2801                	sext.w	a6,a6
   1ba56:	04080963          	beqz	a6,0x1baa8
   1ba5a:	7ff00837          	lui	a6,0x7ff00
   1ba5e:	0105f5b3          	and	a1,a1,a6
   1ba62:	4801                	li	a6,0
   1ba64:	ed99                	bnez	a1,0x1ba82
   1ba66:	00008717          	auipc	a4,0x8
   1ba6a:	20273787          	fld	fa5,514(a4) # 0x23c68
   1ba6e:	12f577d3          	fmul.d	fa5,fa0,fa5
   1ba72:	fca00813          	li	a6,-54
   1ba76:	e20787d3          	fmv.x.d	a5,fa5
   1ba7a:	4207d693          	srai	a3,a5,0x20
   1ba7e:	00c6f733          	and	a4,a3,a2
   1ba82:	80100637          	lui	a2,0x80100
   1ba86:	167d                	addi	a2,a2,-1
   1ba88:	8ef1                	and	a3,a3,a2
   1ba8a:	3fe00637          	lui	a2,0x3fe00
   1ba8e:	8ed1                	or	a3,a3,a2
   1ba90:	4147571b          	sraiw	a4,a4,0x14
   1ba94:	567d                	li	a2,-1
   1ba96:	c027071b          	addiw	a4,a4,-1022
   1ba9a:	9201                	srli	a2,a2,0x20
   1ba9c:	0107073b          	addw	a4,a4,a6
   1baa0:	1682                	slli	a3,a3,0x20
   1baa2:	8ff1                	and	a5,a5,a2
   1baa4:	c118                	sw	a4,0(a0)
   1baa6:	8fd5                	or	a5,a5,a3
   1baa8:	f2078553          	fmv.d.x	fa0,a5
   1baac:	8082                	ret
   1baae:	1141                	addi	sp,sp,-16
   1bab0:	10000593          	li	a1,256
   1bab4:	e022                	sd	s0,0(sp)
   1bab6:	e406                	sd	ra,8(sp)
   1bab8:	842a                	mv	s0,a0
   1baba:	c4df60ef          	jal	ra,0x12706
   1babe:	50a43c23          	sd	a0,1304(s0)
   1bac2:	cd09                	beqz	a0,0x1badc
   1bac4:	10050793          	addi	a5,a0,256
   1bac8:	00053023          	sd	zero,0(a0)
   1bacc:	0521                	addi	a0,a0,8
   1bace:	fef51de3          	bne	a0,a5,0x1bac8
   1bad2:	4501                	li	a0,0
   1bad4:	60a2                	ld	ra,8(sp)
   1bad6:	6402                	ld	s0,0(sp)
   1bad8:	0141                	addi	sp,sp,16
   1bada:	8082                	ret
   1badc:	557d                	li	a0,-1
   1bade:	bfdd                	j	0x1bad4
   1bae0:	51853783          	ld	a5,1304(a0)
   1bae4:	c399                	beqz	a5,0x1baea
   1bae6:	4501                	li	a0,0
   1bae8:	8082                	ret
   1baea:	b7d1                	j	0x1baae
   1baec:	7179                	addi	sp,sp,-48
   1baee:	ec26                	sd	s1,24(sp)
   1baf0:	f406                	sd	ra,40(sp)
   1baf2:	f022                	sd	s0,32(sp)
   1baf4:	47fd                	li	a5,31
   1baf6:	84aa                	mv	s1,a0
   1baf8:	00b7ef63          	bltu	a5,a1,0x1bb16
   1bafc:	842e                	mv	s0,a1
   1bafe:	51853583          	ld	a1,1304(a0)
   1bb02:	c195                	beqz	a1,0x1bb26
   1bb04:	040e                	slli	s0,s0,0x3
   1bb06:	942e                	add	s0,s0,a1
   1bb08:	6008                	ld	a0,0(s0)
   1bb0a:	e010                	sd	a2,0(s0)
   1bb0c:	70a2                	ld	ra,40(sp)
   1bb0e:	7402                	ld	s0,32(sp)
   1bb10:	64e2                	ld	s1,24(sp)
   1bb12:	6145                	addi	sp,sp,48
   1bb14:	8082                	ret
   1bb16:	70a2                	ld	ra,40(sp)
   1bb18:	7402                	ld	s0,32(sp)
   1bb1a:	47d9                	li	a5,22
   1bb1c:	c11c                	sw	a5,0(a0)
   1bb1e:	64e2                	ld	s1,24(sp)
   1bb20:	557d                	li	a0,-1
   1bb22:	6145                	addi	sp,sp,48
   1bb24:	8082                	ret
   1bb26:	e432                	sd	a2,8(sp)
   1bb28:	f87ff0ef          	jal	ra,0x1baae
   1bb2c:	87aa                	mv	a5,a0
   1bb2e:	557d                	li	a0,-1
   1bb30:	fff1                	bnez	a5,0x1bb0c
   1bb32:	5184b583          	ld	a1,1304(s1)
   1bb36:	6622                	ld	a2,8(sp)
   1bb38:	b7f1                	j	0x1bb04
   1bb3a:	1101                	addi	sp,sp,-32
   1bb3c:	e426                	sd	s1,8(sp)
   1bb3e:	ec06                	sd	ra,24(sp)
   1bb40:	e822                	sd	s0,16(sp)
   1bb42:	47fd                	li	a5,31
   1bb44:	84aa                	mv	s1,a0
   1bb46:	06b7e463          	bltu	a5,a1,0x1bbae
   1bb4a:	51853783          	ld	a5,1304(a0)
   1bb4e:	842e                	mv	s0,a1
   1bb50:	c795                	beqz	a5,0x1bb7c
   1bb52:	00359713          	slli	a4,a1,0x3
   1bb56:	97ba                	add	a5,a5,a4
   1bb58:	6398                	ld	a4,0(a5)
   1bb5a:	c30d                	beqz	a4,0x1bb7c
   1bb5c:	4685                	li	a3,1
   1bb5e:	04d70263          	beq	a4,a3,0x1bba2
   1bb62:	56fd                	li	a3,-1
   1bb64:	02d70763          	beq	a4,a3,0x1bb92
   1bb68:	852e                	mv	a0,a1
   1bb6a:	0007b023          	sd	zero,0(a5)
   1bb6e:	9702                	jalr	a4
   1bb70:	4501                	li	a0,0
   1bb72:	60e2                	ld	ra,24(sp)
   1bb74:	6442                	ld	s0,16(sp)
   1bb76:	64a2                	ld	s1,8(sp)
   1bb78:	6105                	addi	sp,sp,32
   1bb7a:	8082                	ret
   1bb7c:	8526                	mv	a0,s1
   1bb7e:	152000ef          	jal	ra,0x1bcd0
   1bb82:	8622                	mv	a2,s0
   1bb84:	6442                	ld	s0,16(sp)
   1bb86:	60e2                	ld	ra,24(sp)
   1bb88:	85aa                	mv	a1,a0
   1bb8a:	8526                	mv	a0,s1
   1bb8c:	64a2                	ld	s1,8(sp)
   1bb8e:	6105                	addi	sp,sp,32
   1bb90:	a211                	j	0x1bc94
   1bb92:	60e2                	ld	ra,24(sp)
   1bb94:	6442                	ld	s0,16(sp)
   1bb96:	47d9                	li	a5,22
   1bb98:	c11c                	sw	a5,0(a0)
   1bb9a:	64a2                	ld	s1,8(sp)
   1bb9c:	4505                	li	a0,1
   1bb9e:	6105                	addi	sp,sp,32
   1bba0:	8082                	ret
   1bba2:	60e2                	ld	ra,24(sp)
   1bba4:	6442                	ld	s0,16(sp)
   1bba6:	64a2                	ld	s1,8(sp)
   1bba8:	4501                	li	a0,0
   1bbaa:	6105                	addi	sp,sp,32
   1bbac:	8082                	ret
   1bbae:	47d9                	li	a5,22
   1bbb0:	c11c                	sw	a5,0(a0)
   1bbb2:	557d                	li	a0,-1
   1bbb4:	bf7d                	j	0x1bb72
   1bbb6:	47fd                	li	a5,31
   1bbb8:	06b7e363          	bltu	a5,a1,0x1bc1e
   1bbbc:	51853783          	ld	a5,1304(a0)
   1bbc0:	1101                	addi	sp,sp,-32
   1bbc2:	e826                	sd	s1,16(sp)
   1bbc4:	ec06                	sd	ra,24(sp)
   1bbc6:	84aa                	mv	s1,a0
   1bbc8:	cb95                	beqz	a5,0x1bbfc
   1bbca:	00359713          	slli	a4,a1,0x3
   1bbce:	97ba                	add	a5,a5,a4
   1bbd0:	6398                	ld	a4,0(a5)
   1bbd2:	c305                	beqz	a4,0x1bbf2
   1bbd4:	56fd                	li	a3,-1
   1bbd6:	04d70063          	beq	a4,a3,0x1bc16
   1bbda:	4685                	li	a3,1
   1bbdc:	02d70863          	beq	a4,a3,0x1bc0c
   1bbe0:	852e                	mv	a0,a1
   1bbe2:	0007b023          	sd	zero,0(a5)
   1bbe6:	9702                	jalr	a4
   1bbe8:	4501                	li	a0,0
   1bbea:	60e2                	ld	ra,24(sp)
   1bbec:	64c2                	ld	s1,16(sp)
   1bbee:	6105                	addi	sp,sp,32
   1bbf0:	8082                	ret
   1bbf2:	60e2                	ld	ra,24(sp)
   1bbf4:	64c2                	ld	s1,16(sp)
   1bbf6:	4505                	li	a0,1
   1bbf8:	6105                	addi	sp,sp,32
   1bbfa:	8082                	ret
   1bbfc:	e42e                	sd	a1,8(sp)
   1bbfe:	eb1ff0ef          	jal	ra,0x1baae
   1bc02:	ed01                	bnez	a0,0x1bc1a
   1bc04:	5184b783          	ld	a5,1304(s1)
   1bc08:	65a2                	ld	a1,8(sp)
   1bc0a:	b7c1                	j	0x1bbca
   1bc0c:	60e2                	ld	ra,24(sp)
   1bc0e:	64c2                	ld	s1,16(sp)
   1bc10:	450d                	li	a0,3
   1bc12:	6105                	addi	sp,sp,32
   1bc14:	8082                	ret
   1bc16:	4509                	li	a0,2
   1bc18:	bfc9                	j	0x1bbea
   1bc1a:	557d                	li	a0,-1
   1bc1c:	b7f9                	j	0x1bbea
   1bc1e:	557d                	li	a0,-1
   1bc20:	8082                	ret
   1bc22:	85aa                	mv	a1,a0
   1bc24:	7501b503          	ld	a0,1872(gp)
   1bc28:	bf09                	j	0x1bb3a
   1bc2a:	7179                	addi	sp,sp,-48
   1bc2c:	ec26                	sd	s1,24(sp)
   1bc2e:	f406                	sd	ra,40(sp)
   1bc30:	f022                	sd	s0,32(sp)
   1bc32:	47fd                	li	a5,31
   1bc34:	7501b483          	ld	s1,1872(gp)
   1bc38:	00a7ef63          	bltu	a5,a0,0x1bc56
   1bc3c:	842a                	mv	s0,a0
   1bc3e:	5184b503          	ld	a0,1304(s1)
   1bc42:	c115                	beqz	a0,0x1bc66
   1bc44:	040e                	slli	s0,s0,0x3
   1bc46:	942a                	add	s0,s0,a0
   1bc48:	6008                	ld	a0,0(s0)
   1bc4a:	e00c                	sd	a1,0(s0)
   1bc4c:	70a2                	ld	ra,40(sp)
   1bc4e:	7402                	ld	s0,32(sp)
   1bc50:	64e2                	ld	s1,24(sp)
   1bc52:	6145                	addi	sp,sp,48
   1bc54:	8082                	ret
   1bc56:	70a2                	ld	ra,40(sp)
   1bc58:	7402                	ld	s0,32(sp)
   1bc5a:	47d9                	li	a5,22
   1bc5c:	c09c                	sw	a5,0(s1)
   1bc5e:	557d                	li	a0,-1
   1bc60:	64e2                	ld	s1,24(sp)
   1bc62:	6145                	addi	sp,sp,48
   1bc64:	8082                	ret
   1bc66:	8526                	mv	a0,s1
   1bc68:	e42e                	sd	a1,8(sp)
   1bc6a:	e45ff0ef          	jal	ra,0x1baae
   1bc6e:	87aa                	mv	a5,a0
   1bc70:	557d                	li	a0,-1
   1bc72:	ffe9                	bnez	a5,0x1bc4c
   1bc74:	5184b503          	ld	a0,1304(s1)
   1bc78:	65a2                	ld	a1,8(sp)
   1bc7a:	b7e9                	j	0x1bc44
   1bc7c:	7501b503          	ld	a0,1872(gp)
   1bc80:	51853783          	ld	a5,1304(a0)
   1bc84:	c399                	beqz	a5,0x1bc8a
   1bc86:	4501                	li	a0,0
   1bc88:	8082                	ret
   1bc8a:	b515                	j	0x1baae
   1bc8c:	85aa                	mv	a1,a0
   1bc8e:	7501b503          	ld	a0,1872(gp)
   1bc92:	b715                	j	0x1bbb6
   1bc94:	1141                	addi	sp,sp,-16
   1bc96:	872e                	mv	a4,a1
   1bc98:	e022                	sd	s0,0(sp)
   1bc9a:	85b2                	mv	a1,a2
   1bc9c:	842a                	mv	s0,a0
   1bc9e:	853a                	mv	a0,a4
   1bca0:	00008797          	auipc	a5,0x8
   1bca4:	0a07a423          	sw	zero,168(a5) # 0x23d48
   1bca8:	e406                	sd	ra,8(sp)
   1bcaa:	146030ef          	jal	ra,0x1edf0
   1bcae:	57fd                	li	a5,-1
   1bcb0:	00f50663          	beq	a0,a5,0x1bcbc
   1bcb4:	60a2                	ld	ra,8(sp)
   1bcb6:	6402                	ld	s0,0(sp)
   1bcb8:	0141                	addi	sp,sp,16
   1bcba:	8082                	ret
   1bcbc:	00008797          	auipc	a5,0x8
   1bcc0:	08c7a783          	lw	a5,140(a5) # 0x23d48
   1bcc4:	dbe5                	beqz	a5,0x1bcb4
   1bcc6:	60a2                	ld	ra,8(sp)
   1bcc8:	c01c                	sw	a5,0(s0)
   1bcca:	6402                	ld	s0,0(sp)
   1bccc:	0141                	addi	sp,sp,16
   1bcce:	8082                	ret
   1bcd0:	0f60306f          	j	0x1edc6
   1bcd4:	00008797          	auipc	a5,0x8
   1bcd8:	f9c7b507          	fld	fa0,-100(a5) # 0x23c70
   1bcdc:	8082                	ret
   1bcde:	7111                	addi	sp,sp,-256
   1bce0:	0d810e93          	addi	t4,sp,216
   1bce4:	f5be                	sd	a5,232(sp)
   1bce6:	80000337          	lui	t1,0x80000
   1bcea:	77c1                	lui	a5,0xffff0
   1bcec:	8e2e                	mv	t3,a1
   1bcee:	fff34313          	not	t1,t1
   1bcf2:	edb6                	sd	a3,216(sp)
   1bcf4:	20878793          	addi	a5,a5,520 # 0xffffffffffff0208
   1bcf8:	080c                	addi	a1,sp,16
   1bcfa:	86f6                	mv	a3,t4
   1bcfc:	e586                	sd	ra,200(sp)
   1bcfe:	d03e                	sw	a5,32(sp)
   1bd00:	f1ba                	sd	a4,224(sp)
   1bd02:	f9c2                	sd	a6,240(sp)
   1bd04:	fdc6                	sd	a7,248(sp)
   1bd06:	e872                	sd	t3,16(sp)
   1bd08:	f472                	sd	t3,40(sp)
   1bd0a:	d81a                	sw	t1,48(sp)
   1bd0c:	ce1a                	sw	t1,28(sp)
   1bd0e:	e476                	sd	t4,8(sp)
   1bd10:	3be000ef          	jal	ra,0x1c0ce
   1bd14:	67c2                	ld	a5,16(sp)
   1bd16:	00078023          	sb	zero,0(a5)
   1bd1a:	60ae                	ld	ra,200(sp)
   1bd1c:	6111                	addi	sp,sp,256
   1bd1e:	8082                	ret
   1bd20:	7111                	addi	sp,sp,-256
   1bd22:	0d010e93          	addi	t4,sp,208
   1bd26:	f5be                	sd	a5,232(sp)
   1bd28:	80000337          	lui	t1,0x80000
   1bd2c:	77c1                	lui	a5,0xffff0
   1bd2e:	8e2a                	mv	t3,a0
   1bd30:	fff34313          	not	t1,t1
   1bd34:	e9b2                	sd	a2,208(sp)
   1bd36:	edb6                	sd	a3,216(sp)
   1bd38:	20878793          	addi	a5,a5,520 # 0xffffffffffff0208
   1bd3c:	862e                	mv	a2,a1
   1bd3e:	86f6                	mv	a3,t4
   1bd40:	080c                	addi	a1,sp,16
   1bd42:	7501b503          	ld	a0,1872(gp)
   1bd46:	e586                	sd	ra,200(sp)
   1bd48:	d03e                	sw	a5,32(sp)
   1bd4a:	f1ba                	sd	a4,224(sp)
   1bd4c:	f9c2                	sd	a6,240(sp)
   1bd4e:	fdc6                	sd	a7,248(sp)
   1bd50:	e872                	sd	t3,16(sp)
   1bd52:	f472                	sd	t3,40(sp)
   1bd54:	d81a                	sw	t1,48(sp)
   1bd56:	ce1a                	sw	t1,28(sp)
   1bd58:	e476                	sd	t4,8(sp)
   1bd5a:	374000ef          	jal	ra,0x1c0ce
   1bd5e:	67c2                	ld	a5,16(sp)
   1bd60:	00078023          	sb	zero,0(a5)
   1bd64:	60ae                	ld	ra,200(sp)
   1bd66:	6111                	addi	sp,sp,256
   1bd68:	8082                	ret
   1bd6a:	1141                	addi	sp,sp,-16
   1bd6c:	e022                	sd	s0,0(sp)
   1bd6e:	842e                	mv	s0,a1
   1bd70:	01259583          	lh	a1,18(a1)
   1bd74:	e406                	sd	ra,8(sp)
   1bd76:	f9cff0ef          	jal	ra,0x1b512
   1bd7a:	00054963          	bltz	a0,0x1bd8c
   1bd7e:	685c                	ld	a5,144(s0)
   1bd80:	60a2                	ld	ra,8(sp)
   1bd82:	97aa                	add	a5,a5,a0
   1bd84:	e85c                	sd	a5,144(s0)
   1bd86:	6402                	ld	s0,0(sp)
   1bd88:	0141                	addi	sp,sp,16
   1bd8a:	8082                	ret
   1bd8c:	01045783          	lhu	a5,16(s0)
   1bd90:	777d                	lui	a4,0xfffff
   1bd92:	177d                	addi	a4,a4,-1
   1bd94:	8ff9                	and	a5,a5,a4
   1bd96:	60a2                	ld	ra,8(sp)
   1bd98:	00f41823          	sh	a5,16(s0)
   1bd9c:	6402                	ld	s0,0(sp)
   1bd9e:	0141                	addi	sp,sp,16
   1bda0:	8082                	ret
   1bda2:	4501                	li	a0,0
   1bda4:	8082                	ret
   1bda6:	01059783          	lh	a5,16(a1)
   1bdaa:	7179                	addi	sp,sp,-48
   1bdac:	f022                	sd	s0,32(sp)
   1bdae:	ec26                	sd	s1,24(sp)
   1bdb0:	e84a                	sd	s2,16(sp)
   1bdb2:	e44e                	sd	s3,8(sp)
   1bdb4:	f406                	sd	ra,40(sp)
   1bdb6:	1007f713          	andi	a4,a5,256
   1bdba:	842e                	mv	s0,a1
   1bdbc:	84aa                	mv	s1,a0
   1bdbe:	01259583          	lh	a1,18(a1)
   1bdc2:	8932                	mv	s2,a2
   1bdc4:	89b6                	mv	s3,a3
   1bdc6:	e30d                	bnez	a4,0x1bde8
   1bdc8:	777d                	lui	a4,0xfffff
   1bdca:	177d                	addi	a4,a4,-1
   1bdcc:	8ff9                	and	a5,a5,a4
   1bdce:	00f41823          	sh	a5,16(s0)
   1bdd2:	7402                	ld	s0,32(sp)
   1bdd4:	70a2                	ld	ra,40(sp)
   1bdd6:	86ce                	mv	a3,s3
   1bdd8:	864a                	mv	a2,s2
   1bdda:	69a2                	ld	s3,8(sp)
   1bddc:	6942                	ld	s2,16(sp)
   1bdde:	8526                	mv	a0,s1
   1bde0:	64e2                	ld	s1,24(sp)
   1bde2:	6145                	addi	sp,sp,48
   1bde4:	f2ffa06f          	j	0x16d12
   1bde8:	4689                	li	a3,2
   1bdea:	4601                	li	a2,0
   1bdec:	20e020ef          	jal	ra,0x1dffa
   1bdf0:	01041783          	lh	a5,16(s0)
   1bdf4:	01241583          	lh	a1,18(s0)
   1bdf8:	bfc1                	j	0x1bdc8
   1bdfa:	1141                	addi	sp,sp,-16
   1bdfc:	e022                	sd	s0,0(sp)
   1bdfe:	842e                	mv	s0,a1
   1be00:	01259583          	lh	a1,18(a1)
   1be04:	e406                	sd	ra,8(sp)
   1be06:	1f4020ef          	jal	ra,0x1dffa
   1be0a:	57fd                	li	a5,-1
   1be0c:	00f50d63          	beq	a0,a5,0x1be26
   1be10:	01045783          	lhu	a5,16(s0)
   1be14:	6705                	lui	a4,0x1
   1be16:	60a2                	ld	ra,8(sp)
   1be18:	8fd9                	or	a5,a5,a4
   1be1a:	e848                	sd	a0,144(s0)
   1be1c:	00f41823          	sh	a5,16(s0)
   1be20:	6402                	ld	s0,0(sp)
   1be22:	0141                	addi	sp,sp,16
   1be24:	8082                	ret
   1be26:	01045783          	lhu	a5,16(s0)
   1be2a:	777d                	lui	a4,0xfffff
   1be2c:	177d                	addi	a4,a4,-1
   1be2e:	8ff9                	and	a5,a5,a4
   1be30:	60a2                	ld	ra,8(sp)
   1be32:	00f41823          	sh	a5,16(s0)
   1be36:	6402                	ld	s0,0(sp)
   1be38:	0141                	addi	sp,sp,16
   1be3a:	8082                	ret
   1be3c:	01259583          	lh	a1,18(a1)
   1be40:	8d0fb06f          	j	0x16f10
   1be44:	00b56733          	or	a4,a0,a1
   1be48:	53fd                	li	t2,-1
   1be4a:	8b1d                	andi	a4,a4,7
   1be4c:	eb4d                	bnez	a4,0x1befe
   1be4e:	00008797          	auipc	a5,0x8
   1be52:	db27b783          	ld	a5,-590(a5) # 0x23c00
   1be56:	6110                	ld	a2,0(a0)
   1be58:	6194                	ld	a3,0(a1)
   1be5a:	00f672b3          	and	t0,a2,a5
   1be5e:	00f66333          	or	t1,a2,a5
   1be62:	92be                	add	t0,t0,a5
   1be64:	0062e2b3          	or	t0,t0,t1
   1be68:	0a729963          	bne	t0,t2,0x1bf1a
   1be6c:	02d61e63          	bne	a2,a3,0x1bea8
   1be70:	6510                	ld	a2,8(a0)
   1be72:	6594                	ld	a3,8(a1)
   1be74:	00f672b3          	and	t0,a2,a5
   1be78:	00f66333          	or	t1,a2,a5
   1be7c:	92be                	add	t0,t0,a5
   1be7e:	0062e2b3          	or	t0,t0,t1
   1be82:	08729a63          	bne	t0,t2,0x1bf16
   1be86:	02d61163          	bne	a2,a3,0x1bea8
   1be8a:	6910                	ld	a2,16(a0)
   1be8c:	6994                	ld	a3,16(a1)
   1be8e:	00f672b3          	and	t0,a2,a5
   1be92:	00f66333          	or	t1,a2,a5
   1be96:	92be                	add	t0,t0,a5
   1be98:	0062e2b3          	or	t0,t0,t1
   1be9c:	08729363          	bne	t0,t2,0x1bf22
   1bea0:	0561                	addi	a0,a0,24
   1bea2:	05e1                	addi	a1,a1,24
   1bea4:	fad609e3          	beq	a2,a3,0x1be56
   1bea8:	03061713          	slli	a4,a2,0x30
   1beac:	03069793          	slli	a5,a3,0x30
   1beb0:	02f71863          	bne	a4,a5,0x1bee0
   1beb4:	02061713          	slli	a4,a2,0x20
   1beb8:	02069793          	slli	a5,a3,0x20
   1bebc:	02f71263          	bne	a4,a5,0x1bee0
   1bec0:	01061713          	slli	a4,a2,0x10
   1bec4:	01069793          	slli	a5,a3,0x10
   1bec8:	00f71c63          	bne	a4,a5,0x1bee0
   1becc:	03065713          	srli	a4,a2,0x30
   1bed0:	0306d793          	srli	a5,a3,0x30
   1bed4:	40f70533          	sub	a0,a4,a5
   1bed8:	0ff57593          	andi	a1,a0,255
   1bedc:	e991                	bnez	a1,0x1bef0
   1bede:	8082                	ret
   1bee0:	9341                	srli	a4,a4,0x30
   1bee2:	93c1                	srli	a5,a5,0x30
   1bee4:	40f70533          	sub	a0,a4,a5
   1bee8:	0ff57593          	andi	a1,a0,255
   1beec:	e191                	bnez	a1,0x1bef0
   1beee:	8082                	ret
   1bef0:	0ff77713          	andi	a4,a4,255
   1bef4:	0ff7f793          	andi	a5,a5,255
   1bef8:	40f70533          	sub	a0,a4,a5
   1befc:	8082                	ret
   1befe:	00054603          	lbu	a2,0(a0)
   1bf02:	0005c683          	lbu	a3,0(a1)
   1bf06:	0505                	addi	a0,a0,1
   1bf08:	0585                	addi	a1,a1,1
   1bf0a:	00d61363          	bne	a2,a3,0x1bf10
   1bf0e:	fa65                	bnez	a2,0x1befe
   1bf10:	40d60533          	sub	a0,a2,a3
   1bf14:	8082                	ret
   1bf16:	0521                	addi	a0,a0,8
   1bf18:	05a1                	addi	a1,a1,8
   1bf1a:	fed612e3          	bne	a2,a3,0x1befe
   1bf1e:	4501                	li	a0,0
   1bf20:	8082                	ret
   1bf22:	0541                	addi	a0,a0,16
   1bf24:	05c1                	addi	a1,a1,16
   1bf26:	fcd61ce3          	bne	a2,a3,0x1befe
   1bf2a:	4501                	li	a0,0
   1bf2c:	8082                	ret
   1bf2e:	00b567b3          	or	a5,a0,a1
   1bf32:	8b9d                	andi	a5,a5,7
   1bf34:	efbd                	bnez	a5,0x1bfb2
   1bf36:	6198                	ld	a4,0(a1)
   1bf38:	00008697          	auipc	a3,0x8
   1bf3c:	cc86b683          	ld	a3,-824(a3) # 0x23c00
   1bf40:	567d                	li	a2,-1
   1bf42:	00d777b3          	and	a5,a4,a3
   1bf46:	97b6                	add	a5,a5,a3
   1bf48:	8fd9                	or	a5,a5,a4
   1bf4a:	8fd5                	or	a5,a5,a3
   1bf4c:	06c79c63          	bne	a5,a2,0x1bfc4
   1bf50:	862a                	mv	a2,a0
   1bf52:	587d                	li	a6,-1
   1bf54:	e218                	sd	a4,0(a2)
   1bf56:	6598                	ld	a4,8(a1)
   1bf58:	05a1                	addi	a1,a1,8
   1bf5a:	0621                	addi	a2,a2,8
   1bf5c:	00d777b3          	and	a5,a4,a3
   1bf60:	97b6                	add	a5,a5,a3
   1bf62:	8fd9                	or	a5,a5,a4
   1bf64:	8fd5                	or	a5,a5,a3
   1bf66:	ff0787e3          	beq	a5,a6,0x1bf54
   1bf6a:	0005c783          	lbu	a5,0(a1)
   1bf6e:	0015c703          	lbu	a4,1(a1)
   1bf72:	0025c683          	lbu	a3,2(a1)
   1bf76:	00f60023          	sb	a5,0(a2) # 0x3fe00000
   1bf7a:	cb9d                	beqz	a5,0x1bfb0
   1bf7c:	00e600a3          	sb	a4,1(a2)
   1bf80:	cb05                	beqz	a4,0x1bfb0
   1bf82:	0035c783          	lbu	a5,3(a1)
   1bf86:	00d60123          	sb	a3,2(a2)
   1bf8a:	c29d                	beqz	a3,0x1bfb0
   1bf8c:	0045c703          	lbu	a4,4(a1)
   1bf90:	00f601a3          	sb	a5,3(a2)
   1bf94:	cf91                	beqz	a5,0x1bfb0
   1bf96:	0055c783          	lbu	a5,5(a1)
   1bf9a:	00e60223          	sb	a4,4(a2)
   1bf9e:	cb09                	beqz	a4,0x1bfb0
   1bfa0:	0065c703          	lbu	a4,6(a1)
   1bfa4:	00f602a3          	sb	a5,5(a2)
   1bfa8:	c781                	beqz	a5,0x1bfb0
   1bfaa:	00e60323          	sb	a4,6(a2)
   1bfae:	ef09                	bnez	a4,0x1bfc8
   1bfb0:	8082                	ret
   1bfb2:	87aa                	mv	a5,a0
   1bfb4:	0005c703          	lbu	a4,0(a1)
   1bfb8:	0785                	addi	a5,a5,1
   1bfba:	0585                	addi	a1,a1,1
   1bfbc:	fee78fa3          	sb	a4,-1(a5)
   1bfc0:	fb75                	bnez	a4,0x1bfb4
   1bfc2:	8082                	ret
   1bfc4:	862a                	mv	a2,a0
   1bfc6:	b755                	j	0x1bf6a
   1bfc8:	000603a3          	sb	zero,7(a2)
   1bfcc:	8082                	ret
   1bfce:	ce35                	beqz	a2,0x1c04a
   1bfd0:	00b567b3          	or	a5,a0,a1
   1bfd4:	8b9d                	andi	a5,a5,7
   1bfd6:	e3a9                	bnez	a5,0x1c018
   1bfd8:	479d                	li	a5,7
   1bfda:	02c7ff63          	bgeu	a5,a2,0x1c018
   1bfde:	00008317          	auipc	t1,0x8
   1bfe2:	c7233303          	ld	t1,-910(t1) # 0x23c50
   1bfe6:	00008897          	auipc	a7,0x8
   1bfea:	c728b883          	ld	a7,-910(a7) # 0x23c58
   1bfee:	4e1d                	li	t3,7
   1bff0:	a801                	j	0x1c000
   1bff2:	1661                	addi	a2,a2,-8
   1bff4:	ca39                	beqz	a2,0x1c04a
   1bff6:	ebb1                	bnez	a5,0x1c04a
   1bff8:	0521                	addi	a0,a0,8
   1bffa:	05a1                	addi	a1,a1,8
   1bffc:	00ce7e63          	bgeu	t3,a2,0x1c018
   1c000:	6118                	ld	a4,0(a0)
   1c002:	6194                	ld	a3,0(a1)
   1c004:	006707b3          	add	a5,a4,t1
   1c008:	fff74813          	not	a6,a4
   1c00c:	0107f7b3          	and	a5,a5,a6
   1c010:	0117f7b3          	and	a5,a5,a7
   1c014:	fcd70fe3          	beq	a4,a3,0x1bff2
   1c018:	00054683          	lbu	a3,0(a0)
   1c01c:	0005c803          	lbu	a6,0(a1)
   1c020:	02d81763          	bne	a6,a3,0x1c04e
   1c024:	4785                	li	a5,1
   1c026:	02f60263          	beq	a2,a5,0x1c04a
   1c02a:	872a                	mv	a4,a0
   1c02c:	a801                	j	0x1c03c
   1c02e:	00074683          	lbu	a3,0(a4) # 0xfffffffffffff000
   1c032:	0005c803          	lbu	a6,0(a1)
   1c036:	01069c63          	bne	a3,a6,0x1c04e
   1c03a:	cb81                	beqz	a5,0x1c04a
   1c03c:	0705                	addi	a4,a4,1
   1c03e:	fff74793          	not	a5,a4
   1c042:	97b2                	add	a5,a5,a2
   1c044:	0585                	addi	a1,a1,1
   1c046:	97aa                	add	a5,a5,a0
   1c048:	f2fd                	bnez	a3,0x1c02e
   1c04a:	4501                	li	a0,0
   1c04c:	8082                	ret
   1c04e:	4106853b          	subw	a0,a3,a6
   1c052:	8082                	ret
   1c054:	00a5e7b3          	or	a5,a1,a0
   1c058:	8b9d                	andi	a5,a5,7
   1c05a:	872a                	mv	a4,a0
   1c05c:	ebb1                	bnez	a5,0x1c0b0
   1c05e:	479d                	li	a5,7
   1c060:	04c7f863          	bgeu	a5,a2,0x1c0b0
   1c064:	00008317          	auipc	t1,0x8
   1c068:	bec33303          	ld	t1,-1044(t1) # 0x23c50
   1c06c:	00008897          	auipc	a7,0x8
   1c070:	bec8b883          	ld	a7,-1044(a7) # 0x23c58
   1c074:	4e1d                	li	t3,7
   1c076:	6194                	ld	a3,0(a1)
   1c078:	006687b3          	add	a5,a3,t1
   1c07c:	fff6c813          	not	a6,a3
   1c080:	0107f7b3          	and	a5,a5,a6
   1c084:	0117f7b3          	and	a5,a5,a7
   1c088:	e785                	bnez	a5,0x1c0b0
   1c08a:	e314                	sd	a3,0(a4)
   1c08c:	1661                	addi	a2,a2,-8
   1c08e:	0721                	addi	a4,a4,8
   1c090:	05a1                	addi	a1,a1,8
   1c092:	fece62e3          	bltu	t3,a2,0x1c076
   1c096:	0585                	addi	a1,a1,1
   1c098:	00170793          	addi	a5,a4,1
   1c09c:	ce11                	beqz	a2,0x1c0b8
   1c09e:	fff5c683          	lbu	a3,-1(a1)
   1c0a2:	fff60813          	addi	a6,a2,-1
   1c0a6:	fed78fa3          	sb	a3,-1(a5)
   1c0aa:	ca81                	beqz	a3,0x1c0ba
   1c0ac:	873e                	mv	a4,a5
   1c0ae:	8642                	mv	a2,a6
   1c0b0:	0585                	addi	a1,a1,1
   1c0b2:	00170793          	addi	a5,a4,1
   1c0b6:	f665                	bnez	a2,0x1c09e
   1c0b8:	8082                	ret
   1c0ba:	963a                	add	a2,a2,a4
   1c0bc:	00080863          	beqz	a6,0x1c0cc
   1c0c0:	0785                	addi	a5,a5,1
   1c0c2:	fe078fa3          	sb	zero,-1(a5)
   1c0c6:	fec79de3          	bne	a5,a2,0x1c0c0
   1c0ca:	8082                	ret
   1c0cc:	8082                	ret
   1c0ce:	d8010113          	addi	sp,sp,-640
   1c0d2:	26113c23          	sd	ra,632(sp)
   1c0d6:	25413823          	sd	s4,592(sp)
   1c0da:	25513423          	sd	s5,584(sp)
   1c0de:	23913423          	sd	s9,552(sp)
   1c0e2:	8aae                	mv	s5,a1
   1c0e4:	8cb2                	mv	s9,a2
   1c0e6:	ec36                	sd	a3,24(sp)
   1c0e8:	26813823          	sd	s0,624(sp)
   1c0ec:	26913423          	sd	s1,616(sp)
   1c0f0:	27213023          	sd	s2,608(sp)
   1c0f4:	25313c23          	sd	s3,600(sp)
   1c0f8:	25613023          	sd	s6,576(sp)
   1c0fc:	23713c23          	sd	s7,568(sp)
   1c100:	23813823          	sd	s8,560(sp)
   1c104:	23a13023          	sd	s10,544(sp)
   1c108:	21b13c23          	sd	s11,536(sp)
   1c10c:	8a2a                	mv	s4,a0
   1c10e:	cdcfe0ef          	jal	ra,0x1a5ea
   1c112:	611c                	ld	a5,0(a0)
   1c114:	853e                	mv	a0,a5
   1c116:	fcbe                	sd	a5,120(sp)
   1c118:	eb3f60ef          	jal	ra,0x12fca
   1c11c:	010ad783          	lhu	a5,16(s5)
   1c120:	e202                	sd	zero,256(sp)
   1c122:	e602                	sd	zero,264(sp)
   1c124:	0807f793          	andi	a5,a5,128
   1c128:	f8aa                	sd	a0,112(sp)
   1c12a:	c791                	beqz	a5,0x1c136
   1c12c:	018ab783          	ld	a5,24(s5)
   1c130:	e399                	bnez	a5,0x1c136
   1c132:	7f30006f          	j	0x1d124
   1c136:	000cc783          	lbu	a5,0(s9)
   1c13a:	19010b93          	addi	s7,sp,400
   1c13e:	ea5e                	sd	s7,272(sp)
   1c140:	f202                	sd	zero,288(sp)
   1c142:	10012c23          	sw	zero,280(sp)
   1c146:	f002                	sd	zero,32(sp)
   1c148:	f402                	sd	zero,40(sp)
   1c14a:	e102                	sd	zero,128(sp)
   1c14c:	f482                	sd	zero,104(sp)
   1c14e:	e502                	sd	zero,136(sp)
   1c150:	e902                	sd	zero,144(sp)
   1c152:	e002                	sd	zero,0(sp)
   1c154:	835e                	mv	t1,s7
   1c156:	4d41                	li	s10,16
   1c158:	00005917          	auipc	s2,0x5
   1c15c:	6a890913          	addi	s2,s2,1704 # 0x21800
   1c160:	1c078663          	beqz	a5,0x1c32c
   1c164:	8466                	mv	s0,s9
   1c166:	02500713          	li	a4,37
   1c16a:	2ce78b63          	beq	a5,a4,0x1c440
   1c16e:	00144783          	lbu	a5,1(s0)
   1c172:	0405                	addi	s0,s0,1
   1c174:	fbfd                	bnez	a5,0x1c16a
   1c176:	419404bb          	subw	s1,s0,s9
   1c17a:	1a048963          	beqz	s1,0x1c32c
   1c17e:	7712                	ld	a4,288(sp)
   1c180:	11812783          	lw	a5,280(sp)
   1c184:	01933023          	sd	s9,0(t1)
   1c188:	9726                	add	a4,a4,s1
   1c18a:	2785                	addiw	a5,a5,1
   1c18c:	00933423          	sd	s1,8(t1)
   1c190:	f23a                	sd	a4,288(sp)
   1c192:	10f12c23          	sw	a5,280(sp)
   1c196:	0007871b          	sext.w	a4,a5
   1c19a:	479d                	li	a5,7
   1c19c:	0341                	addi	t1,t1,16
   1c19e:	2ae7c863          	blt	a5,a4,0x1c44e
   1c1a2:	6702                	ld	a4,0(sp)
   1c1a4:	00044783          	lbu	a5,0(s0)
   1c1a8:	9f25                	addw	a4,a4,s1
   1c1aa:	e03a                	sd	a4,0(sp)
   1c1ac:	18078063          	beqz	a5,0x1c32c
   1c1b0:	00144f03          	lbu	t5,1(s0)
   1c1b4:	0c010fa3          	sb	zero,223(sp)
   1c1b8:	0405                	addi	s0,s0,1
   1c1ba:	5efd                	li	t4,-1
   1c1bc:	4b01                	li	s6,0
   1c1be:	4481                	li	s1,0
   1c1c0:	49a5                	li	s3,9
   1c1c2:	02a00c13          	li	s8,42
   1c1c6:	0405                	addi	s0,s0,1
   1c1c8:	000f0d9b          	sext.w	s11,t5
   1c1cc:	05a00693          	li	a3,90
   1c1d0:	fe0d879b          	addiw	a5,s11,-32
   1c1d4:	0007871b          	sext.w	a4,a5
   1c1d8:	04e6e663          	bltu	a3,a4,0x1c224
   1c1dc:	1782                	slli	a5,a5,0x20
   1c1de:	00005717          	auipc	a4,0x5
   1c1e2:	4a270713          	addi	a4,a4,1186 # 0x21680
   1c1e6:	83f9                	srli	a5,a5,0x1e
   1c1e8:	97ba                	add	a5,a5,a4
   1c1ea:	439c                	lw	a5,0(a5)
   1c1ec:	97ba                	add	a5,a5,a4
   1c1ee:	8782                	jr	a5
   1c1f0:	4b01                	li	s6,0
   1c1f2:	00044703          	lbu	a4,0(s0)
   1c1f6:	002b179b          	slliw	a5,s6,0x2
   1c1fa:	01678b3b          	addw	s6,a5,s6
   1c1fe:	fd0d8f1b          	addiw	t5,s11,-48
   1c202:	001b1b1b          	slliw	s6,s6,0x1
   1c206:	fd07079b          	addiw	a5,a4,-48
   1c20a:	0405                	addi	s0,s0,1
   1c20c:	016f0b3b          	addw	s6,t5,s6
   1c210:	00070d9b          	sext.w	s11,a4
   1c214:	fcf9ffe3          	bgeu	s3,a5,0x1c1f2
   1c218:	fe0d879b          	addiw	a5,s11,-32
   1c21c:	0007871b          	sext.w	a4,a5
   1c220:	fae6fee3          	bgeu	a3,a4,0x1c1dc
   1c224:	100d8463          	beqz	s11,0x1c32c
   1c228:	13b10423          	sb	s11,296(sp)
   1c22c:	0c010fa3          	sb	zero,223(sp)
   1c230:	4985                	li	s3,1
   1c232:	4c05                	li	s8,1
   1c234:	12810c93          	addi	s9,sp,296
   1c238:	e802                	sd	zero,16(sp)
   1c23a:	4e81                	li	t4,0
   1c23c:	e882                	sd	zero,80(sp)
   1c23e:	f082                	sd	zero,96(sp)
   1c240:	ec82                	sd	zero,88(sp)
   1c242:	0024f793          	andi	a5,s1,2
   1c246:	0007829b          	sext.w	t0,a5
   1c24a:	c391                	beqz	a5,0x1c24e
   1c24c:	2989                	addiw	s3,s3,2
   1c24e:	0844ff93          	andi	t6,s1,132
   1c252:	7792                	ld	a5,288(sp)
   1c254:	000f9663          	bnez	t6,0x1c260
   1c258:	413b06bb          	subw	a3,s6,s3
   1c25c:	22d04ce3          	bgtz	a3,0x1cc94
   1c260:	0df14703          	lbu	a4,223(sp)
   1c264:	c70d                	beqz	a4,0x1c28e
   1c266:	11812703          	lw	a4,280(sp)
   1c26a:	0df10693          	addi	a3,sp,223
   1c26e:	00d33023          	sd	a3,0(t1)
   1c272:	2705                	addiw	a4,a4,1
   1c274:	4685                	li	a3,1
   1c276:	0785                	addi	a5,a5,1
   1c278:	00d33423          	sd	a3,8(t1)
   1c27c:	10e12c23          	sw	a4,280(sp)
   1c280:	0007069b          	sext.w	a3,a4
   1c284:	f23e                	sd	a5,288(sp)
   1c286:	471d                	li	a4,7
   1c288:	0341                	addi	t1,t1,16
   1c28a:	40d74163          	blt	a4,a3,0x1c68c
   1c28e:	02028563          	beqz	t0,0x1c2b8
   1c292:	11812703          	lw	a4,280(sp)
   1c296:	1194                	addi	a3,sp,224
   1c298:	00d33023          	sd	a3,0(t1)
   1c29c:	2705                	addiw	a4,a4,1
   1c29e:	4689                	li	a3,2
   1c2a0:	0789                	addi	a5,a5,2
   1c2a2:	00d33423          	sd	a3,8(t1)
   1c2a6:	10e12c23          	sw	a4,280(sp)
   1c2aa:	0007069b          	sext.w	a3,a4
   1c2ae:	f23e                	sd	a5,288(sp)
   1c2b0:	471d                	li	a4,7
   1c2b2:	0341                	addi	t1,t1,16
   1c2b4:	28d740e3          	blt	a4,a3,0x1cd34
   1c2b8:	08000713          	li	a4,128
   1c2bc:	08ef86e3          	beq	t6,a4,0x1cb48
   1c2c0:	418e8ebb          	subw	t4,t4,s8
   1c2c4:	11d04ae3          	bgtz	t4,0x1cbd8
   1c2c8:	1004f713          	andi	a4,s1,256
   1c2cc:	76071e63          	bnez	a4,0x1ca48
   1c2d0:	11812703          	lw	a4,280(sp)
   1c2d4:	97e2                	add	a5,a5,s8
   1c2d6:	01933023          	sd	s9,0(t1)
   1c2da:	0017069b          	addiw	a3,a4,1
   1c2de:	8736                	mv	a4,a3
   1c2e0:	01833423          	sd	s8,8(t1)
   1c2e4:	10e12c23          	sw	a4,280(sp)
   1c2e8:	f23e                	sd	a5,288(sp)
   1c2ea:	471d                	li	a4,7
   1c2ec:	48d74063          	blt	a4,a3,0x1c76c
   1c2f0:	0341                	addi	t1,t1,16
   1c2f2:	8891                	andi	s1,s1,4
   1c2f4:	c489                	beqz	s1,0x1c2fe
   1c2f6:	413b04bb          	subw	s1,s6,s3
   1c2fa:	24904be3          	bgtz	s1,0x1cd50
   1c2fe:	875a                	mv	a4,s6
   1c300:	013b5363          	bge	s6,s3,0x1c306
   1c304:	874e                	mv	a4,s3
   1c306:	6682                	ld	a3,0(sp)
   1c308:	9f35                	addw	a4,a4,a3
   1c30a:	e03a                	sd	a4,0(sp)
   1c30c:	140793e3          	bnez	a5,0x1cc52
   1c310:	67c2                	ld	a5,16(sp)
   1c312:	10012c23          	sw	zero,280(sp)
   1c316:	c789                	beqz	a5,0x1c320
   1c318:	65c2                	ld	a1,16(sp)
   1c31a:	8552                	mv	a0,s4
   1c31c:	adafb0ef          	jal	ra,0x175f6
   1c320:	835e                	mv	t1,s7
   1c322:	8ca2                	mv	s9,s0
   1c324:	000cc783          	lbu	a5,0(s9)
   1c328:	e2079ee3          	bnez	a5,0x1c164
   1c32c:	7792                	ld	a5,288(sp)
   1c32e:	c399                	beqz	a5,0x1c334
   1c330:	2f00106f          	j	0x1d620
   1c334:	010ad783          	lhu	a5,16(s5)
   1c338:	0407f793          	andi	a5,a5,64
   1c33c:	c399                	beqz	a5,0x1c342
   1c33e:	7840106f          	j	0x1dac2
   1c342:	27813083          	ld	ra,632(sp)
   1c346:	27013403          	ld	s0,624(sp)
   1c34a:	6502                	ld	a0,0(sp)
   1c34c:	26813483          	ld	s1,616(sp)
   1c350:	26013903          	ld	s2,608(sp)
   1c354:	25813983          	ld	s3,600(sp)
   1c358:	25013a03          	ld	s4,592(sp)
   1c35c:	24813a83          	ld	s5,584(sp)
   1c360:	24013b03          	ld	s6,576(sp)
   1c364:	23813b83          	ld	s7,568(sp)
   1c368:	23013c03          	ld	s8,560(sp)
   1c36c:	22813c83          	ld	s9,552(sp)
   1c370:	22013d03          	ld	s10,544(sp)
   1c374:	21813d83          	ld	s11,536(sp)
   1c378:	28010113          	addi	sp,sp,640
   1c37c:	8082                	ret
   1c37e:	0104e493          	ori	s1,s1,16
   1c382:	00044f03          	lbu	t5,0(s0)
   1c386:	2481                	sext.w	s1,s1
   1c388:	bd3d                	j	0x1c1c6
   1c38a:	0104e493          	ori	s1,s1,16
   1c38e:	2481                	sext.w	s1,s1
   1c390:	66e2                	ld	a3,24(sp)
   1c392:	0204f793          	andi	a5,s1,32
   1c396:	00868713          	addi	a4,a3,8
   1c39a:	40078263          	beqz	a5,0x1c79e
   1c39e:	629c                	ld	a5,0(a3)
   1c3a0:	89be                	mv	s3,a5
   1c3a2:	4007cc63          	bltz	a5,0x1c7ba
   1c3a6:	57fd                	li	a5,-1
   1c3a8:	44fe89e3          	beq	t4,a5,0x1cffa
   1c3ac:	f7f4f493          	andi	s1,s1,-129
   1c3b0:	ec3a                	sd	a4,24(sp)
   1c3b2:	0004881b          	sext.w	a6,s1
   1c3b6:	0c0992e3          	bnez	s3,0x1cc7a
   1c3ba:	0c0e93e3          	bnez	t4,0x1cc80
   1c3be:	84c2                	mv	s1,a6
   1c3c0:	4e81                	li	t4,0
   1c3c2:	4c01                	li	s8,0
   1c3c4:	18c10c93          	addi	s9,sp,396
   1c3c8:	000c099b          	sext.w	s3,s8
   1c3cc:	01dc5463          	bge	s8,t4,0x1c3d4
   1c3d0:	000e899b          	sext.w	s3,t4
   1c3d4:	0df14783          	lbu	a5,223(sp)
   1c3d8:	e802                	sd	zero,16(sp)
   1c3da:	e882                	sd	zero,80(sp)
   1c3dc:	f082                	sd	zero,96(sp)
   1c3de:	ec82                	sd	zero,88(sp)
   1c3e0:	e60781e3          	beqz	a5,0x1c242
   1c3e4:	2985                	addiw	s3,s3,1
   1c3e6:	bdb1                	j	0x1c242
   1c3e8:	0104e493          	ori	s1,s1,16
   1c3ec:	2481                	sext.w	s1,s1
   1c3ee:	66e2                	ld	a3,24(sp)
   1c3f0:	0204f793          	andi	a5,s1,32
   1c3f4:	00868713          	addi	a4,a3,8
   1c3f8:	38078463          	beqz	a5,0x1c780
   1c3fc:	0006b983          	ld	s3,0(a3)
   1c400:	bff4f493          	andi	s1,s1,-1025
   1c404:	0004881b          	sext.w	a6,s1
   1c408:	ec3a                	sd	a4,24(sp)
   1c40a:	4781                	li	a5,0
   1c40c:	0c010fa3          	sb	zero,223(sp)
   1c410:	577d                	li	a4,-1
   1c412:	3cee8063          	beq	t4,a4,0x1c7d2
   1c416:	f7f87493          	andi	s1,a6,-129
   1c41a:	2481                	sext.w	s1,s1
   1c41c:	04099be3          	bnez	s3,0x1cc72
   1c420:	6e0e9763          	bnez	t4,0x1cb0e
   1c424:	ffd1                	bnez	a5,0x1c3c0
   1c426:	00187c13          	andi	s8,a6,1
   1c42a:	18c10c93          	addi	s9,sp,396
   1c42e:	f80c0de3          	beqz	s8,0x1c3c8
   1c432:	03000793          	li	a5,48
   1c436:	18f105a3          	sb	a5,395(sp)
   1c43a:	18b10c93          	addi	s9,sp,395
   1c43e:	b769                	j	0x1c3c8
   1c440:	419404bb          	subw	s1,s0,s9
   1c444:	d2049de3          	bnez	s1,0x1c17e
   1c448:	00044783          	lbu	a5,0(s0)
   1c44c:	b385                	j	0x1c1ac
   1c44e:	0a10                	addi	a2,sp,272
   1c450:	85d6                	mv	a1,s5
   1c452:	8552                	mv	a0,s4
   1c454:	3e5010ef          	jal	ra,0x1e038
   1c458:	ec051ee3          	bnez	a0,0x1c334
   1c45c:	835e                	mv	t1,s7
   1c45e:	b391                	j	0x1c1a2
   1c460:	0084f793          	andi	a5,s1,8
   1c464:	36079be3          	bnez	a5,0x1cfda
   1c468:	67e2                	ld	a5,24(sp)
   1c46a:	e81a                	sd	t1,16(sp)
   1c46c:	e476                	sd	t4,8(sp)
   1c46e:	2388                	fld	fa0,0(a5)
   1c470:	00878693          	addi	a3,a5,8
   1c474:	ec36                	sd	a3,24(sp)
   1c476:	405030ef          	jal	ra,0x2007a
   1c47a:	6342                	ld	t1,16(sp)
   1c47c:	6ea2                	ld	t4,8(sp)
   1c47e:	e22a                	sd	a0,256(sp)
   1c480:	e62e                	sd	a1,264(sp)
   1c482:	0208                	addi	a0,sp,256
   1c484:	e81a                	sd	t1,16(sp)
   1c486:	e476                	sd	t4,8(sp)
   1c488:	922fe0ef          	jal	ra,0x1a5aa
   1c48c:	d5aa                	sw	a0,232(sp)
   1c48e:	4789                	li	a5,2
   1c490:	6ea2                	ld	t4,8(sp)
   1c492:	6342                	ld	t1,16(sp)
   1c494:	76f503e3          	beq	a0,a5,0x1d3fa
   1c498:	4785                	li	a5,1
   1c49a:	00f51463          	bne	a0,a5,0x1c4a2
   1c49e:	0b40106f          	j	0x1d552
   1c4a2:	06100793          	li	a5,97
   1c4a6:	00fd9463          	bne	s11,a5,0x1c4ae
   1c4aa:	5c40106f          	j	0x1da6e
   1c4ae:	04100793          	li	a5,65
   1c4b2:	00fd9463          	bne	s11,a5,0x1c4ba
   1c4b6:	38c0106f          	j	0x1d842
   1c4ba:	fdfdf713          	andi	a4,s11,-33
   1c4be:	57fd                	li	a5,-1
   1c4c0:	f0ba                	sd	a4,96(sp)
   1c4c2:	00fe9463          	bne	t4,a5,0x1c4ca
   1c4c6:	1940106f          	j	0x1d65a
   1c4ca:	04700793          	li	a5,71
   1c4ce:	00f71463          	bne	a4,a5,0x1c4d6
   1c4d2:	5f80106f          	j	0x1daca
   1c4d6:	69b2                	ld	s3,264(sp)
   1c4d8:	1004e793          	ori	a5,s1,256
   1c4dc:	ed26                	sd	s1,152(sp)
   1c4de:	6c12                	ld	s8,256(sp)
   1c4e0:	2781                	sext.w	a5,a5
   1c4e2:	0009d463          	bgez	s3,0x1c4ea
   1c4e6:	6520106f          	j	0x1db38
   1c4ea:	e582                	sd	zero,200(sp)
   1c4ec:	84be                	mv	s1,a5
   1c4ee:	e802                	sd	zero,16(sp)
   1c4f0:	2701                	sext.w	a4,a4
   1c4f2:	04600793          	li	a5,70
   1c4f6:	00f71463          	bne	a4,a5,0x1c4fe
   1c4fa:	2580106f          	j	0x1d752
   1c4fe:	7706                	ld	a4,96(sp)
   1c500:	04500793          	li	a5,69
   1c504:	00f70463          	beq	a4,a5,0x1c50c
   1c508:	20a0106f          	j	0x1d712
   1c50c:	001e871b          	addiw	a4,t4,1
   1c510:	0f810893          	addi	a7,sp,248
   1c514:	0ec10813          	addi	a6,sp,236
   1c518:	11bc                	addi	a5,sp,232
   1c51a:	4689                	li	a3,2
   1c51c:	85e2                	mv	a1,s8
   1c51e:	864e                	mv	a2,s3
   1c520:	8552                	mv	a0,s4
   1c522:	f81a                	sd	t1,48(sp)
   1c524:	f076                	sd	t4,32(sp)
   1c526:	e43a                	sd	a4,8(sp)
   1c528:	a0afd0ef          	jal	ra,0x19732
   1c52c:	6722                	ld	a4,8(sp)
   1c52e:	7e82                	ld	t4,32(sp)
   1c530:	7342                	ld	t1,48(sp)
   1c532:	8caa                	mv	s9,a0
   1c534:	00e508b3          	add	a7,a0,a4
   1c538:	4601                	li	a2,0
   1c53a:	4681                	li	a3,0
   1c53c:	8562                	mv	a0,s8
   1c53e:	85ce                	mv	a1,s3
   1c540:	f846                	sd	a7,48(sp)
   1c542:	f01a                	sd	t1,32(sp)
   1c544:	e476                	sd	t4,8(sp)
   1c546:	251020ef          	jal	ra,0x1ef96
   1c54a:	78c2                	ld	a7,48(sp)
   1c54c:	6ea2                	ld	t4,8(sp)
   1c54e:	7302                	ld	t1,32(sp)
   1c550:	87c6                	mv	a5,a7
   1c552:	cd11                	beqz	a0,0x1c56e
   1c554:	77ee                	ld	a5,248(sp)
   1c556:	0117fc63          	bgeu	a5,a7,0x1c56e
   1c55a:	03000693          	li	a3,48
   1c55e:	00178713          	addi	a4,a5,1
   1c562:	fdba                	sd	a4,248(sp)
   1c564:	00d78023          	sb	a3,0(a5)
   1c568:	77ee                	ld	a5,248(sp)
   1c56a:	ff17eae3          	bltu	a5,a7,0x1c55e
   1c56e:	419787bb          	subw	a5,a5,s9
   1c572:	f03e                	sd	a5,32(sp)
   1c574:	572e                	lw	a4,232(sp)
   1c576:	04700793          	li	a5,71
   1c57a:	ecba                	sd	a4,88(sp)
   1c57c:	7706                	ld	a4,96(sp)
   1c57e:	00f71463          	bne	a4,a5,0x1c586
   1c582:	0ec0106f          	j	0x1d66e
   1c586:	7706                	ld	a4,96(sp)
   1c588:	04600793          	li	a5,70
   1c58c:	00f71463          	bne	a4,a5,0x1c594
   1c590:	2980106f          	j	0x1d828
   1c594:	67e6                	ld	a5,88(sp)
   1c596:	7586                	ld	a1,96(sp)
   1c598:	04100613          	li	a2,65
   1c59c:	37fd                	addiw	a5,a5,-1
   1c59e:	d5be                	sw	a5,232(sp)
   1c5a0:	0ffdf713          	andi	a4,s11,255
   1c5a4:	4681                	li	a3,0
   1c5a6:	00c59663          	bne	a1,a2,0x1c5b2
   1c5aa:	273d                	addiw	a4,a4,15
   1c5ac:	0ff77713          	andi	a4,a4,255
   1c5b0:	4685                	li	a3,1
   1c5b2:	0ee10823          	sb	a4,240(sp)
   1c5b6:	02b00713          	li	a4,43
   1c5ba:	0007d763          	bgez	a5,0x1c5c8
   1c5be:	6766                	ld	a4,88(sp)
   1c5c0:	4785                	li	a5,1
   1c5c2:	9f99                	subw	a5,a5,a4
   1c5c4:	02d00713          	li	a4,45
   1c5c8:	0ee108a3          	sb	a4,241(sp)
   1c5cc:	4725                	li	a4,9
   1c5ce:	00f74463          	blt	a4,a5,0x1c5d6
   1c5d2:	53c0106f          	j	0x1db0e
   1c5d6:	0ff10513          	addi	a0,sp,255
   1c5da:	85aa                	mv	a1,a0
   1c5dc:	46a9                	li	a3,10
   1c5de:	06300e93          	li	t4,99
   1c5e2:	02d7e73b          	remw	a4,a5,a3
   1c5e6:	862e                	mv	a2,a1
   1c5e8:	88be                	mv	a7,a5
   1c5ea:	15fd                	addi	a1,a1,-1
   1c5ec:	0307071b          	addiw	a4,a4,48
   1c5f0:	fee60fa3          	sb	a4,-1(a2)
   1c5f4:	02d7c7bb          	divw	a5,a5,a3
   1c5f8:	ff1ec5e3          	blt	t4,a7,0x1c5e2
   1c5fc:	0307879b          	addiw	a5,a5,48
   1c600:	0ff7f693          	andi	a3,a5,255
   1c604:	fed58fa3          	sb	a3,-1(a1)
   1c608:	ffe60793          	addi	a5,a2,-2
   1c60c:	00a7e463          	bltu	a5,a0,0x1c614
   1c610:	6880106f          	j	0x1dc98
   1c614:	0f210713          	addi	a4,sp,242
   1c618:	a019                	j	0x1c61e
   1c61a:	0007c683          	lbu	a3,0(a5)
   1c61e:	00d70023          	sb	a3,0(a4)
   1c622:	0785                	addi	a5,a5,1
   1c624:	0705                	addi	a4,a4,1
   1c626:	fea79ae3          	bne	a5,a0,0x1c61a
   1c62a:	10110793          	addi	a5,sp,257
   1c62e:	0f210713          	addi	a4,sp,242
   1c632:	8f91                	sub	a5,a5,a2
   1c634:	97ba                	add	a5,a5,a4
   1c636:	1998                	addi	a4,sp,240
   1c638:	9f99                	subw	a5,a5,a4
   1c63a:	e13e                	sd	a5,128(sp)
   1c63c:	678a                	ld	a5,128(sp)
   1c63e:	7682                	ld	a3,32(sp)
   1c640:	4705                	li	a4,1
   1c642:	00f68c3b          	addw	s8,a3,a5
   1c646:	87e2                	mv	a5,s8
   1c648:	00d74463          	blt	a4,a3,0x1c650
   1c64c:	5e20106f          	j	0x1dc2e
   1c650:	7746                	ld	a4,112(sp)
   1c652:	00e78c3b          	addw	s8,a5,a4
   1c656:	67ea                	ld	a5,152(sp)
   1c658:	fffc4993          	not	s3,s8
   1c65c:	43f9d993          	srai	s3,s3,0x3f
   1c660:	bff7f493          	andi	s1,a5,-1025
   1c664:	2481                	sext.w	s1,s1
   1c666:	013c79b3          	and	s3,s8,s3
   1c66a:	1004e493          	ori	s1,s1,256
   1c66e:	2981                	sext.w	s3,s3
   1c670:	e882                	sd	zero,80(sp)
   1c672:	f082                	sd	zero,96(sp)
   1c674:	ec82                	sd	zero,88(sp)
   1c676:	67ae                	ld	a5,200(sp)
   1c678:	e399                	bnez	a5,0x1c67e
   1c67a:	04a0106f          	j	0x1d6c4
   1c67e:	02d00793          	li	a5,45
   1c682:	0cf10fa3          	sb	a5,223(sp)
   1c686:	4e81                	li	t4,0
   1c688:	2985                	addiw	s3,s3,1
   1c68a:	be65                	j	0x1c242
   1c68c:	0a10                	addi	a2,sp,272
   1c68e:	85d6                	mv	a1,s5
   1c690:	8552                	mv	a0,s4
   1c692:	fc76                	sd	t4,56(sp)
   1c694:	f87e                	sd	t6,48(sp)
   1c696:	e416                	sd	t0,8(sp)
   1c698:	1a1010ef          	jal	ra,0x1e038
   1c69c:	5c051263          	bnez	a0,0x1cc60
   1c6a0:	7792                	ld	a5,288(sp)
   1c6a2:	7ee2                	ld	t4,56(sp)
   1c6a4:	7fc2                	ld	t6,48(sp)
   1c6a6:	62a2                	ld	t0,8(sp)
   1c6a8:	835e                	mv	t1,s7
   1c6aa:	b6d5                	j	0x1c28e
   1c6ac:	11812603          	lw	a2,280(sp)
   1c6b0:	00178d93          	addi	s11,a5,1
   1c6b4:	7782                	ld	a5,32(sp)
   1c6b6:	0016071b          	addiw	a4,a2,1
   1c6ba:	4585                	li	a1,1
   1c6bc:	01933023          	sd	s9,0(t1)
   1c6c0:	86ba                	mv	a3,a4
   1c6c2:	01030c13          	addi	s8,t1,16
   1c6c6:	02f5d7e3          	bge	a1,a5,0x1cef4
   1c6ca:	4605                	li	a2,1
   1c6cc:	10d12c23          	sw	a3,280(sp)
   1c6d0:	00c33423          	sd	a2,8(t1)
   1c6d4:	f26e                	sd	s11,288(sp)
   1c6d6:	469d                	li	a3,7
   1c6d8:	0ae6c6e3          	blt	a3,a4,0x1cf84
   1c6dc:	77c6                	ld	a5,112(sp)
   1c6de:	0017069b          	addiw	a3,a4,1
   1c6e2:	7766                	ld	a4,120(sp)
   1c6e4:	9dbe                	add	s11,s11,a5
   1c6e6:	00fc3423          	sd	a5,8(s8)
   1c6ea:	00ec3023          	sd	a4,0(s8)
   1c6ee:	10d12c23          	sw	a3,280(sp)
   1c6f2:	0006871b          	sext.w	a4,a3
   1c6f6:	f26e                	sd	s11,288(sp)
   1c6f8:	469d                	li	a3,7
   1c6fa:	0c41                	addi	s8,s8,16
   1c6fc:	0ae6c1e3          	blt	a3,a4,0x1cf9e
   1c700:	6512                	ld	a0,256(sp)
   1c702:	65b2                	ld	a1,264(sp)
   1c704:	0017089b          	addiw	a7,a4,1
   1c708:	4601                	li	a2,0
   1c70a:	4681                	li	a3,0
   1c70c:	e446                	sd	a7,8(sp)
   1c70e:	f83a                	sd	a4,48(sp)
   1c710:	087020ef          	jal	ra,0x1ef96
   1c714:	68a2                	ld	a7,8(sp)
   1c716:	7782                	ld	a5,32(sp)
   1c718:	010c0313          	addi	t1,s8,16
   1c71c:	0008861b          	sext.w	a2,a7
   1c720:	fff7869b          	addiw	a3,a5,-1
   1c724:	7e050963          	beqz	a0,0x1cf16
   1c728:	9db6                	add	s11,s11,a3
   1c72a:	001c8813          	addi	a6,s9,1
   1c72e:	00dc3423          	sd	a3,8(s8)
   1c732:	010c3023          	sd	a6,0(s8)
   1c736:	f26e                	sd	s11,288(sp)
   1c738:	11112c23          	sw	a7,280(sp)
   1c73c:	469d                	li	a3,7
   1c73e:	38c6c5e3          	blt	a3,a2,0x1d2c8
   1c742:	7742                	ld	a4,48(sp)
   1c744:	020c0693          	addi	a3,s8,32
   1c748:	8c1a                	mv	s8,t1
   1c74a:	0027061b          	addiw	a2,a4,2
   1c74e:	8336                	mv	t1,a3
   1c750:	668a                	ld	a3,128(sp)
   1c752:	1998                	addi	a4,sp,240
   1c754:	00ec3023          	sd	a4,0(s8)
   1c758:	01b687b3          	add	a5,a3,s11
   1c75c:	00dc3423          	sd	a3,8(s8)
   1c760:	f23e                	sd	a5,288(sp)
   1c762:	10c12c23          	sw	a2,280(sp)
   1c766:	471d                	li	a4,7
   1c768:	b8c755e3          	bge	a4,a2,0x1c2f2
   1c76c:	0a10                	addi	a2,sp,272
   1c76e:	85d6                	mv	a1,s5
   1c770:	8552                	mv	a0,s4
   1c772:	0c7010ef          	jal	ra,0x1e038
   1c776:	4e051563          	bnez	a0,0x1cc60
   1c77a:	7792                	ld	a5,288(sp)
   1c77c:	835e                	mv	t1,s7
   1c77e:	be95                	j	0x1c2f2
   1c780:	0104f793          	andi	a5,s1,16
   1c784:	060796e3          	bnez	a5,0x1cff0
   1c788:	66e2                	ld	a3,24(sp)
   1c78a:	0404f793          	andi	a5,s1,64
   1c78e:	0006a983          	lw	s3,0(a3)
   1c792:	580780e3          	beqz	a5,0x1d512
   1c796:	19c2                	slli	s3,s3,0x30
   1c798:	0309d993          	srli	s3,s3,0x30
   1c79c:	b195                	j	0x1c400
   1c79e:	0104f793          	andi	a5,s1,16
   1c7a2:	020790e3          	bnez	a5,0x1cfc2
   1c7a6:	0404f793          	andi	a5,s1,64
   1c7aa:	580785e3          	beqz	a5,0x1d534
   1c7ae:	67e2                	ld	a5,24(sp)
   1c7b0:	00079983          	lh	s3,0(a5)
   1c7b4:	87ce                	mv	a5,s3
   1c7b6:	be07d8e3          	bgez	a5,0x1c3a6
   1c7ba:	02d00793          	li	a5,45
   1c7be:	0cf10fa3          	sb	a5,223(sp)
   1c7c2:	ec3a                	sd	a4,24(sp)
   1c7c4:	577d                	li	a4,-1
   1c7c6:	413009b3          	neg	s3,s3
   1c7ca:	8826                	mv	a6,s1
   1c7cc:	4785                	li	a5,1
   1c7ce:	c4ee94e3          	bne	t4,a4,0x1c416
   1c7d2:	4705                	li	a4,1
   1c7d4:	4ae78363          	beq	a5,a4,0x1cc7a
   1c7d8:	4709                	li	a4,2
   1c7da:	34e78363          	beq	a5,a4,0x1cb20
   1c7de:	18c10c13          	addi	s8,sp,396
   1c7e2:	8ce2                	mv	s9,s8
   1c7e4:	0079f793          	andi	a5,s3,7
   1c7e8:	03078793          	addi	a5,a5,48
   1c7ec:	fefc8fa3          	sb	a5,-1(s9)
   1c7f0:	0039d993          	srli	s3,s3,0x3
   1c7f4:	8766                	mv	a4,s9
   1c7f6:	1cfd                	addi	s9,s9,-1
   1c7f8:	fe0996e3          	bnez	s3,0x1c7e4
   1c7fc:	00187693          	andi	a3,a6,1
   1c800:	34068063          	beqz	a3,0x1cb40
   1c804:	03000693          	li	a3,48
   1c808:	32d78c63          	beq	a5,a3,0x1cb40
   1c80c:	1779                	addi	a4,a4,-2
   1c80e:	fedc8fa3          	sb	a3,-1(s9)
   1c812:	40ec0c3b          	subw	s8,s8,a4
   1c816:	84c2                	mv	s1,a6
   1c818:	8cba                	mv	s9,a4
   1c81a:	b67d                	j	0x1c3c8
   1c81c:	6762                	ld	a4,24(sp)
   1c81e:	0c010fa3          	sb	zero,223(sp)
   1c822:	4985                	li	s3,1
   1c824:	431c                	lw	a5,0(a4)
   1c826:	0721                	addi	a4,a4,8
   1c828:	ec3a                	sd	a4,24(sp)
   1c82a:	12f10423          	sb	a5,296(sp)
   1c82e:	4c05                	li	s8,1
   1c830:	12810c93          	addi	s9,sp,296
   1c834:	b411                	j	0x1c238
   1c836:	67e2                	ld	a5,24(sp)
   1c838:	0c010fa3          	sb	zero,223(sp)
   1c83c:	0007bc83          	ld	s9,0(a5)
   1c840:	00878693          	addi	a3,a5,8
   1c844:	100c81e3          	beqz	s9,0x1d146
   1c848:	57fd                	li	a5,-1
   1c84a:	46fe82e3          	beq	t4,a5,0x1d4ae
   1c84e:	8676                	mv	a2,t4
   1c850:	4581                	li	a1,0
   1c852:	8566                	mv	a0,s9
   1c854:	f836                	sd	a3,48(sp)
   1c856:	ec1a                	sd	t1,24(sp)
   1c858:	e476                	sd	t4,8(sp)
   1c85a:	f89fd0ef          	jal	ra,0x1a7e2
   1c85e:	e82a                	sd	a0,16(sp)
   1c860:	6ea2                	ld	t4,8(sp)
   1c862:	6362                	ld	t1,24(sp)
   1c864:	76c2                	ld	a3,48(sp)
   1c866:	e119                	bnez	a0,0x1c86c
   1c868:	75b0006f          	j	0x1d7c2
   1c86c:	67c2                	ld	a5,16(sp)
   1c86e:	ec36                	sd	a3,24(sp)
   1c870:	e802                	sd	zero,16(sp)
   1c872:	41978c3b          	subw	s8,a5,s9
   1c876:	fffc4993          	not	s3,s8
   1c87a:	0df14783          	lbu	a5,223(sp)
   1c87e:	43f9d993          	srai	s3,s3,0x3f
   1c882:	013c79b3          	and	s3,s8,s3
   1c886:	e882                	sd	zero,80(sp)
   1c888:	f082                	sd	zero,96(sp)
   1c88a:	ec82                	sd	zero,88(sp)
   1c88c:	2981                	sext.w	s3,s3
   1c88e:	4e81                	li	t4,0
   1c890:	b4079ae3          	bnez	a5,0x1c3e4
   1c894:	b27d                	j	0x1c242
   1c896:	00044f03          	lbu	t5,0(s0)
   1c89a:	0044e493          	ori	s1,s1,4
   1c89e:	2481                	sext.w	s1,s1
   1c8a0:	b21d                	j	0x1c1c6
   1c8a2:	0084e493          	ori	s1,s1,8
   1c8a6:	00044f03          	lbu	t5,0(s0)
   1c8aa:	2481                	sext.w	s1,s1
   1c8ac:	ba29                	j	0x1c1c6
   1c8ae:	02b00793          	li	a5,43
   1c8b2:	00044f03          	lbu	t5,0(s0)
   1c8b6:	0cf10fa3          	sb	a5,223(sp)
   1c8ba:	b231                	j	0x1c1c6
   1c8bc:	0804e493          	ori	s1,s1,128
   1c8c0:	00044f03          	lbu	t5,0(s0)
   1c8c4:	2481                	sext.w	s1,s1
   1c8c6:	b201                	j	0x1c1c6
   1c8c8:	00044703          	lbu	a4,0(s0)
   1c8cc:	00140793          	addi	a5,s0,1
   1c8d0:	00070d9b          	sext.w	s11,a4
   1c8d4:	00ec1463          	bne	s8,a4,0x1c8dc
   1c8d8:	3960106f          	j	0x1dc6e
   1c8dc:	fd07071b          	addiw	a4,a4,-48
   1c8e0:	843e                	mv	s0,a5
   1c8e2:	4e81                	li	t4,0
   1c8e4:	8ee9e6e3          	bltu	s3,a4,0x1c1d0
   1c8e8:	00044d83          	lbu	s11,0(s0)
   1c8ec:	002e979b          	slliw	a5,t4,0x2
   1c8f0:	01d78ebb          	addw	t4,a5,t4
   1c8f4:	001e9e9b          	slliw	t4,t4,0x1
   1c8f8:	00ee8ebb          	addw	t4,t4,a4
   1c8fc:	fd0d871b          	addiw	a4,s11,-48
   1c900:	0405                	addi	s0,s0,1
   1c902:	fee9f3e3          	bgeu	s3,a4,0x1c8e8
   1c906:	b0e9                	j	0x1c1d0
   1c908:	67e2                	ld	a5,24(sp)
   1c90a:	00044f03          	lbu	t5,0(s0)
   1c90e:	0007ab03          	lw	s6,0(a5)
   1c912:	07a1                	addi	a5,a5,8
   1c914:	ec3e                	sd	a5,24(sp)
   1c916:	8a0b58e3          	bgez	s6,0x1c1c6
   1c91a:	41600b3b          	negw	s6,s6
   1c91e:	bfb5                	j	0x1c89a
   1c920:	8552                	mv	a0,s4
   1c922:	e81a                	sd	t1,16(sp)
   1c924:	e476                	sd	t4,8(sp)
   1c926:	cc5fd0ef          	jal	ra,0x1a5ea
   1c92a:	651c                	ld	a5,8(a0)
   1c92c:	853e                	mv	a0,a5
   1c92e:	e93e                	sd	a5,144(sp)
   1c930:	e9af60ef          	jal	ra,0x12fca
   1c934:	87aa                	mv	a5,a0
   1c936:	8552                	mv	a0,s4
   1c938:	8dbe                	mv	s11,a5
   1c93a:	e53e                	sd	a5,136(sp)
   1c93c:	caffd0ef          	jal	ra,0x1a5ea
   1c940:	6918                	ld	a4,16(a0)
   1c942:	6ea2                	ld	t4,8(sp)
   1c944:	6342                	ld	t1,16(sp)
   1c946:	f4ba                	sd	a4,104(sp)
   1c948:	00044f03          	lbu	t5,0(s0)
   1c94c:	860d8de3          	beqz	s11,0x1c1c6
   1c950:	86070be3          	beqz	a4,0x1c1c6
   1c954:	00074783          	lbu	a5,0(a4)
   1c958:	860787e3          	beqz	a5,0x1c1c6
   1c95c:	4004e493          	ori	s1,s1,1024
   1c960:	2481                	sext.w	s1,s1
   1c962:	b095                	j	0x1c1c6
   1c964:	0014e493          	ori	s1,s1,1
   1c968:	00044f03          	lbu	t5,0(s0)
   1c96c:	2481                	sext.w	s1,s1
   1c96e:	b8a1                	j	0x1c1c6
   1c970:	0df14783          	lbu	a5,223(sp)
   1c974:	00044f03          	lbu	t5,0(s0)
   1c978:	840797e3          	bnez	a5,0x1c1c6
   1c97c:	02000793          	li	a5,32
   1c980:	0cf10fa3          	sb	a5,223(sp)
   1c984:	b089                	j	0x1c1c6
   1c986:	0104e493          	ori	s1,s1,16
   1c98a:	0004881b          	sext.w	a6,s1
   1c98e:	66e2                	ld	a3,24(sp)
   1c990:	02087793          	andi	a5,a6,32
   1c994:	00868713          	addi	a4,a3,8
   1c998:	5c078563          	beqz	a5,0x1cf62
   1c99c:	0006b983          	ld	s3,0(a3)
   1c9a0:	4785                	li	a5,1
   1c9a2:	ec3a                	sd	a4,24(sp)
   1c9a4:	b4a5                	j	0x1c40c
   1c9a6:	0204e493          	ori	s1,s1,32
   1c9aa:	00044f03          	lbu	t5,0(s0)
   1c9ae:	2481                	sext.w	s1,s1
   1c9b0:	817ff06f          	j	0x1c1c6
   1c9b4:	6762                	ld	a4,24(sp)
   1c9b6:	77e1                	lui	a5,0xffff8
   1c9b8:	8307c793          	xori	a5,a5,-2000
   1c9bc:	0ef11023          	sh	a5,224(sp)
   1c9c0:	00870793          	addi	a5,a4,8
   1c9c4:	0024e493          	ori	s1,s1,2
   1c9c8:	ec3e                	sd	a5,24(sp)
   1c9ca:	00004797          	auipc	a5,0x4
   1c9ce:	31678793          	addi	a5,a5,790 # 0x20ce0
   1c9d2:	f43e                	sd	a5,40(sp)
   1c9d4:	00073983          	ld	s3,0(a4)
   1c9d8:	0004881b          	sext.w	a6,s1
   1c9dc:	4789                	li	a5,2
   1c9de:	07800d93          	li	s11,120
   1c9e2:	b42d                	j	0x1c40c
   1c9e4:	66e2                	ld	a3,24(sp)
   1c9e6:	0204f793          	andi	a5,s1,32
   1c9ea:	6298                	ld	a4,0(a3)
   1c9ec:	06a1                	addi	a3,a3,8
   1c9ee:	ec36                	sd	a3,24(sp)
   1c9f0:	e395                	bnez	a5,0x1ca14
   1c9f2:	0104f793          	andi	a5,s1,16
   1c9f6:	ef99                	bnez	a5,0x1ca14
   1c9f8:	0404f793          	andi	a5,s1,64
   1c9fc:	3e0796e3          	bnez	a5,0x1d5e8
   1ca00:	2004f493          	andi	s1,s1,512
   1ca04:	6782                	ld	a5,0(sp)
   1ca06:	e099                	bnez	s1,0x1ca0c
   1ca08:	0b20106f          	j	0x1daba
   1ca0c:	00f70023          	sb	a5,0(a4)
   1ca10:	8ca2                	mv	s9,s0
   1ca12:	ba09                	j	0x1c324
   1ca14:	6782                	ld	a5,0(sp)
   1ca16:	8ca2                	mv	s9,s0
   1ca18:	e31c                	sd	a5,0(a4)
   1ca1a:	b229                	j	0x1c324
   1ca1c:	00044f03          	lbu	t5,0(s0)
   1ca20:	06c00793          	li	a5,108
   1ca24:	6cff0863          	beq	t5,a5,0x1d0f4
   1ca28:	0104e493          	ori	s1,s1,16
   1ca2c:	2481                	sext.w	s1,s1
   1ca2e:	f98ff06f          	j	0x1c1c6
   1ca32:	00044f03          	lbu	t5,0(s0)
   1ca36:	06800793          	li	a5,104
   1ca3a:	6aff0563          	beq	t5,a5,0x1d0e4
   1ca3e:	0404e493          	ori	s1,s1,64
   1ca42:	2481                	sext.w	s1,s1
   1ca44:	f82ff06f          	j	0x1c1c6
   1ca48:	06500713          	li	a4,101
   1ca4c:	c7b750e3          	bge	a4,s11,0x1c6ac
   1ca50:	6512                	ld	a0,256(sp)
   1ca52:	65b2                	ld	a1,264(sp)
   1ca54:	4601                	li	a2,0
   1ca56:	4681                	li	a3,0
   1ca58:	f83e                	sd	a5,48(sp)
   1ca5a:	e41a                	sd	t1,8(sp)
   1ca5c:	53a020ef          	jal	ra,0x1ef96
   1ca60:	6322                	ld	t1,8(sp)
   1ca62:	77c2                	ld	a5,48(sp)
   1ca64:	36051663          	bnez	a0,0x1cdd0
   1ca68:	11812703          	lw	a4,280(sp)
   1ca6c:	00004697          	auipc	a3,0x4
   1ca70:	44468693          	addi	a3,a3,1092 # 0x20eb0
   1ca74:	00d33023          	sd	a3,0(t1)
   1ca78:	2705                	addiw	a4,a4,1
   1ca7a:	4685                	li	a3,1
   1ca7c:	0785                	addi	a5,a5,1
   1ca7e:	00d33423          	sd	a3,8(t1)
   1ca82:	10e12c23          	sw	a4,280(sp)
   1ca86:	0007069b          	sext.w	a3,a4
   1ca8a:	f23e                	sd	a5,288(sp)
   1ca8c:	471d                	li	a4,7
   1ca8e:	0341                	addi	t1,t1,16
   1ca90:	12d741e3          	blt	a4,a3,0x1d3b2
   1ca94:	572e                	lw	a4,232(sp)
   1ca96:	7682                	ld	a3,32(sp)
   1ca98:	52d75063          	bge	a4,a3,0x1cfb8
   1ca9c:	7766                	ld	a4,120(sp)
   1ca9e:	76c6                	ld	a3,112(sp)
   1caa0:	0341                	addi	t1,t1,16
   1caa2:	fee33823          	sd	a4,-16(t1)
   1caa6:	11812703          	lw	a4,280(sp)
   1caaa:	97b6                	add	a5,a5,a3
   1caac:	fed33c23          	sd	a3,-8(t1)
   1cab0:	2705                	addiw	a4,a4,1
   1cab2:	0007069b          	sext.w	a3,a4
   1cab6:	10e12c23          	sw	a4,280(sp)
   1caba:	f23e                	sd	a5,288(sp)
   1cabc:	471d                	li	a4,7
   1cabe:	64d74963          	blt	a4,a3,0x1d110
   1cac2:	7702                	ld	a4,32(sp)
   1cac4:	fff70c1b          	addiw	s8,a4,-1
   1cac8:	838055e3          	blez	s8,0x1c2f2
   1cacc:	11812703          	lw	a4,280(sp)
   1cad0:	0f8d5ce3          	bge	s10,s8,0x1d3c8
   1cad4:	4c9d                	li	s9,7
   1cad6:	a021                	j	0x1cade
   1cad8:	3c41                	addiw	s8,s8,-16
   1cada:	0f8d57e3          	bge	s10,s8,0x1d3c8
   1cade:	2705                	addiw	a4,a4,1
   1cae0:	07c1                	addi	a5,a5,16
   1cae2:	01233023          	sd	s2,0(t1)
   1cae6:	01a33423          	sd	s10,8(t1)
   1caea:	f23e                	sd	a5,288(sp)
   1caec:	10e12c23          	sw	a4,280(sp)
   1caf0:	0341                	addi	t1,t1,16
   1caf2:	feecd3e3          	bge	s9,a4,0x1cad8
   1caf6:	0a10                	addi	a2,sp,272
   1caf8:	85d6                	mv	a1,s5
   1cafa:	8552                	mv	a0,s4
   1cafc:	53c010ef          	jal	ra,0x1e038
   1cb00:	16051063          	bnez	a0,0x1cc60
   1cb04:	7792                	ld	a5,288(sp)
   1cb06:	11812703          	lw	a4,280(sp)
   1cb0a:	835e                	mv	t1,s7
   1cb0c:	b7f1                	j	0x1cad8
   1cb0e:	4705                	li	a4,1
   1cb10:	00e79463          	bne	a5,a4,0x1cb18
   1cb14:	7550006f          	j	0x1da68
   1cb18:	4709                	li	a4,2
   1cb1a:	8826                	mv	a6,s1
   1cb1c:	cce791e3          	bne	a5,a4,0x1c7de
   1cb20:	18c10c13          	addi	s8,sp,396
   1cb24:	8ce2                	mv	s9,s8
   1cb26:	7722                	ld	a4,40(sp)
   1cb28:	00f9f793          	andi	a5,s3,15
   1cb2c:	1cfd                	addi	s9,s9,-1
   1cb2e:	97ba                	add	a5,a5,a4
   1cb30:	0007c783          	lbu	a5,0(a5)
   1cb34:	0049d993          	srli	s3,s3,0x4
   1cb38:	00fc8023          	sb	a5,0(s9)
   1cb3c:	fe0995e3          	bnez	s3,0x1cb26
   1cb40:	419c0c3b          	subw	s8,s8,s9
   1cb44:	84c2                	mv	s1,a6
   1cb46:	b049                	j	0x1c3c8
   1cb48:	413b06bb          	subw	a3,s6,s3
   1cb4c:	f6d05a63          	blez	a3,0x1c2c0
   1cb50:	11812703          	lw	a4,280(sp)
   1cb54:	04dd5563          	bge	s10,a3,0x1cb9e
   1cb58:	489d                	li	a7,7
   1cb5a:	a021                	j	0x1cb62
   1cb5c:	36c1                	addiw	a3,a3,-16
   1cb5e:	04dd5063          	bge	s10,a3,0x1cb9e
   1cb62:	2705                	addiw	a4,a4,1
   1cb64:	07c1                	addi	a5,a5,16
   1cb66:	01233023          	sd	s2,0(t1)
   1cb6a:	01a33423          	sd	s10,8(t1)
   1cb6e:	f23e                	sd	a5,288(sp)
   1cb70:	10e12c23          	sw	a4,280(sp)
   1cb74:	0341                	addi	t1,t1,16
   1cb76:	fee8d3e3          	bge	a7,a4,0x1cb5c
   1cb7a:	0a10                	addi	a2,sp,272
   1cb7c:	85d6                	mv	a1,s5
   1cb7e:	8552                	mv	a0,s4
   1cb80:	f836                	sd	a3,48(sp)
   1cb82:	e476                	sd	t4,8(sp)
   1cb84:	4b4010ef          	jal	ra,0x1e038
   1cb88:	ed61                	bnez	a0,0x1cc60
   1cb8a:	76c2                	ld	a3,48(sp)
   1cb8c:	7792                	ld	a5,288(sp)
   1cb8e:	11812703          	lw	a4,280(sp)
   1cb92:	36c1                	addiw	a3,a3,-16
   1cb94:	6ea2                	ld	t4,8(sp)
   1cb96:	835e                	mv	t1,s7
   1cb98:	489d                	li	a7,7
   1cb9a:	fcdd44e3          	blt	s10,a3,0x1cb62
   1cb9e:	2705                	addiw	a4,a4,1
   1cba0:	97b6                	add	a5,a5,a3
   1cba2:	00d33423          	sd	a3,8(t1)
   1cba6:	01233023          	sd	s2,0(t1)
   1cbaa:	0007069b          	sext.w	a3,a4
   1cbae:	10e12c23          	sw	a4,280(sp)
   1cbb2:	f23e                	sd	a5,288(sp)
   1cbb4:	471d                	li	a4,7
   1cbb6:	0341                	addi	t1,t1,16
   1cbb8:	f0d75463          	bge	a4,a3,0x1c2c0
   1cbbc:	0a10                	addi	a2,sp,272
   1cbbe:	85d6                	mv	a1,s5
   1cbc0:	8552                	mv	a0,s4
   1cbc2:	e476                	sd	t4,8(sp)
   1cbc4:	474010ef          	jal	ra,0x1e038
   1cbc8:	ed41                	bnez	a0,0x1cc60
   1cbca:	6ea2                	ld	t4,8(sp)
   1cbcc:	7792                	ld	a5,288(sp)
   1cbce:	835e                	mv	t1,s7
   1cbd0:	418e8ebb          	subw	t4,t4,s8
   1cbd4:	efd05a63          	blez	t4,0x1c2c8
   1cbd8:	11812703          	lw	a4,280(sp)
   1cbdc:	05dd5363          	bge	s10,t4,0x1cc22
   1cbe0:	489d                	li	a7,7
   1cbe2:	a021                	j	0x1cbea
   1cbe4:	3ec1                	addiw	t4,t4,-16
   1cbe6:	03dd5e63          	bge	s10,t4,0x1cc22
   1cbea:	2705                	addiw	a4,a4,1
   1cbec:	07c1                	addi	a5,a5,16
   1cbee:	01233023          	sd	s2,0(t1)
   1cbf2:	01a33423          	sd	s10,8(t1)
   1cbf6:	f23e                	sd	a5,288(sp)
   1cbf8:	10e12c23          	sw	a4,280(sp)
   1cbfc:	0341                	addi	t1,t1,16
   1cbfe:	fee8d3e3          	bge	a7,a4,0x1cbe4
   1cc02:	0a10                	addi	a2,sp,272
   1cc04:	85d6                	mv	a1,s5
   1cc06:	8552                	mv	a0,s4
   1cc08:	e476                	sd	t4,8(sp)
   1cc0a:	42e010ef          	jal	ra,0x1e038
   1cc0e:	e929                	bnez	a0,0x1cc60
   1cc10:	6ea2                	ld	t4,8(sp)
   1cc12:	7792                	ld	a5,288(sp)
   1cc14:	11812703          	lw	a4,280(sp)
   1cc18:	3ec1                	addiw	t4,t4,-16
   1cc1a:	835e                	mv	t1,s7
   1cc1c:	489d                	li	a7,7
   1cc1e:	fddd46e3          	blt	s10,t4,0x1cbea
   1cc22:	0017069b          	addiw	a3,a4,1
   1cc26:	97f6                	add	a5,a5,t4
   1cc28:	01233023          	sd	s2,0(t1)
   1cc2c:	01d33423          	sd	t4,8(t1)
   1cc30:	f23e                	sd	a5,288(sp)
   1cc32:	10d12c23          	sw	a3,280(sp)
   1cc36:	471d                	li	a4,7
   1cc38:	0341                	addi	t1,t1,16
   1cc3a:	e8d75763          	bge	a4,a3,0x1c2c8
   1cc3e:	0a10                	addi	a2,sp,272
   1cc40:	85d6                	mv	a1,s5
   1cc42:	8552                	mv	a0,s4
   1cc44:	3f4010ef          	jal	ra,0x1e038
   1cc48:	ed01                	bnez	a0,0x1cc60
   1cc4a:	7792                	ld	a5,288(sp)
   1cc4c:	835e                	mv	t1,s7
   1cc4e:	e7aff06f          	j	0x1c2c8
   1cc52:	0a10                	addi	a2,sp,272
   1cc54:	85d6                	mv	a1,s5
   1cc56:	8552                	mv	a0,s4
   1cc58:	3e0010ef          	jal	ra,0x1e038
   1cc5c:	ea050a63          	beqz	a0,0x1c310
   1cc60:	67c2                	ld	a5,16(sp)
   1cc62:	ec078963          	beqz	a5,0x1c334
   1cc66:	65c2                	ld	a1,16(sp)
   1cc68:	8552                	mv	a0,s4
   1cc6a:	98dfa0ef          	jal	ra,0x175f6
   1cc6e:	ec6ff06f          	j	0x1c334
   1cc72:	4705                	li	a4,1
   1cc74:	8826                	mv	a6,s1
   1cc76:	b6e791e3          	bne	a5,a4,0x1c7d8
   1cc7a:	47a5                	li	a5,9
   1cc7c:	3937e463          	bltu	a5,s3,0x1d004
   1cc80:	0309899b          	addiw	s3,s3,48
   1cc84:	193105a3          	sb	s3,395(sp)
   1cc88:	84c2                	mv	s1,a6
   1cc8a:	4c05                	li	s8,1
   1cc8c:	18b10c93          	addi	s9,sp,395
   1cc90:	f38ff06f          	j	0x1c3c8
   1cc94:	11812703          	lw	a4,280(sp)
   1cc98:	00005897          	auipc	a7,0x5
   1cc9c:	b5888893          	addi	a7,a7,-1192 # 0x217f0
   1cca0:	439d                	li	t2,7
   1cca2:	00dd4663          	blt	s10,a3,0x1ccae
   1cca6:	a881                	j	0x1ccf6
   1cca8:	36c1                	addiw	a3,a3,-16
   1ccaa:	04dd5663          	bge	s10,a3,0x1ccf6
   1ccae:	2705                	addiw	a4,a4,1
   1ccb0:	07c1                	addi	a5,a5,16
   1ccb2:	01133023          	sd	a7,0(t1)
   1ccb6:	01a33423          	sd	s10,8(t1)
   1ccba:	f23e                	sd	a5,288(sp)
   1ccbc:	10e12c23          	sw	a4,280(sp)
   1ccc0:	0341                	addi	t1,t1,16
   1ccc2:	fee3d3e3          	bge	t2,a4,0x1cca8
   1ccc6:	0a10                	addi	a2,sp,272
   1ccc8:	85d6                	mv	a1,s5
   1ccca:	8552                	mv	a0,s4
   1cccc:	e4c6                	sd	a7,72(sp)
   1ccce:	e0f6                	sd	t4,64(sp)
   1ccd0:	fc7e                	sd	t6,56(sp)
   1ccd2:	f816                	sd	t0,48(sp)
   1ccd4:	e436                	sd	a3,8(sp)
   1ccd6:	362010ef          	jal	ra,0x1e038
   1ccda:	f159                	bnez	a0,0x1cc60
   1ccdc:	66a2                	ld	a3,8(sp)
   1ccde:	7792                	ld	a5,288(sp)
   1cce0:	11812703          	lw	a4,280(sp)
   1cce4:	36c1                	addiw	a3,a3,-16
   1cce6:	68a6                	ld	a7,72(sp)
   1cce8:	6e86                	ld	t4,64(sp)
   1ccea:	7fe2                	ld	t6,56(sp)
   1ccec:	72c2                	ld	t0,48(sp)
   1ccee:	835e                	mv	t1,s7
   1ccf0:	439d                	li	t2,7
   1ccf2:	fadd4ee3          	blt	s10,a3,0x1ccae
   1ccf6:	2705                	addiw	a4,a4,1
   1ccf8:	97b6                	add	a5,a5,a3
   1ccfa:	00d33423          	sd	a3,8(t1)
   1ccfe:	01133023          	sd	a7,0(t1)
   1cd02:	0007069b          	sext.w	a3,a4
   1cd06:	10e12c23          	sw	a4,280(sp)
   1cd0a:	f23e                	sd	a5,288(sp)
   1cd0c:	471d                	li	a4,7
   1cd0e:	0341                	addi	t1,t1,16
   1cd10:	d4d75863          	bge	a4,a3,0x1c260
   1cd14:	0a10                	addi	a2,sp,272
   1cd16:	85d6                	mv	a1,s5
   1cd18:	8552                	mv	a0,s4
   1cd1a:	fc76                	sd	t4,56(sp)
   1cd1c:	f87e                	sd	t6,48(sp)
   1cd1e:	e416                	sd	t0,8(sp)
   1cd20:	318010ef          	jal	ra,0x1e038
   1cd24:	fd15                	bnez	a0,0x1cc60
   1cd26:	7792                	ld	a5,288(sp)
   1cd28:	7ee2                	ld	t4,56(sp)
   1cd2a:	7fc2                	ld	t6,48(sp)
   1cd2c:	62a2                	ld	t0,8(sp)
   1cd2e:	835e                	mv	t1,s7
   1cd30:	d30ff06f          	j	0x1c260
   1cd34:	0a10                	addi	a2,sp,272
   1cd36:	85d6                	mv	a1,s5
   1cd38:	8552                	mv	a0,s4
   1cd3a:	f876                	sd	t4,48(sp)
   1cd3c:	e47e                	sd	t6,8(sp)
   1cd3e:	2fa010ef          	jal	ra,0x1e038
   1cd42:	fd19                	bnez	a0,0x1cc60
   1cd44:	7792                	ld	a5,288(sp)
   1cd46:	7ec2                	ld	t4,48(sp)
   1cd48:	6fa2                	ld	t6,8(sp)
   1cd4a:	835e                	mv	t1,s7
   1cd4c:	d6cff06f          	j	0x1c2b8
   1cd50:	11812703          	lw	a4,280(sp)
   1cd54:	00005897          	auipc	a7,0x5
   1cd58:	a9c88893          	addi	a7,a7,-1380 # 0x217f0
   1cd5c:	4c1d                	li	s8,7
   1cd5e:	009d4663          	blt	s10,s1,0x1cd6a
   1cd62:	a081                	j	0x1cda2
   1cd64:	34c1                	addiw	s1,s1,-16
   1cd66:	029d5e63          	bge	s10,s1,0x1cda2
   1cd6a:	2705                	addiw	a4,a4,1
   1cd6c:	07c1                	addi	a5,a5,16
   1cd6e:	01133023          	sd	a7,0(t1)
   1cd72:	01a33423          	sd	s10,8(t1)
   1cd76:	f23e                	sd	a5,288(sp)
   1cd78:	10e12c23          	sw	a4,280(sp)
   1cd7c:	0341                	addi	t1,t1,16
   1cd7e:	feec53e3          	bge	s8,a4,0x1cd64
   1cd82:	0a10                	addi	a2,sp,272
   1cd84:	85d6                	mv	a1,s5
   1cd86:	8552                	mv	a0,s4
   1cd88:	e446                	sd	a7,8(sp)
   1cd8a:	2ae010ef          	jal	ra,0x1e038
   1cd8e:	ec0519e3          	bnez	a0,0x1cc60
   1cd92:	34c1                	addiw	s1,s1,-16
   1cd94:	7792                	ld	a5,288(sp)
   1cd96:	11812703          	lw	a4,280(sp)
   1cd9a:	68a2                	ld	a7,8(sp)
   1cd9c:	835e                	mv	t1,s7
   1cd9e:	fc9d46e3          	blt	s10,s1,0x1cd6a
   1cda2:	0017069b          	addiw	a3,a4,1
   1cda6:	97a6                	add	a5,a5,s1
   1cda8:	01133023          	sd	a7,0(t1)
   1cdac:	00933423          	sd	s1,8(t1)
   1cdb0:	f23e                	sd	a5,288(sp)
   1cdb2:	10d12c23          	sw	a3,280(sp)
   1cdb6:	471d                	li	a4,7
   1cdb8:	d4d75363          	bge	a4,a3,0x1c2fe
   1cdbc:	0a10                	addi	a2,sp,272
   1cdbe:	85d6                	mv	a1,s5
   1cdc0:	8552                	mv	a0,s4
   1cdc2:	276010ef          	jal	ra,0x1e038
   1cdc6:	e8051de3          	bnez	a0,0x1cc60
   1cdca:	7792                	ld	a5,288(sp)
   1cdcc:	d32ff06f          	j	0x1c2fe
   1cdd0:	562e                	lw	a2,232(sp)
   1cdd2:	52c05563          	blez	a2,0x1d2fc
   1cdd6:	6766                	ld	a4,88(sp)
   1cdd8:	7682                	ld	a3,32(sp)
   1cdda:	00070c1b          	sext.w	s8,a4
   1cdde:	2ae6c863          	blt	a3,a4,0x1d08e
   1cde2:	03805263          	blez	s8,0x1ce06
   1cde6:	11812703          	lw	a4,280(sp)
   1cdea:	97e2                	add	a5,a5,s8
   1cdec:	01933023          	sd	s9,0(t1)
   1cdf0:	0017069b          	addiw	a3,a4,1
   1cdf4:	01833423          	sd	s8,8(t1)
   1cdf8:	f23e                	sd	a5,288(sp)
   1cdfa:	10d12c23          	sw	a3,280(sp)
   1cdfe:	471d                	li	a4,7
   1ce00:	0341                	addi	t1,t1,16
   1ce02:	7ad74763          	blt	a4,a3,0x1d5b0
   1ce06:	fffc4713          	not	a4,s8
   1ce0a:	977d                	srai	a4,a4,0x3f
   1ce0c:	00ec7c33          	and	s8,s8,a4
   1ce10:	6766                	ld	a4,88(sp)
   1ce12:	41870c3b          	subw	s8,a4,s8
   1ce16:	35804563          	bgtz	s8,0x1d160
   1ce1a:	66e6                	ld	a3,88(sp)
   1ce1c:	4004f713          	andi	a4,s1,1024
   1ce20:	00dc8db3          	add	s11,s9,a3
   1ce24:	36071f63          	bnez	a4,0x1d1a2
   1ce28:	572e                	lw	a4,232(sp)
   1ce2a:	7682                	ld	a3,32(sp)
   1ce2c:	00d74663          	blt	a4,a3,0x1ce38
   1ce30:	0014f693          	andi	a3,s1,1
   1ce34:	78068b63          	beqz	a3,0x1d5ca
   1ce38:	76e6                	ld	a3,120(sp)
   1ce3a:	7646                	ld	a2,112(sp)
   1ce3c:	0341                	addi	t1,t1,16
   1ce3e:	fed33823          	sd	a3,-16(t1)
   1ce42:	11812683          	lw	a3,280(sp)
   1ce46:	97b2                	add	a5,a5,a2
   1ce48:	fec33c23          	sd	a2,-8(t1)
   1ce4c:	2685                	addiw	a3,a3,1
   1ce4e:	0006861b          	sext.w	a2,a3
   1ce52:	10d12c23          	sw	a3,280(sp)
   1ce56:	f23e                	sd	a5,288(sp)
   1ce58:	469d                	li	a3,7
   1ce5a:	0ac6c0e3          	blt	a3,a2,0x1d6fa
   1ce5e:	7682                	ld	a3,32(sp)
   1ce60:	00dc8633          	add	a2,s9,a3
   1ce64:	40e6873b          	subw	a4,a3,a4
   1ce68:	41b6063b          	subw	a2,a2,s11
   1ce6c:	0007069b          	sext.w	a3,a4
   1ce70:	00d65363          	bge	a2,a3,0x1ce76
   1ce74:	8732                	mv	a4,a2
   1ce76:	00070c9b          	sext.w	s9,a4
   1ce7a:	03905263          	blez	s9,0x1ce9e
   1ce7e:	11812603          	lw	a2,280(sp)
   1ce82:	97e6                	add	a5,a5,s9
   1ce84:	01b33023          	sd	s11,0(t1)
   1ce88:	0016059b          	addiw	a1,a2,1
   1ce8c:	01933423          	sd	s9,8(t1)
   1ce90:	f23e                	sd	a5,288(sp)
   1ce92:	10b12c23          	sw	a1,280(sp)
   1ce96:	461d                	li	a2,7
   1ce98:	0341                	addi	t1,t1,16
   1ce9a:	14b642e3          	blt	a2,a1,0x1d7de
   1ce9e:	fffccc13          	not	s8,s9
   1cea2:	43fc5c13          	srai	s8,s8,0x3f
   1cea6:	018cfc33          	and	s8,s9,s8
   1ceaa:	41868c3b          	subw	s8,a3,s8
   1ceae:	c5805263          	blez	s8,0x1c2f2
   1ceb2:	11812703          	lw	a4,280(sp)
   1ceb6:	518d5963          	bge	s10,s8,0x1d3c8
   1ceba:	4c9d                	li	s9,7
   1cebc:	a021                	j	0x1cec4
   1cebe:	3c41                	addiw	s8,s8,-16
   1cec0:	518d5463          	bge	s10,s8,0x1d3c8
   1cec4:	2705                	addiw	a4,a4,1
   1cec6:	07c1                	addi	a5,a5,16
   1cec8:	01233023          	sd	s2,0(t1)
   1cecc:	01a33423          	sd	s10,8(t1)
   1ced0:	f23e                	sd	a5,288(sp)
   1ced2:	10e12c23          	sw	a4,280(sp)
   1ced6:	0341                	addi	t1,t1,16
   1ced8:	feecd3e3          	bge	s9,a4,0x1cebe
   1cedc:	0a10                	addi	a2,sp,272
   1cede:	85d6                	mv	a1,s5
   1cee0:	8552                	mv	a0,s4
   1cee2:	156010ef          	jal	ra,0x1e038
   1cee6:	d6051de3          	bnez	a0,0x1cc60
   1ceea:	7792                	ld	a5,288(sp)
   1ceec:	11812703          	lw	a4,280(sp)
   1cef0:	835e                	mv	t1,s7
   1cef2:	b7f1                	j	0x1cebe
   1cef4:	0014f513          	andi	a0,s1,1
   1cef8:	fc051963          	bnez	a0,0x1c6ca
   1cefc:	00b33423          	sd	a1,8(t1)
   1cf00:	f26e                	sd	s11,288(sp)
   1cf02:	10e12c23          	sw	a4,280(sp)
   1cf06:	469d                	li	a3,7
   1cf08:	3ce6c063          	blt	a3,a4,0x1d2c8
   1cf0c:	2609                	addiw	a2,a2,2
   1cf0e:	02030313          	addi	t1,t1,32
   1cf12:	83fff06f          	j	0x1c750
   1cf16:	82d05de3          	blez	a3,0x1c750
   1cf1a:	54dd58e3          	bge	s10,a3,0x1dc6a
   1cf1e:	4c9d                	li	s9,7
   1cf20:	a031                	j	0x1cf2c
   1cf22:	36c1                	addiw	a3,a3,-16
   1cf24:	5cdd5263          	bge	s10,a3,0x1d4e8
   1cf28:	0017089b          	addiw	a7,a4,1
   1cf2c:	0dc1                	addi	s11,s11,16
   1cf2e:	012c3023          	sd	s2,0(s8)
   1cf32:	01ac3423          	sd	s10,8(s8)
   1cf36:	f26e                	sd	s11,288(sp)
   1cf38:	0008871b          	sext.w	a4,a7
   1cf3c:	11112c23          	sw	a7,280(sp)
   1cf40:	0c41                	addi	s8,s8,16
   1cf42:	feecd0e3          	bge	s9,a4,0x1cf22
   1cf46:	0a10                	addi	a2,sp,272
   1cf48:	85d6                	mv	a1,s5
   1cf4a:	8552                	mv	a0,s4
   1cf4c:	e436                	sd	a3,8(sp)
   1cf4e:	0ea010ef          	jal	ra,0x1e038
   1cf52:	d00517e3          	bnez	a0,0x1cc60
   1cf56:	7d92                	ld	s11,288(sp)
   1cf58:	11812703          	lw	a4,280(sp)
   1cf5c:	66a2                	ld	a3,8(sp)
   1cf5e:	8c5e                	mv	s8,s7
   1cf60:	b7c9                	j	0x1cf22
   1cf62:	01087793          	andi	a5,a6,16
   1cf66:	e3bd                	bnez	a5,0x1cfcc
   1cf68:	66e2                	ld	a3,24(sp)
   1cf6a:	04087793          	andi	a5,a6,64
   1cf6e:	0006a983          	lw	s3,0(a3)
   1cf72:	5a078863          	beqz	a5,0x1d522
   1cf76:	19c2                	slli	s3,s3,0x30
   1cf78:	0309d993          	srli	s3,s3,0x30
   1cf7c:	ec3a                	sd	a4,24(sp)
   1cf7e:	4785                	li	a5,1
   1cf80:	c8cff06f          	j	0x1c40c
   1cf84:	0a10                	addi	a2,sp,272
   1cf86:	85d6                	mv	a1,s5
   1cf88:	8552                	mv	a0,s4
   1cf8a:	0ae010ef          	jal	ra,0x1e038
   1cf8e:	cc0519e3          	bnez	a0,0x1cc60
   1cf92:	7d92                	ld	s11,288(sp)
   1cf94:	11812703          	lw	a4,280(sp)
   1cf98:	8c5e                	mv	s8,s7
   1cf9a:	f42ff06f          	j	0x1c6dc
   1cf9e:	0a10                	addi	a2,sp,272
   1cfa0:	85d6                	mv	a1,s5
   1cfa2:	8552                	mv	a0,s4
   1cfa4:	094010ef          	jal	ra,0x1e038
   1cfa8:	ca051ce3          	bnez	a0,0x1cc60
   1cfac:	7d92                	ld	s11,288(sp)
   1cfae:	11812703          	lw	a4,280(sp)
   1cfb2:	8c5e                	mv	s8,s7
   1cfb4:	f4cff06f          	j	0x1c700
   1cfb8:	0014f713          	andi	a4,s1,1
   1cfbc:	b2070b63          	beqz	a4,0x1c2f2
   1cfc0:	bcf1                	j	0x1ca9c
   1cfc2:	67e2                	ld	a5,24(sp)
   1cfc4:	639c                	ld	a5,0(a5)
   1cfc6:	89be                	mv	s3,a5
   1cfc8:	bdaff06f          	j	0x1c3a2
   1cfcc:	67e2                	ld	a5,24(sp)
   1cfce:	ec3a                	sd	a4,24(sp)
   1cfd0:	0007b983          	ld	s3,0(a5)
   1cfd4:	4785                	li	a5,1
   1cfd6:	c36ff06f          	j	0x1c40c
   1cfda:	67e2                	ld	a5,24(sp)
   1cfdc:	07bd                	addi	a5,a5,15
   1cfde:	9bc1                	andi	a5,a5,-16
   1cfe0:	6394                	ld	a3,0(a5)
   1cfe2:	6798                	ld	a4,8(a5)
   1cfe4:	07c1                	addi	a5,a5,16
   1cfe6:	ec3e                	sd	a5,24(sp)
   1cfe8:	e236                	sd	a3,256(sp)
   1cfea:	e63a                	sd	a4,264(sp)
   1cfec:	c96ff06f          	j	0x1c482
   1cff0:	67e2                	ld	a5,24(sp)
   1cff2:	0007b983          	ld	s3,0(a5)
   1cff6:	c0aff06f          	j	0x1c400
   1cffa:	ec3a                	sd	a4,24(sp)
   1cffc:	47a5                	li	a5,9
   1cffe:	8826                	mv	a6,s1
   1d000:	c937f0e3          	bgeu	a5,s3,0x1cc80
   1d004:	40087793          	andi	a5,a6,1024
   1d008:	18c10c13          	addi	s8,sp,396
   1d00c:	2781                	sext.w	a5,a5
   1d00e:	f002                	sd	zero,32(sp)
   1d010:	85e2                	mv	a1,s8
   1d012:	44a9                	li	s1,10
   1d014:	4725                	li	a4,9
   1d016:	0ff00693          	li	a3,255
   1d01a:	a039                	j	0x1d028
   1d01c:	0299d633          	divu	a2,s3,s1
   1d020:	b33770e3          	bgeu	a4,s3,0x1cb40
   1d024:	89b2                	mv	s3,a2
   1d026:	85e6                	mv	a1,s9
   1d028:	7502                	ld	a0,32(sp)
   1d02a:	fff58c93          	addi	s9,a1,-1
   1d02e:	2505                	addiw	a0,a0,1
   1d030:	f02a                	sd	a0,32(sp)
   1d032:	0299f633          	remu	a2,s3,s1
   1d036:	0306061b          	addiw	a2,a2,48
   1d03a:	fec58fa3          	sb	a2,-1(a1)
   1d03e:	dff9                	beqz	a5,0x1d01c
   1d040:	7626                	ld	a2,104(sp)
   1d042:	00064603          	lbu	a2,0(a2)
   1d046:	fcc51be3          	bne	a0,a2,0x1d01c
   1d04a:	fcd609e3          	beq	a2,a3,0x1d01c
   1d04e:	af3779e3          	bgeu	a4,s3,0x1cb40
   1d052:	fc3e                	sd	a5,56(sp)
   1d054:	67aa                	ld	a5,136(sp)
   1d056:	65ca                	ld	a1,144(sp)
   1d058:	f81a                	sd	t1,48(sp)
   1d05a:	40fc8cb3          	sub	s9,s9,a5
   1d05e:	863e                	mv	a2,a5
   1d060:	8566                	mv	a0,s9
   1d062:	e876                	sd	t4,16(sp)
   1d064:	e442                	sd	a6,8(sp)
   1d066:	feffe0ef          	jal	ra,0x1c054
   1d06a:	77a6                	ld	a5,104(sp)
   1d06c:	0299d633          	divu	a2,s3,s1
   1d070:	6822                	ld	a6,8(sp)
   1d072:	0017c583          	lbu	a1,1(a5)
   1d076:	6ec2                	ld	t4,16(sp)
   1d078:	7342                	ld	t1,48(sp)
   1d07a:	00b035b3          	snez	a1,a1
   1d07e:	97ae                	add	a5,a5,a1
   1d080:	f4be                	sd	a5,104(sp)
   1d082:	f002                	sd	zero,32(sp)
   1d084:	77e2                	ld	a5,56(sp)
   1d086:	4725                	li	a4,9
   1d088:	0ff00693          	li	a3,255
   1d08c:	bf61                	j	0x1d024
   1d08e:	00068c1b          	sext.w	s8,a3
   1d092:	d5804ae3          	bgtz	s8,0x1cde6
   1d096:	bb85                	j	0x1ce06
   1d098:	8826                	mv	a6,s1
   1d09a:	b8d5                	j	0x1c98e
   1d09c:	00004797          	auipc	a5,0x4
   1d0a0:	c4478793          	addi	a5,a5,-956 # 0x20ce0
   1d0a4:	f43e                	sd	a5,40(sp)
   1d0a6:	66e2                	ld	a3,24(sp)
   1d0a8:	0204f793          	andi	a5,s1,32
   1d0ac:	00868713          	addi	a4,a3,8
   1d0b0:	20078563          	beqz	a5,0x1d2ba
   1d0b4:	0006b983          	ld	s3,0(a3)
   1d0b8:	0014f793          	andi	a5,s1,1
   1d0bc:	cf81                	beqz	a5,0x1d0d4
   1d0be:	00098b63          	beqz	s3,0x1d0d4
   1d0c2:	0024e493          	ori	s1,s1,2
   1d0c6:	03000793          	li	a5,48
   1d0ca:	0ef10023          	sb	a5,224(sp)
   1d0ce:	0fb100a3          	sb	s11,225(sp)
   1d0d2:	2481                	sext.w	s1,s1
   1d0d4:	bff4f493          	andi	s1,s1,-1025
   1d0d8:	0004881b          	sext.w	a6,s1
   1d0dc:	ec3a                	sd	a4,24(sp)
   1d0de:	4789                	li	a5,2
   1d0e0:	b2cff06f          	j	0x1c40c
   1d0e4:	2004e493          	ori	s1,s1,512
   1d0e8:	00144f03          	lbu	t5,1(s0)
   1d0ec:	2481                	sext.w	s1,s1
   1d0ee:	0405                	addi	s0,s0,1
   1d0f0:	8d6ff06f          	j	0x1c1c6
   1d0f4:	0204e493          	ori	s1,s1,32
   1d0f8:	00144f03          	lbu	t5,1(s0)
   1d0fc:	2481                	sext.w	s1,s1
   1d0fe:	0405                	addi	s0,s0,1
   1d100:	8c6ff06f          	j	0x1c1c6
   1d104:	00004797          	auipc	a5,0x4
   1d108:	bc478793          	addi	a5,a5,-1084 # 0x20cc8
   1d10c:	f43e                	sd	a5,40(sp)
   1d10e:	bf61                	j	0x1d0a6
   1d110:	0a10                	addi	a2,sp,272
   1d112:	85d6                	mv	a1,s5
   1d114:	8552                	mv	a0,s4
   1d116:	723000ef          	jal	ra,0x1e038
   1d11a:	b40513e3          	bnez	a0,0x1cc60
   1d11e:	7792                	ld	a5,288(sp)
   1d120:	835e                	mv	t1,s7
   1d122:	b245                	j	0x1cac2
   1d124:	04000593          	li	a1,64
   1d128:	8552                	mv	a0,s4
   1d12a:	ddcf50ef          	jal	ra,0x12706
   1d12e:	00aab023          	sd	a0,0(s5)
   1d132:	00aabc23          	sd	a0,24(s5)
   1d136:	34050ae3          	beqz	a0,0x1dc8a
   1d13a:	04000793          	li	a5,64
   1d13e:	02faa023          	sw	a5,32(s5)
   1d142:	ff5fe06f          	j	0x1c136
   1d146:	4799                	li	a5,6
   1d148:	000e8c1b          	sext.w	s8,t4
   1d14c:	47d7ed63          	bltu	a5,t4,0x1d5c6
   1d150:	89e2                	mv	s3,s8
   1d152:	ec36                	sd	a3,24(sp)
   1d154:	00004c97          	auipc	s9,0x4
   1d158:	ba4c8c93          	addi	s9,s9,-1116 # 0x20cf8
   1d15c:	8dcff06f          	j	0x1c238
   1d160:	11812703          	lw	a4,280(sp)
   1d164:	418d5963          	bge	s10,s8,0x1d576
   1d168:	4d9d                	li	s11,7
   1d16a:	a021                	j	0x1d172
   1d16c:	3c41                	addiw	s8,s8,-16
   1d16e:	418d5463          	bge	s10,s8,0x1d576
   1d172:	2705                	addiw	a4,a4,1
   1d174:	07c1                	addi	a5,a5,16
   1d176:	01233023          	sd	s2,0(t1)
   1d17a:	01a33423          	sd	s10,8(t1)
   1d17e:	f23e                	sd	a5,288(sp)
   1d180:	10e12c23          	sw	a4,280(sp)
   1d184:	0341                	addi	t1,t1,16
   1d186:	feedd3e3          	bge	s11,a4,0x1d16c
   1d18a:	0a10                	addi	a2,sp,272
   1d18c:	85d6                	mv	a1,s5
   1d18e:	8552                	mv	a0,s4
   1d190:	6a9000ef          	jal	ra,0x1e038
   1d194:	ac0516e3          	bnez	a0,0x1cc60
   1d198:	7792                	ld	a5,288(sp)
   1d19a:	11812703          	lw	a4,280(sp)
   1d19e:	835e                	mv	t1,s7
   1d1a0:	b7f1                	j	0x1d16c
   1d1a2:	7702                	ld	a4,32(sp)
   1d1a4:	4c1d                	li	s8,7
   1d1a6:	9766                	add	a4,a4,s9
   1d1a8:	f83a                	sd	a4,48(sp)
   1d1aa:	7706                	ld	a4,96(sp)
   1d1ac:	cb49                	beqz	a4,0x1d23e
   1d1ae:	6746                	ld	a4,80(sp)
   1d1b0:	eb51                	bnez	a4,0x1d244
   1d1b2:	7726                	ld	a4,104(sp)
   1d1b4:	177d                	addi	a4,a4,-1
   1d1b6:	f4ba                	sd	a4,104(sp)
   1d1b8:	7706                	ld	a4,96(sp)
   1d1ba:	377d                	addiw	a4,a4,-1
   1d1bc:	f0ba                	sd	a4,96(sp)
   1d1be:	674a                	ld	a4,144(sp)
   1d1c0:	66aa                	ld	a3,136(sp)
   1d1c2:	0341                	addi	t1,t1,16
   1d1c4:	fee33823          	sd	a4,-16(t1)
   1d1c8:	11812703          	lw	a4,280(sp)
   1d1cc:	97b6                	add	a5,a5,a3
   1d1ce:	fed33c23          	sd	a3,-8(t1)
   1d1d2:	2705                	addiw	a4,a4,1
   1d1d4:	f23e                	sd	a5,288(sp)
   1d1d6:	0007069b          	sext.w	a3,a4
   1d1da:	10e12c23          	sw	a4,280(sp)
   1d1de:	10dc4563          	blt	s8,a3,0x1d2e8
   1d1e2:	7726                	ld	a4,104(sp)
   1d1e4:	00074603          	lbu	a2,0(a4)
   1d1e8:	7742                	ld	a4,48(sp)
   1d1ea:	41b705bb          	subw	a1,a4,s11
   1d1ee:	0006071b          	sext.w	a4,a2
   1d1f2:	0007069b          	sext.w	a3,a4
   1d1f6:	00e5d463          	bge	a1,a4,0x1d1fe
   1d1fa:	0005869b          	sext.w	a3,a1
   1d1fe:	02d05663          	blez	a3,0x1d22a
   1d202:	11812703          	lw	a4,280(sp)
   1d206:	97b6                	add	a5,a5,a3
   1d208:	01b33023          	sd	s11,0(t1)
   1d20c:	0017061b          	addiw	a2,a4,1
   1d210:	00d33423          	sd	a3,8(t1)
   1d214:	f23e                	sd	a5,288(sp)
   1d216:	10c12c23          	sw	a2,280(sp)
   1d21a:	1acc4f63          	blt	s8,a2,0x1d3d8
   1d21e:	7726                	ld	a4,104(sp)
   1d220:	0341                	addi	t1,t1,16
   1d222:	00074603          	lbu	a2,0(a4)
   1d226:	0006071b          	sext.w	a4,a2
   1d22a:	fff6c593          	not	a1,a3
   1d22e:	95fd                	srai	a1,a1,0x3f
   1d230:	8eed                	and	a3,a3,a1
   1d232:	9f15                	subw	a4,a4,a3
   1d234:	00e04c63          	bgtz	a4,0x1d24c
   1d238:	9db2                	add	s11,s11,a2
   1d23a:	7706                	ld	a4,96(sp)
   1d23c:	fb2d                	bnez	a4,0x1d1ae
   1d23e:	6746                	ld	a4,80(sp)
   1d240:	42070063          	beqz	a4,0x1d660
   1d244:	6746                	ld	a4,80(sp)
   1d246:	377d                	addiw	a4,a4,-1
   1d248:	e8ba                	sd	a4,80(sp)
   1d24a:	bf95                	j	0x1d1be
   1d24c:	11812683          	lw	a3,280(sp)
   1d250:	00ed4663          	blt	s10,a4,0x1d25c
   1d254:	a081                	j	0x1d294
   1d256:	3741                	addiw	a4,a4,-16
   1d258:	02ed5e63          	bge	s10,a4,0x1d294
   1d25c:	2685                	addiw	a3,a3,1
   1d25e:	07c1                	addi	a5,a5,16
   1d260:	01233023          	sd	s2,0(t1)
   1d264:	01a33423          	sd	s10,8(t1)
   1d268:	f23e                	sd	a5,288(sp)
   1d26a:	10d12c23          	sw	a3,280(sp)
   1d26e:	0341                	addi	t1,t1,16
   1d270:	fedc53e3          	bge	s8,a3,0x1d256
   1d274:	0a10                	addi	a2,sp,272
   1d276:	85d6                	mv	a1,s5
   1d278:	8552                	mv	a0,s4
   1d27a:	e43a                	sd	a4,8(sp)
   1d27c:	5bd000ef          	jal	ra,0x1e038
   1d280:	9e0510e3          	bnez	a0,0x1cc60
   1d284:	6722                	ld	a4,8(sp)
   1d286:	7792                	ld	a5,288(sp)
   1d288:	11812683          	lw	a3,280(sp)
   1d28c:	3741                	addiw	a4,a4,-16
   1d28e:	835e                	mv	t1,s7
   1d290:	fced46e3          	blt	s10,a4,0x1d25c
   1d294:	2685                	addiw	a3,a3,1
   1d296:	97ba                	add	a5,a5,a4
   1d298:	00e33423          	sd	a4,8(t1)
   1d29c:	01233023          	sd	s2,0(t1)
   1d2a0:	f23e                	sd	a5,288(sp)
   1d2a2:	0006871b          	sext.w	a4,a3
   1d2a6:	10d12c23          	sw	a3,280(sp)
   1d2aa:	42ec4563          	blt	s8,a4,0x1d6d4
   1d2ae:	7726                	ld	a4,104(sp)
   1d2b0:	0341                	addi	t1,t1,16
   1d2b2:	00074603          	lbu	a2,0(a4)
   1d2b6:	9db2                	add	s11,s11,a2
   1d2b8:	b749                	j	0x1d23a
   1d2ba:	0104f793          	andi	a5,s1,16
   1d2be:	cff9                	beqz	a5,0x1d39c
   1d2c0:	67e2                	ld	a5,24(sp)
   1d2c2:	0007b983          	ld	s3,0(a5)
   1d2c6:	bbcd                	j	0x1d0b8
   1d2c8:	0a10                	addi	a2,sp,272
   1d2ca:	85d6                	mv	a1,s5
   1d2cc:	8552                	mv	a0,s4
   1d2ce:	56b000ef          	jal	ra,0x1e038
   1d2d2:	980517e3          	bnez	a0,0x1cc60
   1d2d6:	11812603          	lw	a2,280(sp)
   1d2da:	7d92                	ld	s11,288(sp)
   1d2dc:	1a010313          	addi	t1,sp,416
   1d2e0:	2605                	addiw	a2,a2,1
   1d2e2:	8c5e                	mv	s8,s7
   1d2e4:	c6cff06f          	j	0x1c750
   1d2e8:	0a10                	addi	a2,sp,272
   1d2ea:	85d6                	mv	a1,s5
   1d2ec:	8552                	mv	a0,s4
   1d2ee:	54b000ef          	jal	ra,0x1e038
   1d2f2:	960517e3          	bnez	a0,0x1cc60
   1d2f6:	7792                	ld	a5,288(sp)
   1d2f8:	835e                	mv	t1,s7
   1d2fa:	b5e5                	j	0x1d1e2
   1d2fc:	11812703          	lw	a4,280(sp)
   1d300:	00004697          	auipc	a3,0x4
   1d304:	bb068693          	addi	a3,a3,-1104 # 0x20eb0
   1d308:	00d33023          	sd	a3,0(t1)
   1d30c:	2705                	addiw	a4,a4,1
   1d30e:	4685                	li	a3,1
   1d310:	0785                	addi	a5,a5,1
   1d312:	00d33423          	sd	a3,8(t1)
   1d316:	10e12c23          	sw	a4,280(sp)
   1d31a:	0007069b          	sext.w	a3,a4
   1d31e:	f23e                	sd	a5,288(sp)
   1d320:	471d                	li	a4,7
   1d322:	0341                	addi	t1,t1,16
   1d324:	06d74163          	blt	a4,a3,0x1d386
   1d328:	10061c63          	bnez	a2,0x1d440
   1d32c:	7682                	ld	a3,32(sp)
   1d32e:	0014f713          	andi	a4,s1,1
   1d332:	8f55                	or	a4,a4,a3
   1d334:	e319                	bnez	a4,0x1d33a
   1d336:	fbdfe06f          	j	0x1c2f2
   1d33a:	76e6                	ld	a3,120(sp)
   1d33c:	7746                	ld	a4,112(sp)
   1d33e:	00d33023          	sd	a3,0(t1)
   1d342:	11812683          	lw	a3,280(sp)
   1d346:	97ba                	add	a5,a5,a4
   1d348:	00e33423          	sd	a4,8(t1)
   1d34c:	2685                	addiw	a3,a3,1
   1d34e:	0006871b          	sext.w	a4,a3
   1d352:	10d12c23          	sw	a3,280(sp)
   1d356:	f23e                	sd	a5,288(sp)
   1d358:	469d                	li	a3,7
   1d35a:	2ee6c163          	blt	a3,a4,0x1d63c
   1d35e:	0341                	addi	t1,t1,16
   1d360:	7682                	ld	a3,32(sp)
   1d362:	2705                	addiw	a4,a4,1
   1d364:	10e12c23          	sw	a4,280(sp)
   1d368:	97b6                	add	a5,a5,a3
   1d36a:	00d33423          	sd	a3,8(t1)
   1d36e:	01933023          	sd	s9,0(t1)
   1d372:	0007069b          	sext.w	a3,a4
   1d376:	f23e                	sd	a5,288(sp)
   1d378:	471d                	li	a4,7
   1d37a:	00d74463          	blt	a4,a3,0x1d382
   1d37e:	f73fe06f          	j	0x1c2f0
   1d382:	beaff06f          	j	0x1c76c
   1d386:	0a10                	addi	a2,sp,272
   1d388:	85d6                	mv	a1,s5
   1d38a:	8552                	mv	a0,s4
   1d38c:	4ad000ef          	jal	ra,0x1e038
   1d390:	8c0518e3          	bnez	a0,0x1cc60
   1d394:	562e                	lw	a2,232(sp)
   1d396:	7792                	ld	a5,288(sp)
   1d398:	835e                	mv	t1,s7
   1d39a:	b779                	j	0x1d328
   1d39c:	66e2                	ld	a3,24(sp)
   1d39e:	0404f793          	andi	a5,s1,64
   1d3a2:	0006a983          	lw	s3,0(a3)
   1d3a6:	1a078063          	beqz	a5,0x1d546
   1d3aa:	19c2                	slli	s3,s3,0x30
   1d3ac:	0309d993          	srli	s3,s3,0x30
   1d3b0:	b321                	j	0x1d0b8
   1d3b2:	0a10                	addi	a2,sp,272
   1d3b4:	85d6                	mv	a1,s5
   1d3b6:	8552                	mv	a0,s4
   1d3b8:	481000ef          	jal	ra,0x1e038
   1d3bc:	8a0512e3          	bnez	a0,0x1cc60
   1d3c0:	7792                	ld	a5,288(sp)
   1d3c2:	835e                	mv	t1,s7
   1d3c4:	ed0ff06f          	j	0x1ca94
   1d3c8:	0017069b          	addiw	a3,a4,1
   1d3cc:	8736                	mv	a4,a3
   1d3ce:	97e2                	add	a5,a5,s8
   1d3d0:	01233023          	sd	s2,0(t1)
   1d3d4:	f0dfe06f          	j	0x1c2e0
   1d3d8:	0a10                	addi	a2,sp,272
   1d3da:	85d6                	mv	a1,s5
   1d3dc:	8552                	mv	a0,s4
   1d3de:	e436                	sd	a3,8(sp)
   1d3e0:	459000ef          	jal	ra,0x1e038
   1d3e4:	86051ee3          	bnez	a0,0x1cc60
   1d3e8:	77a6                	ld	a5,104(sp)
   1d3ea:	66a2                	ld	a3,8(sp)
   1d3ec:	835e                	mv	t1,s7
   1d3ee:	0007c603          	lbu	a2,0(a5)
   1d3f2:	7792                	ld	a5,288(sp)
   1d3f4:	0006071b          	sext.w	a4,a2
   1d3f8:	bd0d                	j	0x1d22a
   1d3fa:	6512                	ld	a0,256(sp)
   1d3fc:	65b2                	ld	a1,264(sp)
   1d3fe:	4601                	li	a2,0
   1d400:	4681                	li	a3,0
   1d402:	e41a                	sd	t1,8(sp)
   1d404:	4cf010ef          	jal	ra,0x1f0d2
   1d408:	6322                	ld	t1,8(sp)
   1d40a:	2e054363          	bltz	a0,0x1d6f0
   1d40e:	0df14783          	lbu	a5,223(sp)
   1d412:	04700713          	li	a4,71
   1d416:	00004c97          	auipc	s9,0x4
   1d41a:	a7ac8c93          	addi	s9,s9,-1414 # 0x20e90
   1d41e:	19b74463          	blt	a4,s11,0x1d5a6
   1d422:	f7f4f493          	andi	s1,s1,-129
   1d426:	e802                	sd	zero,16(sp)
   1d428:	e882                	sd	zero,80(sp)
   1d42a:	f082                	sd	zero,96(sp)
   1d42c:	ec82                	sd	zero,88(sp)
   1d42e:	2481                	sext.w	s1,s1
   1d430:	498d                	li	s3,3
   1d432:	4c0d                	li	s8,3
   1d434:	4e81                	li	t4,0
   1d436:	c399                	beqz	a5,0x1d43c
   1d438:	fadfe06f          	j	0x1c3e4
   1d43c:	e07fe06f          	j	0x1c242
   1d440:	76e6                	ld	a3,120(sp)
   1d442:	7746                	ld	a4,112(sp)
   1d444:	0341                	addi	t1,t1,16
   1d446:	fed33823          	sd	a3,-16(t1)
   1d44a:	11812683          	lw	a3,280(sp)
   1d44e:	97ba                	add	a5,a5,a4
   1d450:	fee33c23          	sd	a4,-8(t1)
   1d454:	2685                	addiw	a3,a3,1
   1d456:	0006871b          	sext.w	a4,a3
   1d45a:	10d12c23          	sw	a3,280(sp)
   1d45e:	f23e                	sd	a5,288(sp)
   1d460:	469d                	li	a3,7
   1d462:	1ce6cd63          	blt	a3,a4,0x1d63c
   1d466:	ee065de3          	bgez	a2,0x1d360
   1d46a:	56c1                	li	a3,-16
   1d46c:	40c00c3b          	negw	s8,a2
   1d470:	60d65d63          	bge	a2,a3,0x1da8a
   1d474:	4d9d                	li	s11,7
   1d476:	a021                	j	0x1d47e
   1d478:	3c41                	addiw	s8,s8,-16
   1d47a:	618d5863          	bge	s10,s8,0x1da8a
   1d47e:	2705                	addiw	a4,a4,1
   1d480:	07c1                	addi	a5,a5,16
   1d482:	01233023          	sd	s2,0(t1)
   1d486:	01a33423          	sd	s10,8(t1)
   1d48a:	f23e                	sd	a5,288(sp)
   1d48c:	10e12c23          	sw	a4,280(sp)
   1d490:	0341                	addi	t1,t1,16
   1d492:	feedd3e3          	bge	s11,a4,0x1d478
   1d496:	0a10                	addi	a2,sp,272
   1d498:	85d6                	mv	a1,s5
   1d49a:	8552                	mv	a0,s4
   1d49c:	39d000ef          	jal	ra,0x1e038
   1d4a0:	fc051063          	bnez	a0,0x1cc60
   1d4a4:	7792                	ld	a5,288(sp)
   1d4a6:	11812703          	lw	a4,280(sp)
   1d4aa:	835e                	mv	t1,s7
   1d4ac:	b7f1                	j	0x1d478
   1d4ae:	8566                	mv	a0,s9
   1d4b0:	e836                	sd	a3,16(sp)
   1d4b2:	e41a                	sd	t1,8(sp)
   1d4b4:	b17f50ef          	jal	ra,0x12fca
   1d4b8:	66c2                	ld	a3,16(sp)
   1d4ba:	00050c1b          	sext.w	s8,a0
   1d4be:	fffc4993          	not	s3,s8
   1d4c2:	0df14783          	lbu	a5,223(sp)
   1d4c6:	43f9d993          	srai	s3,s3,0x3f
   1d4ca:	013c79b3          	and	s3,s8,s3
   1d4ce:	ec36                	sd	a3,24(sp)
   1d4d0:	e802                	sd	zero,16(sp)
   1d4d2:	e882                	sd	zero,80(sp)
   1d4d4:	f082                	sd	zero,96(sp)
   1d4d6:	ec82                	sd	zero,88(sp)
   1d4d8:	6322                	ld	t1,8(sp)
   1d4da:	2981                	sext.w	s3,s3
   1d4dc:	4e81                	li	t4,0
   1d4de:	c399                	beqz	a5,0x1d4e4
   1d4e0:	f05fe06f          	j	0x1c3e4
   1d4e4:	d5ffe06f          	j	0x1c242
   1d4e8:	0017061b          	addiw	a2,a4,1
   1d4ec:	010c0713          	addi	a4,s8,16
   1d4f0:	9db6                	add	s11,s11,a3
   1d4f2:	00dc3423          	sd	a3,8(s8)
   1d4f6:	012c3023          	sd	s2,0(s8)
   1d4fa:	f26e                	sd	s11,288(sp)
   1d4fc:	10c12c23          	sw	a2,280(sp)
   1d500:	469d                	li	a3,7
   1d502:	dcc6c3e3          	blt	a3,a2,0x1d2c8
   1d506:	2605                	addiw	a2,a2,1
   1d508:	01070313          	addi	t1,a4,16
   1d50c:	8c3a                	mv	s8,a4
   1d50e:	a42ff06f          	j	0x1c750
   1d512:	2004f793          	andi	a5,s1,512
   1d516:	10078063          	beqz	a5,0x1d616
   1d51a:	0ff9f993          	andi	s3,s3,255
   1d51e:	ee3fe06f          	j	0x1c400
   1d522:	20087793          	andi	a5,a6,512
   1d526:	c3ed                	beqz	a5,0x1d608
   1d528:	0ff9f993          	andi	s3,s3,255
   1d52c:	ec3a                	sd	a4,24(sp)
   1d52e:	4785                	li	a5,1
   1d530:	eddfe06f          	j	0x1c40c
   1d534:	2004f793          	andi	a5,s1,512
   1d538:	c3f1                	beqz	a5,0x1d5fc
   1d53a:	67e2                	ld	a5,24(sp)
   1d53c:	00078983          	lb	s3,0(a5)
   1d540:	87ce                	mv	a5,s3
   1d542:	e61fe06f          	j	0x1c3a2
   1d546:	2004f793          	andi	a5,s1,512
   1d54a:	c7cd                	beqz	a5,0x1d5f4
   1d54c:	0ff9f993          	andi	s3,s3,255
   1d550:	b6a5                	j	0x1d0b8
   1d552:	67b2                	ld	a5,264(sp)
   1d554:	0c07cf63          	bltz	a5,0x1d632
   1d558:	0df14783          	lbu	a5,223(sp)
   1d55c:	04700713          	li	a4,71
   1d560:	00004c97          	auipc	s9,0x4
   1d564:	940c8c93          	addi	s9,s9,-1728 # 0x20ea0
   1d568:	ebb75de3          	bge	a4,s11,0x1d422
   1d56c:	00004c97          	auipc	s9,0x4
   1d570:	93cc8c93          	addi	s9,s9,-1732 # 0x20ea8
   1d574:	b57d                	j	0x1d422
   1d576:	0017069b          	addiw	a3,a4,1
   1d57a:	97e2                	add	a5,a5,s8
   1d57c:	01233023          	sd	s2,0(t1)
   1d580:	01833423          	sd	s8,8(t1)
   1d584:	f23e                	sd	a5,288(sp)
   1d586:	10d12c23          	sw	a3,280(sp)
   1d58a:	471d                	li	a4,7
   1d58c:	0341                	addi	t1,t1,16
   1d58e:	88d756e3          	bge	a4,a3,0x1ce1a
   1d592:	0a10                	addi	a2,sp,272
   1d594:	85d6                	mv	a1,s5
   1d596:	8552                	mv	a0,s4
   1d598:	2a1000ef          	jal	ra,0x1e038
   1d59c:	ec051263          	bnez	a0,0x1cc60
   1d5a0:	7792                	ld	a5,288(sp)
   1d5a2:	835e                	mv	t1,s7
   1d5a4:	b89d                	j	0x1ce1a
   1d5a6:	00004c97          	auipc	s9,0x4
   1d5aa:	8f2c8c93          	addi	s9,s9,-1806 # 0x20e98
   1d5ae:	bd95                	j	0x1d422
   1d5b0:	0a10                	addi	a2,sp,272
   1d5b2:	85d6                	mv	a1,s5
   1d5b4:	8552                	mv	a0,s4
   1d5b6:	283000ef          	jal	ra,0x1e038
   1d5ba:	ea051363          	bnez	a0,0x1cc60
   1d5be:	7792                	ld	a5,288(sp)
   1d5c0:	835e                	mv	t1,s7
   1d5c2:	845ff06f          	j	0x1ce06
   1d5c6:	4c19                	li	s8,6
   1d5c8:	b661                	j	0x1d150
   1d5ca:	7682                	ld	a3,32(sp)
   1d5cc:	00dc8833          	add	a6,s9,a3
   1d5d0:	40e6873b          	subw	a4,a3,a4
   1d5d4:	41b80ebb          	subw	t4,a6,s11
   1d5d8:	0007069b          	sext.w	a3,a4
   1d5dc:	00ded363          	bge	t4,a3,0x1d5e2
   1d5e0:	8776                	mv	a4,t4
   1d5e2:	00070c9b          	sext.w	s9,a4
   1d5e6:	b865                	j	0x1ce9e
   1d5e8:	6782                	ld	a5,0(sp)
   1d5ea:	8ca2                	mv	s9,s0
   1d5ec:	00f71023          	sh	a5,0(a4)
   1d5f0:	d35fe06f          	j	0x1c324
   1d5f4:	1982                	slli	s3,s3,0x20
   1d5f6:	0209d993          	srli	s3,s3,0x20
   1d5fa:	bc7d                	j	0x1d0b8
   1d5fc:	67e2                	ld	a5,24(sp)
   1d5fe:	0007a983          	lw	s3,0(a5)
   1d602:	87ce                	mv	a5,s3
   1d604:	d9ffe06f          	j	0x1c3a2
   1d608:	1982                	slli	s3,s3,0x20
   1d60a:	0209d993          	srli	s3,s3,0x20
   1d60e:	ec3a                	sd	a4,24(sp)
   1d610:	4785                	li	a5,1
   1d612:	dfbfe06f          	j	0x1c40c
   1d616:	1982                	slli	s3,s3,0x20
   1d618:	0209d993          	srli	s3,s3,0x20
   1d61c:	de5fe06f          	j	0x1c400
   1d620:	0a10                	addi	a2,sp,272
   1d622:	85d6                	mv	a1,s5
   1d624:	8552                	mv	a0,s4
   1d626:	213000ef          	jal	ra,0x1e038
   1d62a:	010ad783          	lhu	a5,16(s5)
   1d62e:	d0bfe06f          	j	0x1c338
   1d632:	02d00793          	li	a5,45
   1d636:	0cf10fa3          	sb	a5,223(sp)
   1d63a:	b70d                	j	0x1d55c
   1d63c:	0a10                	addi	a2,sp,272
   1d63e:	85d6                	mv	a1,s5
   1d640:	8552                	mv	a0,s4
   1d642:	1f7000ef          	jal	ra,0x1e038
   1d646:	e0051d63          	bnez	a0,0x1cc60
   1d64a:	562e                	lw	a2,232(sp)
   1d64c:	7792                	ld	a5,288(sp)
   1d64e:	11812703          	lw	a4,280(sp)
   1d652:	835e                	mv	t1,s7
   1d654:	d00656e3          	bgez	a2,0x1d360
   1d658:	bd09                	j	0x1d46a
   1d65a:	4e99                	li	t4,6
   1d65c:	e7bfe06f          	j	0x1c4d6
   1d660:	7702                	ld	a4,32(sp)
   1d662:	9766                	add	a4,a4,s9
   1d664:	fdb77263          	bgeu	a4,s11,0x1ce28
   1d668:	8dba                	mv	s11,a4
   1d66a:	fbeff06f          	j	0x1ce28
   1d66e:	6766                	ld	a4,88(sp)
   1d670:	57f5                	li	a5,-3
   1d672:	00f74463          	blt	a4,a5,0x1d67a
   1d676:	00eed863          	bge	t4,a4,0x1d686
   1d67a:	3df9                	addiw	s11,s11,-2
   1d67c:	fdfdf793          	andi	a5,s11,-33
   1d680:	f0be                	sd	a5,96(sp)
   1d682:	f13fe06f          	j	0x1c594
   1d686:	7782                	ld	a5,32(sp)
   1d688:	6766                	ld	a4,88(sp)
   1d68a:	16f74963          	blt	a4,a5,0x1d7fc
   1d68e:	67ea                	ld	a5,152(sp)
   1d690:	8c3a                	mv	s8,a4
   1d692:	8b85                	andi	a5,a5,1
   1d694:	c781                	beqz	a5,0x1d69c
   1d696:	77c6                	ld	a5,112(sp)
   1d698:	00e78c3b          	addw	s8,a5,a4
   1d69c:	67ea                	ld	a5,152(sp)
   1d69e:	4007f793          	andi	a5,a5,1024
   1d6a2:	c781                	beqz	a5,0x1d6aa
   1d6a4:	67e6                	ld	a5,88(sp)
   1d6a6:	48f04c63          	bgtz	a5,0x1db3e
   1d6aa:	fffc4993          	not	s3,s8
   1d6ae:	43f9d993          	srai	s3,s3,0x3f
   1d6b2:	013c79b3          	and	s3,s8,s3
   1d6b6:	2981                	sext.w	s3,s3
   1d6b8:	06700d93          	li	s11,103
   1d6bc:	e882                	sd	zero,80(sp)
   1d6be:	f082                	sd	zero,96(sp)
   1d6c0:	fb7fe06f          	j	0x1c676
   1d6c4:	0df14783          	lbu	a5,223(sp)
   1d6c8:	4e81                	li	t4,0
   1d6ca:	c399                	beqz	a5,0x1d6d0
   1d6cc:	d19fe06f          	j	0x1c3e4
   1d6d0:	b73fe06f          	j	0x1c242
   1d6d4:	0a10                	addi	a2,sp,272
   1d6d6:	85d6                	mv	a1,s5
   1d6d8:	8552                	mv	a0,s4
   1d6da:	15f000ef          	jal	ra,0x1e038
   1d6de:	d8051163          	bnez	a0,0x1cc60
   1d6e2:	77a6                	ld	a5,104(sp)
   1d6e4:	835e                	mv	t1,s7
   1d6e6:	0007c603          	lbu	a2,0(a5)
   1d6ea:	7792                	ld	a5,288(sp)
   1d6ec:	9db2                	add	s11,s11,a2
   1d6ee:	b6b1                	j	0x1d23a
   1d6f0:	02d00793          	li	a5,45
   1d6f4:	0cf10fa3          	sb	a5,223(sp)
   1d6f8:	bb29                	j	0x1d412
   1d6fa:	0a10                	addi	a2,sp,272
   1d6fc:	85d6                	mv	a1,s5
   1d6fe:	8552                	mv	a0,s4
   1d700:	139000ef          	jal	ra,0x1e038
   1d704:	d4051e63          	bnez	a0,0x1cc60
   1d708:	572e                	lw	a4,232(sp)
   1d70a:	7792                	ld	a5,288(sp)
   1d70c:	835e                	mv	t1,s7
   1d70e:	f50ff06f          	j	0x1ce5e
   1d712:	8776                	mv	a4,t4
   1d714:	11bc                	addi	a5,sp,232
   1d716:	0f810893          	addi	a7,sp,248
   1d71a:	0ec10813          	addi	a6,sp,236
   1d71e:	4689                	li	a3,2
   1d720:	85e2                	mv	a1,s8
   1d722:	864e                	mv	a2,s3
   1d724:	8552                	mv	a0,s4
   1d726:	f01a                	sd	t1,32(sp)
   1d728:	e476                	sd	t4,8(sp)
   1d72a:	808fc0ef          	jal	ra,0x19732
   1d72e:	7706                	ld	a4,96(sp)
   1d730:	04700793          	li	a5,71
   1d734:	6ea2                	ld	t4,8(sp)
   1d736:	7302                	ld	t1,32(sp)
   1d738:	8caa                	mv	s9,a0
   1d73a:	02f71d63          	bne	a4,a5,0x1d774
   1d73e:	67ea                	ld	a5,152(sp)
   1d740:	8b85                	andi	a5,a5,1
   1d742:	32079d63          	bnez	a5,0x1da7c
   1d746:	04700713          	li	a4,71
   1d74a:	77ee                	ld	a5,248(sp)
   1d74c:	f0ba                	sd	a4,96(sp)
   1d74e:	e21fe06f          	j	0x1c56e
   1d752:	8776                	mv	a4,t4
   1d754:	0f810893          	addi	a7,sp,248
   1d758:	0ec10813          	addi	a6,sp,236
   1d75c:	11bc                	addi	a5,sp,232
   1d75e:	468d                	li	a3,3
   1d760:	85e2                	mv	a1,s8
   1d762:	864e                	mv	a2,s3
   1d764:	8552                	mv	a0,s4
   1d766:	f01a                	sd	t1,32(sp)
   1d768:	e476                	sd	t4,8(sp)
   1d76a:	fc9fb0ef          	jal	ra,0x19732
   1d76e:	6ea2                	ld	t4,8(sp)
   1d770:	7302                	ld	t1,32(sp)
   1d772:	8caa                	mv	s9,a0
   1d774:	7706                	ld	a4,96(sp)
   1d776:	04600793          	li	a5,70
   1d77a:	01dc88b3          	add	a7,s9,t4
   1d77e:	00f70463          	beq	a4,a5,0x1d786
   1d782:	db7fe06f          	j	0x1c538
   1d786:	000cc703          	lbu	a4,0(s9)
   1d78a:	03000793          	li	a5,48
   1d78e:	00f70663          	beq	a4,a5,0x1d79a
   1d792:	572e                	lw	a4,232(sp)
   1d794:	98ba                	add	a7,a7,a4
   1d796:	da3fe06f          	j	0x1c538
   1d79a:	4601                	li	a2,0
   1d79c:	4681                	li	a3,0
   1d79e:	8562                	mv	a0,s8
   1d7a0:	85ce                	mv	a1,s3
   1d7a2:	f846                	sd	a7,48(sp)
   1d7a4:	f01a                	sd	t1,32(sp)
   1d7a6:	e476                	sd	t4,8(sp)
   1d7a8:	7ee010ef          	jal	ra,0x1ef96
   1d7ac:	6ea2                	ld	t4,8(sp)
   1d7ae:	7302                	ld	t1,32(sp)
   1d7b0:	78c2                	ld	a7,48(sp)
   1d7b2:	d165                	beqz	a0,0x1d792
   1d7b4:	4785                	li	a5,1
   1d7b6:	41d7873b          	subw	a4,a5,t4
   1d7ba:	d5ba                	sw	a4,232(sp)
   1d7bc:	98ba                	add	a7,a7,a4
   1d7be:	d7bfe06f          	j	0x1c538
   1d7c2:	0df14783          	lbu	a5,223(sp)
   1d7c6:	ec36                	sd	a3,24(sp)
   1d7c8:	e882                	sd	zero,80(sp)
   1d7ca:	f082                	sd	zero,96(sp)
   1d7cc:	ec82                	sd	zero,88(sp)
   1d7ce:	89f6                	mv	s3,t4
   1d7d0:	8c76                	mv	s8,t4
   1d7d2:	4e81                	li	t4,0
   1d7d4:	c399                	beqz	a5,0x1d7da
   1d7d6:	c0ffe06f          	j	0x1c3e4
   1d7da:	a69fe06f          	j	0x1c242
   1d7de:	0a10                	addi	a2,sp,272
   1d7e0:	85d6                	mv	a1,s5
   1d7e2:	8552                	mv	a0,s4
   1d7e4:	055000ef          	jal	ra,0x1e038
   1d7e8:	c6051c63          	bnez	a0,0x1cc60
   1d7ec:	56ae                	lw	a3,232(sp)
   1d7ee:	7702                	ld	a4,32(sp)
   1d7f0:	7792                	ld	a5,288(sp)
   1d7f2:	835e                	mv	t1,s7
   1d7f4:	40d706bb          	subw	a3,a4,a3
   1d7f8:	ea6ff06f          	j	0x1ce9e
   1d7fc:	7702                	ld	a4,32(sp)
   1d7fe:	77c6                	ld	a5,112(sp)
   1d800:	06700d93          	li	s11,103
   1d804:	00e78c3b          	addw	s8,a5,a4
   1d808:	6766                	ld	a4,88(sp)
   1d80a:	40e05463          	blez	a4,0x1dc12
   1d80e:	67ea                	ld	a5,152(sp)
   1d810:	4007f793          	andi	a5,a5,1024
   1d814:	32079763          	bnez	a5,0x1db42
   1d818:	fffc4993          	not	s3,s8
   1d81c:	43f9d993          	srai	s3,s3,0x3f
   1d820:	013c79b3          	and	s3,s8,s3
   1d824:	2981                	sext.w	s3,s3
   1d826:	bd59                	j	0x1d6bc
   1d828:	67ea                	ld	a5,152(sp)
   1d82a:	6766                	ld	a4,88(sp)
   1d82c:	8b85                	andi	a5,a5,1
   1d82e:	00fee7b3          	or	a5,t4,a5
   1d832:	40e05563          	blez	a4,0x1dc3c
   1d836:	3c079663          	bnez	a5,0x1dc02
   1d83a:	6c66                	ld	s8,88(sp)
   1d83c:	06600d93          	li	s11,102
   1d840:	b7f9                	j	0x1d80e
   1d842:	03000793          	li	a5,48
   1d846:	0ef10023          	sb	a5,224(sp)
   1d84a:	05800713          	li	a4,88
   1d84e:	0024e793          	ori	a5,s1,2
   1d852:	2781                	sext.w	a5,a5
   1d854:	0ee100a3          	sb	a4,225(sp)
   1d858:	ed3e                	sd	a5,152(sp)
   1d85a:	06300713          	li	a4,99
   1d85e:	e802                	sd	zero,16(sp)
   1d860:	12810c93          	addi	s9,sp,296
   1d864:	1fd74463          	blt	a4,t4,0x1da4c
   1d868:	69b2                	ld	s3,264(sp)
   1d86a:	fdfdf713          	andi	a4,s11,-33
   1d86e:	1024e493          	ori	s1,s1,258
   1d872:	f0ba                	sd	a4,96(sp)
   1d874:	e582                	sd	zero,200(sp)
   1d876:	6c12                	ld	s8,256(sp)
   1d878:	2481                	sext.w	s1,s1
   1d87a:	1609ca63          	bltz	s3,0x1d9ee
   1d87e:	06100793          	li	a5,97
   1d882:	32fd8a63          	beq	s11,a5,0x1dbb6
   1d886:	04100793          	li	a5,65
   1d88a:	00fd8463          	beq	s11,a5,0x1d892
   1d88e:	c63fe06f          	j	0x1c4f0
   1d892:	85ce                	mv	a1,s3
   1d894:	8562                	mv	a0,s8
   1d896:	fc1a                	sd	t1,56(sp)
   1d898:	f876                	sd	t4,48(sp)
   1d89a:	0a1020ef          	jal	ra,0x2013a
   1d89e:	11a8                	addi	a0,sp,232
   1d8a0:	98efe0ef          	jal	ra,0x1ba2e
   1d8a4:	7d6020ef          	jal	ra,0x2007a
   1d8a8:	00003797          	auipc	a5,0x3
   1d8ac:	7c878793          	addi	a5,a5,1992 # 0x21070
   1d8b0:	6390                	ld	a2,0(a5)
   1d8b2:	6794                	ld	a3,8(a5)
   1d8b4:	0c7010ef          	jal	ra,0x1f17a
   1d8b8:	4601                	li	a2,0
   1d8ba:	4681                	li	a3,0
   1d8bc:	f02a                	sd	a0,32(sp)
   1d8be:	e42e                	sd	a1,8(sp)
   1d8c0:	6d6010ef          	jal	ra,0x1ef96
   1d8c4:	62a2                	ld	t0,8(sp)
   1d8c6:	7702                	ld	a4,32(sp)
   1d8c8:	7ec2                	ld	t4,48(sp)
   1d8ca:	7362                	ld	t1,56(sp)
   1d8cc:	e119                	bnez	a0,0x1d8d2
   1d8ce:	4785                	li	a5,1
   1d8d0:	d5be                	sw	a5,232(sp)
   1d8d2:	00003797          	auipc	a5,0x3
   1d8d6:	3f678793          	addi	a5,a5,1014 # 0x20cc8
   1d8da:	e8be                	sd	a5,80(sp)
   1d8dc:	020e9793          	slli	a5,t4,0x20
   1d8e0:	00003697          	auipc	a3,0x3
   1d8e4:	77068693          	addi	a3,a3,1904 # 0x21050
   1d8e8:	9381                	srli	a5,a5,0x20
   1d8ea:	6290                	ld	a2,0(a3)
   1d8ec:	0785                	addi	a5,a5,1
   1d8ee:	6694                	ld	a3,8(a3)
   1d8f0:	97e6                	add	a5,a5,s9
   1d8f2:	f13e                	sd	a5,160(sp)
   1d8f4:	01dc87bb          	addw	a5,s9,t4
   1d8f8:	fd32                	sd	a2,184(sp)
   1d8fa:	e1b6                	sd	a3,192(sp)
   1d8fc:	8c66                	mv	s8,s9
   1d8fe:	db3e                	sw	a5,180(sp)
   1d900:	a831                	j	0x1d91c
   1d902:	4601                	li	a2,0
   1d904:	4681                	li	a3,0
   1d906:	e4ae                	sd	a1,72(sp)
   1d908:	e0aa                	sd	a0,64(sp)
   1d90a:	68c010ef          	jal	ra,0x1ef96
   1d90e:	7ec2                	ld	t4,48(sp)
   1d910:	7362                	ld	t1,56(sp)
   1d912:	6f86                	ld	t6,64(sp)
   1d914:	68a6                	ld	a7,72(sp)
   1d916:	62a2                	ld	t0,8(sp)
   1d918:	7702                	ld	a4,32(sp)
   1d91a:	c135                	beqz	a0,0x1d97e
   1d91c:	766a                	ld	a2,184(sp)
   1d91e:	668e                	ld	a3,192(sp)
   1d920:	853a                	mv	a0,a4
   1d922:	8596                	mv	a1,t0
   1d924:	fc1a                	sd	t1,56(sp)
   1d926:	f876                	sd	t4,48(sp)
   1d928:	053010ef          	jal	ra,0x1f17a
   1d92c:	e42e                	sd	a1,8(sp)
   1d92e:	f02a                	sd	a0,32(sp)
   1d930:	658020ef          	jal	ra,0x1ff88
   1d934:	0005099b          	sext.w	s3,a0
   1d938:	854e                	mv	a0,s3
   1d93a:	6e4020ef          	jal	ra,0x2001e
   1d93e:	7882                	ld	a7,32(sp)
   1d940:	6722                	ld	a4,8(sp)
   1d942:	862a                	mv	a2,a0
   1d944:	86ae                	mv	a3,a1
   1d946:	8546                	mv	a0,a7
   1d948:	85ba                	mv	a1,a4
   1d94a:	643010ef          	jal	ra,0x1f78c
   1d94e:	67c6                	ld	a5,80(sp)
   1d950:	f562                	sd	s8,168(sp)
   1d952:	0c05                	addi	s8,s8,1
   1d954:	01378733          	add	a4,a5,s3
   1d958:	57da                	lw	a5,180(sp)
   1d95a:	00074703          	lbu	a4,0(a4)
   1d95e:	f02a                	sd	a0,32(sp)
   1d960:	418787bb          	subw	a5,a5,s8
   1d964:	ecbe                	sd	a5,88(sp)
   1d966:	778a                	ld	a5,160(sp)
   1d968:	feec0fa3          	sb	a4,-1(s8)
   1d96c:	e42e                	sd	a1,8(sp)
   1d96e:	7ec2                	ld	t4,48(sp)
   1d970:	7362                	ld	t1,56(sp)
   1d972:	8faa                	mv	t6,a0
   1d974:	88ae                	mv	a7,a1
   1d976:	f98796e3          	bne	a5,s8,0x1d902
   1d97a:	57fd                	li	a5,-1
   1d97c:	ecbe                	sd	a5,88(sp)
   1d97e:	00003717          	auipc	a4,0x3
   1d982:	6e270713          	addi	a4,a4,1762 # 0x21060
   1d986:	6310                	ld	a2,0(a4)
   1d988:	6714                	ld	a3,8(a4)
   1d98a:	857e                	mv	a0,t6
   1d98c:	85c6                	mv	a1,a7
   1d98e:	f01a                	sd	t1,32(sp)
   1d990:	e476                	sd	t4,8(sp)
   1d992:	e4fe                	sd	t6,72(sp)
   1d994:	e0b2                	sd	a2,64(sp)
   1d996:	fc36                	sd	a3,56(sp)
   1d998:	f846                	sd	a7,48(sp)
   1d99a:	690010ef          	jal	ra,0x1f02a
   1d99e:	6ea2                	ld	t4,8(sp)
   1d9a0:	7302                	ld	t1,32(sp)
   1d9a2:	04a04e63          	bgtz	a0,0x1d9fe
   1d9a6:	6fa6                	ld	t6,72(sp)
   1d9a8:	78c2                	ld	a7,48(sp)
   1d9aa:	6606                	ld	a2,64(sp)
   1d9ac:	76e2                	ld	a3,56(sp)
   1d9ae:	857e                	mv	a0,t6
   1d9b0:	85c6                	mv	a1,a7
   1d9b2:	5e4010ef          	jal	ra,0x1ef96
   1d9b6:	6ea2                	ld	t4,8(sp)
   1d9b8:	7302                	ld	t1,32(sp)
   1d9ba:	e509                	bnez	a0,0x1d9c4
   1d9bc:	0019f993          	andi	s3,s3,1
   1d9c0:	02099f63          	bnez	s3,0x1d9fe
   1d9c4:	67e6                	ld	a5,88(sp)
   1d9c6:	03000693          	li	a3,48
   1d9ca:	00178713          	addi	a4,a5,1
   1d9ce:	9762                	add	a4,a4,s8
   1d9d0:	0007c763          	bltz	a5,0x1d9de
   1d9d4:	0c05                	addi	s8,s8,1
   1d9d6:	fedc0fa3          	sb	a3,-1(s8)
   1d9da:	ff871de3          	bne	a4,s8,0x1d9d4
   1d9de:	419c07bb          	subw	a5,s8,s9
   1d9e2:	f03e                	sd	a5,32(sp)
   1d9e4:	b91fe06f          	j	0x1c574
   1d9e8:	ed26                	sd	s1,152(sp)
   1d9ea:	e802                	sd	zero,16(sp)
   1d9ec:	84fe                	mv	s1,t6
   1d9ee:	57fd                	li	a5,-1
   1d9f0:	17fe                	slli	a5,a5,0x3f
   1d9f2:	00f9c9b3          	xor	s3,s3,a5
   1d9f6:	02d00793          	li	a5,45
   1d9fa:	e5be                	sd	a5,200(sp)
   1d9fc:	b549                	j	0x1d87e
   1d9fe:	77aa                	ld	a5,168(sp)
   1da00:	8762                	mv	a4,s8
   1da02:	fdbe                	sd	a5,248(sp)
   1da04:	67c6                	ld	a5,80(sp)
   1da06:	fffc4683          	lbu	a3,-1(s8)
   1da0a:	00f7c603          	lbu	a2,15(a5)
   1da0e:	00d61e63          	bne	a2,a3,0x1da2a
   1da12:	03000593          	li	a1,48
   1da16:	feb70fa3          	sb	a1,-1(a4)
   1da1a:	776e                	ld	a4,248(sp)
   1da1c:	fff70693          	addi	a3,a4,-1
   1da20:	fdb6                	sd	a3,248(sp)
   1da22:	fff74683          	lbu	a3,-1(a4)
   1da26:	fed608e3          	beq	a2,a3,0x1da16
   1da2a:	0016861b          	addiw	a2,a3,1
   1da2e:	03900593          	li	a1,57
   1da32:	0ff67613          	andi	a2,a2,255
   1da36:	00b68563          	beq	a3,a1,0x1da40
   1da3a:	fec70fa3          	sb	a2,-1(a4)
   1da3e:	b745                	j	0x1d9de
   1da40:	67c6                	ld	a5,80(sp)
   1da42:	00a7c603          	lbu	a2,10(a5)
   1da46:	fec70fa3          	sb	a2,-1(a4)
   1da4a:	bf51                	j	0x1d9de
   1da4c:	001e859b          	addiw	a1,t4,1
   1da50:	8552                	mv	a0,s4
   1da52:	e81a                	sd	t1,16(sp)
   1da54:	e476                	sd	t4,8(sp)
   1da56:	cb1f40ef          	jal	ra,0x12706
   1da5a:	6ea2                	ld	t4,8(sp)
   1da5c:	6342                	ld	t1,16(sp)
   1da5e:	8caa                	mv	s9,a0
   1da60:	24050063          	beqz	a0,0x1dca0
   1da64:	e82a                	sd	a0,16(sp)
   1da66:	b509                	j	0x1d868
   1da68:	8826                	mv	a6,s1
   1da6a:	a16ff06f          	j	0x1cc80
   1da6e:	03000793          	li	a5,48
   1da72:	0ef10023          	sb	a5,224(sp)
   1da76:	07800713          	li	a4,120
   1da7a:	bbd1                	j	0x1d84e
   1da7c:	04700793          	li	a5,71
   1da80:	01dc88b3          	add	a7,s9,t4
   1da84:	f0be                	sd	a5,96(sp)
   1da86:	ab3fe06f          	j	0x1c538
   1da8a:	2705                	addiw	a4,a4,1
   1da8c:	97e2                	add	a5,a5,s8
   1da8e:	01233023          	sd	s2,0(t1)
   1da92:	01833423          	sd	s8,8(t1)
   1da96:	f23e                	sd	a5,288(sp)
   1da98:	10e12c23          	sw	a4,280(sp)
   1da9c:	469d                	li	a3,7
   1da9e:	8ce6d0e3          	bge	a3,a4,0x1d35e
   1daa2:	0a10                	addi	a2,sp,272
   1daa4:	85d6                	mv	a1,s5
   1daa6:	8552                	mv	a0,s4
   1daa8:	590000ef          	jal	ra,0x1e038
   1daac:	9a051a63          	bnez	a0,0x1cc60
   1dab0:	7792                	ld	a5,288(sp)
   1dab2:	11812703          	lw	a4,280(sp)
   1dab6:	835e                	mv	t1,s7
   1dab8:	b065                	j	0x1d360
   1daba:	c31c                	sw	a5,0(a4)
   1dabc:	8ca2                	mv	s9,s0
   1dabe:	867fe06f          	j	0x1c324
   1dac2:	57fd                	li	a5,-1
   1dac4:	e03e                	sd	a5,0(sp)
   1dac6:	87dfe06f          	j	0x1c342
   1daca:	000e9363          	bnez	t4,0x1dad0
   1dace:	4e85                	li	t4,1
   1dad0:	69b2                	ld	s3,264(sp)
   1dad2:	1004ef93          	ori	t6,s1,256
   1dad6:	6c12                	ld	s8,256(sp)
   1dad8:	2f81                	sext.w	t6,t6
   1dada:	f009c7e3          	bltz	s3,0x1d9e8
   1dade:	8776                	mv	a4,t4
   1dae0:	0f810893          	addi	a7,sp,248
   1dae4:	0ec10813          	addi	a6,sp,236
   1dae8:	11bc                	addi	a5,sp,232
   1daea:	4689                	li	a3,2
   1daec:	85e2                	mv	a1,s8
   1daee:	864e                	mv	a2,s3
   1daf0:	8552                	mv	a0,s4
   1daf2:	e87e                	sd	t6,16(sp)
   1daf4:	f01a                	sd	t1,32(sp)
   1daf6:	e476                	sd	t4,8(sp)
   1daf8:	c3bfb0ef          	jal	ra,0x19732
   1dafc:	6fc2                	ld	t6,16(sp)
   1dafe:	ed26                	sd	s1,152(sp)
   1db00:	6ea2                	ld	t4,8(sp)
   1db02:	7302                	ld	t1,32(sp)
   1db04:	8caa                	mv	s9,a0
   1db06:	84fe                	mv	s1,t6
   1db08:	e802                	sd	zero,16(sp)
   1db0a:	e582                	sd	zero,200(sp)
   1db0c:	b90d                	j	0x1d73e
   1db0e:	0f210713          	addi	a4,sp,242
   1db12:	e699                	bnez	a3,0x1db20
   1db14:	03000713          	li	a4,48
   1db18:	0ee10923          	sb	a4,242(sp)
   1db1c:	0f310713          	addi	a4,sp,243
   1db20:	0c14                	addi	a3,sp,528
   1db22:	0307879b          	addiw	a5,a5,48
   1db26:	40d706b3          	sub	a3,a4,a3
   1db2a:	00f70023          	sb	a5,0(a4)
   1db2e:	1216879b          	addiw	a5,a3,289
   1db32:	e13e                	sd	a5,128(sp)
   1db34:	b09fe06f          	j	0x1c63c
   1db38:	e802                	sd	zero,16(sp)
   1db3a:	84be                	mv	s1,a5
   1db3c:	bd4d                	j	0x1d9ee
   1db3e:	06700d93          	li	s11,103
   1db42:	77a6                	ld	a5,104(sp)
   1db44:	0ff00713          	li	a4,255
   1db48:	e882                	sd	zero,80(sp)
   1db4a:	0007c783          	lbu	a5,0(a5)
   1db4e:	f082                	sd	zero,96(sp)
   1db50:	02e78863          	beq	a5,a4,0x1db80
   1db54:	0ff00693          	li	a3,255
   1db58:	6666                	ld	a2,88(sp)
   1db5a:	0007871b          	sext.w	a4,a5
   1db5e:	02c7d163          	bge	a5,a2,0x1db80
   1db62:	75a6                	ld	a1,104(sp)
   1db64:	40e6073b          	subw	a4,a2,a4
   1db68:	ecba                	sd	a4,88(sp)
   1db6a:	0015c783          	lbu	a5,1(a1)
   1db6e:	cf8d                	beqz	a5,0x1dba8
   1db70:	7706                	ld	a4,96(sp)
   1db72:	2705                	addiw	a4,a4,1
   1db74:	f0ba                	sd	a4,96(sp)
   1db76:	00158713          	addi	a4,a1,1
   1db7a:	f4ba                	sd	a4,104(sp)
   1db7c:	fcd79ee3          	bne	a5,a3,0x1db58
   1db80:	7706                	ld	a4,96(sp)
   1db82:	67c6                	ld	a5,80(sp)
   1db84:	9fb9                	addw	a5,a5,a4
   1db86:	672a                	ld	a4,136(sp)
   1db88:	02e787bb          	mulw	a5,a5,a4
   1db8c:	018787bb          	addw	a5,a5,s8
   1db90:	00078c1b          	sext.w	s8,a5
   1db94:	fffc4993          	not	s3,s8
   1db98:	43f9d993          	srai	s3,s3,0x3f
   1db9c:	0137f7b3          	and	a5,a5,s3
   1dba0:	0007899b          	sext.w	s3,a5
   1dba4:	ad3fe06f          	j	0x1c676
   1dba8:	6746                	ld	a4,80(sp)
   1dbaa:	77a6                	ld	a5,104(sp)
   1dbac:	2705                	addiw	a4,a4,1
   1dbae:	0007c783          	lbu	a5,0(a5)
   1dbb2:	e8ba                	sd	a4,80(sp)
   1dbb4:	b7e1                	j	0x1db7c
   1dbb6:	85ce                	mv	a1,s3
   1dbb8:	8562                	mv	a0,s8
   1dbba:	fc1a                	sd	t1,56(sp)
   1dbbc:	f876                	sd	t4,48(sp)
   1dbbe:	57c020ef          	jal	ra,0x2013a
   1dbc2:	11a8                	addi	a0,sp,232
   1dbc4:	e6bfd0ef          	jal	ra,0x1ba2e
   1dbc8:	4b2020ef          	jal	ra,0x2007a
   1dbcc:	00003797          	auipc	a5,0x3
   1dbd0:	4a478793          	addi	a5,a5,1188 # 0x21070
   1dbd4:	6390                	ld	a2,0(a5)
   1dbd6:	6794                	ld	a3,8(a5)
   1dbd8:	5a2010ef          	jal	ra,0x1f17a
   1dbdc:	4601                	li	a2,0
   1dbde:	4681                	li	a3,0
   1dbe0:	f02a                	sd	a0,32(sp)
   1dbe2:	e42e                	sd	a1,8(sp)
   1dbe4:	3b2010ef          	jal	ra,0x1ef96
   1dbe8:	62a2                	ld	t0,8(sp)
   1dbea:	7702                	ld	a4,32(sp)
   1dbec:	7ec2                	ld	t4,48(sp)
   1dbee:	7362                	ld	t1,56(sp)
   1dbf0:	e119                	bnez	a0,0x1dbf6
   1dbf2:	4785                	li	a5,1
   1dbf4:	d5be                	sw	a5,232(sp)
   1dbf6:	00003797          	auipc	a5,0x3
   1dbfa:	0ea78793          	addi	a5,a5,234 # 0x20ce0
   1dbfe:	e8be                	sd	a5,80(sp)
   1dc00:	b9f1                	j	0x1d8dc
   1dc02:	77c6                	ld	a5,112(sp)
   1dc04:	06600d93          	li	s11,102
   1dc08:	00e78c3b          	addw	s8,a5,a4
   1dc0c:	01dc0c3b          	addw	s8,s8,t4
   1dc10:	befd                	j	0x1d80e
   1dc12:	40ec07bb          	subw	a5,s8,a4
   1dc16:	2785                	addiw	a5,a5,1
   1dc18:	00078c1b          	sext.w	s8,a5
   1dc1c:	fffc4993          	not	s3,s8
   1dc20:	43f9d993          	srai	s3,s3,0x3f
   1dc24:	0137f7b3          	and	a5,a5,s3
   1dc28:	0007899b          	sext.w	s3,a5
   1dc2c:	bc41                	j	0x1d6bc
   1dc2e:	676a                	ld	a4,152(sp)
   1dc30:	8b05                	andi	a4,a4,1
   1dc32:	e319                	bnez	a4,0x1dc38
   1dc34:	a23fe06f          	j	0x1c656
   1dc38:	a19fe06f          	j	0x1c650
   1dc3c:	e791                	bnez	a5,0x1dc48
   1dc3e:	4985                	li	s3,1
   1dc40:	06600d93          	li	s11,102
   1dc44:	4c05                	li	s8,1
   1dc46:	bc9d                	j	0x1d6bc
   1dc48:	77c6                	ld	a5,112(sp)
   1dc4a:	06600d93          	li	s11,102
   1dc4e:	2785                	addiw	a5,a5,1
   1dc50:	01d78ebb          	addw	t4,a5,t4
   1dc54:	000e8c1b          	sext.w	s8,t4
   1dc58:	fffc4993          	not	s3,s8
   1dc5c:	43f9d993          	srai	s3,s3,0x3f
   1dc60:	013efeb3          	and	t4,t4,s3
   1dc64:	000e899b          	sext.w	s3,t4
   1dc68:	bc91                	j	0x1d6bc
   1dc6a:	871a                	mv	a4,t1
   1dc6c:	b051                	j	0x1d4f0
   1dc6e:	66e2                	ld	a3,24(sp)
   1dc70:	4298                	lw	a4,0(a3)
   1dc72:	06a1                	addi	a3,a3,8
   1dc74:	00070e9b          	sext.w	t4,a4
   1dc78:	00075363          	bgez	a4,0x1dc7e
   1dc7c:	5efd                	li	t4,-1
   1dc7e:	00144f03          	lbu	t5,1(s0)
   1dc82:	ec36                	sd	a3,24(sp)
   1dc84:	843e                	mv	s0,a5
   1dc86:	d40fe06f          	j	0x1c1c6
   1dc8a:	47b1                	li	a5,12
   1dc8c:	00fa2023          	sw	a5,0(s4)
   1dc90:	57fd                	li	a5,-1
   1dc92:	e03e                	sd	a5,0(sp)
   1dc94:	eaefe06f          	j	0x1c342
   1dc98:	4789                	li	a5,2
   1dc9a:	e13e                	sd	a5,128(sp)
   1dc9c:	9a1fe06f          	j	0x1c63c
   1dca0:	010ad783          	lhu	a5,16(s5)
   1dca4:	0407e713          	ori	a4,a5,64
   1dca8:	87ba                	mv	a5,a4
   1dcaa:	00ea9823          	sh	a4,16(s5)
   1dcae:	e8afe06f          	j	0x1c338
   1dcb2:	7179                	addi	sp,sp,-48
   1dcb4:	f022                	sd	s0,32(sp)
   1dcb6:	ec26                	sd	s1,24(sp)
   1dcb8:	e84a                	sd	s2,16(sp)
   1dcba:	f406                	sd	ra,40(sp)
   1dcbc:	e44e                	sd	s3,8(sp)
   1dcbe:	892a                	mv	s2,a0
   1dcc0:	84ae                	mv	s1,a1
   1dcc2:	8432                	mv	s0,a2
   1dcc4:	c119                	beqz	a0,0x1dcca
   1dcc6:	493c                	lw	a5,80(a0)
   1dcc8:	c3ed                	beqz	a5,0x1ddaa
   1dcca:	01041703          	lh	a4,16(s0)
   1dcce:	5414                	lw	a3,40(s0)
   1dcd0:	00877793          	andi	a5,a4,8
   1dcd4:	c454                	sw	a3,12(s0)
   1dcd6:	03071693          	slli	a3,a4,0x30
   1dcda:	92c1                	srli	a3,a3,0x30
   1dcdc:	cbb9                	beqz	a5,0x1dd32
   1dcde:	6c1c                	ld	a5,24(s0)
   1dce0:	cba9                	beqz	a5,0x1dd32
   1dce2:	0ff4f993          	andi	s3,s1,255
   1dce6:	03269613          	slli	a2,a3,0x32
   1dcea:	84ce                	mv	s1,s3
   1dcec:	06065563          	bgez	a2,0x1dd56
   1dcf0:	6018                	ld	a4,0(s0)
   1dcf2:	5014                	lw	a3,32(s0)
   1dcf4:	40f707bb          	subw	a5,a4,a5
   1dcf8:	08d7d063          	bge	a5,a3,0x1dd78
   1dcfc:	4454                	lw	a3,12(s0)
   1dcfe:	00170613          	addi	a2,a4,1
   1dd02:	e010                	sd	a2,0(s0)
   1dd04:	36fd                	addiw	a3,a3,-1
   1dd06:	c454                	sw	a3,12(s0)
   1dd08:	01370023          	sb	s3,0(a4)
   1dd0c:	5018                	lw	a4,32(s0)
   1dd0e:	2785                	addiw	a5,a5,1
   1dd10:	08f70663          	beq	a4,a5,0x1dd9c
   1dd14:	01045783          	lhu	a5,16(s0)
   1dd18:	8b85                	andi	a5,a5,1
   1dd1a:	c781                	beqz	a5,0x1dd22
   1dd1c:	47a9                	li	a5,10
   1dd1e:	06f48f63          	beq	s1,a5,0x1dd9c
   1dd22:	70a2                	ld	ra,40(sp)
   1dd24:	7402                	ld	s0,32(sp)
   1dd26:	6942                	ld	s2,16(sp)
   1dd28:	69a2                	ld	s3,8(sp)
   1dd2a:	8526                	mv	a0,s1
   1dd2c:	64e2                	ld	s1,24(sp)
   1dd2e:	6145                	addi	sp,sp,48
   1dd30:	8082                	ret
   1dd32:	85a2                	mv	a1,s0
   1dd34:	854a                	mv	a0,s2
   1dd36:	81af90ef          	jal	ra,0x16d50
   1dd3a:	e535                	bnez	a0,0x1dda6
   1dd3c:	01041703          	lh	a4,16(s0)
   1dd40:	0ff4f993          	andi	s3,s1,255
   1dd44:	6c1c                	ld	a5,24(s0)
   1dd46:	03071693          	slli	a3,a4,0x30
   1dd4a:	92c1                	srli	a3,a3,0x30
   1dd4c:	03269613          	slli	a2,a3,0x32
   1dd50:	84ce                	mv	s1,s3
   1dd52:	f8064fe3          	bltz	a2,0x1dcf0
   1dd56:	0ac42683          	lw	a3,172(s0)
   1dd5a:	6609                	lui	a2,0x2
   1dd5c:	8f51                	or	a4,a4,a2
   1dd5e:	7679                	lui	a2,0xffffe
   1dd60:	167d                	addi	a2,a2,-1
   1dd62:	8ef1                	and	a3,a3,a2
   1dd64:	00e41823          	sh	a4,16(s0)
   1dd68:	6018                	ld	a4,0(s0)
   1dd6a:	0ad42623          	sw	a3,172(s0)
   1dd6e:	5014                	lw	a3,32(s0)
   1dd70:	40f707bb          	subw	a5,a4,a5
   1dd74:	f8d7c4e3          	blt	a5,a3,0x1dcfc
   1dd78:	85a2                	mv	a1,s0
   1dd7a:	854a                	mv	a0,s2
   1dd7c:	b66f90ef          	jal	ra,0x170e2
   1dd80:	e11d                	bnez	a0,0x1dda6
   1dd82:	6018                	ld	a4,0(s0)
   1dd84:	4454                	lw	a3,12(s0)
   1dd86:	4785                	li	a5,1
   1dd88:	00170613          	addi	a2,a4,1
   1dd8c:	36fd                	addiw	a3,a3,-1
   1dd8e:	e010                	sd	a2,0(s0)
   1dd90:	c454                	sw	a3,12(s0)
   1dd92:	01370023          	sb	s3,0(a4)
   1dd96:	5018                	lw	a4,32(s0)
   1dd98:	f6f71ee3          	bne	a4,a5,0x1dd14
   1dd9c:	85a2                	mv	a1,s0
   1dd9e:	854a                	mv	a0,s2
   1dda0:	b42f90ef          	jal	ra,0x170e2
   1dda4:	dd3d                	beqz	a0,0x1dd22
   1dda6:	54fd                	li	s1,-1
   1dda8:	bfad                	j	0x1dd22
   1ddaa:	dd0f90ef          	jal	ra,0x1737a
   1ddae:	bf31                	j	0x1dcca
   1ddb0:	862e                	mv	a2,a1
   1ddb2:	85aa                	mv	a1,a0
   1ddb4:	7501b503          	ld	a0,1872(gp)
   1ddb8:	bded                	j	0x1dcb2
   1ddba:	7179                	addi	sp,sp,-48
   1ddbc:	f022                	sd	s0,32(sp)
   1ddbe:	ec26                	sd	s1,24(sp)
   1ddc0:	f406                	sd	ra,40(sp)
   1ddc2:	842a                	mv	s0,a0
   1ddc4:	84b6                	mv	s1,a3
   1ddc6:	5e81b783          	ld	a5,1512(gp)
   1ddca:	c991                	beqz	a1,0x1ddde
   1ddcc:	9782                	jalr	a5
   1ddce:	57fd                	li	a5,-1
   1ddd0:	00f50d63          	beq	a0,a5,0x1ddea
   1ddd4:	70a2                	ld	ra,40(sp)
   1ddd6:	7402                	ld	s0,32(sp)
   1ddd8:	64e2                	ld	s1,24(sp)
   1ddda:	6145                	addi	sp,sp,48
   1dddc:	8082                	ret
   1ddde:	4601                	li	a2,0
   1dde0:	858a                	mv	a1,sp
   1dde2:	9782                	jalr	a5
   1dde4:	57fd                	li	a5,-1
   1dde6:	fef517e3          	bne	a0,a5,0x1ddd4
   1ddea:	0004a023          	sw	zero,0(s1)
   1ddee:	08a00793          	li	a5,138
   1ddf2:	70a2                	ld	ra,40(sp)
   1ddf4:	c01c                	sw	a5,0(s0)
   1ddf6:	7402                	ld	s0,32(sp)
   1ddf8:	64e2                	ld	s1,24(sp)
   1ddfa:	6145                	addi	sp,sp,48
   1ddfc:	8082                	ret
   1ddfe:	7179                	addi	sp,sp,-48
   1de00:	f022                	sd	s0,32(sp)
   1de02:	ec26                	sd	s1,24(sp)
   1de04:	f406                	sd	ra,40(sp)
   1de06:	8432                	mv	s0,a2
   1de08:	7501b483          	ld	s1,1872(gp)
   1de0c:	5e81b783          	ld	a5,1512(gp)
   1de10:	cd11                	beqz	a0,0x1de2c
   1de12:	862e                	mv	a2,a1
   1de14:	86a2                	mv	a3,s0
   1de16:	85aa                	mv	a1,a0
   1de18:	8526                	mv	a0,s1
   1de1a:	9782                	jalr	a5
   1de1c:	57fd                	li	a5,-1
   1de1e:	00f50f63          	beq	a0,a5,0x1de3c
   1de22:	70a2                	ld	ra,40(sp)
   1de24:	7402                	ld	s0,32(sp)
   1de26:	64e2                	ld	s1,24(sp)
   1de28:	6145                	addi	sp,sp,48
   1de2a:	8082                	ret
   1de2c:	86b2                	mv	a3,a2
   1de2e:	858a                	mv	a1,sp
   1de30:	4601                	li	a2,0
   1de32:	8526                	mv	a0,s1
   1de34:	9782                	jalr	a5
   1de36:	57fd                	li	a5,-1
   1de38:	fef515e3          	bne	a0,a5,0x1de22
   1de3c:	00042023          	sw	zero,0(s0)
   1de40:	70a2                	ld	ra,40(sp)
   1de42:	7402                	ld	s0,32(sp)
   1de44:	08a00793          	li	a5,138
   1de48:	c09c                	sw	a5,0(s1)
   1de4a:	64e2                	ld	s1,24(sp)
   1de4c:	6145                	addi	sp,sp,48
   1de4e:	8082                	ret
   1de50:	5e81b303          	ld	t1,1512(gp)
   1de54:	8302                	jr	t1
   1de56:	0006079b          	sext.w	a5,a2
   1de5a:	cd91                	beqz	a1,0x1de76
   1de5c:	0ff00713          	li	a4,255
   1de60:	00f76663          	bltu	a4,a5,0x1de6c
   1de64:	00c58023          	sb	a2,0(a1)
   1de68:	4505                	li	a0,1
   1de6a:	8082                	ret
   1de6c:	08a00793          	li	a5,138
   1de70:	c11c                	sw	a5,0(a0)
   1de72:	557d                	li	a0,-1
   1de74:	8082                	ret
   1de76:	4501                	li	a0,0
   1de78:	8082                	ret
   1de7a:	85aa                	mv	a1,a0
   1de7c:	4681                	li	a3,0
   1de7e:	4601                	li	a2,0
   1de80:	4501                	li	a0,0
   1de82:	6250006f          	j	0x1eca6
   1de86:	02c585b3          	mul	a1,a1,a2
   1de8a:	1141                	addi	sp,sp,-16
   1de8c:	e022                	sd	s0,0(sp)
   1de8e:	e406                	sd	ra,8(sp)
   1de90:	877f40ef          	jal	ra,0x12706
   1de94:	842a                	mv	s0,a0
   1de96:	c505                	beqz	a0,0x1debe
   1de98:	ff853603          	ld	a2,-8(a0)
   1de9c:	04800713          	li	a4,72
   1dea0:	9a71                	andi	a2,a2,-4
   1dea2:	1661                	addi	a2,a2,-8
   1dea4:	04c76963          	bltu	a4,a2,0x1def6
   1dea8:	02700693          	li	a3,39
   1deac:	87aa                	mv	a5,a0
   1deae:	00c6ed63          	bltu	a3,a2,0x1dec8
   1deb2:	0007b023          	sd	zero,0(a5)
   1deb6:	0007b423          	sd	zero,8(a5)
   1deba:	0007b823          	sd	zero,16(a5)
   1debe:	60a2                	ld	ra,8(sp)
   1dec0:	8522                	mv	a0,s0
   1dec2:	6402                	ld	s0,0(sp)
   1dec4:	0141                	addi	sp,sp,16
   1dec6:	8082                	ret
   1dec8:	00053023          	sd	zero,0(a0)
   1decc:	00053423          	sd	zero,8(a0)
   1ded0:	03700793          	li	a5,55
   1ded4:	02c7f963          	bgeu	a5,a2,0x1df06
   1ded8:	00053823          	sd	zero,16(a0)
   1dedc:	00053c23          	sd	zero,24(a0)
   1dee0:	02050793          	addi	a5,a0,32
   1dee4:	fce617e3          	bne	a2,a4,0x1deb2
   1dee8:	02053023          	sd	zero,32(a0)
   1deec:	03050793          	addi	a5,a0,48
   1def0:	02053423          	sd	zero,40(a0)
   1def4:	bf7d                	j	0x1deb2
   1def6:	4581                	li	a1,0
   1def8:	f65f40ef          	jal	ra,0x12e5c
   1defc:	60a2                	ld	ra,8(sp)
   1defe:	8522                	mv	a0,s0
   1df00:	6402                	ld	s0,0(sp)
   1df02:	0141                	addi	sp,sp,16
   1df04:	8082                	ret
   1df06:	01050793          	addi	a5,a0,16
   1df0a:	b765                	j	0x1deb2
   1df0c:	1101                	addi	sp,sp,-32
   1df0e:	ec06                	sd	ra,24(sp)
   1df10:	e822                	sd	s0,16(sp)
   1df12:	e426                	sd	s1,8(sp)
   1df14:	e04a                	sd	s2,0(sp)
   1df16:	c989                	beqz	a1,0x1df28
   1df18:	842e                	mv	s0,a1
   1df1a:	84aa                	mv	s1,a0
   1df1c:	c119                	beqz	a0,0x1df22
   1df1e:	493c                	lw	a5,80(a0)
   1df20:	cfa5                	beqz	a5,0x1df98
   1df22:	01041783          	lh	a5,16(s0)
   1df26:	eb89                	bnez	a5,0x1df38
   1df28:	60e2                	ld	ra,24(sp)
   1df2a:	6442                	ld	s0,16(sp)
   1df2c:	4901                	li	s2,0
   1df2e:	64a2                	ld	s1,8(sp)
   1df30:	854a                	mv	a0,s2
   1df32:	6902                	ld	s2,0(sp)
   1df34:	6105                	addi	sp,sp,32
   1df36:	8082                	ret
   1df38:	85a2                	mv	a1,s0
   1df3a:	8526                	mv	a0,s1
   1df3c:	80cf90ef          	jal	ra,0x16f48
   1df40:	683c                	ld	a5,80(s0)
   1df42:	892a                	mv	s2,a0
   1df44:	c791                	beqz	a5,0x1df50
   1df46:	780c                	ld	a1,48(s0)
   1df48:	8526                	mv	a0,s1
   1df4a:	9782                	jalr	a5
   1df4c:	04054c63          	bltz	a0,0x1dfa4
   1df50:	01045783          	lhu	a5,16(s0)
   1df54:	0807f793          	andi	a5,a5,128
   1df58:	efa1                	bnez	a5,0x1dfb0
   1df5a:	6c2c                	ld	a1,88(s0)
   1df5c:	c991                	beqz	a1,0x1df70
   1df5e:	07440793          	addi	a5,s0,116
   1df62:	00f58563          	beq	a1,a5,0x1df6c
   1df66:	8526                	mv	a0,s1
   1df68:	e8ef90ef          	jal	ra,0x175f6
   1df6c:	04043c23          	sd	zero,88(s0)
   1df70:	7c2c                	ld	a1,120(s0)
   1df72:	c591                	beqz	a1,0x1df7e
   1df74:	8526                	mv	a0,s1
   1df76:	e80f90ef          	jal	ra,0x175f6
   1df7a:	06043c23          	sd	zero,120(s0)
   1df7e:	c04f90ef          	jal	ra,0x17382
   1df82:	00041823          	sh	zero,16(s0)
   1df86:	bfef90ef          	jal	ra,0x17384
   1df8a:	60e2                	ld	ra,24(sp)
   1df8c:	6442                	ld	s0,16(sp)
   1df8e:	64a2                	ld	s1,8(sp)
   1df90:	854a                	mv	a0,s2
   1df92:	6902                	ld	s2,0(sp)
   1df94:	6105                	addi	sp,sp,32
   1df96:	8082                	ret
   1df98:	be2f90ef          	jal	ra,0x1737a
   1df9c:	01041783          	lh	a5,16(s0)
   1dfa0:	d7c1                	beqz	a5,0x1df28
   1dfa2:	bf59                	j	0x1df38
   1dfa4:	01045783          	lhu	a5,16(s0)
   1dfa8:	597d                	li	s2,-1
   1dfaa:	0807f793          	andi	a5,a5,128
   1dfae:	d7d5                	beqz	a5,0x1df5a
   1dfb0:	6c0c                	ld	a1,24(s0)
   1dfb2:	8526                	mv	a0,s1
   1dfb4:	e42f90ef          	jal	ra,0x175f6
   1dfb8:	b74d                	j	0x1df5a
   1dfba:	85aa                	mv	a1,a0
   1dfbc:	7501b503          	ld	a0,1872(gp)
   1dfc0:	b7b1                	j	0x1df0c
   1dfc2:	1141                	addi	sp,sp,-16
   1dfc4:	e022                	sd	s0,0(sp)
   1dfc6:	842a                	mv	s0,a0
   1dfc8:	852e                	mv	a0,a1
   1dfca:	00006797          	auipc	a5,0x6
   1dfce:	d607af23          	sw	zero,-642(a5) # 0x23d48
   1dfd2:	e406                	sd	ra,8(sp)
   1dfd4:	5f7000ef          	jal	ra,0x1edca
   1dfd8:	57fd                	li	a5,-1
   1dfda:	00f50663          	beq	a0,a5,0x1dfe6
   1dfde:	60a2                	ld	ra,8(sp)
   1dfe0:	6402                	ld	s0,0(sp)
   1dfe2:	0141                	addi	sp,sp,16
   1dfe4:	8082                	ret
   1dfe6:	00006797          	auipc	a5,0x6
   1dfea:	d627a783          	lw	a5,-670(a5) # 0x23d48
   1dfee:	dbe5                	beqz	a5,0x1dfde
   1dff0:	60a2                	ld	ra,8(sp)
   1dff2:	c01c                	sw	a5,0(s0)
   1dff4:	6402                	ld	s0,0(sp)
   1dff6:	0141                	addi	sp,sp,16
   1dff8:	8082                	ret
   1dffa:	1141                	addi	sp,sp,-16
   1dffc:	872e                	mv	a4,a1
   1dffe:	e022                	sd	s0,0(sp)
   1e000:	85b2                	mv	a1,a2
   1e002:	842a                	mv	s0,a0
   1e004:	8636                	mv	a2,a3
   1e006:	853a                	mv	a0,a4
   1e008:	00006797          	auipc	a5,0x6
   1e00c:	d407a023          	sw	zero,-704(a5) # 0x23d48
   1e010:	e406                	sd	ra,8(sp)
   1e012:	5f3000ef          	jal	ra,0x1ee04
   1e016:	57fd                	li	a5,-1
   1e018:	00f50663          	beq	a0,a5,0x1e024
   1e01c:	60a2                	ld	ra,8(sp)
   1e01e:	6402                	ld	s0,0(sp)
   1e020:	0141                	addi	sp,sp,16
   1e022:	8082                	ret
   1e024:	00006797          	auipc	a5,0x6
   1e028:	d247a783          	lw	a5,-732(a5) # 0x23d48
   1e02c:	dbe5                	beqz	a5,0x1e01c
   1e02e:	60a2                	ld	ra,8(sp)
   1e030:	c01c                	sw	a5,0(s0)
   1e032:	6402                	ld	s0,0(sp)
   1e034:	0141                	addi	sp,sp,16
   1e036:	8082                	ret
   1e038:	6a1c                	ld	a5,16(a2)
   1e03a:	715d                	addi	sp,sp,-80
   1e03c:	f052                	sd	s4,32(sp)
   1e03e:	e486                	sd	ra,72(sp)
   1e040:	e0a2                	sd	s0,64(sp)
   1e042:	fc26                	sd	s1,56(sp)
   1e044:	f84a                	sd	s2,48(sp)
   1e046:	f44e                	sd	s3,40(sp)
   1e048:	ec56                	sd	s5,24(sp)
   1e04a:	e85a                	sd	s6,16(sp)
   1e04c:	e45e                	sd	s7,8(sp)
   1e04e:	e062                	sd	s8,0(sp)
   1e050:	8a32                	mv	s4,a2
   1e052:	cff9                	beqz	a5,0x1e130
   1e054:	8aaa                	mv	s5,a0
   1e056:	00063983          	ld	s3,0(a2) # 0xffffffffffffe000
   1e05a:	6188                	ld	a0,0(a1)
   1e05c:	45c0                	lw	s0,12(a1)
   1e05e:	892e                	mv	s2,a1
   1e060:	4b01                	li	s6,0
   1e062:	4481                	li	s1,0
   1e064:	c4ed                	beqz	s1,0x1e14e
   1e066:	8c22                	mv	s8,s0
   1e068:	0004879b          	sext.w	a5,s1
   1e06c:	0e84e763          	bltu	s1,s0,0x1e15a
   1e070:	01095783          	lhu	a5,16(s2)
   1e074:	00048b9b          	sext.w	s7,s1
   1e078:	4807f713          	andi	a4,a5,1152
   1e07c:	c349                	beqz	a4,0x1e0fe
   1e07e:	02092683          	lw	a3,32(s2)
   1e082:	01893583          	ld	a1,24(s2)
   1e086:	00148713          	addi	a4,s1,1
   1e08a:	0016941b          	slliw	s0,a3,0x1
   1e08e:	9ea1                	addw	a3,a3,s0
   1e090:	8d0d                	sub	a0,a0,a1
   1e092:	01f6d41b          	srliw	s0,a3,0x1f
   1e096:	00050b9b          	sext.w	s7,a0
   1e09a:	9c35                	addw	s0,s0,a3
   1e09c:	4014541b          	sraiw	s0,s0,0x1
   1e0a0:	975e                	add	a4,a4,s7
   1e0a2:	00e47563          	bgeu	s0,a4,0x1e0ac
   1e0a6:	0014841b          	addiw	s0,s1,1
   1e0aa:	9c29                	addw	s0,s0,a0
   1e0ac:	4007f793          	andi	a5,a5,1024
   1e0b0:	cbcd                	beqz	a5,0x1e162
   1e0b2:	85a2                	mv	a1,s0
   1e0b4:	8556                	mv	a0,s5
   1e0b6:	e50f40ef          	jal	ra,0x12706
   1e0ba:	8c2a                	mv	s8,a0
   1e0bc:	cd55                	beqz	a0,0x1e178
   1e0be:	01893583          	ld	a1,24(s2)
   1e0c2:	865e                	mv	a2,s7
   1e0c4:	cbbf40ef          	jal	ra,0x12d7e
   1e0c8:	01095783          	lhu	a5,16(s2)
   1e0cc:	b7f7f793          	andi	a5,a5,-1153
   1e0d0:	0807e793          	ori	a5,a5,128
   1e0d4:	00f91823          	sh	a5,16(s2)
   1e0d8:	017c0533          	add	a0,s8,s7
   1e0dc:	41740bbb          	subw	s7,s0,s7
   1e0e0:	0004879b          	sext.w	a5,s1
   1e0e4:	01893c23          	sd	s8,24(s2)
   1e0e8:	02892023          	sw	s0,32(s2)
   1e0ec:	01792623          	sw	s7,12(s2)
   1e0f0:	00a93023          	sd	a0,0(s2)
   1e0f4:	843e                	mv	s0,a5
   1e0f6:	8bbe                	mv	s7,a5
   1e0f8:	8c3e                	mv	s8,a5
   1e0fa:	06f4e063          	bltu	s1,a5,0x1e15a
   1e0fe:	8622                	mv	a2,s0
   1e100:	85da                	mv	a1,s6
   1e102:	f7efc0ef          	jal	ra,0x1a880
   1e106:	00c92603          	lw	a2,12(s2)
   1e10a:	00093503          	ld	a0,0(s2)
   1e10e:	010a3783          	ld	a5,16(s4)
   1e112:	4086043b          	subw	s0,a2,s0
   1e116:	9562                	add	a0,a0,s8
   1e118:	00892623          	sw	s0,12(s2)
   1e11c:	00a93023          	sd	a0,0(s2)
   1e120:	417787b3          	sub	a5,a5,s7
   1e124:	00fa3823          	sd	a5,16(s4)
   1e128:	9b5e                	add	s6,s6,s7
   1e12a:	417484b3          	sub	s1,s1,s7
   1e12e:	fb9d                	bnez	a5,0x1e064
   1e130:	000a2423          	sw	zero,8(s4)
   1e134:	4501                	li	a0,0
   1e136:	60a6                	ld	ra,72(sp)
   1e138:	6406                	ld	s0,64(sp)
   1e13a:	74e2                	ld	s1,56(sp)
   1e13c:	7942                	ld	s2,48(sp)
   1e13e:	79a2                	ld	s3,40(sp)
   1e140:	7a02                	ld	s4,32(sp)
   1e142:	6ae2                	ld	s5,24(sp)
   1e144:	6b42                	ld	s6,16(sp)
   1e146:	6ba2                	ld	s7,8(sp)
   1e148:	6c02                	ld	s8,0(sp)
   1e14a:	6161                	addi	sp,sp,80
   1e14c:	8082                	ret
   1e14e:	0009bb03          	ld	s6,0(s3)
   1e152:	0089b483          	ld	s1,8(s3)
   1e156:	09c1                	addi	s3,s3,16
   1e158:	b731                	j	0x1e064
   1e15a:	843e                	mv	s0,a5
   1e15c:	8bbe                	mv	s7,a5
   1e15e:	8c3e                	mv	s8,a5
   1e160:	bf79                	j	0x1e0fe
   1e162:	8622                	mv	a2,s0
   1e164:	8556                	mv	a0,s5
   1e166:	beafd0ef          	jal	ra,0x1b550
   1e16a:	8c2a                	mv	s8,a0
   1e16c:	f535                	bnez	a0,0x1e0d8
   1e16e:	01893583          	ld	a1,24(s2)
   1e172:	8556                	mv	a0,s5
   1e174:	c82f90ef          	jal	ra,0x175f6
   1e178:	47b1                	li	a5,12
   1e17a:	00faa023          	sw	a5,0(s5)
   1e17e:	01095783          	lhu	a5,16(s2)
   1e182:	557d                	li	a0,-1
   1e184:	0407e793          	ori	a5,a5,64
   1e188:	00f91823          	sh	a5,16(s2)
   1e18c:	000a3823          	sd	zero,16(s4)
   1e190:	000a2423          	sw	zero,8(s4)
   1e194:	b74d                	j	0x1e136
   1e196:	0105d783          	lhu	a5,16(a1)
   1e19a:	7145                	addi	sp,sp,-464
   1e19c:	ff26                	sd	s1,440(sp)
   1e19e:	f74e                	sd	s3,424(sp)
   1e1a0:	f6ee                	sd	s11,360(sp)
   1e1a2:	e786                	sd	ra,456(sp)
   1e1a4:	e3a2                	sd	s0,448(sp)
   1e1a6:	fb4a                	sd	s2,432(sp)
   1e1a8:	f352                	sd	s4,416(sp)
   1e1aa:	ef56                	sd	s5,408(sp)
   1e1ac:	eb5a                	sd	s6,400(sp)
   1e1ae:	e75e                	sd	s7,392(sp)
   1e1b0:	e362                	sd	s8,384(sp)
   1e1b2:	fee6                	sd	s9,376(sp)
   1e1b4:	faea                	sd	s10,368(sp)
   1e1b6:	0807f793          	andi	a5,a5,128
   1e1ba:	e436                	sd	a3,8(sp)
   1e1bc:	84ae                	mv	s1,a1
   1e1be:	89aa                	mv	s3,a0
   1e1c0:	8db2                	mv	s11,a2
   1e1c2:	c781                	beqz	a5,0x1e1ca
   1e1c4:	6d9c                	ld	a5,24(a1)
   1e1c6:	160783e3          	beqz	a5,0x1eb2c
   1e1ca:	77e1                	lui	a5,0xffff8
   1e1cc:	0e010913          	addi	s2,sp,224
   1e1d0:	8307c793          	xori	a5,a5,-2000
   1e1d4:	f0ca                	sd	s2,96(sp)
   1e1d6:	f882                	sd	zero,112(sp)
   1e1d8:	d482                	sw	zero,104(sp)
   1e1da:	874a                	mv	a4,s2
   1e1dc:	e802                	sd	zero,16(sp)
   1e1de:	f802                	sd	zero,48(sp)
   1e1e0:	e082                	sd	zero,64(sp)
   1e1e2:	fc02                	sd	zero,56(sp)
   1e1e4:	e002                	sd	zero,0(sp)
   1e1e6:	00003b97          	auipc	s7,0x3
   1e1ea:	62ab8b93          	addi	s7,s7,1578 # 0x21810
   1e1ee:	e4be                	sd	a5,72(sp)
   1e1f0:	000dc783          	lbu	a5,0(s11)
   1e1f4:	18078963          	beqz	a5,0x1e386
   1e1f8:	8a6e                	mv	s4,s11
   1e1fa:	02500693          	li	a3,37
   1e1fe:	28d78263          	beq	a5,a3,0x1e482
   1e202:	001a4783          	lbu	a5,1(s4)
   1e206:	0a05                	addi	s4,s4,1
   1e208:	fbfd                	bnez	a5,0x1e1fe
   1e20a:	41ba043b          	subw	s0,s4,s11
   1e20e:	16040c63          	beqz	s0,0x1e386
   1e212:	76c6                	ld	a3,112(sp)
   1e214:	57a6                	lw	a5,104(sp)
   1e216:	01b73023          	sd	s11,0(a4)
   1e21a:	96a2                	add	a3,a3,s0
   1e21c:	2785                	addiw	a5,a5,1
   1e21e:	e700                	sd	s0,8(a4)
   1e220:	f8b6                	sd	a3,112(sp)
   1e222:	d4be                	sw	a5,104(sp)
   1e224:	0007869b          	sext.w	a3,a5
   1e228:	479d                	li	a5,7
   1e22a:	0741                	addi	a4,a4,16
   1e22c:	26d7c263          	blt	a5,a3,0x1e490
   1e230:	6682                	ld	a3,0(sp)
   1e232:	000a4783          	lbu	a5,0(s4)
   1e236:	9ea1                	addw	a3,a3,s0
   1e238:	e036                	sd	a3,0(sp)
   1e23a:	14078663          	beqz	a5,0x1e386
   1e23e:	001a4683          	lbu	a3,1(s4)
   1e242:	001a0d93          	addi	s11,s4,1
   1e246:	04010ba3          	sb	zero,87(sp)
   1e24a:	5cfd                	li	s9,-1
   1e24c:	4401                	li	s0,0
   1e24e:	4d01                	li	s10,0
   1e250:	4a25                	li	s4,9
   1e252:	02a00a93          	li	s5,42
   1e256:	0d85                	addi	s11,s11,1
   1e258:	2681                	sext.w	a3,a3
   1e25a:	05a00593          	li	a1,90
   1e25e:	fe06879b          	addiw	a5,a3,-32
   1e262:	0007861b          	sext.w	a2,a5
   1e266:	04c5e063          	bltu	a1,a2,0x1e2a6
   1e26a:	1782                	slli	a5,a5,0x20
   1e26c:	83f9                	srli	a5,a5,0x1e
   1e26e:	97de                	add	a5,a5,s7
   1e270:	439c                	lw	a5,0(a5)
   1e272:	97de                	add	a5,a5,s7
   1e274:	8782                	jr	a5
   1e276:	4401                	li	s0,0
   1e278:	000dc603          	lbu	a2,0(s11)
   1e27c:	0024179b          	slliw	a5,s0,0x2
   1e280:	9c3d                	addw	s0,s0,a5
   1e282:	fd06869b          	addiw	a3,a3,-48
   1e286:	0014141b          	slliw	s0,s0,0x1
   1e28a:	fd06079b          	addiw	a5,a2,-48
   1e28e:	9c35                	addw	s0,s0,a3
   1e290:	0d85                	addi	s11,s11,1
   1e292:	0006069b          	sext.w	a3,a2
   1e296:	fefa71e3          	bgeu	s4,a5,0x1e278
   1e29a:	fe06879b          	addiw	a5,a3,-32
   1e29e:	0007861b          	sext.w	a2,a5
   1e2a2:	fcc5f4e3          	bgeu	a1,a2,0x1e26a
   1e2a6:	c2e5                	beqz	a3,0x1e386
   1e2a8:	06d10c23          	sb	a3,120(sp)
   1e2ac:	04010ba3          	sb	zero,87(sp)
   1e2b0:	4a85                	li	s5,1
   1e2b2:	4a05                	li	s4,1
   1e2b4:	07810c13          	addi	s8,sp,120
   1e2b8:	4c81                	li	s9,0
   1e2ba:	002d7793          	andi	a5,s10,2
   1e2be:	0007839b          	sext.w	t2,a5
   1e2c2:	c391                	beqz	a5,0x1e2c6
   1e2c4:	2a89                	addiw	s5,s5,2
   1e2c6:	084d7b13          	andi	s6,s10,132
   1e2ca:	77c6                	ld	a5,112(sp)
   1e2cc:	5626                	lw	a2,104(sp)
   1e2ce:	000b1663          	bnez	s6,0x1e2da
   1e2d2:	415406bb          	subw	a3,s0,s5
   1e2d6:	5ad04a63          	bgtz	a3,0x1e88a
   1e2da:	05714e83          	lbu	t4,87(sp)
   1e2de:	0016059b          	addiw	a1,a2,1
   1e2e2:	01070693          	addi	a3,a4,16
   1e2e6:	020e8763          	beqz	t4,0x1e314
   1e2ea:	05710e93          	addi	t4,sp,87
   1e2ee:	0785                	addi	a5,a5,1
   1e2f0:	01d73023          	sd	t4,0(a4)
   1e2f4:	4e85                	li	t4,1
   1e2f6:	01d73423          	sd	t4,8(a4)
   1e2fa:	f8be                	sd	a5,112(sp)
   1e2fc:	d4ae                	sw	a1,104(sp)
   1e2fe:	451d                	li	a0,7
   1e300:	60b54a63          	blt	a0,a1,0x1e914
   1e304:	00260e9b          	addiw	t4,a2,2
   1e308:	02070513          	addi	a0,a4,32
   1e30c:	862e                	mv	a2,a1
   1e30e:	8736                	mv	a4,a3
   1e310:	85f6                	mv	a1,t4
   1e312:	86aa                	mv	a3,a0
   1e314:	02038063          	beqz	t2,0x1e334
   1e318:	08b0                	addi	a2,sp,88
   1e31a:	e310                	sd	a2,0(a4)
   1e31c:	0789                	addi	a5,a5,2
   1e31e:	4609                	li	a2,2
   1e320:	e710                	sd	a2,8(a4)
   1e322:	f8be                	sd	a5,112(sp)
   1e324:	d4ae                	sw	a1,104(sp)
   1e326:	471d                	li	a4,7
   1e328:	60b74663          	blt	a4,a1,0x1e934
   1e32c:	862e                	mv	a2,a1
   1e32e:	8736                	mv	a4,a3
   1e330:	2585                	addiw	a1,a1,1
   1e332:	06c1                	addi	a3,a3,16
   1e334:	08000513          	li	a0,128
   1e338:	40ab0f63          	beq	s6,a0,0x1e756
   1e33c:	414c8cbb          	subw	s9,s9,s4
   1e340:	49904e63          	bgtz	s9,0x1e7dc
   1e344:	97d2                	add	a5,a5,s4
   1e346:	01873023          	sd	s8,0(a4)
   1e34a:	01473423          	sd	s4,8(a4)
   1e34e:	f8be                	sd	a5,112(sp)
   1e350:	d4ae                	sw	a1,104(sp)
   1e352:	471d                	li	a4,7
   1e354:	50b74763          	blt	a4,a1,0x1e862
   1e358:	004d7e13          	andi	t3,s10,4
   1e35c:	000e0663          	beqz	t3,0x1e368
   1e360:	41540a3b          	subw	s4,s0,s5
   1e364:	5f404663          	bgtz	s4,0x1e950
   1e368:	8722                	mv	a4,s0
   1e36a:	01545363          	bge	s0,s5,0x1e370
   1e36e:	8756                	mv	a4,s5
   1e370:	6682                	ld	a3,0(sp)
   1e372:	9f35                	addw	a4,a4,a3
   1e374:	e03a                	sd	a4,0(sp)
   1e376:	50079063          	bnez	a5,0x1e876
   1e37a:	000dc783          	lbu	a5,0(s11)
   1e37e:	d482                	sw	zero,104(sp)
   1e380:	874a                	mv	a4,s2
   1e382:	e6079be3          	bnez	a5,0x1e1f8
   1e386:	77c6                	ld	a5,112(sp)
   1e388:	0a079be3          	bnez	a5,0x1ec3e
   1e38c:	0104d783          	lhu	a5,16(s1)
   1e390:	0407f793          	andi	a5,a5,64
   1e394:	0c079ee3          	bnez	a5,0x1ec70
   1e398:	60be                	ld	ra,456(sp)
   1e39a:	641e                	ld	s0,448(sp)
   1e39c:	6502                	ld	a0,0(sp)
   1e39e:	74fa                	ld	s1,440(sp)
   1e3a0:	795a                	ld	s2,432(sp)
   1e3a2:	79ba                	ld	s3,424(sp)
   1e3a4:	7a1a                	ld	s4,416(sp)
   1e3a6:	6afa                	ld	s5,408(sp)
   1e3a8:	6b5a                	ld	s6,400(sp)
   1e3aa:	6bba                	ld	s7,392(sp)
   1e3ac:	6c1a                	ld	s8,384(sp)
   1e3ae:	7cf6                	ld	s9,376(sp)
   1e3b0:	7d56                	ld	s10,368(sp)
   1e3b2:	7db6                	ld	s11,360(sp)
   1e3b4:	6179                	addi	sp,sp,464
   1e3b6:	8082                	ret
   1e3b8:	010d6e13          	ori	t3,s10,16
   1e3bc:	000dc683          	lbu	a3,0(s11)
   1e3c0:	000e0d1b          	sext.w	s10,t3
   1e3c4:	bd49                	j	0x1e256
   1e3c6:	010d6e13          	ori	t3,s10,16
   1e3ca:	000e0d1b          	sext.w	s10,t3
   1e3ce:	6622                	ld	a2,8(sp)
   1e3d0:	020d7793          	andi	a5,s10,32
   1e3d4:	00860693          	addi	a3,a2,8
   1e3d8:	c7e5                	beqz	a5,0x1e4c0
   1e3da:	621c                	ld	a5,0(a2)
   1e3dc:	8a3e                	mv	s4,a5
   1e3de:	0e07cf63          	bltz	a5,0x1e4dc
   1e3e2:	57fd                	li	a5,-1
   1e3e4:	76fc8b63          	beq	s9,a5,0x1eb5a
   1e3e8:	f7fd7e13          	andi	t3,s10,-129
   1e3ec:	e436                	sd	a3,8(sp)
   1e3ee:	000e0a9b          	sext.w	s5,t3
   1e3f2:	5c0a0d63          	beqz	s4,0x1e9cc
   1e3f6:	47a5                	li	a5,9
   1e3f8:	6147ef63          	bltu	a5,s4,0x1ea16
   1e3fc:	030a0a1b          	addiw	s4,s4,48
   1e400:	0d410da3          	sb	s4,219(sp)
   1e404:	8d56                	mv	s10,s5
   1e406:	4a05                	li	s4,1
   1e408:	0db10c13          	addi	s8,sp,219
   1e40c:	a8b1                	j	0x1e468
   1e40e:	010d6e13          	ori	t3,s10,16
   1e412:	000e0d1b          	sext.w	s10,t3
   1e416:	6622                	ld	a2,8(sp)
   1e418:	020d7793          	andi	a5,s10,32
   1e41c:	00860693          	addi	a3,a2,8
   1e420:	c3c9                	beqz	a5,0x1e4a2
   1e422:	00063a03          	ld	s4,0(a2)
   1e426:	bffd7e13          	andi	t3,s10,-1025
   1e42a:	000e0a9b          	sext.w	s5,t3
   1e42e:	e436                	sd	a3,8(sp)
   1e430:	4781                	li	a5,0
   1e432:	04010ba3          	sb	zero,87(sp)
   1e436:	56fd                	li	a3,-1
   1e438:	0adc8e63          	beq	s9,a3,0x1e4f4
   1e43c:	f7fafe13          	andi	t3,s5,-129
   1e440:	000e0d1b          	sext.w	s10,t3
   1e444:	440a1163          	bnez	s4,0x1e886
   1e448:	2c0c9c63          	bnez	s9,0x1e720
   1e44c:	58079363          	bnez	a5,0x1e9d2
   1e450:	001afa13          	andi	s4,s5,1
   1e454:	0dc10c13          	addi	s8,sp,220
   1e458:	000a0863          	beqz	s4,0x1e468
   1e45c:	03000793          	li	a5,48
   1e460:	0cf10da3          	sb	a5,219(sp)
   1e464:	0db10c13          	addi	s8,sp,219
   1e468:	87e6                	mv	a5,s9
   1e46a:	014cd363          	bge	s9,s4,0x1e470
   1e46e:	87d2                	mv	a5,s4
   1e470:	05714683          	lbu	a3,87(sp)
   1e474:	00078a9b          	sext.w	s5,a5
   1e478:	e40681e3          	beqz	a3,0x1e2ba
   1e47c:	00178a9b          	addiw	s5,a5,1
   1e480:	bd2d                	j	0x1e2ba
   1e482:	41ba043b          	subw	s0,s4,s11
   1e486:	d80416e3          	bnez	s0,0x1e212
   1e48a:	000a4783          	lbu	a5,0(s4)
   1e48e:	b375                	j	0x1e23a
   1e490:	1090                	addi	a2,sp,96
   1e492:	85a6                	mv	a1,s1
   1e494:	854e                	mv	a0,s3
   1e496:	ba3ff0ef          	jal	ra,0x1e038
   1e49a:	ee0519e3          	bnez	a0,0x1e38c
   1e49e:	874a                	mv	a4,s2
   1e4a0:	bb41                	j	0x1e230
   1e4a2:	010d7793          	andi	a5,s10,16
   1e4a6:	5e079e63          	bnez	a5,0x1eaa2
   1e4aa:	6622                	ld	a2,8(sp)
   1e4ac:	040d7793          	andi	a5,s10,64
   1e4b0:	00062a03          	lw	s4,0(a2)
   1e4b4:	72078463          	beqz	a5,0x1ebdc
   1e4b8:	1a42                	slli	s4,s4,0x30
   1e4ba:	030a5a13          	srli	s4,s4,0x30
   1e4be:	b7a5                	j	0x1e426
   1e4c0:	010d7793          	andi	a5,s10,16
   1e4c4:	5c079563          	bnez	a5,0x1ea8e
   1e4c8:	040d7793          	andi	a5,s10,64
   1e4cc:	6e078f63          	beqz	a5,0x1ebca
   1e4d0:	67a2                	ld	a5,8(sp)
   1e4d2:	00079a03          	lh	s4,0(a5) # 0xffffffffffff8000
   1e4d6:	87d2                	mv	a5,s4
   1e4d8:	f007d5e3          	bgez	a5,0x1e3e2
   1e4dc:	02d00793          	li	a5,45
   1e4e0:	04f10ba3          	sb	a5,87(sp)
   1e4e4:	e436                	sd	a3,8(sp)
   1e4e6:	56fd                	li	a3,-1
   1e4e8:	41400a33          	neg	s4,s4
   1e4ec:	8aea                	mv	s5,s10
   1e4ee:	4785                	li	a5,1
   1e4f0:	f4dc96e3          	bne	s9,a3,0x1e43c
   1e4f4:	4685                	li	a3,1
   1e4f6:	f0d780e3          	beq	a5,a3,0x1e3f6
   1e4fa:	4689                	li	a3,2
   1e4fc:	22d78963          	beq	a5,a3,0x1e72e
   1e500:	0dc10c13          	addi	s8,sp,220
   1e504:	007a7793          	andi	a5,s4,7
   1e508:	03078793          	addi	a5,a5,48
   1e50c:	fefc0fa3          	sb	a5,-1(s8)
   1e510:	003a5a13          	srli	s4,s4,0x3
   1e514:	86e2                	mv	a3,s8
   1e516:	1c7d                	addi	s8,s8,-1
   1e518:	fe0a16e3          	bnez	s4,0x1e504
   1e51c:	001af613          	andi	a2,s5,1
   1e520:	22060663          	beqz	a2,0x1e74c
   1e524:	03000613          	li	a2,48
   1e528:	22c78263          	beq	a5,a2,0x1e74c
   1e52c:	16f9                	addi	a3,a3,-2
   1e52e:	09fc                	addi	a5,sp,220
   1e530:	fecc0fa3          	sb	a2,-1(s8)
   1e534:	40d78a3b          	subw	s4,a5,a3
   1e538:	8d56                	mv	s10,s5
   1e53a:	8c36                	mv	s8,a3
   1e53c:	b735                	j	0x1e468
   1e53e:	67a2                	ld	a5,8(sp)
   1e540:	04010ba3          	sb	zero,87(sp)
   1e544:	0007bc03          	ld	s8,0(a5)
   1e548:	00878b13          	addi	s6,a5,8
   1e54c:	640c0b63          	beqz	s8,0x1eba2
   1e550:	57fd                	li	a5,-1
   1e552:	5cfc8363          	beq	s9,a5,0x1eb18
   1e556:	8666                	mv	a2,s9
   1e558:	4581                	li	a1,0
   1e55a:	8562                	mv	a0,s8
   1e55c:	e43a                	sd	a4,8(sp)
   1e55e:	a84fc0ef          	jal	ra,0x1a7e2
   1e562:	6722                	ld	a4,8(sp)
   1e564:	6e050463          	beqz	a0,0x1ec4c
   1e568:	41850a3b          	subw	s4,a0,s8
   1e56c:	e45a                	sd	s6,8(sp)
   1e56e:	4c81                	li	s9,0
   1e570:	bde5                	j	0x1e468
   1e572:	66a2                	ld	a3,8(sp)
   1e574:	04010ba3          	sb	zero,87(sp)
   1e578:	4a85                	li	s5,1
   1e57a:	429c                	lw	a5,0(a3)
   1e57c:	06a1                	addi	a3,a3,8
   1e57e:	e436                	sd	a3,8(sp)
   1e580:	06f10c23          	sb	a5,120(sp)
   1e584:	4a05                	li	s4,1
   1e586:	07810c13          	addi	s8,sp,120
   1e58a:	b33d                	j	0x1e2b8
   1e58c:	020d6e13          	ori	t3,s10,32
   1e590:	000dc683          	lbu	a3,0(s11)
   1e594:	000e0d1b          	sext.w	s10,t3
   1e598:	b97d                	j	0x1e256
   1e59a:	67a2                	ld	a5,8(sp)
   1e59c:	66a6                	ld	a3,72(sp)
   1e59e:	002d6e13          	ori	t3,s10,2
   1e5a2:	0007ba03          	ld	s4,0(a5)
   1e5a6:	07a1                	addi	a5,a5,8
   1e5a8:	e43e                	sd	a5,8(sp)
   1e5aa:	00002797          	auipc	a5,0x2
   1e5ae:	73678793          	addi	a5,a5,1846 # 0x20ce0
   1e5b2:	e83e                	sd	a5,16(sp)
   1e5b4:	000e0a9b          	sext.w	s5,t3
   1e5b8:	04d11c23          	sh	a3,88(sp)
   1e5bc:	4789                	li	a5,2
   1e5be:	bd95                	j	0x1e432
   1e5c0:	6622                	ld	a2,8(sp)
   1e5c2:	020d7793          	andi	a5,s10,32
   1e5c6:	6214                	ld	a3,0(a2)
   1e5c8:	0621                	addi	a2,a2,8
   1e5ca:	e432                	sd	a2,8(sp)
   1e5cc:	e385                	bnez	a5,0x1e5ec
   1e5ce:	010d7793          	andi	a5,s10,16
   1e5d2:	ef89                	bnez	a5,0x1e5ec
   1e5d4:	040d7793          	andi	a5,s10,64
   1e5d8:	64079e63          	bnez	a5,0x1ec34
   1e5dc:	200d7e13          	andi	t3,s10,512
   1e5e0:	6782                	ld	a5,0(sp)
   1e5e2:	680e0463          	beqz	t3,0x1ec6a
   1e5e6:	00f68023          	sb	a5,0(a3)
   1e5ea:	b119                	j	0x1e1f0
   1e5ec:	6782                	ld	a5,0(sp)
   1e5ee:	e29c                	sd	a5,0(a3)
   1e5f0:	b101                	j	0x1e1f0
   1e5f2:	000dc683          	lbu	a3,0(s11)
   1e5f6:	06c00793          	li	a5,108
   1e5fa:	56f68c63          	beq	a3,a5,0x1eb72
   1e5fe:	010d6e13          	ori	t3,s10,16
   1e602:	000e0d1b          	sext.w	s10,t3
   1e606:	b981                	j	0x1e256
   1e608:	000dc683          	lbu	a3,0(s11)
   1e60c:	06800793          	li	a5,104
   1e610:	54f68863          	beq	a3,a5,0x1eb60
   1e614:	040d6e13          	ori	t3,s10,64
   1e618:	000e0d1b          	sext.w	s10,t3
   1e61c:	b92d                	j	0x1e256
   1e61e:	010d6e13          	ori	t3,s10,16
   1e622:	000e0a9b          	sext.w	s5,t3
   1e626:	6622                	ld	a2,8(sp)
   1e628:	020af793          	andi	a5,s5,32
   1e62c:	00860693          	addi	a3,a2,8
   1e630:	3a078663          	beqz	a5,0x1e9dc
   1e634:	00063a03          	ld	s4,0(a2)
   1e638:	4785                	li	a5,1
   1e63a:	e436                	sd	a3,8(sp)
   1e63c:	bbdd                	j	0x1e432
   1e63e:	080d6e13          	ori	t3,s10,128
   1e642:	000dc683          	lbu	a3,0(s11)
   1e646:	000e0d1b          	sext.w	s10,t3
   1e64a:	b131                	j	0x1e256
   1e64c:	67a2                	ld	a5,8(sp)
   1e64e:	000dc683          	lbu	a3,0(s11)
   1e652:	4380                	lw	s0,0(a5)
   1e654:	07a1                	addi	a5,a5,8
   1e656:	e43e                	sd	a5,8(sp)
   1e658:	be045fe3          	bgez	s0,0x1e256
   1e65c:	4080043b          	negw	s0,s0
   1e660:	a0b5                	j	0x1e6cc
   1e662:	854e                	mv	a0,s3
   1e664:	ec3a                	sd	a4,24(sp)
   1e666:	f85fb0ef          	jal	ra,0x1a5ea
   1e66a:	651c                	ld	a5,8(a0)
   1e66c:	853e                	mv	a0,a5
   1e66e:	fc3e                	sd	a5,56(sp)
   1e670:	95bf40ef          	jal	ra,0x12fca
   1e674:	87aa                	mv	a5,a0
   1e676:	854e                	mv	a0,s3
   1e678:	8b3e                	mv	s6,a5
   1e67a:	e0be                	sd	a5,64(sp)
   1e67c:	f6ffb0ef          	jal	ra,0x1a5ea
   1e680:	691c                	ld	a5,16(a0)
   1e682:	6762                	ld	a4,24(sp)
   1e684:	000dc683          	lbu	a3,0(s11)
   1e688:	f83e                	sd	a5,48(sp)
   1e68a:	bc0b06e3          	beqz	s6,0x1e256
   1e68e:	bc0784e3          	beqz	a5,0x1e256
   1e692:	0007c783          	lbu	a5,0(a5)
   1e696:	bc0780e3          	beqz	a5,0x1e256
   1e69a:	400d6e13          	ori	t3,s10,1024
   1e69e:	000e0d1b          	sext.w	s10,t3
   1e6a2:	be55                	j	0x1e256
   1e6a4:	001d6e13          	ori	t3,s10,1
   1e6a8:	000dc683          	lbu	a3,0(s11)
   1e6ac:	000e0d1b          	sext.w	s10,t3
   1e6b0:	b65d                	j	0x1e256
   1e6b2:	05714783          	lbu	a5,87(sp)
   1e6b6:	000dc683          	lbu	a3,0(s11)
   1e6ba:	b8079ee3          	bnez	a5,0x1e256
   1e6be:	02000793          	li	a5,32
   1e6c2:	04f10ba3          	sb	a5,87(sp)
   1e6c6:	be41                	j	0x1e256
   1e6c8:	000dc683          	lbu	a3,0(s11)
   1e6cc:	004d6e13          	ori	t3,s10,4
   1e6d0:	000e0d1b          	sext.w	s10,t3
   1e6d4:	b649                	j	0x1e256
   1e6d6:	02b00793          	li	a5,43
   1e6da:	000dc683          	lbu	a3,0(s11)
   1e6de:	04f10ba3          	sb	a5,87(sp)
   1e6e2:	be95                	j	0x1e256
   1e6e4:	000dc603          	lbu	a2,0(s11)
   1e6e8:	001d8793          	addi	a5,s11,1
   1e6ec:	0006069b          	sext.w	a3,a2
   1e6f0:	58ca8463          	beq	s5,a2,0x1ec78
   1e6f4:	fd06061b          	addiw	a2,a2,-48
   1e6f8:	8dbe                	mv	s11,a5
   1e6fa:	4c81                	li	s9,0
   1e6fc:	b6ca61e3          	bltu	s4,a2,0x1e25e
   1e700:	000dc683          	lbu	a3,0(s11)
   1e704:	002c979b          	slliw	a5,s9,0x2
   1e708:	0197883b          	addw	a6,a5,s9
   1e70c:	0018181b          	slliw	a6,a6,0x1
   1e710:	00c80cbb          	addw	s9,a6,a2
   1e714:	fd06861b          	addiw	a2,a3,-48
   1e718:	0d85                	addi	s11,s11,1
   1e71a:	feca73e3          	bgeu	s4,a2,0x1e700
   1e71e:	b681                	j	0x1e25e
   1e720:	4685                	li	a3,1
   1e722:	52d78a63          	beq	a5,a3,0x1ec56
   1e726:	4689                	li	a3,2
   1e728:	8aea                	mv	s5,s10
   1e72a:	dcd79be3          	bne	a5,a3,0x1e500
   1e72e:	0dc10c13          	addi	s8,sp,220
   1e732:	66c2                	ld	a3,16(sp)
   1e734:	00fa7793          	andi	a5,s4,15
   1e738:	1c7d                	addi	s8,s8,-1
   1e73a:	97b6                	add	a5,a5,a3
   1e73c:	0007c783          	lbu	a5,0(a5)
   1e740:	004a5a13          	srli	s4,s4,0x4
   1e744:	00fc0023          	sb	a5,0(s8)
   1e748:	fe0a15e3          	bnez	s4,0x1e732
   1e74c:	09fc                	addi	a5,sp,220
   1e74e:	41878a3b          	subw	s4,a5,s8
   1e752:	8d56                	mv	s10,s5
   1e754:	bb11                	j	0x1e468
   1e756:	41540ebb          	subw	t4,s0,s5
   1e75a:	bfd051e3          	blez	t4,0x1e33c
   1e75e:	4541                	li	a0,16
   1e760:	4fd55e63          	bge	a0,t4,0x1ec5c
   1e764:	00003b17          	auipc	s6,0x3
   1e768:	22cb0b13          	addi	s6,s6,556 # 0x21990
   1e76c:	4fc1                	li	t6,16
   1e76e:	429d                	li	t0,7
   1e770:	a021                	j	0x1e778
   1e772:	3ec1                	addiw	t4,t4,-16
   1e774:	03dfde63          	bge	t6,t4,0x1e7b0
   1e778:	2605                	addiw	a2,a2,1
   1e77a:	07c1                	addi	a5,a5,16
   1e77c:	01673023          	sd	s6,0(a4)
   1e780:	01f73423          	sd	t6,8(a4)
   1e784:	f8be                	sd	a5,112(sp)
   1e786:	d4b2                	sw	a2,104(sp)
   1e788:	0741                	addi	a4,a4,16
   1e78a:	fec2d4e3          	bge	t0,a2,0x1e772
   1e78e:	1090                	addi	a2,sp,96
   1e790:	85a6                	mv	a1,s1
   1e792:	854e                	mv	a0,s3
   1e794:	ec76                	sd	t4,24(sp)
   1e796:	8a3ff0ef          	jal	ra,0x1e038
   1e79a:	be0519e3          	bnez	a0,0x1e38c
   1e79e:	6ee2                	ld	t4,24(sp)
   1e7a0:	4fc1                	li	t6,16
   1e7a2:	77c6                	ld	a5,112(sp)
   1e7a4:	3ec1                	addiw	t4,t4,-16
   1e7a6:	5626                	lw	a2,104(sp)
   1e7a8:	874a                	mv	a4,s2
   1e7aa:	429d                	li	t0,7
   1e7ac:	fddfc6e3          	blt	t6,t4,0x1e778
   1e7b0:	2605                	addiw	a2,a2,1
   1e7b2:	01070513          	addi	a0,a4,16
   1e7b6:	97f6                	add	a5,a5,t4
   1e7b8:	01673023          	sd	s6,0(a4)
   1e7bc:	01d73423          	sd	t4,8(a4)
   1e7c0:	f8be                	sd	a5,112(sp)
   1e7c2:	d4b2                	sw	a2,104(sp)
   1e7c4:	471d                	li	a4,7
   1e7c6:	3ac74f63          	blt	a4,a2,0x1eb84
   1e7ca:	414c8cbb          	subw	s9,s9,s4
   1e7ce:	0016059b          	addiw	a1,a2,1
   1e7d2:	01050693          	addi	a3,a0,16
   1e7d6:	872a                	mv	a4,a0
   1e7d8:	b79056e3          	blez	s9,0x1e344
   1e7dc:	4541                	li	a0,16
   1e7de:	41955f63          	bge	a0,s9,0x1ebfc
   1e7e2:	00003b17          	auipc	s6,0x3
   1e7e6:	1aeb0b13          	addi	s6,s6,430 # 0x21990
   1e7ea:	4ec1                	li	t4,16
   1e7ec:	4f9d                	li	t6,7
   1e7ee:	a021                	j	0x1e7f6
   1e7f0:	3cc1                	addiw	s9,s9,-16
   1e7f2:	039edc63          	bge	t4,s9,0x1e82a
   1e7f6:	2605                	addiw	a2,a2,1
   1e7f8:	07c1                	addi	a5,a5,16
   1e7fa:	01673023          	sd	s6,0(a4)
   1e7fe:	01d73423          	sd	t4,8(a4)
   1e802:	f8be                	sd	a5,112(sp)
   1e804:	d4b2                	sw	a2,104(sp)
   1e806:	0741                	addi	a4,a4,16
   1e808:	fecfd4e3          	bge	t6,a2,0x1e7f0
   1e80c:	1090                	addi	a2,sp,96
   1e80e:	85a6                	mv	a1,s1
   1e810:	854e                	mv	a0,s3
   1e812:	827ff0ef          	jal	ra,0x1e038
   1e816:	b6051be3          	bnez	a0,0x1e38c
   1e81a:	4ec1                	li	t4,16
   1e81c:	3cc1                	addiw	s9,s9,-16
   1e81e:	77c6                	ld	a5,112(sp)
   1e820:	5626                	lw	a2,104(sp)
   1e822:	874a                	mv	a4,s2
   1e824:	4f9d                	li	t6,7
   1e826:	fd9ec8e3          	blt	t4,s9,0x1e7f6
   1e82a:	0016059b          	addiw	a1,a2,1
   1e82e:	01070613          	addi	a2,a4,16
   1e832:	97e6                	add	a5,a5,s9
   1e834:	01673023          	sd	s6,0(a4)
   1e838:	01973423          	sd	s9,8(a4)
   1e83c:	f8be                	sd	a5,112(sp)
   1e83e:	d4ae                	sw	a1,104(sp)
   1e840:	471d                	li	a4,7
   1e842:	1ab74d63          	blt	a4,a1,0x1e9fc
   1e846:	8732                	mv	a4,a2
   1e848:	2585                	addiw	a1,a1,1
   1e84a:	97d2                	add	a5,a5,s4
   1e84c:	01873023          	sd	s8,0(a4)
   1e850:	01473423          	sd	s4,8(a4)
   1e854:	f8be                	sd	a5,112(sp)
   1e856:	d4ae                	sw	a1,104(sp)
   1e858:	471d                	li	a4,7
   1e85a:	01060693          	addi	a3,a2,16
   1e85e:	aeb75de3          	bge	a4,a1,0x1e358
   1e862:	1090                	addi	a2,sp,96
   1e864:	85a6                	mv	a1,s1
   1e866:	854e                	mv	a0,s3
   1e868:	fd0ff0ef          	jal	ra,0x1e038
   1e86c:	b20510e3          	bnez	a0,0x1e38c
   1e870:	77c6                	ld	a5,112(sp)
   1e872:	86ca                	mv	a3,s2
   1e874:	b4d5                	j	0x1e358
   1e876:	1090                	addi	a2,sp,96
   1e878:	85a6                	mv	a1,s1
   1e87a:	854e                	mv	a0,s3
   1e87c:	fbcff0ef          	jal	ra,0x1e038
   1e880:	ae050de3          	beqz	a0,0x1e37a
   1e884:	b621                	j	0x1e38c
   1e886:	8aea                	mv	s5,s10
   1e888:	b1b5                	j	0x1e4f4
   1e88a:	45c1                	li	a1,16
   1e88c:	00003e97          	auipc	t4,0x3
   1e890:	0f4e8e93          	addi	t4,t4,244 # 0x21980
   1e894:	4f41                	li	t5,16
   1e896:	429d                	li	t0,7
   1e898:	00d5c663          	blt	a1,a3,0x1e8a4
   1e89c:	a0a1                	j	0x1e8e4
   1e89e:	36c1                	addiw	a3,a3,-16
   1e8a0:	04df5263          	bge	t5,a3,0x1e8e4
   1e8a4:	2605                	addiw	a2,a2,1
   1e8a6:	07c1                	addi	a5,a5,16
   1e8a8:	01d73023          	sd	t4,0(a4)
   1e8ac:	01e73423          	sd	t5,8(a4)
   1e8b0:	f8be                	sd	a5,112(sp)
   1e8b2:	d4b2                	sw	a2,104(sp)
   1e8b4:	0741                	addi	a4,a4,16
   1e8b6:	fec2d4e3          	bge	t0,a2,0x1e89e
   1e8ba:	1090                	addi	a2,sp,96
   1e8bc:	85a6                	mv	a1,s1
   1e8be:	854e                	mv	a0,s3
   1e8c0:	f476                	sd	t4,40(sp)
   1e8c2:	f036                	sd	a3,32(sp)
   1e8c4:	ec1e                	sd	t2,24(sp)
   1e8c6:	f72ff0ef          	jal	ra,0x1e038
   1e8ca:	ac0511e3          	bnez	a0,0x1e38c
   1e8ce:	7682                	ld	a3,32(sp)
   1e8d0:	4f41                	li	t5,16
   1e8d2:	77c6                	ld	a5,112(sp)
   1e8d4:	36c1                	addiw	a3,a3,-16
   1e8d6:	5626                	lw	a2,104(sp)
   1e8d8:	7ea2                	ld	t4,40(sp)
   1e8da:	63e2                	ld	t2,24(sp)
   1e8dc:	874a                	mv	a4,s2
   1e8de:	429d                	li	t0,7
   1e8e0:	fcdf42e3          	blt	t5,a3,0x1e8a4
   1e8e4:	97b6                	add	a5,a5,a3
   1e8e6:	2605                	addiw	a2,a2,1
   1e8e8:	e714                	sd	a3,8(a4)
   1e8ea:	01d73023          	sd	t4,0(a4)
   1e8ee:	f8be                	sd	a5,112(sp)
   1e8f0:	d4b2                	sw	a2,104(sp)
   1e8f2:	469d                	li	a3,7
   1e8f4:	0741                	addi	a4,a4,16
   1e8f6:	9ec6d2e3          	bge	a3,a2,0x1e2da
   1e8fa:	1090                	addi	a2,sp,96
   1e8fc:	85a6                	mv	a1,s1
   1e8fe:	854e                	mv	a0,s3
   1e900:	ec1e                	sd	t2,24(sp)
   1e902:	f36ff0ef          	jal	ra,0x1e038
   1e906:	a80513e3          	bnez	a0,0x1e38c
   1e90a:	77c6                	ld	a5,112(sp)
   1e90c:	5626                	lw	a2,104(sp)
   1e90e:	63e2                	ld	t2,24(sp)
   1e910:	874a                	mv	a4,s2
   1e912:	b2e1                	j	0x1e2da
   1e914:	1090                	addi	a2,sp,96
   1e916:	85a6                	mv	a1,s1
   1e918:	854e                	mv	a0,s3
   1e91a:	ec1e                	sd	t2,24(sp)
   1e91c:	f1cff0ef          	jal	ra,0x1e038
   1e920:	a60516e3          	bnez	a0,0x1e38c
   1e924:	5626                	lw	a2,104(sp)
   1e926:	77c6                	ld	a5,112(sp)
   1e928:	63e2                	ld	t2,24(sp)
   1e92a:	1994                	addi	a3,sp,240
   1e92c:	0016059b          	addiw	a1,a2,1
   1e930:	874a                	mv	a4,s2
   1e932:	b2cd                	j	0x1e314
   1e934:	1090                	addi	a2,sp,96
   1e936:	85a6                	mv	a1,s1
   1e938:	854e                	mv	a0,s3
   1e93a:	efeff0ef          	jal	ra,0x1e038
   1e93e:	a40517e3          	bnez	a0,0x1e38c
   1e942:	5626                	lw	a2,104(sp)
   1e944:	77c6                	ld	a5,112(sp)
   1e946:	1994                	addi	a3,sp,240
   1e948:	0016059b          	addiw	a1,a2,1
   1e94c:	874a                	mv	a4,s2
   1e94e:	b2dd                	j	0x1e334
   1e950:	4641                	li	a2,16
   1e952:	5726                	lw	a4,104(sp)
   1e954:	00003e97          	auipc	t4,0x3
   1e958:	02ce8e93          	addi	t4,t4,44 # 0x21980
   1e95c:	4cc1                	li	s9,16
   1e95e:	4c1d                	li	s8,7
   1e960:	01464663          	blt	a2,s4,0x1e96c
   1e964:	a835                	j	0x1e9a0
   1e966:	3a41                	addiw	s4,s4,-16
   1e968:	034cdc63          	bge	s9,s4,0x1e9a0
   1e96c:	2705                	addiw	a4,a4,1
   1e96e:	07c1                	addi	a5,a5,16
   1e970:	01d6b023          	sd	t4,0(a3)
   1e974:	0196b423          	sd	s9,8(a3)
   1e978:	f8be                	sd	a5,112(sp)
   1e97a:	d4ba                	sw	a4,104(sp)
   1e97c:	06c1                	addi	a3,a3,16
   1e97e:	feec54e3          	bge	s8,a4,0x1e966
   1e982:	1090                	addi	a2,sp,96
   1e984:	85a6                	mv	a1,s1
   1e986:	854e                	mv	a0,s3
   1e988:	ec76                	sd	t4,24(sp)
   1e98a:	eaeff0ef          	jal	ra,0x1e038
   1e98e:	9e051fe3          	bnez	a0,0x1e38c
   1e992:	3a41                	addiw	s4,s4,-16
   1e994:	77c6                	ld	a5,112(sp)
   1e996:	5726                	lw	a4,104(sp)
   1e998:	6ee2                	ld	t4,24(sp)
   1e99a:	86ca                	mv	a3,s2
   1e99c:	fd4cc8e3          	blt	s9,s4,0x1e96c
   1e9a0:	2705                	addiw	a4,a4,1
   1e9a2:	97d2                	add	a5,a5,s4
   1e9a4:	01d6b023          	sd	t4,0(a3)
   1e9a8:	0146b423          	sd	s4,8(a3)
   1e9ac:	d4ba                	sw	a4,104(sp)
   1e9ae:	0007069b          	sext.w	a3,a4
   1e9b2:	f8be                	sd	a5,112(sp)
   1e9b4:	471d                	li	a4,7
   1e9b6:	9ad759e3          	bge	a4,a3,0x1e368
   1e9ba:	1090                	addi	a2,sp,96
   1e9bc:	85a6                	mv	a1,s1
   1e9be:	854e                	mv	a0,s3
   1e9c0:	e78ff0ef          	jal	ra,0x1e038
   1e9c4:	9c0514e3          	bnez	a0,0x1e38c
   1e9c8:	77c6                	ld	a5,112(sp)
   1e9ca:	ba79                	j	0x1e368
   1e9cc:	a20c98e3          	bnez	s9,0x1e3fc
   1e9d0:	8d56                	mv	s10,s5
   1e9d2:	4c81                	li	s9,0
   1e9d4:	4a01                	li	s4,0
   1e9d6:	0dc10c13          	addi	s8,sp,220
   1e9da:	b479                	j	0x1e468
   1e9dc:	010af793          	andi	a5,s5,16
   1e9e0:	ebdd                	bnez	a5,0x1ea96
   1e9e2:	6622                	ld	a2,8(sp)
   1e9e4:	040af793          	andi	a5,s5,64
   1e9e8:	00062a03          	lw	s4,0(a2)
   1e9ec:	1e078f63          	beqz	a5,0x1ebea
   1e9f0:	1a42                	slli	s4,s4,0x30
   1e9f2:	030a5a13          	srli	s4,s4,0x30
   1e9f6:	e436                	sd	a3,8(sp)
   1e9f8:	4785                	li	a5,1
   1e9fa:	bc25                	j	0x1e432
   1e9fc:	1090                	addi	a2,sp,96
   1e9fe:	85a6                	mv	a1,s1
   1ea00:	854e                	mv	a0,s3
   1ea02:	e36ff0ef          	jal	ra,0x1e038
   1ea06:	980513e3          	bnez	a0,0x1e38c
   1ea0a:	55a6                	lw	a1,104(sp)
   1ea0c:	77c6                	ld	a5,112(sp)
   1ea0e:	1994                	addi	a3,sp,240
   1ea10:	2585                	addiw	a1,a1,1
   1ea12:	874a                	mv	a4,s2
   1ea14:	ba05                	j	0x1e344
   1ea16:	400afe13          	andi	t3,s5,1024
   1ea1a:	2e01                	sext.w	t3,t3
   1ea1c:	4581                	li	a1,0
   1ea1e:	09f0                	addi	a2,sp,220
   1ea20:	46a9                	li	a3,10
   1ea22:	4d25                	li	s10,9
   1ea24:	0ff00b13          	li	s6,255
   1ea28:	a039                	j	0x1ea36
   1ea2a:	02da57b3          	divu	a5,s4,a3
   1ea2e:	d14d7fe3          	bgeu	s10,s4,0x1e74c
   1ea32:	8a3e                	mv	s4,a5
   1ea34:	8662                	mv	a2,s8
   1ea36:	fff60c13          	addi	s8,a2,-1
   1ea3a:	2585                	addiw	a1,a1,1
   1ea3c:	02da77b3          	remu	a5,s4,a3
   1ea40:	0307879b          	addiw	a5,a5,48
   1ea44:	fef60fa3          	sb	a5,-1(a2)
   1ea48:	fe0e01e3          	beqz	t3,0x1ea2a
   1ea4c:	77c2                	ld	a5,48(sp)
   1ea4e:	0007c783          	lbu	a5,0(a5)
   1ea52:	fcb79ce3          	bne	a5,a1,0x1ea2a
   1ea56:	fd678ae3          	beq	a5,s6,0x1ea2a
   1ea5a:	cf4d79e3          	bgeu	s10,s4,0x1e74c
   1ea5e:	6786                	ld	a5,64(sp)
   1ea60:	75e2                	ld	a1,56(sp)
   1ea62:	f072                	sd	t3,32(sp)
   1ea64:	40fc0c33          	sub	s8,s8,a5
   1ea68:	863e                	mv	a2,a5
   1ea6a:	8562                	mv	a0,s8
   1ea6c:	ec3a                	sd	a4,24(sp)
   1ea6e:	de6fd0ef          	jal	ra,0x1c054
   1ea72:	7742                	ld	a4,48(sp)
   1ea74:	46a9                	li	a3,10
   1ea76:	02da57b3          	divu	a5,s4,a3
   1ea7a:	00174603          	lbu	a2,1(a4)
   1ea7e:	7e02                	ld	t3,32(sp)
   1ea80:	4581                	li	a1,0
   1ea82:	00c03633          	snez	a2,a2
   1ea86:	9732                	add	a4,a4,a2
   1ea88:	f83a                	sd	a4,48(sp)
   1ea8a:	6762                	ld	a4,24(sp)
   1ea8c:	b75d                	j	0x1ea32
   1ea8e:	67a2                	ld	a5,8(sp)
   1ea90:	639c                	ld	a5,0(a5)
   1ea92:	8a3e                	mv	s4,a5
   1ea94:	b2a9                	j	0x1e3de
   1ea96:	67a2                	ld	a5,8(sp)
   1ea98:	e436                	sd	a3,8(sp)
   1ea9a:	0007ba03          	ld	s4,0(a5)
   1ea9e:	4785                	li	a5,1
   1eaa0:	ba49                	j	0x1e432
   1eaa2:	67a2                	ld	a5,8(sp)
   1eaa4:	0007ba03          	ld	s4,0(a5)
   1eaa8:	babd                	j	0x1e426
   1eaaa:	8aea                	mv	s5,s10
   1eaac:	bead                	j	0x1e626
   1eaae:	65a2                	ld	a1,8(sp)
   1eab0:	00002797          	auipc	a5,0x2
   1eab4:	21878793          	addi	a5,a5,536 # 0x20cc8
   1eab8:	e83e                	sd	a5,16(sp)
   1eaba:	020d7793          	andi	a5,s10,32
   1eabe:	00858613          	addi	a2,a1,8
   1eac2:	c7a1                	beqz	a5,0x1eb0a
   1eac4:	0005ba03          	ld	s4,0(a1)
   1eac8:	001d7793          	andi	a5,s10,1
   1eacc:	cf89                	beqz	a5,0x1eae6
   1eace:	000a0c63          	beqz	s4,0x1eae6
   1ead2:	002d6e13          	ori	t3,s10,2
   1ead6:	03000793          	li	a5,48
   1eada:	04f10c23          	sb	a5,88(sp)
   1eade:	04d10ca3          	sb	a3,89(sp)
   1eae2:	000e0d1b          	sext.w	s10,t3
   1eae6:	bffd7e13          	andi	t3,s10,-1025
   1eaea:	000e0a9b          	sext.w	s5,t3
   1eaee:	e432                	sd	a2,8(sp)
   1eaf0:	4789                	li	a5,2
   1eaf2:	b281                	j	0x1e432
   1eaf4:	65a2                	ld	a1,8(sp)
   1eaf6:	00002797          	auipc	a5,0x2
   1eafa:	1ea78793          	addi	a5,a5,490 # 0x20ce0
   1eafe:	e83e                	sd	a5,16(sp)
   1eb00:	020d7793          	andi	a5,s10,32
   1eb04:	00858613          	addi	a2,a1,8
   1eb08:	ffd5                	bnez	a5,0x1eac4
   1eb0a:	010d7793          	andi	a5,s10,16
   1eb0e:	cf85                	beqz	a5,0x1eb46
   1eb10:	67a2                	ld	a5,8(sp)
   1eb12:	0007ba03          	ld	s4,0(a5)
   1eb16:	bf4d                	j	0x1eac8
   1eb18:	8562                	mv	a0,s8
   1eb1a:	ec3a                	sd	a4,24(sp)
   1eb1c:	caef40ef          	jal	ra,0x12fca
   1eb20:	6762                	ld	a4,24(sp)
   1eb22:	00050a1b          	sext.w	s4,a0
   1eb26:	e45a                	sd	s6,8(sp)
   1eb28:	4c81                	li	s9,0
   1eb2a:	ba3d                	j	0x1e468
   1eb2c:	04000593          	li	a1,64
   1eb30:	bd7f30ef          	jal	ra,0x12706
   1eb34:	e088                	sd	a0,0(s1)
   1eb36:	ec88                	sd	a0,24(s1)
   1eb38:	16050063          	beqz	a0,0x1ec98
   1eb3c:	04000793          	li	a5,64
   1eb40:	d09c                	sw	a5,32(s1)
   1eb42:	e88ff06f          	j	0x1e1ca
   1eb46:	65a2                	ld	a1,8(sp)
   1eb48:	040d7793          	andi	a5,s10,64
   1eb4c:	0005aa03          	lw	s4,0(a1)
   1eb50:	c7bd                	beqz	a5,0x1ebbe
   1eb52:	1a42                	slli	s4,s4,0x30
   1eb54:	030a5a13          	srli	s4,s4,0x30
   1eb58:	bf85                	j	0x1eac8
   1eb5a:	8aea                	mv	s5,s10
   1eb5c:	e436                	sd	a3,8(sp)
   1eb5e:	b861                	j	0x1e3f6
   1eb60:	200d6e13          	ori	t3,s10,512
   1eb64:	001dc683          	lbu	a3,1(s11)
   1eb68:	000e0d1b          	sext.w	s10,t3
   1eb6c:	0d85                	addi	s11,s11,1
   1eb6e:	ee8ff06f          	j	0x1e256
   1eb72:	020d6e13          	ori	t3,s10,32
   1eb76:	001dc683          	lbu	a3,1(s11)
   1eb7a:	000e0d1b          	sext.w	s10,t3
   1eb7e:	0d85                	addi	s11,s11,1
   1eb80:	ed6ff06f          	j	0x1e256
   1eb84:	1090                	addi	a2,sp,96
   1eb86:	85a6                	mv	a1,s1
   1eb88:	854e                	mv	a0,s3
   1eb8a:	caeff0ef          	jal	ra,0x1e038
   1eb8e:	fe051f63          	bnez	a0,0x1e38c
   1eb92:	5626                	lw	a2,104(sp)
   1eb94:	77c6                	ld	a5,112(sp)
   1eb96:	1994                	addi	a3,sp,240
   1eb98:	0016059b          	addiw	a1,a2,1
   1eb9c:	874a                	mv	a4,s2
   1eb9e:	f9eff06f          	j	0x1e33c
   1eba2:	4799                	li	a5,6
   1eba4:	000c8a1b          	sext.w	s4,s9
   1eba8:	0197f363          	bgeu	a5,s9,0x1ebae
   1ebac:	4a19                	li	s4,6
   1ebae:	8ad2                	mv	s5,s4
   1ebb0:	e45a                	sd	s6,8(sp)
   1ebb2:	00002c17          	auipc	s8,0x2
   1ebb6:	146c0c13          	addi	s8,s8,326 # 0x20cf8
   1ebba:	efeff06f          	j	0x1e2b8
   1ebbe:	200d7793          	andi	a5,s10,512
   1ebc2:	c7ad                	beqz	a5,0x1ec2c
   1ebc4:	0ffa7a13          	andi	s4,s4,255
   1ebc8:	b701                	j	0x1eac8
   1ebca:	200d7793          	andi	a5,s10,512
   1ebce:	cba9                	beqz	a5,0x1ec20
   1ebd0:	67a2                	ld	a5,8(sp)
   1ebd2:	00078a03          	lb	s4,0(a5)
   1ebd6:	87d2                	mv	a5,s4
   1ebd8:	807ff06f          	j	0x1e3de
   1ebdc:	200d7793          	andi	a5,s10,512
   1ebe0:	cb9d                	beqz	a5,0x1ec16
   1ebe2:	0ffa7a13          	andi	s4,s4,255
   1ebe6:	841ff06f          	j	0x1e426
   1ebea:	200af793          	andi	a5,s5,512
   1ebee:	cf89                	beqz	a5,0x1ec08
   1ebf0:	0ffa7a13          	andi	s4,s4,255
   1ebf4:	e436                	sd	a3,8(sp)
   1ebf6:	4785                	li	a5,1
   1ebf8:	83bff06f          	j	0x1e432
   1ebfc:	8636                	mv	a2,a3
   1ebfe:	00003b17          	auipc	s6,0x3
   1ec02:	d92b0b13          	addi	s6,s6,-622 # 0x21990
   1ec06:	b135                	j	0x1e832
   1ec08:	1a02                	slli	s4,s4,0x20
   1ec0a:	020a5a13          	srli	s4,s4,0x20
   1ec0e:	e436                	sd	a3,8(sp)
   1ec10:	4785                	li	a5,1
   1ec12:	821ff06f          	j	0x1e432
   1ec16:	1a02                	slli	s4,s4,0x20
   1ec18:	020a5a13          	srli	s4,s4,0x20
   1ec1c:	80bff06f          	j	0x1e426
   1ec20:	67a2                	ld	a5,8(sp)
   1ec22:	0007aa03          	lw	s4,0(a5)
   1ec26:	87d2                	mv	a5,s4
   1ec28:	fb6ff06f          	j	0x1e3de
   1ec2c:	1a02                	slli	s4,s4,0x20
   1ec2e:	020a5a13          	srli	s4,s4,0x20
   1ec32:	bd59                	j	0x1eac8
   1ec34:	6782                	ld	a5,0(sp)
   1ec36:	00f69023          	sh	a5,0(a3)
   1ec3a:	db6ff06f          	j	0x1e1f0
   1ec3e:	1090                	addi	a2,sp,96
   1ec40:	85a6                	mv	a1,s1
   1ec42:	854e                	mv	a0,s3
   1ec44:	bf4ff0ef          	jal	ra,0x1e038
   1ec48:	f44ff06f          	j	0x1e38c
   1ec4c:	8a66                	mv	s4,s9
   1ec4e:	e45a                	sd	s6,8(sp)
   1ec50:	4c81                	li	s9,0
   1ec52:	817ff06f          	j	0x1e468
   1ec56:	8aea                	mv	s5,s10
   1ec58:	fa4ff06f          	j	0x1e3fc
   1ec5c:	8536                	mv	a0,a3
   1ec5e:	862e                	mv	a2,a1
   1ec60:	00003b17          	auipc	s6,0x3
   1ec64:	d30b0b13          	addi	s6,s6,-720 # 0x21990
   1ec68:	b6b9                	j	0x1e7b6
   1ec6a:	c29c                	sw	a5,0(a3)
   1ec6c:	d84ff06f          	j	0x1e1f0
   1ec70:	57fd                	li	a5,-1
   1ec72:	e03e                	sd	a5,0(sp)
   1ec74:	f24ff06f          	j	0x1e398
   1ec78:	6622                	ld	a2,8(sp)
   1ec7a:	4214                	lw	a3,0(a2)
   1ec7c:	00860b13          	addi	s6,a2,8
   1ec80:	8836                	mv	a6,a3
   1ec82:	0006d363          	bgez	a3,0x1ec88
   1ec86:	587d                	li	a6,-1
   1ec88:	001dc683          	lbu	a3,1(s11)
   1ec8c:	00080c9b          	sext.w	s9,a6
   1ec90:	e45a                	sd	s6,8(sp)
   1ec92:	8dbe                	mv	s11,a5
   1ec94:	dc2ff06f          	j	0x1e256
   1ec98:	47b1                	li	a5,12
   1ec9a:	00f9a023          	sw	a5,0(s3)
   1ec9e:	57fd                	li	a5,-1
   1eca0:	e03e                	sd	a5,0(sp)
   1eca2:	ef6ff06f          	j	0x1e398
   1eca6:	7381b703          	ld	a4,1848(gp)
   1ecaa:	1f873783          	ld	a5,504(a4)
   1ecae:	c3b1                	beqz	a5,0x1ecf2
   1ecb0:	4798                	lw	a4,8(a5)
   1ecb2:	487d                	li	a6,31
   1ecb4:	06e84263          	blt	a6,a4,0x1ed18
   1ecb8:	c505                	beqz	a0,0x1ece0
   1ecba:	00371813          	slli	a6,a4,0x3
   1ecbe:	983e                	add	a6,a6,a5
   1ecc0:	10c83823          	sd	a2,272(a6) # 0x7ff00110
   1ecc4:	3107a883          	lw	a7,784(a5)
   1ecc8:	4605                	li	a2,1
   1ecca:	00e6163b          	sllw	a2,a2,a4
   1ecce:	00c8e8b3          	or	a7,a7,a2
   1ecd2:	3117a823          	sw	a7,784(a5)
   1ecd6:	20d83823          	sd	a3,528(a6)
   1ecda:	4689                	li	a3,2
   1ecdc:	02d50063          	beq	a0,a3,0x1ecfc
   1ece0:	00270693          	addi	a3,a4,2
   1ece4:	068e                	slli	a3,a3,0x3
   1ece6:	2705                	addiw	a4,a4,1
   1ece8:	c798                	sw	a4,8(a5)
   1ecea:	97b6                	add	a5,a5,a3
   1ecec:	e38c                	sd	a1,0(a5)
   1ecee:	4501                	li	a0,0
   1ecf0:	8082                	ret
   1ecf2:	20070793          	addi	a5,a4,512
   1ecf6:	1ef73c23          	sd	a5,504(a4)
   1ecfa:	bf5d                	j	0x1ecb0
   1ecfc:	3147a683          	lw	a3,788(a5)
   1ed00:	4501                	li	a0,0
   1ed02:	8e55                	or	a2,a2,a3
   1ed04:	00270693          	addi	a3,a4,2
   1ed08:	068e                	slli	a3,a3,0x3
   1ed0a:	2705                	addiw	a4,a4,1
   1ed0c:	30c7aa23          	sw	a2,788(a5)
   1ed10:	c798                	sw	a4,8(a5)
   1ed12:	97b6                	add	a5,a5,a3
   1ed14:	e38c                	sd	a1,0(a5)
   1ed16:	8082                	ret
   1ed18:	557d                	li	a0,-1
   1ed1a:	8082                	ret
   1ed1c:	1141                	addi	sp,sp,-16
   1ed1e:	e406                	sd	ra,8(sp)
   1ed20:	e022                	sd	s0,0(sp)
   1ed22:	4581                	li	a1,0
   1ed24:	4601                	li	a2,0
   1ed26:	4681                	li	a3,0
   1ed28:	4701                	li	a4,0
   1ed2a:	4781                	li	a5,0
   1ed2c:	03900893          	li	a7,57
   1ed30:	00000073          	ecall
   1ed34:	842a                	mv	s0,a0
   1ed36:	00054763          	bltz	a0,0x1ed44
   1ed3a:	2501                	sext.w	a0,a0
   1ed3c:	60a2                	ld	ra,8(sp)
   1ed3e:	6402                	ld	s0,0(sp)
   1ed40:	0141                	addi	sp,sp,16
   1ed42:	8082                	ret
   1ed44:	24c000ef          	jal	ra,0x1ef90
   1ed48:	4080043b          	negw	s0,s0
   1ed4c:	c100                	sw	s0,0(a0)
   1ed4e:	557d                	li	a0,-1
   1ed50:	b7f5                	j	0x1ed3c
   1ed52:	4581                	li	a1,0
   1ed54:	4601                	li	a2,0
   1ed56:	4681                	li	a3,0
   1ed58:	4701                	li	a4,0
   1ed5a:	4781                	li	a5,0
   1ed5c:	05d00893          	li	a7,93
   1ed60:	00000073          	ecall
   1ed64:	00054363          	bltz	a0,0x1ed6a
   1ed68:	a001                	j	0x1ed68
   1ed6a:	1141                	addi	sp,sp,-16
   1ed6c:	e022                	sd	s0,0(sp)
   1ed6e:	842a                	mv	s0,a0
   1ed70:	e406                	sd	ra,8(sp)
   1ed72:	4080043b          	negw	s0,s0
   1ed76:	21a000ef          	jal	ra,0x1ef90
   1ed7a:	c100                	sw	s0,0(a0)
   1ed7c:	a001                	j	0x1ed7c
   1ed7e:	7135                	addi	sp,sp,-160
   1ed80:	e526                	sd	s1,136(sp)
   1ed82:	ed06                	sd	ra,152(sp)
   1ed84:	84ae                	mv	s1,a1
   1ed86:	e922                	sd	s0,144(sp)
   1ed88:	858a                	mv	a1,sp
   1ed8a:	4601                	li	a2,0
   1ed8c:	4681                	li	a3,0
   1ed8e:	4701                	li	a4,0
   1ed90:	4781                	li	a5,0
   1ed92:	05000893          	li	a7,80
   1ed96:	00000073          	ecall
   1ed9a:	842a                	mv	s0,a0
   1ed9c:	00054e63          	bltz	a0,0x1edb8
   1eda0:	0005041b          	sext.w	s0,a0
   1eda4:	8526                	mv	a0,s1
   1eda6:	858a                	mv	a1,sp
   1eda8:	18e000ef          	jal	ra,0x1ef36
   1edac:	60ea                	ld	ra,152(sp)
   1edae:	8522                	mv	a0,s0
   1edb0:	644a                	ld	s0,144(sp)
   1edb2:	64aa                	ld	s1,136(sp)
   1edb4:	610d                	addi	sp,sp,160
   1edb6:	8082                	ret
   1edb8:	4080043b          	negw	s0,s0
   1edbc:	1d4000ef          	jal	ra,0x1ef90
   1edc0:	c100                	sw	s0,0(a0)
   1edc2:	547d                	li	s0,-1
   1edc4:	b7c5                	j	0x1eda4
   1edc6:	4505                	li	a0,1
   1edc8:	8082                	ret
   1edca:	7119                	addi	sp,sp,-128
   1edcc:	002c                	addi	a1,sp,8
   1edce:	fc86                	sd	ra,120(sp)
   1edd0:	fafff0ef          	jal	ra,0x1ed7e
   1edd4:	57fd                	li	a5,-1
   1edd6:	00f50963          	beq	a0,a5,0x1ede8
   1edda:	4532                	lw	a0,12(sp)
   1eddc:	70e6                	ld	ra,120(sp)
   1edde:	40d5551b          	sraiw	a0,a0,0xd
   1ede2:	8905                	andi	a0,a0,1
   1ede4:	6109                	addi	sp,sp,128
   1ede6:	8082                	ret
   1ede8:	70e6                	ld	ra,120(sp)
   1edea:	4501                	li	a0,0
   1edec:	6109                	addi	sp,sp,128
   1edee:	8082                	ret
   1edf0:	1141                	addi	sp,sp,-16
   1edf2:	e406                	sd	ra,8(sp)
   1edf4:	19c000ef          	jal	ra,0x1ef90
   1edf8:	60a2                	ld	ra,8(sp)
   1edfa:	47d9                	li	a5,22
   1edfc:	c11c                	sw	a5,0(a0)
   1edfe:	557d                	li	a0,-1
   1ee00:	0141                	addi	sp,sp,16
   1ee02:	8082                	ret
   1ee04:	1141                	addi	sp,sp,-16
   1ee06:	e406                	sd	ra,8(sp)
   1ee08:	e022                	sd	s0,0(sp)
   1ee0a:	4681                	li	a3,0
   1ee0c:	4701                	li	a4,0
   1ee0e:	4781                	li	a5,0
   1ee10:	03e00893          	li	a7,62
   1ee14:	00000073          	ecall
   1ee18:	842a                	mv	s0,a0
   1ee1a:	00054763          	bltz	a0,0x1ee28
   1ee1e:	60a2                	ld	ra,8(sp)
   1ee20:	8522                	mv	a0,s0
   1ee22:	6402                	ld	s0,0(sp)
   1ee24:	0141                	addi	sp,sp,16
   1ee26:	8082                	ret
   1ee28:	4080043b          	negw	s0,s0
   1ee2c:	164000ef          	jal	ra,0x1ef90
   1ee30:	c100                	sw	s0,0(a0)
   1ee32:	547d                	li	s0,-1
   1ee34:	b7ed                	j	0x1ee1e
   1ee36:	1141                	addi	sp,sp,-16
   1ee38:	e406                	sd	ra,8(sp)
   1ee3a:	e022                	sd	s0,0(sp)
   1ee3c:	4681                	li	a3,0
   1ee3e:	4701                	li	a4,0
   1ee40:	4781                	li	a5,0
   1ee42:	40000893          	li	a7,1024
   1ee46:	00000073          	ecall
   1ee4a:	842a                	mv	s0,a0
   1ee4c:	00054763          	bltz	a0,0x1ee5a
   1ee50:	2501                	sext.w	a0,a0
   1ee52:	60a2                	ld	ra,8(sp)
   1ee54:	6402                	ld	s0,0(sp)
   1ee56:	0141                	addi	sp,sp,16
   1ee58:	8082                	ret
   1ee5a:	136000ef          	jal	ra,0x1ef90
   1ee5e:	4080043b          	negw	s0,s0
   1ee62:	c100                	sw	s0,0(a0)
   1ee64:	557d                	li	a0,-1
   1ee66:	b7f5                	j	0x1ee52
   1ee68:	1141                	addi	sp,sp,-16
   1ee6a:	e406                	sd	ra,8(sp)
   1ee6c:	e022                	sd	s0,0(sp)
   1ee6e:	4681                	li	a3,0
   1ee70:	4701                	li	a4,0
   1ee72:	4781                	li	a5,0
   1ee74:	03f00893          	li	a7,63
   1ee78:	00000073          	ecall
   1ee7c:	842a                	mv	s0,a0
   1ee7e:	00054763          	bltz	a0,0x1ee8c
   1ee82:	60a2                	ld	ra,8(sp)
   1ee84:	8522                	mv	a0,s0
   1ee86:	6402                	ld	s0,0(sp)
   1ee88:	0141                	addi	sp,sp,16
   1ee8a:	8082                	ret
   1ee8c:	4080043b          	negw	s0,s0
   1ee90:	100000ef          	jal	ra,0x1ef90
   1ee94:	c100                	sw	s0,0(a0)
   1ee96:	547d                	li	s0,-1
   1ee98:	b7ed                	j	0x1ee82
   1ee9a:	79018313          	addi	t1,gp,1936
   1ee9e:	00033783          	ld	a5,0(t1)
   1eea2:	1141                	addi	sp,sp,-16
   1eea4:	e406                	sd	ra,8(sp)
   1eea6:	882a                	mv	a6,a0
   1eea8:	e385                	bnez	a5,0x1eec8
   1eeaa:	4501                	li	a0,0
   1eeac:	4581                	li	a1,0
   1eeae:	4601                	li	a2,0
   1eeb0:	4681                	li	a3,0
   1eeb2:	4701                	li	a4,0
   1eeb4:	0d600893          	li	a7,214
   1eeb8:	00000073          	ecall
   1eebc:	577d                	li	a4,-1
   1eebe:	87aa                	mv	a5,a0
   1eec0:	02e50a63          	beq	a0,a4,0x1eef4
   1eec4:	00a33023          	sd	a0,0(t1)
   1eec8:	00f80533          	add	a0,a6,a5
   1eecc:	4581                	li	a1,0
   1eece:	4601                	li	a2,0
   1eed0:	4681                	li	a3,0
   1eed2:	4701                	li	a4,0
   1eed4:	4781                	li	a5,0
   1eed6:	0d600893          	li	a7,214
   1eeda:	00000073          	ecall
   1eede:	00033783          	ld	a5,0(t1)
   1eee2:	983e                	add	a6,a6,a5
   1eee4:	01051863          	bne	a0,a6,0x1eef4
   1eee8:	60a2                	ld	ra,8(sp)
   1eeea:	00a33023          	sd	a0,0(t1)
   1eeee:	853e                	mv	a0,a5
   1eef0:	0141                	addi	sp,sp,16
   1eef2:	8082                	ret
   1eef4:	09c000ef          	jal	ra,0x1ef90
   1eef8:	60a2                	ld	ra,8(sp)
   1eefa:	47b1                	li	a5,12
   1eefc:	c11c                	sw	a5,0(a0)
   1eefe:	557d                	li	a0,-1
   1ef00:	0141                	addi	sp,sp,16
   1ef02:	8082                	ret
   1ef04:	1141                	addi	sp,sp,-16
   1ef06:	e406                	sd	ra,8(sp)
   1ef08:	e022                	sd	s0,0(sp)
   1ef0a:	4681                	li	a3,0
   1ef0c:	4701                	li	a4,0
   1ef0e:	4781                	li	a5,0
   1ef10:	04000893          	li	a7,64
   1ef14:	00000073          	ecall
   1ef18:	842a                	mv	s0,a0
   1ef1a:	00054763          	bltz	a0,0x1ef28
   1ef1e:	60a2                	ld	ra,8(sp)
   1ef20:	8522                	mv	a0,s0
   1ef22:	6402                	ld	s0,0(sp)
   1ef24:	0141                	addi	sp,sp,16
   1ef26:	8082                	ret
   1ef28:	4080043b          	negw	s0,s0
   1ef2c:	064000ef          	jal	ra,0x1ef90
   1ef30:	c100                	sw	s0,0(a0)
   1ef32:	547d                	li	s0,-1
   1ef34:	b7ed                	j	0x1ef1e
   1ef36:	0005b383          	ld	t2,0(a1)
   1ef3a:	0085b283          	ld	t0,8(a1)
   1ef3e:	0105af83          	lw	t6,16(a1)
   1ef42:	0145af03          	lw	t5,20(a1)
   1ef46:	0185ae83          	lw	t4,24(a1)
   1ef4a:	01c5ae03          	lw	t3,28(a1)
   1ef4e:	0205b303          	ld	t1,32(a1)
   1ef52:	0305b883          	ld	a7,48(a1)
   1ef56:	0405b803          	ld	a6,64(a1)
   1ef5a:	5d90                	lw	a2,56(a1)
   1ef5c:	65b4                	ld	a3,72(a1)
   1ef5e:	6db8                	ld	a4,88(a1)
   1ef60:	75bc                	ld	a5,104(a1)
   1ef62:	00751023          	sh	t2,0(a0)
   1ef66:	00551123          	sh	t0,2(a0)
   1ef6a:	01f52223          	sw	t6,4(a0)
   1ef6e:	01e51423          	sh	t5,8(a0)
   1ef72:	01d51523          	sh	t4,10(a0)
   1ef76:	01c51623          	sh	t3,12(a0)
   1ef7a:	00651723          	sh	t1,14(a0)
   1ef7e:	01153823          	sd	a7,16(a0)
   1ef82:	05053823          	sd	a6,80(a0)
   1ef86:	e530                	sd	a2,72(a0)
   1ef88:	ed14                	sd	a3,24(a0)
   1ef8a:	f518                	sd	a4,40(a0)
   1ef8c:	fd1c                	sd	a5,56(a0)
   1ef8e:	8082                	ret
   1ef90:	7501b503          	ld	a0,1872(gp)
   1ef94:	8082                	ret
   1ef96:	882a                	mv	a6,a0
   1ef98:	002027f3          	frrm	a5
   1ef9c:	6521                	lui	a0,0x8
   1ef9e:	0305d893          	srli	a7,a1,0x30
   1efa2:	157d                	addi	a0,a0,-1
   1efa4:	57fd                	li	a5,-1
   1efa6:	83c1                	srli	a5,a5,0x10
   1efa8:	0306d313          	srli	t1,a3,0x30
   1efac:	00a8f8b3          	and	a7,a7,a0
   1efb0:	00f5f733          	and	a4,a1,a5
   1efb4:	00a37333          	and	t1,t1,a0
   1efb8:	8ff5                	and	a5,a5,a3
   1efba:	91fd                	srli	a1,a1,0x3f
   1efbc:	92fd                	srli	a3,a3,0x3f
   1efbe:	00a89863          	bne	a7,a0,0x1efce
   1efc2:	01076533          	or	a0,a4,a6
   1efc6:	e529                	bnez	a0,0x1f010
   1efc8:	05131f63          	bne	t1,a7,0x1f026
   1efcc:	a019                	j	0x1efd2
   1efce:	00a31563          	bne	t1,a0,0x1efd8
   1efd2:	00c7e533          	or	a0,a5,a2
   1efd6:	e515                	bnez	a0,0x1f002
   1efd8:	4505                	li	a0,1
   1efda:	04689763          	bne	a7,t1,0x1f028
   1efde:	04f71563          	bne	a4,a5,0x1f028
   1efe2:	04c81363          	bne	a6,a2,0x1f028
   1efe6:	00d58963          	beq	a1,a3,0x1eff8
   1efea:	02089f63          	bnez	a7,0x1f028
   1efee:	01076533          	or	a0,a4,a6
   1eff2:	00a03533          	snez	a0,a0
   1eff6:	8082                	ret
   1eff8:	4501                	li	a0,0
   1effa:	8082                	ret
   1effc:	00186073          	csrsi	fflags,16
   1f000:	a01d                	j	0x1f026
   1f002:	66a1                	lui	a3,0x8
   1f004:	16fd                	addi	a3,a3,-1
   1f006:	00d89e63          	bne	a7,a3,0x1f022
   1f00a:	01076533          	or	a0,a4,a6
   1f00e:	c911                	beqz	a0,0x1f022
   1f010:	933d                	srli	a4,a4,0x2f
   1f012:	d76d                	beqz	a4,0x1effc
   1f014:	6721                	lui	a4,0x8
   1f016:	177d                	addi	a4,a4,-1
   1f018:	4505                	li	a0,1
   1f01a:	00e31763          	bne	t1,a4,0x1f028
   1f01e:	8e5d                	or	a2,a2,a5
   1f020:	c601                	beqz	a2,0x1f028
   1f022:	93bd                	srli	a5,a5,0x2f
   1f024:	dfe1                	beqz	a5,0x1effc
   1f026:	4505                	li	a0,1
   1f028:	8082                	ret
   1f02a:	88aa                	mv	a7,a0
   1f02c:	002027f3          	frrm	a5
   1f030:	6321                	lui	t1,0x8
   1f032:	137d                	addi	t1,t1,-1
   1f034:	57fd                	li	a5,-1
   1f036:	0305d813          	srli	a6,a1,0x30
   1f03a:	83c1                	srli	a5,a5,0x10
   1f03c:	0306d713          	srli	a4,a3,0x30
   1f040:	00687833          	and	a6,a6,t1
   1f044:	00f5fe33          	and	t3,a1,a5
   1f048:	03f5d513          	srli	a0,a1,0x3f
   1f04c:	8ff5                	and	a5,a5,a3
   1f04e:	00677733          	and	a4,a4,t1
   1f052:	92fd                	srli	a3,a3,0x3f
   1f054:	00681963          	bne	a6,t1,0x1f066
   1f058:	011e65b3          	or	a1,t3,a7
   1f05c:	c5b5                	beqz	a1,0x1f0c8
   1f05e:	00186073          	csrsi	fflags,16
   1f062:	5579                	li	a0,-2
   1f064:	8082                	ret
   1f066:	00671563          	bne	a4,t1,0x1f070
   1f06a:	00c7e5b3          	or	a1,a5,a2
   1f06e:	f9e5                	bnez	a1,0x1f05e
   1f070:	04081e63          	bnez	a6,0x1f0cc
   1f074:	011e65b3          	or	a1,t3,a7
   1f078:	0015b593          	seqz	a1,a1
   1f07c:	e709                	bnez	a4,0x1f086
   1f07e:	00c7e333          	or	t1,a5,a2
   1f082:	02030e63          	beqz	t1,0x1f0be
   1f086:	e981                	bnez	a1,0x1f096
   1f088:	00d51463          	bne	a0,a3,0x1f090
   1f08c:	01075963          	bge	a4,a6,0x1f09e
   1f090:	c50d                	beqz	a0,0x1f0ba
   1f092:	557d                	li	a0,-1
   1f094:	8082                	ret
   1f096:	557d                	li	a0,-1
   1f098:	c691                	beqz	a3,0x1f0a4
   1f09a:	8536                	mv	a0,a3
   1f09c:	8082                	ret
   1f09e:	00e85463          	bge	a6,a4,0x1f0a6
   1f0a2:	d965                	beqz	a0,0x1f092
   1f0a4:	8082                	ret
   1f0a6:	ffc7e5e3          	bltu	a5,t3,0x1f090
   1f0aa:	00fe1c63          	bne	t3,a5,0x1f0c2
   1f0ae:	ff1661e3          	bltu	a2,a7,0x1f090
   1f0b2:	fec8e8e3          	bltu	a7,a2,0x1f0a2
   1f0b6:	4501                	li	a0,0
   1f0b8:	8082                	ret
   1f0ba:	4505                	li	a0,1
   1f0bc:	8082                	ret
   1f0be:	fde5                	bnez	a1,0x1f0b6
   1f0c0:	bfc1                	j	0x1f090
   1f0c2:	fefe60e3          	bltu	t3,a5,0x1f0a2
   1f0c6:	bfc5                	j	0x1f0b6
   1f0c8:	fb0701e3          	beq	a4,a6,0x1f06a
   1f0cc:	ff55                	bnez	a4,0x1f088
   1f0ce:	4581                	li	a1,0
   1f0d0:	b77d                	j	0x1f07e
   1f0d2:	88aa                	mv	a7,a0
   1f0d4:	002027f3          	frrm	a5
   1f0d8:	6321                	lui	t1,0x8
   1f0da:	137d                	addi	t1,t1,-1
   1f0dc:	57fd                	li	a5,-1
   1f0de:	0305d813          	srli	a6,a1,0x30
   1f0e2:	83c1                	srli	a5,a5,0x10
   1f0e4:	0306d713          	srli	a4,a3,0x30
   1f0e8:	00687833          	and	a6,a6,t1
   1f0ec:	00f5fe33          	and	t3,a1,a5
   1f0f0:	03f5d513          	srli	a0,a1,0x3f
   1f0f4:	8ff5                	and	a5,a5,a3
   1f0f6:	00677733          	and	a4,a4,t1
   1f0fa:	92fd                	srli	a3,a3,0x3f
   1f0fc:	00681963          	bne	a6,t1,0x1f10e
   1f100:	011e65b3          	or	a1,t3,a7
   1f104:	c5b5                	beqz	a1,0x1f170
   1f106:	00186073          	csrsi	fflags,16
   1f10a:	4509                	li	a0,2
   1f10c:	8082                	ret
   1f10e:	00671563          	bne	a4,t1,0x1f118
   1f112:	00c7e5b3          	or	a1,a5,a2
   1f116:	f9e5                	bnez	a1,0x1f106
   1f118:	04081e63          	bnez	a6,0x1f174
   1f11c:	011e65b3          	or	a1,t3,a7
   1f120:	0015b593          	seqz	a1,a1
   1f124:	e709                	bnez	a4,0x1f12e
   1f126:	00c7e333          	or	t1,a5,a2
   1f12a:	02030e63          	beqz	t1,0x1f166
   1f12e:	e981                	bnez	a1,0x1f13e
   1f130:	00d51463          	bne	a0,a3,0x1f138
   1f134:	01075963          	bge	a4,a6,0x1f146
   1f138:	c50d                	beqz	a0,0x1f162
   1f13a:	557d                	li	a0,-1
   1f13c:	8082                	ret
   1f13e:	557d                	li	a0,-1
   1f140:	c691                	beqz	a3,0x1f14c
   1f142:	8536                	mv	a0,a3
   1f144:	8082                	ret
   1f146:	00e85463          	bge	a6,a4,0x1f14e
   1f14a:	d965                	beqz	a0,0x1f13a
   1f14c:	8082                	ret
   1f14e:	ffc7e5e3          	bltu	a5,t3,0x1f138
   1f152:	00fe1c63          	bne	t3,a5,0x1f16a
   1f156:	ff1661e3          	bltu	a2,a7,0x1f138
   1f15a:	fec8e8e3          	bltu	a7,a2,0x1f14a
   1f15e:	4501                	li	a0,0
   1f160:	8082                	ret
   1f162:	4505                	li	a0,1
   1f164:	8082                	ret
   1f166:	fde5                	bnez	a1,0x1f15e
   1f168:	bfc1                	j	0x1f138
   1f16a:	fefe60e3          	bltu	t3,a5,0x1f14a
   1f16e:	bfc5                	j	0x1f15e
   1f170:	fb0701e3          	beq	a4,a6,0x1f112
   1f174:	ff55                	bnez	a4,0x1f130
   1f176:	4581                	li	a1,0
   1f178:	b77d                	j	0x1f126
   1f17a:	711d                	addi	sp,sp,-96
   1f17c:	f05a                	sd	s6,32(sp)
   1f17e:	e466                	sd	s9,8(sp)
   1f180:	ec86                	sd	ra,88(sp)
   1f182:	e8a2                	sd	s0,80(sp)
   1f184:	e4a6                	sd	s1,72(sp)
   1f186:	e0ca                	sd	s2,64(sp)
   1f188:	fc4e                	sd	s3,56(sp)
   1f18a:	f852                	sd	s4,48(sp)
   1f18c:	f456                	sd	s5,40(sp)
   1f18e:	ec5e                	sd	s7,24(sp)
   1f190:	e862                	sd	s8,16(sp)
   1f192:	8cb2                	mv	s9,a2
   1f194:	8b36                	mv	s6,a3
   1f196:	002029f3          	frrm	s3
   1f19a:	6721                	lui	a4,0x8
   1f19c:	0305da93          	srli	s5,a1,0x30
   1f1a0:	177d                	addi	a4,a4,-1
   1f1a2:	01059493          	slli	s1,a1,0x10
   1f1a6:	00eaf7b3          	and	a5,s5,a4
   1f1aa:	2981                	sext.w	s3,s3
   1f1ac:	80c1                	srli	s1,s1,0x10
   1f1ae:	03f5db93          	srli	s7,a1,0x3f
   1f1b2:	c78d                	beqz	a5,0x1f1dc
   1f1b4:	8a2a                	mv	s4,a0
   1f1b6:	00078a9b          	sext.w	s5,a5
   1f1ba:	08e78263          	beq	a5,a4,0x1f23e
   1f1be:	048e                	slli	s1,s1,0x3
   1f1c0:	03d55713          	srli	a4,a0,0x3d
   1f1c4:	8f45                	or	a4,a4,s1
   1f1c6:	7af1                	lui	s5,0xffffc
   1f1c8:	4485                	li	s1,1
   1f1ca:	14ce                	slli	s1,s1,0x33
   1f1cc:	0a85                	addi	s5,s5,1
   1f1ce:	8cd9                	or	s1,s1,a4
   1f1d0:	00351a13          	slli	s4,a0,0x3
   1f1d4:	9abe                	add	s5,s5,a5
   1f1d6:	4c01                	li	s8,0
   1f1d8:	4901                	li	s2,0
   1f1da:	a89d                	j	0x1f250
   1f1dc:	00a4e7b3          	or	a5,s1,a0
   1f1e0:	842a                	mv	s0,a0
   1f1e2:	cbf1                	beqz	a5,0x1f2b6
   1f1e4:	c0a1                	beqz	s1,0x1f224
   1f1e6:	8526                	mv	a0,s1
   1f1e8:	184010ef          	jal	ra,0x2036c
   1f1ec:	0005079b          	sext.w	a5,a0
   1f1f0:	ff178693          	addi	a3,a5,-15
   1f1f4:	03c00613          	li	a2,60
   1f1f8:	0006871b          	sext.w	a4,a3
   1f1fc:	02d64b63          	blt	a2,a3,0x1f232
   1f200:	03d00693          	li	a3,61
   1f204:	00370a1b          	addiw	s4,a4,3
   1f208:	40e6873b          	subw	a4,a3,a4
   1f20c:	014494b3          	sll	s1,s1,s4
   1f210:	00e45733          	srl	a4,s0,a4
   1f214:	8cd9                	or	s1,s1,a4
   1f216:	01441a33          	sll	s4,s0,s4
   1f21a:	7af1                	lui	s5,0xffffc
   1f21c:	0ac5                	addi	s5,s5,17
   1f21e:	40fa8ab3          	sub	s5,s5,a5
   1f222:	bf55                	j	0x1f1d6
   1f224:	148010ef          	jal	ra,0x2036c
   1f228:	00050a9b          	sext.w	s5,a0
   1f22c:	040a8793          	addi	a5,s5,64 # 0xffffffffffffc040
   1f230:	b7c1                	j	0x1f1f0
   1f232:	fc37049b          	addiw	s1,a4,-61
   1f236:	009414b3          	sll	s1,s0,s1
   1f23a:	4a01                	li	s4,0
   1f23c:	bff9                	j	0x1f21a
   1f23e:	00a4e7b3          	or	a5,s1,a0
   1f242:	cfbd                	beqz	a5,0x1f2c0
   1f244:	01049793          	slli	a5,s1,0x10
   1f248:	4c0d                	li	s8,3
   1f24a:	4941                	li	s2,16
   1f24c:	f807c6e3          	bltz	a5,0x1f1d8
   1f250:	66a1                	lui	a3,0x8
   1f252:	030b5513          	srli	a0,s6,0x30
   1f256:	16fd                	addi	a3,a3,-1
   1f258:	010b1413          	slli	s0,s6,0x10
   1f25c:	00d57733          	and	a4,a0,a3
   1f260:	87e6                	mv	a5,s9
   1f262:	8041                	srli	s0,s0,0x10
   1f264:	03fb5b13          	srli	s6,s6,0x3f
   1f268:	c325                	beqz	a4,0x1f2c8
   1f26a:	0007051b          	sext.w	a0,a4
   1f26e:	0ad70c63          	beq	a4,a3,0x1f326
   1f272:	040e                	slli	s0,s0,0x3
   1f274:	03dcd593          	srli	a1,s9,0x3d
   1f278:	8dc1                	or	a1,a1,s0
   1f27a:	7571                	lui	a0,0xffffc
   1f27c:	4405                	li	s0,1
   1f27e:	144e                	slli	s0,s0,0x33
   1f280:	0505                	addi	a0,a0,1
   1f282:	8c4d                	or	s0,s0,a1
   1f284:	003c9793          	slli	a5,s9,0x3
   1f288:	953a                	add	a0,a0,a4
   1f28a:	4701                	li	a4,0
   1f28c:	002c1693          	slli	a3,s8,0x2
   1f290:	8ed9                	or	a3,a3,a4
   1f292:	9aaa                	add	s5,s5,a0
   1f294:	16fd                	addi	a3,a3,-1
   1f296:	45b9                	li	a1,14
   1f298:	016bc633          	xor	a2,s7,s6
   1f29c:	001a8813          	addi	a6,s5,1
   1f2a0:	0ed5e963          	bltu	a1,a3,0x1f392
   1f2a4:	00002597          	auipc	a1,0x2
   1f2a8:	6fc58593          	addi	a1,a1,1788 # 0x219a0
   1f2ac:	068a                	slli	a3,a3,0x2
   1f2ae:	96ae                	add	a3,a3,a1
   1f2b0:	4294                	lw	a3,0(a3)
   1f2b2:	96ae                	add	a3,a3,a1
   1f2b4:	8682                	jr	a3
   1f2b6:	4481                	li	s1,0
   1f2b8:	4a01                	li	s4,0
   1f2ba:	4a81                	li	s5,0
   1f2bc:	4c05                	li	s8,1
   1f2be:	bf29                	j	0x1f1d8
   1f2c0:	4481                	li	s1,0
   1f2c2:	4a01                	li	s4,0
   1f2c4:	4c09                	li	s8,2
   1f2c6:	bf09                	j	0x1f1d8
   1f2c8:	019467b3          	or	a5,s0,s9
   1f2cc:	c7bd                	beqz	a5,0x1f33a
   1f2ce:	cc1d                	beqz	s0,0x1f30c
   1f2d0:	8522                	mv	a0,s0
   1f2d2:	09a010ef          	jal	ra,0x2036c
   1f2d6:	0005071b          	sext.w	a4,a0
   1f2da:	ff170793          	addi	a5,a4,-15 # 0x7ff1
   1f2de:	03c00613          	li	a2,60
   1f2e2:	0007869b          	sext.w	a3,a5
   1f2e6:	02f64a63          	blt	a2,a5,0x1f31a
   1f2ea:	03d00613          	li	a2,61
   1f2ee:	0036879b          	addiw	a5,a3,3
   1f2f2:	40d606bb          	subw	a3,a2,a3
   1f2f6:	00f41433          	sll	s0,s0,a5
   1f2fa:	00dcd6b3          	srl	a3,s9,a3
   1f2fe:	8c55                	or	s0,s0,a3
   1f300:	00fc97b3          	sll	a5,s9,a5
   1f304:	7571                	lui	a0,0xffffc
   1f306:	0545                	addi	a0,a0,17
   1f308:	8d19                	sub	a0,a0,a4
   1f30a:	b741                	j	0x1f28a
   1f30c:	8566                	mv	a0,s9
   1f30e:	05e010ef          	jal	ra,0x2036c
   1f312:	2501                	sext.w	a0,a0
   1f314:	04050713          	addi	a4,a0,64 # 0xffffffffffffc040
   1f318:	b7c9                	j	0x1f2da
   1f31a:	fc36841b          	addiw	s0,a3,-61
   1f31e:	008c9433          	sll	s0,s9,s0
   1f322:	4781                	li	a5,0
   1f324:	b7c5                	j	0x1f304
   1f326:	01946733          	or	a4,s0,s9
   1f32a:	cf09                	beqz	a4,0x1f344
   1f32c:	01041713          	slli	a4,s0,0x10
   1f330:	00074e63          	bltz	a4,0x1f34c
   1f334:	470d                	li	a4,3
   1f336:	4941                	li	s2,16
   1f338:	bf91                	j	0x1f28c
   1f33a:	4401                	li	s0,0
   1f33c:	4781                	li	a5,0
   1f33e:	4501                	li	a0,0
   1f340:	4705                	li	a4,1
   1f342:	b7a9                	j	0x1f28c
   1f344:	4401                	li	s0,0
   1f346:	4781                	li	a5,0
   1f348:	4709                	li	a4,2
   1f34a:	b789                	j	0x1f28c
   1f34c:	470d                	li	a4,3
   1f34e:	bf3d                	j	0x1f28c
   1f350:	4405                	li	s0,1
   1f352:	6721                	lui	a4,0x8
   1f354:	143e                	slli	s0,s0,0x2f
   1f356:	4501                	li	a0,0
   1f358:	177d                	addi	a4,a4,-1
   1f35a:	4601                	li	a2,0
   1f35c:	4941                	li	s2,16
   1f35e:	1746                	slli	a4,a4,0x31
   1f360:	9345                	srli	a4,a4,0x31
   1f362:	00f61593          	slli	a1,a2,0xf
   1f366:	0442                	slli	s0,s0,0x10
   1f368:	8dd9                	or	a1,a1,a4
   1f36a:	15c2                	slli	a1,a1,0x30
   1f36c:	8041                	srli	s0,s0,0x10
   1f36e:	8dc1                	or	a1,a1,s0
   1f370:	00090463          	beqz	s2,0x1f378
   1f374:	00192073          	csrs	fflags,s2
   1f378:	60e6                	ld	ra,88(sp)
   1f37a:	6446                	ld	s0,80(sp)
   1f37c:	64a6                	ld	s1,72(sp)
   1f37e:	6906                	ld	s2,64(sp)
   1f380:	79e2                	ld	s3,56(sp)
   1f382:	7a42                	ld	s4,48(sp)
   1f384:	7aa2                	ld	s5,40(sp)
   1f386:	7b02                	ld	s6,32(sp)
   1f388:	6be2                	ld	s7,24(sp)
   1f38a:	6c42                	ld	s8,16(sp)
   1f38c:	6ca2                	ld	s9,8(sp)
   1f38e:	6125                	addi	sp,sp,96
   1f390:	8082                	ret
   1f392:	557d                	li	a0,-1
   1f394:	014483b3          	add	t2,s1,s4
   1f398:	00878f33          	add	t5,a5,s0
   1f39c:	9101                	srli	a0,a0,0x20
   1f39e:	020a5e93          	srli	t4,s4,0x20
   1f3a2:	0207d693          	srli	a3,a5,0x20
   1f3a6:	0143bfb3          	sltu	t6,t2,s4
   1f3aa:	0143be33          	sltu	t3,t2,s4
   1f3ae:	00ff32b3          	sltu	t0,t5,a5
   1f3b2:	00aa7a33          	and	s4,s4,a0
   1f3b6:	00ff3333          	sltu	t1,t5,a5
   1f3ba:	8fe9                	and	a5,a5,a0
   1f3bc:	034785b3          	mul	a1,a5,s4
   1f3c0:	02de8733          	mul	a4,t4,a3
   1f3c4:	02fe87b3          	mul	a5,t4,a5
   1f3c8:	034686b3          	mul	a3,a3,s4
   1f3cc:	0205da13          	srli	s4,a1,0x20
   1f3d0:	96be                	add	a3,a3,a5
   1f3d2:	9a36                	add	s4,s4,a3
   1f3d4:	00fa7563          	bgeu	s4,a5,0x1f3de
   1f3d8:	4785                	li	a5,1
   1f3da:	1782                	slli	a5,a5,0x20
   1f3dc:	973e                	add	a4,a4,a5
   1f3de:	56fd                	li	a3,-1
   1f3e0:	9281                	srli	a3,a3,0x20
   1f3e2:	00da7533          	and	a0,s4,a3
   1f3e6:	8df5                	and	a1,a1,a3
   1f3e8:	1502                	slli	a0,a0,0x20
   1f3ea:	0203d893          	srli	a7,t2,0x20
   1f3ee:	020f5793          	srli	a5,t5,0x20
   1f3f2:	020a5e93          	srli	t4,s4,0x20
   1f3f6:	952e                	add	a0,a0,a1
   1f3f8:	00d3f5b3          	and	a1,t2,a3
   1f3fc:	00df76b3          	and	a3,t5,a3
   1f400:	02f88b33          	mul	s6,a7,a5
   1f404:	9eba                	add	t4,t4,a4
   1f406:	02b787b3          	mul	a5,a5,a1
   1f40a:	02b68733          	mul	a4,a3,a1
   1f40e:	02d886b3          	mul	a3,a7,a3
   1f412:	00d785b3          	add	a1,a5,a3
   1f416:	02075793          	srli	a5,a4,0x20
   1f41a:	97ae                	add	a5,a5,a1
   1f41c:	00d7f563          	bgeu	a5,a3,0x1f426
   1f420:	4685                	li	a3,1
   1f422:	1682                	slli	a3,a3,0x20
   1f424:	9b36                	add	s6,s6,a3
   1f426:	58fd                	li	a7,-1
   1f428:	0208d893          	srli	a7,a7,0x20
   1f42c:	0117f6b3          	and	a3,a5,a7
   1f430:	02045b93          	srli	s7,s0,0x20
   1f434:	0207da13          	srli	s4,a5,0x20
   1f438:	01147433          	and	s0,s0,a7
   1f43c:	0204d793          	srli	a5,s1,0x20
   1f440:	0114f4b3          	and	s1,s1,a7
   1f444:	011775b3          	and	a1,a4,a7
   1f448:	028488b3          	mul	a7,s1,s0
   1f44c:	1682                	slli	a3,a3,0x20
   1f44e:	95b6                	add	a1,a1,a3
   1f450:	02878433          	mul	s0,a5,s0
   1f454:	037787b3          	mul	a5,a5,s7
   1f458:	029b8bb3          	mul	s7,s7,s1
   1f45c:	0208d493          	srli	s1,a7,0x20
   1f460:	9ba2                	add	s7,s7,s0
   1f462:	94de                	add	s1,s1,s7
   1f464:	0084f563          	bgeu	s1,s0,0x1f46e
   1f468:	4705                	li	a4,1
   1f46a:	1702                	slli	a4,a4,0x20
   1f46c:	97ba                	add	a5,a5,a4
   1f46e:	0204d693          	srli	a3,s1,0x20
   1f472:	97b6                	add	a5,a5,a3
   1f474:	56fd                	li	a3,-1
   1f476:	9281                	srli	a3,a3,0x20
   1f478:	00d8f8b3          	and	a7,a7,a3
   1f47c:	00d4f733          	and	a4,s1,a3
   1f480:	01d586b3          	add	a3,a1,t4
   1f484:	01d6b5b3          	sltu	a1,a3,t4
   1f488:	1702                	slli	a4,a4,0x20
   1f48a:	40600333          	neg	t1,t1
   1f48e:	9746                	add	a4,a4,a7
   1f490:	00ba08b3          	add	a7,s4,a1
   1f494:	98da                	add	a7,a7,s6
   1f496:	007373b3          	and	t2,t1,t2
   1f49a:	41c00e33          	neg	t3,t3
   1f49e:	93c6                	add	t2,t2,a7
   1f4a0:	01ee7f33          	and	t5,t3,t5
   1f4a4:	00b8b5b3          	sltu	a1,a7,a1
   1f4a8:	005fffb3          	and	t6,t6,t0
   1f4ac:	9f1e                	add	t5,t5,t2
   1f4ae:	0113b8b3          	sltu	a7,t2,a7
   1f4b2:	95fe                	add	a1,a1,t6
   1f4b4:	40a68333          	sub	t1,a3,a0
   1f4b8:	95c6                	add	a1,a1,a7
   1f4ba:	0066be33          	sltu	t3,a3,t1
   1f4be:	41df08b3          	sub	a7,t5,t4
   1f4c2:	007f33b3          	sltu	t2,t5,t2
   1f4c6:	011f3fb3          	sltu	t6,t5,a7
   1f4ca:	959e                	add	a1,a1,t2
   1f4cc:	41c888b3          	sub	a7,a7,t3
   1f4d0:	4e01                	li	t3,0
   1f4d2:	0066f663          	bgeu	a3,t1,0x1f4de
   1f4d6:	41ee8f33          	sub	t5,t4,t5
   1f4da:	001f3e13          	seqz	t3,t5
   1f4de:	01fe6f33          	or	t5,t3,t6
   1f4e2:	40e30e33          	sub	t3,t1,a4
   1f4e6:	40f886b3          	sub	a3,a7,a5
   1f4ea:	95be                	add	a1,a1,a5
   1f4ec:	01c337b3          	sltu	a5,t1,t3
   1f4f0:	00d8b8b3          	sltu	a7,a7,a3
   1f4f4:	40f707b3          	sub	a5,a4,a5
   1f4f8:	4f81                	li	t6,0
   1f4fa:	01c37463          	bgeu	t1,t3,0x1f502
   1f4fe:	0016bf93          	seqz	t6,a3
   1f502:	96be                	add	a3,a3,a5
   1f504:	00e6b733          	sltu	a4,a3,a4
   1f508:	972e                	add	a4,a4,a1
   1f50a:	00de1793          	slli	a5,t3,0xd
   1f50e:	8fc9                	or	a5,a5,a0
   1f510:	41e70733          	sub	a4,a4,t5
   1f514:	011fe8b3          	or	a7,t6,a7
   1f518:	41170733          	sub	a4,a4,a7
   1f51c:	00f037b3          	snez	a5,a5
   1f520:	033e5513          	srli	a0,t3,0x33
   1f524:	0736                	slli	a4,a4,0xd
   1f526:	0336d413          	srli	s0,a3,0x33
   1f52a:	8fc9                	or	a5,a5,a0
   1f52c:	06b6                	slli	a3,a3,0xd
   1f52e:	8fd5                	or	a5,a5,a3
   1f530:	00b71693          	slli	a3,a4,0xb
   1f534:	8c59                	or	s0,s0,a4
   1f536:	0606da63          	bgez	a3,0x1f5aa
   1f53a:	0017d713          	srli	a4,a5,0x1
   1f53e:	8b85                	andi	a5,a5,1
   1f540:	03f41513          	slli	a0,s0,0x3f
   1f544:	8fd9                	or	a5,a5,a4
   1f546:	8fc9                	or	a5,a5,a0
   1f548:	8005                	srli	s0,s0,0x1
   1f54a:	6711                	lui	a4,0x4
   1f54c:	177d                	addi	a4,a4,-1
   1f54e:	9742                	add	a4,a4,a6
   1f550:	0ce05263          	blez	a4,0x1f614
   1f554:	0077f693          	andi	a3,a5,7
   1f558:	c2a5                	beqz	a3,0x1f5b8
   1f55a:	4689                	li	a3,2
   1f55c:	00196913          	ori	s2,s2,1
   1f560:	04d98b63          	beq	s3,a3,0x1f5b6
   1f564:	468d                	li	a3,3
   1f566:	04d98463          	beq	s3,a3,0x1f5ae
   1f56a:	04099763          	bnez	s3,0x1f5b8
   1f56e:	00f7f693          	andi	a3,a5,15
   1f572:	4591                	li	a1,4
   1f574:	04b68263          	beq	a3,a1,0x1f5b8
   1f578:	00478693          	addi	a3,a5,4
   1f57c:	00f6b7b3          	sltu	a5,a3,a5
   1f580:	943e                	add	s0,s0,a5
   1f582:	87b6                	mv	a5,a3
   1f584:	a815                	j	0x1f5b8
   1f586:	865e                	mv	a2,s7
   1f588:	8426                	mv	s0,s1
   1f58a:	87d2                	mv	a5,s4
   1f58c:	8762                	mv	a4,s8
   1f58e:	4689                	li	a3,2
   1f590:	1ed70263          	beq	a4,a3,0x1f774
   1f594:	468d                	li	a3,3
   1f596:	1ed70463          	beq	a4,a3,0x1f77e
   1f59a:	4685                	li	a3,1
   1f59c:	fad717e3          	bne	a4,a3,0x1f54a
   1f5a0:	4401                	li	s0,0
   1f5a2:	4501                	li	a0,0
   1f5a4:	aa7d                	j	0x1f762
   1f5a6:	865a                	mv	a2,s6
   1f5a8:	b7dd                	j	0x1f58e
   1f5aa:	8856                	mv	a6,s5
   1f5ac:	bf79                	j	0x1f54a
   1f5ae:	e609                	bnez	a2,0x1f5b8
   1f5b0:	00878693          	addi	a3,a5,8
   1f5b4:	b7e1                	j	0x1f57c
   1f5b6:	fe6d                	bnez	a2,0x1f5b0
   1f5b8:	00b41693          	slli	a3,s0,0xb
   1f5bc:	0006d863          	bgez	a3,0x1f5cc
   1f5c0:	577d                	li	a4,-1
   1f5c2:	1752                	slli	a4,a4,0x34
   1f5c4:	177d                	addi	a4,a4,-1
   1f5c6:	8c79                	and	s0,s0,a4
   1f5c8:	6711                	lui	a4,0x4
   1f5ca:	9742                	add	a4,a4,a6
   1f5cc:	66a1                	lui	a3,0x8
   1f5ce:	ffe68593          	addi	a1,a3,-2 # 0x7ffe
   1f5d2:	00e5c963          	blt	a1,a4,0x1f5e4
   1f5d6:	0037d513          	srli	a0,a5,0x3
   1f5da:	03d41793          	slli	a5,s0,0x3d
   1f5de:	8d5d                	or	a0,a0,a5
   1f5e0:	800d                	srli	s0,s0,0x3
   1f5e2:	bbb5                	j	0x1f35e
   1f5e4:	4789                	li	a5,2
   1f5e6:	02f98263          	beq	s3,a5,0x1f60a
   1f5ea:	478d                	li	a5,3
   1f5ec:	fff68713          	addi	a4,a3,-1
   1f5f0:	00f98663          	beq	s3,a5,0x1f5fc
   1f5f4:	00099563          	bnez	s3,0x1f5fe
   1f5f8:	4501                	li	a0,0
   1f5fa:	a021                	j	0x1f602
   1f5fc:	de75                	beqz	a2,0x1f5f8
   1f5fe:	557d                	li	a0,-1
   1f600:	872e                	mv	a4,a1
   1f602:	00596913          	ori	s2,s2,5
   1f606:	842a                	mv	s0,a0
   1f608:	bb99                	j	0x1f35e
   1f60a:	da75                	beqz	a2,0x1f5fe
   1f60c:	4501                	li	a0,0
   1f60e:	fff68713          	addi	a4,a3,-1
   1f612:	bfc5                	j	0x1f602
   1f614:	4685                	li	a3,1
   1f616:	e731                	bnez	a4,0x1f662
   1f618:	0077f593          	andi	a1,a5,7
   1f61c:	86a2                	mv	a3,s0
   1f61e:	cd95                	beqz	a1,0x1f65a
   1f620:	4689                	li	a3,2
   1f622:	00196913          	ori	s2,s2,1
   1f626:	02d98863          	beq	s3,a3,0x1f656
   1f62a:	468d                	li	a3,3
   1f62c:	02d98063          	beq	s3,a3,0x1f64c
   1f630:	86a2                	mv	a3,s0
   1f632:	02099463          	bnez	s3,0x1f65a
   1f636:	00f7f593          	andi	a1,a5,15
   1f63a:	4511                	li	a0,4
   1f63c:	00a58f63          	beq	a1,a0,0x1f65a
   1f640:	ffc7b693          	sltiu	a3,a5,-4
   1f644:	0016c693          	xori	a3,a3,1
   1f648:	96a2                	add	a3,a3,s0
   1f64a:	a801                	j	0x1f65a
   1f64c:	86a2                	mv	a3,s0
   1f64e:	e611                	bnez	a2,0x1f65a
   1f650:	ff87b693          	sltiu	a3,a5,-8
   1f654:	bfc5                	j	0x1f644
   1f656:	86a2                	mv	a3,s0
   1f658:	fe65                	bnez	a2,0x1f650
   1f65a:	92d1                	srli	a3,a3,0x34
   1f65c:	0016c693          	xori	a3,a3,1
   1f660:	8a85                	andi	a3,a3,1
   1f662:	4585                	li	a1,1
   1f664:	40e58733          	sub	a4,a1,a4
   1f668:	07400593          	li	a1,116
   1f66c:	0ce5c763          	blt	a1,a4,0x1f73a
   1f670:	03f00513          	li	a0,63
   1f674:	0007059b          	sext.w	a1,a4
   1f678:	04e54b63          	blt	a0,a4,0x1f6ce
   1f67c:	04000713          	li	a4,64
   1f680:	9f0d                	subw	a4,a4,a1
   1f682:	00e41533          	sll	a0,s0,a4
   1f686:	00b7d833          	srl	a6,a5,a1
   1f68a:	00e797b3          	sll	a5,a5,a4
   1f68e:	01056533          	or	a0,a0,a6
   1f692:	00f037b3          	snez	a5,a5
   1f696:	8d5d                	or	a0,a0,a5
   1f698:	00b45433          	srl	s0,s0,a1
   1f69c:	00757793          	andi	a5,a0,7
   1f6a0:	c3b5                	beqz	a5,0x1f704
   1f6a2:	4789                	li	a5,2
   1f6a4:	00196913          	ori	s2,s2,1
   1f6a8:	04f98d63          	beq	s3,a5,0x1f702
   1f6ac:	478d                	li	a5,3
   1f6ae:	04f98663          	beq	s3,a5,0x1f6fa
   1f6b2:	04099963          	bnez	s3,0x1f704
   1f6b6:	00f57793          	andi	a5,a0,15
   1f6ba:	4711                	li	a4,4
   1f6bc:	04e78463          	beq	a5,a4,0x1f704
   1f6c0:	00450793          	addi	a5,a0,4
   1f6c4:	00a7b533          	sltu	a0,a5,a0
   1f6c8:	942a                	add	s0,s0,a0
   1f6ca:	853e                	mv	a0,a5
   1f6cc:	a825                	j	0x1f704
   1f6ce:	fc05851b          	addiw	a0,a1,-64
   1f6d2:	04000893          	li	a7,64
   1f6d6:	00a45533          	srl	a0,s0,a0
   1f6da:	4801                	li	a6,0
   1f6dc:	01170863          	beq	a4,a7,0x1f6ec
   1f6e0:	08000813          	li	a6,128
   1f6e4:	40b805bb          	subw	a1,a6,a1
   1f6e8:	00b41833          	sll	a6,s0,a1
   1f6ec:	00f867b3          	or	a5,a6,a5
   1f6f0:	00f037b3          	snez	a5,a5
   1f6f4:	8d5d                	or	a0,a0,a5
   1f6f6:	4401                	li	s0,0
   1f6f8:	b755                	j	0x1f69c
   1f6fa:	e609                	bnez	a2,0x1f704
   1f6fc:	00850793          	addi	a5,a0,8
   1f700:	b7d1                	j	0x1f6c4
   1f702:	fe6d                	bnez	a2,0x1f6fc
   1f704:	00c41793          	slli	a5,s0,0xc
   1f708:	0007dc63          	bgez	a5,0x1f720
   1f70c:	00196913          	ori	s2,s2,1
   1f710:	4401                	li	s0,0
   1f712:	4501                	li	a0,0
   1f714:	4705                	li	a4,1
   1f716:	c40684e3          	beqz	a3,0x1f35e
   1f71a:	00296913          	ori	s2,s2,2
   1f71e:	b181                	j	0x1f35e
   1f720:	03d41793          	slli	a5,s0,0x3d
   1f724:	810d                	srli	a0,a0,0x3
   1f726:	8d5d                	or	a0,a0,a5
   1f728:	800d                	srli	s0,s0,0x3
   1f72a:	4701                	li	a4,0
   1f72c:	c20689e3          	beqz	a3,0x1f35e
   1f730:	00197793          	andi	a5,s2,1
   1f734:	c20785e3          	beqz	a5,0x1f35e
   1f738:	b7cd                	j	0x1f71a
   1f73a:	0087e533          	or	a0,a5,s0
   1f73e:	cd19                	beqz	a0,0x1f75c
   1f740:	4789                	li	a5,2
   1f742:	00196913          	ori	s2,s2,1
   1f746:	02f98463          	beq	s3,a5,0x1f76e
   1f74a:	478d                	li	a5,3
   1f74c:	00f98d63          	beq	s3,a5,0x1f766
   1f750:	4785                	li	a5,1
   1f752:	00099363          	bnez	s3,0x1f758
   1f756:	4795                	li	a5,5
   1f758:	0037d513          	srli	a0,a5,0x3
   1f75c:	00296913          	ori	s2,s2,2
   1f760:	4401                	li	s0,0
   1f762:	4701                	li	a4,0
   1f764:	beed                	j	0x1f35e
   1f766:	47a5                	li	a5,9
   1f768:	da65                	beqz	a2,0x1f758
   1f76a:	4785                	li	a5,1
   1f76c:	b7f5                	j	0x1f758
   1f76e:	47a5                	li	a5,9
   1f770:	f665                	bnez	a2,0x1f758
   1f772:	bfe5                	j	0x1f76a
   1f774:	6721                	lui	a4,0x8
   1f776:	4401                	li	s0,0
   1f778:	4501                	li	a0,0
   1f77a:	177d                	addi	a4,a4,-1
   1f77c:	b6cd                	j	0x1f35e
   1f77e:	4405                	li	s0,1
   1f780:	6721                	lui	a4,0x8
   1f782:	143e                	slli	s0,s0,0x2f
   1f784:	4501                	li	a0,0
   1f786:	177d                	addi	a4,a4,-1
   1f788:	4601                	li	a2,0
   1f78a:	bed1                	j	0x1f35e
   1f78c:	7179                	addi	sp,sp,-48
   1f78e:	f406                	sd	ra,40(sp)
   1f790:	f022                	sd	s0,32(sp)
   1f792:	ec26                	sd	s1,24(sp)
   1f794:	e84a                	sd	s2,16(sp)
   1f796:	e44e                	sd	s3,8(sp)
   1f798:	e052                	sd	s4,0(sp)
   1f79a:	002024f3          	frrm	s1
   1f79e:	577d                	li	a4,-1
   1f7a0:	8341                	srli	a4,a4,0x10
   1f7a2:	6321                	lui	t1,0x8
   1f7a4:	0305d893          	srli	a7,a1,0x30
   1f7a8:	137d                	addi	t1,t1,-1
   1f7aa:	0306de13          	srli	t3,a3,0x30
   1f7ae:	03f5d413          	srli	s0,a1,0x3f
   1f7b2:	03f6de93          	srli	t4,a3,0x3f
   1f7b6:	8df9                	and	a1,a1,a4
   1f7b8:	8ef9                	and	a3,a3,a4
   1f7ba:	00359793          	slli	a5,a1,0x3
   1f7be:	03d65713          	srli	a4,a2,0x3d
   1f7c2:	03d55593          	srli	a1,a0,0x3d
   1f7c6:	0068f8b3          	and	a7,a7,t1
   1f7ca:	006e7e33          	and	t3,t3,t1
   1f7ce:	068e                	slli	a3,a3,0x3
   1f7d0:	2481                	sext.w	s1,s1
   1f7d2:	89c6                	mv	s3,a7
   1f7d4:	8ddd                	or	a1,a1,a5
   1f7d6:	050e                	slli	a0,a0,0x3
   1f7d8:	8872                	mv	a6,t3
   1f7da:	8ed9                	or	a3,a3,a4
   1f7dc:	060e                	slli	a2,a2,0x3
   1f7de:	006e1563          	bne	t3,t1,0x1f7e8
   1f7e2:	00c6e7b3          	or	a5,a3,a2
   1f7e6:	e399                	bnez	a5,0x1f7ec
   1f7e8:	001ece93          	xori	t4,t4,1
   1f7ec:	41c887bb          	subw	a5,a7,t3
   1f7f0:	6f21                	lui	t5,0x8
   1f7f2:	0007871b          	sext.w	a4,a5
   1f7f6:	ffff0313          	addi	t1,t5,-1 # 0x7fff
   1f7fa:	368e9263          	bne	t4,s0,0x1fb5e
   1f7fe:	10e05063          	blez	a4,0x1f8fe
   1f802:	080e1063          	bnez	t3,0x1f882
   1f806:	00c6e733          	or	a4,a3,a2
   1f80a:	ef11                	bnez	a4,0x1f826
   1f80c:	6a689f63          	bne	a7,t1,0x1feca
   1f810:	00a5e7b3          	or	a5,a1,a0
   1f814:	70078163          	beqz	a5,0x1ff16
   1f818:	00d59793          	slli	a5,a1,0xd
   1f81c:	8846                	mv	a6,a7
   1f81e:	0407c663          	bltz	a5,0x1f86a
   1f822:	47c1                	li	a5,16
   1f824:	a2d5                	j	0x1fa08
   1f826:	fff7871b          	addiw	a4,a5,-1
   1f82a:	e331                	bnez	a4,0x1f86e
   1f82c:	962a                	add	a2,a2,a0
   1f82e:	95b6                	add	a1,a1,a3
   1f830:	00a63533          	sltu	a0,a2,a0
   1f834:	95aa                	add	a1,a1,a0
   1f836:	8532                	mv	a0,a2
   1f838:	00c59793          	slli	a5,a1,0xc
   1f83c:	6807d763          	bgez	a5,0x1feca
   1f840:	67a1                	lui	a5,0x8
   1f842:	00198813          	addi	a6,s3,1
   1f846:	fff78713          	addi	a4,a5,-1 # 0x7fff
   1f84a:	2ee80a63          	beq	a6,a4,0x1fb3e
   1f84e:	57fd                	li	a5,-1
   1f850:	17ce                	slli	a5,a5,0x33
   1f852:	17fd                	addi	a5,a5,-1
   1f854:	8fed                	and	a5,a5,a1
   1f856:	00155893          	srli	a7,a0,0x1
   1f85a:	8905                	andi	a0,a0,1
   1f85c:	03f79593          	slli	a1,a5,0x3f
   1f860:	00a8e533          	or	a0,a7,a0
   1f864:	8d4d                	or	a0,a0,a1
   1f866:	0017d593          	srli	a1,a5,0x1
   1f86a:	4701                	li	a4,0
   1f86c:	a451                	j	0x1faf0
   1f86e:	00689f63          	bne	a7,t1,0x1f88c
   1f872:	00a5e7b3          	or	a5,a1,a0
   1f876:	6a078063          	beqz	a5,0x1ff16
   1f87a:	00d59793          	slli	a5,a1,0xd
   1f87e:	8846                	mv	a6,a7
   1f880:	a045                	j	0x1f920
   1f882:	fe6888e3          	beq	a7,t1,0x1f872
   1f886:	4785                	li	a5,1
   1f888:	17ce                	slli	a5,a5,0x33
   1f88a:	8edd                	or	a3,a3,a5
   1f88c:	07400793          	li	a5,116
   1f890:	06e7c363          	blt	a5,a4,0x1f8f6
   1f894:	03f00793          	li	a5,63
   1f898:	02e7c963          	blt	a5,a4,0x1f8ca
   1f89c:	04000813          	li	a6,64
   1f8a0:	40e8083b          	subw	a6,a6,a4
   1f8a4:	00e658b3          	srl	a7,a2,a4
   1f8a8:	010697b3          	sll	a5,a3,a6
   1f8ac:	01061633          	sll	a2,a2,a6
   1f8b0:	0117e7b3          	or	a5,a5,a7
   1f8b4:	00c03633          	snez	a2,a2
   1f8b8:	8e5d                	or	a2,a2,a5
   1f8ba:	00e6d733          	srl	a4,a3,a4
   1f8be:	962a                	add	a2,a2,a0
   1f8c0:	972e                	add	a4,a4,a1
   1f8c2:	00a635b3          	sltu	a1,a2,a0
   1f8c6:	95ba                	add	a1,a1,a4
   1f8c8:	b7bd                	j	0x1f836
   1f8ca:	fc07079b          	addiw	a5,a4,-64
   1f8ce:	04000893          	li	a7,64
   1f8d2:	00f6d7b3          	srl	a5,a3,a5
   1f8d6:	4801                	li	a6,0
   1f8d8:	01170863          	beq	a4,a7,0x1f8e8
   1f8dc:	08000813          	li	a6,128
   1f8e0:	40e8073b          	subw	a4,a6,a4
   1f8e4:	00e69833          	sll	a6,a3,a4
   1f8e8:	00c86633          	or	a2,a6,a2
   1f8ec:	00c03633          	snez	a2,a2
   1f8f0:	8e5d                	or	a2,a2,a5
   1f8f2:	4701                	li	a4,0
   1f8f4:	b7e9                	j	0x1f8be
   1f8f6:	8e55                	or	a2,a2,a3
   1f8f8:	00c03633          	snez	a2,a2
   1f8fc:	bfdd                	j	0x1f8f2
   1f8fe:	c379                	beqz	a4,0x1f9c4
   1f900:	08089063          	bnez	a7,0x1f980
   1f904:	00a5e8b3          	or	a7,a1,a0
   1f908:	02089063          	bnez	a7,0x1f928
   1f90c:	5c6e1363          	bne	t3,t1,0x1fed2
   1f910:	00c6e533          	or	a0,a3,a2
   1f914:	5e050e63          	beqz	a0,0x1ff10
   1f918:	00d69793          	slli	a5,a3,0xd
   1f91c:	85b6                	mv	a1,a3
   1f91e:	8532                	mv	a0,a2
   1f920:	4701                	li	a4,0
   1f922:	1c07c763          	bltz	a5,0x1faf0
   1f926:	bdf5                	j	0x1f822
   1f928:	58fd                	li	a7,-1
   1f92a:	01171963          	bne	a4,a7,0x1f93c
   1f92e:	9532                	add	a0,a0,a2
   1f930:	95b6                	add	a1,a1,a3
   1f932:	00c53633          	sltu	a2,a0,a2
   1f936:	95b2                	add	a1,a1,a2
   1f938:	89f2                	mv	s3,t3
   1f93a:	bdfd                	j	0x1f838
   1f93c:	fc6e0ae3          	beq	t3,t1,0x1f910
   1f940:	fff7c713          	not	a4,a5
   1f944:	2701                	sext.w	a4,a4
   1f946:	07400793          	li	a5,116
   1f94a:	06e7c963          	blt	a5,a4,0x1f9bc
   1f94e:	03f00793          	li	a5,63
   1f952:	02e7cf63          	blt	a5,a4,0x1f990
   1f956:	04000813          	li	a6,64
   1f95a:	40e8083b          	subw	a6,a6,a4
   1f95e:	00e558b3          	srl	a7,a0,a4
   1f962:	010597b3          	sll	a5,a1,a6
   1f966:	01051533          	sll	a0,a0,a6
   1f96a:	0117e7b3          	or	a5,a5,a7
   1f96e:	00a03533          	snez	a0,a0
   1f972:	8d5d                	or	a0,a0,a5
   1f974:	00e5d733          	srl	a4,a1,a4
   1f978:	9532                	add	a0,a0,a2
   1f97a:	00d705b3          	add	a1,a4,a3
   1f97e:	bf55                	j	0x1f932
   1f980:	f86e08e3          	beq	t3,t1,0x1f910
   1f984:	40f0073b          	negw	a4,a5
   1f988:	4785                	li	a5,1
   1f98a:	17ce                	slli	a5,a5,0x33
   1f98c:	8ddd                	or	a1,a1,a5
   1f98e:	bf65                	j	0x1f946
   1f990:	fc07079b          	addiw	a5,a4,-64
   1f994:	04000893          	li	a7,64
   1f998:	00f5d7b3          	srl	a5,a1,a5
   1f99c:	4801                	li	a6,0
   1f99e:	01170863          	beq	a4,a7,0x1f9ae
   1f9a2:	08000813          	li	a6,128
   1f9a6:	40e8073b          	subw	a4,a6,a4
   1f9aa:	00e59833          	sll	a6,a1,a4
   1f9ae:	00a86533          	or	a0,a6,a0
   1f9b2:	00a03533          	snez	a0,a0
   1f9b6:	8d5d                	or	a0,a0,a5
   1f9b8:	4701                	li	a4,0
   1f9ba:	bf7d                	j	0x1f978
   1f9bc:	8d4d                	or	a0,a0,a1
   1f9be:	00a03533          	snez	a0,a0
   1f9c2:	bfdd                	j	0x1f9b8
   1f9c4:	00188813          	addi	a6,a7,1
   1f9c8:	ffef0793          	addi	a5,t5,-2
   1f9cc:	00f87eb3          	and	t4,a6,a5
   1f9d0:	100e9263          	bnez	t4,0x1fad4
   1f9d4:	00a5e833          	or	a6,a1,a0
   1f9d8:	04089063          	bnez	a7,0x1fa18
   1f9dc:	50080463          	beqz	a6,0x1fee4
   1f9e0:	00c6e7b3          	or	a5,a3,a2
   1f9e4:	32078963          	beqz	a5,0x1fd16
   1f9e8:	962a                	add	a2,a2,a0
   1f9ea:	95b6                	add	a1,a1,a3
   1f9ec:	00a63533          	sltu	a0,a2,a0
   1f9f0:	95aa                	add	a1,a1,a0
   1f9f2:	00c59793          	slli	a5,a1,0xc
   1f9f6:	4e07d863          	bgez	a5,0x1fee6
   1f9fa:	57fd                	li	a5,-1
   1f9fc:	17ce                	slli	a5,a5,0x33
   1f9fe:	17fd                	addi	a5,a5,-1
   1fa00:	8dfd                	and	a1,a1,a5
   1fa02:	8532                	mv	a0,a2
   1fa04:	4781                	li	a5,0
   1fa06:	4805                	li	a6,1
   1fa08:	00757693          	andi	a3,a0,7
   1fa0c:	10069563          	bnez	a3,0x1fb16
   1fa10:	cf29                	beqz	a4,0x1fa6a
   1fa12:	0017f713          	andi	a4,a5,1
   1fa16:	a205                	j	0x1fb36
   1fa18:	02689c63          	bne	a7,t1,0x1fa50
   1fa1c:	56080263          	beqz	a6,0x1ff80
   1fa20:	0325d793          	srli	a5,a1,0x32
   1fa24:	8b85                	andi	a5,a5,1
   1fa26:	0017b793          	seqz	a5,a5
   1fa2a:	0792                	slli	a5,a5,0x4
   1fa2c:	031e1763          	bne	t3,a7,0x1fa5a
   1fa30:	00c6e8b3          	or	a7,a3,a2
   1fa34:	00088763          	beqz	a7,0x1fa42
   1fa38:	00d69893          	slli	a7,a3,0xd
   1fa3c:	0008c363          	bltz	a7,0x1fa42
   1fa40:	47c1                	li	a5,16
   1fa42:	00081c63          	bnez	a6,0x1fa5a
   1fa46:	85b6                	mv	a1,a3
   1fa48:	8532                	mv	a0,a2
   1fa4a:	6821                	lui	a6,0x8
   1fa4c:	187d                	addi	a6,a6,-1
   1fa4e:	bf6d                	j	0x1fa08
   1fa50:	4781                	li	a5,0
   1fa52:	fe6e18e3          	bne	t3,t1,0x1fa42
   1fa56:	4781                	li	a5,0
   1fa58:	bfe1                	j	0x1fa30
   1fa5a:	8e55                	or	a2,a2,a3
   1fa5c:	d67d                	beqz	a2,0x1fa4a
   1fa5e:	4585                	li	a1,1
   1fa60:	6821                	lui	a6,0x8
   1fa62:	4401                	li	s0,0
   1fa64:	15ca                	slli	a1,a1,0x32
   1fa66:	4501                	li	a0,0
   1fa68:	187d                	addi	a6,a6,-1
   1fa6a:	00c59713          	slli	a4,a1,0xc
   1fa6e:	00075c63          	bgez	a4,0x1fa86
   1fa72:	6721                	lui	a4,0x8
   1fa74:	0805                	addi	a6,a6,1
   1fa76:	fff70693          	addi	a3,a4,-1 # 0x7fff
   1fa7a:	4cd80d63          	beq	a6,a3,0x1ff54
   1fa7e:	577d                	li	a4,-1
   1fa80:	174e                	slli	a4,a4,0x33
   1fa82:	177d                	addi	a4,a4,-1
   1fa84:	8df9                	and	a1,a1,a4
   1fa86:	6721                	lui	a4,0x8
   1fa88:	00355613          	srli	a2,a0,0x3
   1fa8c:	177d                	addi	a4,a4,-1
   1fa8e:	03d59513          	slli	a0,a1,0x3d
   1fa92:	8d51                	or	a0,a0,a2
   1fa94:	818d                	srli	a1,a1,0x3
   1fa96:	00e81963          	bne	a6,a4,0x1faa8
   1fa9a:	8d4d                	or	a0,a0,a1
   1fa9c:	4581                	li	a1,0
   1fa9e:	c509                	beqz	a0,0x1faa8
   1faa0:	4585                	li	a1,1
   1faa2:	15be                	slli	a1,a1,0x2f
   1faa4:	4501                	li	a0,0
   1faa6:	4401                	li	s0,0
   1faa8:	1846                	slli	a6,a6,0x31
   1faaa:	03185813          	srli	a6,a6,0x31
   1faae:	043e                	slli	s0,s0,0xf
   1fab0:	05c2                	slli	a1,a1,0x10
   1fab2:	00886833          	or	a6,a6,s0
   1fab6:	1842                	slli	a6,a6,0x30
   1fab8:	81c1                	srli	a1,a1,0x10
   1faba:	0105e5b3          	or	a1,a1,a6
   1fabe:	c399                	beqz	a5,0x1fac4
   1fac0:	0017a073          	csrs	fflags,a5
   1fac4:	70a2                	ld	ra,40(sp)
   1fac6:	7402                	ld	s0,32(sp)
   1fac8:	64e2                	ld	s1,24(sp)
   1faca:	6942                	ld	s2,16(sp)
   1facc:	69a2                	ld	s3,8(sp)
   1face:	6a02                	ld	s4,0(sp)
   1fad0:	6145                	addi	sp,sp,48
   1fad2:	8082                	ret
   1fad4:	02680063          	beq	a6,t1,0x1faf4
   1fad8:	962a                	add	a2,a2,a0
   1fada:	96ae                	add	a3,a3,a1
   1fadc:	00a635b3          	sltu	a1,a2,a0
   1fae0:	96ae                	add	a3,a3,a1
   1fae2:	03f69593          	slli	a1,a3,0x3f
   1fae6:	8205                	srli	a2,a2,0x1
   1fae8:	00c5e533          	or	a0,a1,a2
   1faec:	0016d593          	srli	a1,a3,0x1
   1faf0:	4781                	li	a5,0
   1faf2:	bf19                	j	0x1fa08
   1faf4:	c489                	beqz	s1,0x1fafe
   1faf6:	468d                	li	a3,3
   1faf8:	00d49763          	bne	s1,a3,0x1fb06
   1fafc:	e809                	bnez	s0,0x1fb0e
   1fafe:	4581                	li	a1,0
   1fb00:	4501                	li	a0,0
   1fb02:	4795                	li	a5,5
   1fb04:	b79d                	j	0x1fa6a
   1fb06:	4689                	li	a3,2
   1fb08:	00d49363          	bne	s1,a3,0x1fb0e
   1fb0c:	f86d                	bnez	s0,0x1fafe
   1fb0e:	55fd                	li	a1,-1
   1fb10:	557d                	li	a0,-1
   1fb12:	883e                	mv	a6,a5
   1fb14:	4795                	li	a5,5
   1fb16:	4689                	li	a3,2
   1fb18:	0017e793          	ori	a5,a5,1
   1fb1c:	42d48963          	beq	s1,a3,0x1ff4e
   1fb20:	468d                	li	a3,3
   1fb22:	40d48d63          	beq	s1,a3,0x1ff3c
   1fb26:	e881                	bnez	s1,0x1fb36
   1fb28:	00f57693          	andi	a3,a0,15
   1fb2c:	4611                	li	a2,4
   1fb2e:	00450893          	addi	a7,a0,4
   1fb32:	40c69963          	bne	a3,a2,0x1ff44
   1fb36:	db15                	beqz	a4,0x1fa6a
   1fb38:	0027e793          	ori	a5,a5,2
   1fb3c:	b73d                	j	0x1fa6a
   1fb3e:	d0e1                	beqz	s1,0x1fafe
   1fb40:	470d                	li	a4,3
   1fb42:	00e49963          	bne	s1,a4,0x1fb54
   1fb46:	dc45                	beqz	s0,0x1fafe
   1fb48:	55fd                	li	a1,-1
   1fb4a:	557d                	li	a0,-1
   1fb4c:	ffe78813          	addi	a6,a5,-2
   1fb50:	4701                	li	a4,0
   1fb52:	b7c9                	j	0x1fb14
   1fb54:	4709                	li	a4,2
   1fb56:	fee499e3          	bne	s1,a4,0x1fb48
   1fb5a:	f055                	bnez	s0,0x1fafe
   1fb5c:	b7f5                	j	0x1fb48
   1fb5e:	0ce05063          	blez	a4,0x1fc1e
   1fb62:	060e1e63          	bnez	t3,0x1fbde
   1fb66:	00c6e733          	or	a4,a3,a2
   1fb6a:	ca0701e3          	beqz	a4,0x1f80c
   1fb6e:	fff7871b          	addiw	a4,a5,-1
   1fb72:	e315                	bnez	a4,0x1fb96
   1fb74:	40c50633          	sub	a2,a0,a2
   1fb78:	8d95                	sub	a1,a1,a3
   1fb7a:	00c53533          	sltu	a0,a0,a2
   1fb7e:	8d89                	sub	a1,a1,a0
   1fb80:	8532                	mv	a0,a2
   1fb82:	00c59793          	slli	a5,a1,0xc
   1fb86:	3407d263          	bgez	a5,0x1feca
   1fb8a:	00d59913          	slli	s2,a1,0xd
   1fb8e:	00d95913          	srli	s2,s2,0xd
   1fb92:	8a2a                	mv	s4,a0
   1fb94:	acb5                	j	0x1fe10
   1fb96:	cc688ee3          	beq	a7,t1,0x1f872
   1fb9a:	07400793          	li	a5,116
   1fb9e:	06e7cc63          	blt	a5,a4,0x1fc16
   1fba2:	03f00793          	li	a5,63
   1fba6:	04e7c263          	blt	a5,a4,0x1fbea
   1fbaa:	04000813          	li	a6,64
   1fbae:	40e8083b          	subw	a6,a6,a4
   1fbb2:	00e658b3          	srl	a7,a2,a4
   1fbb6:	010697b3          	sll	a5,a3,a6
   1fbba:	01061633          	sll	a2,a2,a6
   1fbbe:	0117e7b3          	or	a5,a5,a7
   1fbc2:	00c03633          	snez	a2,a2
   1fbc6:	8e5d                	or	a2,a2,a5
   1fbc8:	00e6d733          	srl	a4,a3,a4
   1fbcc:	40c50633          	sub	a2,a0,a2
   1fbd0:	40e58733          	sub	a4,a1,a4
   1fbd4:	00c535b3          	sltu	a1,a0,a2
   1fbd8:	40b705b3          	sub	a1,a4,a1
   1fbdc:	b755                	j	0x1fb80
   1fbde:	c8688ae3          	beq	a7,t1,0x1f872
   1fbe2:	4785                	li	a5,1
   1fbe4:	17ce                	slli	a5,a5,0x33
   1fbe6:	8edd                	or	a3,a3,a5
   1fbe8:	bf4d                	j	0x1fb9a
   1fbea:	fc07079b          	addiw	a5,a4,-64
   1fbee:	04000893          	li	a7,64
   1fbf2:	00f6d7b3          	srl	a5,a3,a5
   1fbf6:	4801                	li	a6,0
   1fbf8:	01170863          	beq	a4,a7,0x1fc08
   1fbfc:	08000813          	li	a6,128
   1fc00:	40e8073b          	subw	a4,a6,a4
   1fc04:	00e69833          	sll	a6,a3,a4
   1fc08:	00c86633          	or	a2,a6,a2
   1fc0c:	00c03633          	snez	a2,a2
   1fc10:	8e5d                	or	a2,a2,a5
   1fc12:	4701                	li	a4,0
   1fc14:	bf65                	j	0x1fbcc
   1fc16:	8e55                	or	a2,a2,a3
   1fc18:	00c03633          	snez	a2,a2
   1fc1c:	bfdd                	j	0x1fc12
   1fc1e:	c769                	beqz	a4,0x1fce8
   1fc20:	08089263          	bnez	a7,0x1fca4
   1fc24:	00a5e8b3          	or	a7,a1,a0
   1fc28:	00089e63          	bnez	a7,0x1fc44
   1fc2c:	2a6e1763          	bne	t3,t1,0x1feda
   1fc30:	00c6e533          	or	a0,a3,a2
   1fc34:	2e050563          	beqz	a0,0x1ff1e
   1fc38:	00d69793          	slli	a5,a3,0xd
   1fc3c:	85b6                	mv	a1,a3
   1fc3e:	8532                	mv	a0,a2
   1fc40:	8476                	mv	s0,t4
   1fc42:	b9f9                	j	0x1f920
   1fc44:	58fd                	li	a7,-1
   1fc46:	01171c63          	bne	a4,a7,0x1fc5e
   1fc4a:	40a60533          	sub	a0,a2,a0
   1fc4e:	40b685b3          	sub	a1,a3,a1
   1fc52:	00a63633          	sltu	a2,a2,a0
   1fc56:	8d91                	sub	a1,a1,a2
   1fc58:	89f2                	mv	s3,t3
   1fc5a:	8476                	mv	s0,t4
   1fc5c:	b71d                	j	0x1fb82
   1fc5e:	fc6e09e3          	beq	t3,t1,0x1fc30
   1fc62:	fff7c713          	not	a4,a5
   1fc66:	2701                	sext.w	a4,a4
   1fc68:	07400793          	li	a5,116
   1fc6c:	06e7ca63          	blt	a5,a4,0x1fce0
   1fc70:	03f00793          	li	a5,63
   1fc74:	04e7c063          	blt	a5,a4,0x1fcb4
   1fc78:	04000813          	li	a6,64
   1fc7c:	40e8083b          	subw	a6,a6,a4
   1fc80:	00e558b3          	srl	a7,a0,a4
   1fc84:	010597b3          	sll	a5,a1,a6
   1fc88:	01051533          	sll	a0,a0,a6
   1fc8c:	0117e7b3          	or	a5,a5,a7
   1fc90:	00a03533          	snez	a0,a0
   1fc94:	8d5d                	or	a0,a0,a5
   1fc96:	00e5d733          	srl	a4,a1,a4
   1fc9a:	40a60533          	sub	a0,a2,a0
   1fc9e:	40e685b3          	sub	a1,a3,a4
   1fca2:	bf45                	j	0x1fc52
   1fca4:	f86e06e3          	beq	t3,t1,0x1fc30
   1fca8:	40f0073b          	negw	a4,a5
   1fcac:	4785                	li	a5,1
   1fcae:	17ce                	slli	a5,a5,0x33
   1fcb0:	8ddd                	or	a1,a1,a5
   1fcb2:	bf5d                	j	0x1fc68
   1fcb4:	fc07079b          	addiw	a5,a4,-64
   1fcb8:	04000893          	li	a7,64
   1fcbc:	00f5d7b3          	srl	a5,a1,a5
   1fcc0:	4801                	li	a6,0
   1fcc2:	01170863          	beq	a4,a7,0x1fcd2
   1fcc6:	08000813          	li	a6,128
   1fcca:	40e8073b          	subw	a4,a6,a4
   1fcce:	00e59833          	sll	a6,a1,a4
   1fcd2:	00a86533          	or	a0,a6,a0
   1fcd6:	00a03533          	snez	a0,a0
   1fcda:	8d5d                	or	a0,a0,a5
   1fcdc:	4701                	li	a4,0
   1fcde:	bf75                	j	0x1fc9a
   1fce0:	8d4d                	or	a0,a0,a1
   1fce2:	00a03533          	snez	a0,a0
   1fce6:	bfdd                	j	0x1fcdc
   1fce8:	00188813          	addi	a6,a7,1
   1fcec:	ffef0793          	addi	a5,t5,-2
   1fcf0:	00f877b3          	and	a5,a6,a5
   1fcf4:	ebed                	bnez	a5,0x1fde6
   1fcf6:	00a5ef33          	or	t5,a1,a0
   1fcfa:	00c6e833          	or	a6,a3,a2
   1fcfe:	0a089163          	bnez	a7,0x1fda0
   1fd02:	040f1e63          	bnez	t5,0x1fd5e
   1fd06:	1e081263          	bnez	a6,0x1feea
   1fd0a:	ffe48413          	addi	s0,s1,-2
   1fd0e:	00143413          	seqz	s0,s0
   1fd12:	4581                	li	a1,0
   1fd14:	4501                	li	a0,0
   1fd16:	00b567b3          	or	a5,a0,a1
   1fd1a:	20078d63          	beqz	a5,0x1ff34
   1fd1e:	00151693          	slli	a3,a0,0x1
   1fd22:	03f55793          	srli	a5,a0,0x3f
   1fd26:	00159713          	slli	a4,a1,0x1
   1fd2a:	0076f613          	andi	a2,a3,7
   1fd2e:	973e                	add	a4,a4,a5
   1fd30:	4781                	li	a5,0
   1fd32:	c205                	beqz	a2,0x1fd52
   1fd34:	4789                	li	a5,2
   1fd36:	1cf48963          	beq	s1,a5,0x1ff08
   1fd3a:	478d                	li	a5,3
   1fd3c:	1af48d63          	beq	s1,a5,0x1fef6
   1fd40:	4785                	li	a5,1
   1fd42:	e881                	bnez	s1,0x1fd52
   1fd44:	00f6f613          	andi	a2,a3,15
   1fd48:	4811                	li	a6,4
   1fd4a:	ffc6b693          	sltiu	a3,a3,-4
   1fd4e:	1b061963          	bne	a2,a6,0x1ff00
   1fd52:	9351                	srli	a4,a4,0x34
   1fd54:	00174713          	xori	a4,a4,1
   1fd58:	8b05                	andi	a4,a4,1
   1fd5a:	4801                	li	a6,0
   1fd5c:	b175                	j	0x1fa08
   1fd5e:	fa080ce3          	beqz	a6,0x1fd16
   1fd62:	40c50733          	sub	a4,a0,a2
   1fd66:	00e53833          	sltu	a6,a0,a4
   1fd6a:	40d587b3          	sub	a5,a1,a3
   1fd6e:	410787b3          	sub	a5,a5,a6
   1fd72:	00c79813          	slli	a6,a5,0xc
   1fd76:	00085b63          	bgez	a6,0x1fd8c
   1fd7a:	40a60533          	sub	a0,a2,a0
   1fd7e:	40b685b3          	sub	a1,a3,a1
   1fd82:	00a63633          	sltu	a2,a2,a0
   1fd86:	8d91                	sub	a1,a1,a2
   1fd88:	8476                	mv	s0,t4
   1fd8a:	b771                	j	0x1fd16
   1fd8c:	00f76533          	or	a0,a4,a5
   1fd90:	16051063          	bnez	a0,0x1fef0
   1fd94:	ffe48413          	addi	s0,s1,-2
   1fd98:	00143413          	seqz	s0,s0
   1fd9c:	4581                	li	a1,0
   1fd9e:	bfa5                	j	0x1fd16
   1fda0:	02689b63          	bne	a7,t1,0x1fdd6
   1fda4:	1c0f0a63          	beqz	t5,0x1ff78
   1fda8:	0325d793          	srli	a5,a1,0x32
   1fdac:	8b85                	andi	a5,a5,1
   1fdae:	0017b793          	seqz	a5,a5
   1fdb2:	0792                	slli	a5,a5,0x4
   1fdb4:	031e1663          	bne	t3,a7,0x1fde0
   1fdb8:	00080763          	beqz	a6,0x1fdc6
   1fdbc:	00d69893          	slli	a7,a3,0xd
   1fdc0:	0008c363          	bltz	a7,0x1fdc6
   1fdc4:	47c1                	li	a5,16
   1fdc6:	000f1d63          	bnez	t5,0x1fde0
   1fdca:	14080d63          	beqz	a6,0x1ff24
   1fdce:	85b6                	mv	a1,a3
   1fdd0:	8532                	mv	a0,a2
   1fdd2:	8476                	mv	s0,t4
   1fdd4:	b99d                	j	0x1fa4a
   1fdd6:	4781                	li	a5,0
   1fdd8:	fe6e17e3          	bne	t3,t1,0x1fdc6
   1fddc:	4781                	li	a5,0
   1fdde:	bfe9                	j	0x1fdb8
   1fde0:	c60805e3          	beqz	a6,0x1fa4a
   1fde4:	b9ad                	j	0x1fa5e
   1fde6:	40c50a33          	sub	s4,a0,a2
   1fdea:	40d58933          	sub	s2,a1,a3
   1fdee:	01453733          	sltu	a4,a0,s4
   1fdf2:	40e90933          	sub	s2,s2,a4
   1fdf6:	00c91793          	slli	a5,s2,0xc
   1fdfa:	0607dd63          	bgez	a5,0x1fe74
   1fdfe:	40a60a33          	sub	s4,a2,a0
   1fe02:	40b685b3          	sub	a1,a3,a1
   1fe06:	01463633          	sltu	a2,a2,s4
   1fe0a:	40c58933          	sub	s2,a1,a2
   1fe0e:	8476                	mv	s0,t4
   1fe10:	06090663          	beqz	s2,0x1fe7c
   1fe14:	854a                	mv	a0,s2
   1fe16:	556000ef          	jal	ra,0x2036c
   1fe1a:	2501                	sext.w	a0,a0
   1fe1c:	ff45071b          	addiw	a4,a0,-12
   1fe20:	03f00693          	li	a3,63
   1fe24:	87ba                	mv	a5,a4
   1fe26:	06e6c163          	blt	a3,a4,0x1fe88
   1fe2a:	04000593          	li	a1,64
   1fe2e:	9d99                	subw	a1,a1,a4
   1fe30:	00e91933          	sll	s2,s2,a4
   1fe34:	00ba55b3          	srl	a1,s4,a1
   1fe38:	0125e5b3          	or	a1,a1,s2
   1fe3c:	00ea1533          	sll	a0,s4,a4
   1fe40:	07374f63          	blt	a4,s3,0x1febe
   1fe44:	413789bb          	subw	s3,a5,s3
   1fe48:	0019871b          	addiw	a4,s3,1
   1fe4c:	03f00793          	li	a5,63
   1fe50:	04e7c263          	blt	a5,a4,0x1fe94
   1fe54:	04000793          	li	a5,64
   1fe58:	9f99                	subw	a5,a5,a4
   1fe5a:	00f596b3          	sll	a3,a1,a5
   1fe5e:	00e55633          	srl	a2,a0,a4
   1fe62:	00f51533          	sll	a0,a0,a5
   1fe66:	8ed1                	or	a3,a3,a2
   1fe68:	00a03533          	snez	a0,a0
   1fe6c:	8d55                	or	a0,a0,a3
   1fe6e:	00e5d5b3          	srl	a1,a1,a4
   1fe72:	b555                	j	0x1fd16
   1fe74:	012a6533          	or	a0,s4,s2
   1fe78:	fd41                	bnez	a0,0x1fe10
   1fe7a:	bf29                	j	0x1fd94
   1fe7c:	8552                	mv	a0,s4
   1fe7e:	4ee000ef          	jal	ra,0x2036c
   1fe82:	0405051b          	addiw	a0,a0,64
   1fe86:	bf59                	j	0x1fe1c
   1fe88:	fb45059b          	addiw	a1,a0,-76
   1fe8c:	00ba15b3          	sll	a1,s4,a1
   1fe90:	4501                	li	a0,0
   1fe92:	b77d                	j	0x1fe40
   1fe94:	fc19899b          	addiw	s3,s3,-63
   1fe98:	04000613          	li	a2,64
   1fe9c:	0135d9b3          	srl	s3,a1,s3
   1fea0:	4781                	li	a5,0
   1fea2:	00c70763          	beq	a4,a2,0x1feb0
   1fea6:	08000793          	li	a5,128
   1feaa:	9f99                	subw	a5,a5,a4
   1feac:	00f597b3          	sll	a5,a1,a5
   1feb0:	00f565b3          	or	a1,a0,a5
   1feb4:	00b035b3          	snez	a1,a1
   1feb8:	00b9e533          	or	a0,s3,a1
   1febc:	b5c5                	j	0x1fd9c
   1febe:	57fd                	li	a5,-1
   1fec0:	17ce                	slli	a5,a5,0x33
   1fec2:	17fd                	addi	a5,a5,-1
   1fec4:	40e989b3          	sub	s3,s3,a4
   1fec8:	8dfd                	and	a1,a1,a5
   1feca:	e40986e3          	beqz	s3,0x1fd16
   1fece:	884e                	mv	a6,s3
   1fed0:	ba69                	j	0x1f86a
   1fed2:	85b6                	mv	a1,a3
   1fed4:	8532                	mv	a0,a2
   1fed6:	89f2                	mv	s3,t3
   1fed8:	bfcd                	j	0x1feca
   1feda:	85b6                	mv	a1,a3
   1fedc:	8532                	mv	a0,a2
   1fede:	89f2                	mv	s3,t3
   1fee0:	8476                	mv	s0,t4
   1fee2:	b7e5                	j	0x1feca
   1fee4:	85b6                	mv	a1,a3
   1fee6:	8532                	mv	a0,a2
   1fee8:	b53d                	j	0x1fd16
   1feea:	85b6                	mv	a1,a3
   1feec:	8532                	mv	a0,a2
   1feee:	bd69                	j	0x1fd88
   1fef0:	85be                	mv	a1,a5
   1fef2:	853a                	mv	a0,a4
   1fef4:	b50d                	j	0x1fd16
   1fef6:	4785                	li	a5,1
   1fef8:	e4041de3          	bnez	s0,0x1fd52
   1fefc:	ff86b693          	sltiu	a3,a3,-8
   1ff00:	0016c693          	xori	a3,a3,1
   1ff04:	9736                	add	a4,a4,a3
   1ff06:	b5b1                	j	0x1fd52
   1ff08:	4785                	li	a5,1
   1ff0a:	e40404e3          	beqz	s0,0x1fd52
   1ff0e:	b7fd                	j	0x1fefc
   1ff10:	4581                	li	a1,0
   1ff12:	4781                	li	a5,0
   1ff14:	be99                	j	0x1fa6a
   1ff16:	4581                	li	a1,0
   1ff18:	4501                	li	a0,0
   1ff1a:	8846                	mv	a6,a7
   1ff1c:	bfdd                	j	0x1ff12
   1ff1e:	4581                	li	a1,0
   1ff20:	8476                	mv	s0,t4
   1ff22:	bfc5                	j	0x1ff12
   1ff24:	4585                	li	a1,1
   1ff26:	6821                	lui	a6,0x8
   1ff28:	4501                	li	a0,0
   1ff2a:	4401                	li	s0,0
   1ff2c:	15ca                	slli	a1,a1,0x32
   1ff2e:	187d                	addi	a6,a6,-1
   1ff30:	47c1                	li	a5,16
   1ff32:	be25                	j	0x1fa6a
   1ff34:	4581                	li	a1,0
   1ff36:	4501                	li	a0,0
   1ff38:	4801                	li	a6,0
   1ff3a:	bfe1                	j	0x1ff12
   1ff3c:	be041de3          	bnez	s0,0x1fb36
   1ff40:	00850893          	addi	a7,a0,8
   1ff44:	00a8b533          	sltu	a0,a7,a0
   1ff48:	95aa                	add	a1,a1,a0
   1ff4a:	8546                	mv	a0,a7
   1ff4c:	b6ed                	j	0x1fb36
   1ff4e:	be0404e3          	beqz	s0,0x1fb36
   1ff52:	b7fd                	j	0x1ff40
   1ff54:	4501                	li	a0,0
   1ff56:	cc89                	beqz	s1,0x1ff70
   1ff58:	468d                	li	a3,3
   1ff5a:	00d49763          	bne	s1,a3,0x1ff68
   1ff5e:	c809                	beqz	s0,0x1ff70
   1ff60:	557d                	li	a0,-1
   1ff62:	ffe70813          	addi	a6,a4,-2 # 0x7ffe
   1ff66:	a029                	j	0x1ff70
   1ff68:	4689                	li	a3,2
   1ff6a:	fed49be3          	bne	s1,a3,0x1ff60
   1ff6e:	d86d                	beqz	s0,0x1ff60
   1ff70:	0057e793          	ori	a5,a5,5
   1ff74:	85aa                	mv	a1,a0
   1ff76:	be01                	j	0x1fa86
   1ff78:	4781                	li	a5,0
   1ff7a:	e51e18e3          	bne	t3,a7,0x1fdca
   1ff7e:	bdb9                	j	0x1fddc
   1ff80:	4781                	li	a5,0
   1ff82:	ad1e12e3          	bne	t3,a7,0x1fa46
   1ff86:	bcc1                	j	0x1fa56
   1ff88:	882a                	mv	a6,a0
   1ff8a:	002027f3          	frrm	a5
   1ff8e:	6611                	lui	a2,0x4
   1ff90:	00159693          	slli	a3,a1,0x1
   1ff94:	01059793          	slli	a5,a1,0x10
   1ff98:	92c5                	srli	a3,a3,0x31
   1ff9a:	ffe60713          	addi	a4,a2,-2 # 0x3ffe
   1ff9e:	83c1                	srli	a5,a5,0x10
   1ffa0:	91fd                	srli	a1,a1,0x3f
   1ffa2:	00d74763          	blt	a4,a3,0x1ffb0
   1ffa6:	e6b5                	bnez	a3,0x20012
   1ffa8:	8fc9                	or	a5,a5,a0
   1ffaa:	4501                	li	a0,0
   1ffac:	e3ad                	bnez	a5,0x2000e
   1ffae:	8082                	ret
   1ffb0:	01d60713          	addi	a4,a2,29
   1ffb4:	02d75663          	bge	a4,a3,0x1ffe0
   1ffb8:	80000737          	lui	a4,0x80000
   1ffbc:	fff74713          	not	a4,a4
   1ffc0:	00b7053b          	addw	a0,a4,a1
   1ffc4:	c9a9                	beqz	a1,0x20016
   1ffc6:	01e60713          	addi	a4,a2,30
   1ffca:	4641                	li	a2,16
   1ffcc:	04e69663          	bne	a3,a4,0x20018
   1ffd0:	0117d713          	srli	a4,a5,0x11
   1ffd4:	e331                	bnez	a4,0x20018
   1ffd6:	17be                	slli	a5,a5,0x2f
   1ffd8:	0107e7b3          	or	a5,a5,a6
   1ffdc:	eb8d                	bnez	a5,0x2000e
   1ffde:	8082                	ret
   1ffe0:	4505                	li	a0,1
   1ffe2:	1542                	slli	a0,a0,0x30
   1ffe4:	8fc9                	or	a5,a5,a0
   1ffe6:	7771                	lui	a4,0xffffc
   1ffe8:	6511                	lui	a0,0x4
   1ffea:	02f5051b          	addiw	a0,a0,47
   1ffee:	2745                	addiw	a4,a4,17
   1fff0:	9f35                	addw	a4,a4,a3
   1fff2:	40d506bb          	subw	a3,a0,a3
   1fff6:	00e79733          	sll	a4,a5,a4
   1fffa:	00d7d7b3          	srl	a5,a5,a3
   1fffe:	01076733          	or	a4,a4,a6
   20002:	0007851b          	sext.w	a0,a5
   20006:	c199                	beqz	a1,0x2000c
   20008:	40a0053b          	negw	a0,a0
   2000c:	cb01                	beqz	a4,0x2001c
   2000e:	4605                	li	a2,1
   20010:	a021                	j	0x20018
   20012:	4501                	li	a0,0
   20014:	bfed                	j	0x2000e
   20016:	4641                	li	a2,16
   20018:	00162073          	csrs	fflags,a2
   2001c:	8082                	ret
   2001e:	1101                	addi	sp,sp,-32
   20020:	ec06                	sd	ra,24(sp)
   20022:	e822                	sd	s0,16(sp)
   20024:	e426                	sd	s1,8(sp)
   20026:	c531                	beqz	a0,0x20072
   20028:	0005079b          	sext.w	a5,a0
   2002c:	03f55493          	srli	s1,a0,0x3f
   20030:	00055463          	bgez	a0,0x20038
   20034:	40f007bb          	negw	a5,a5
   20038:	02079413          	slli	s0,a5,0x20
   2003c:	9001                	srli	s0,s0,0x20
   2003e:	8522                	mv	a0,s0
   20040:	32c000ef          	jal	ra,0x2036c
   20044:	6691                	lui	a3,0x4
   20046:	03e6879b          	addiw	a5,a3,62
   2004a:	40a7873b          	subw	a4,a5,a0
   2004e:	02f6879b          	addiw	a5,a3,47
   20052:	9f99                	subw	a5,a5,a4
   20054:	00f417b3          	sll	a5,s0,a5
   20058:	60e2                	ld	ra,24(sp)
   2005a:	6442                	ld	s0,16(sp)
   2005c:	00f49593          	slli	a1,s1,0xf
   20060:	07c2                	slli	a5,a5,0x10
   20062:	8dd9                	or	a1,a1,a4
   20064:	15c2                	slli	a1,a1,0x30
   20066:	83c1                	srli	a5,a5,0x10
   20068:	64a2                	ld	s1,8(sp)
   2006a:	4501                	li	a0,0
   2006c:	8ddd                	or	a1,a1,a5
   2006e:	6105                	addi	sp,sp,32
   20070:	8082                	ret
   20072:	4781                	li	a5,0
   20074:	4701                	li	a4,0
   20076:	4481                	li	s1,0
   20078:	b7c5                	j	0x20058
   2007a:	1101                	addi	sp,sp,-32
   2007c:	e20507d3          	fmv.x.d	a5,fa0
   20080:	ec06                	sd	ra,24(sp)
   20082:	e822                	sd	s0,16(sp)
   20084:	e426                	sd	s1,8(sp)
   20086:	00202773          	frrm	a4
   2008a:	0347d513          	srli	a0,a5,0x34
   2008e:	7ff57513          	andi	a0,a0,2047
   20092:	00c79413          	slli	s0,a5,0xc
   20096:	03f7d493          	srli	s1,a5,0x3f
   2009a:	00150793          	addi	a5,a0,1 # 0x4001
   2009e:	7fe7f793          	andi	a5,a5,2046
   200a2:	8031                	srli	s0,s0,0xc
   200a4:	cb91                	beqz	a5,0x200b8
   200a6:	6791                	lui	a5,0x4
   200a8:	c0078793          	addi	a5,a5,-1024 # 0x3c00
   200ac:	00445593          	srli	a1,s0,0x4
   200b0:	953e                	add	a0,a0,a5
   200b2:	1472                	slli	s0,s0,0x3c
   200b4:	4781                	li	a5,0
   200b6:	a8b9                	j	0x20114
   200b8:	ed1d                	bnez	a0,0x200f6
   200ba:	4581                	li	a1,0
   200bc:	dc65                	beqz	s0,0x200b4
   200be:	8522                	mv	a0,s0
   200c0:	2ac000ef          	jal	ra,0x2036c
   200c4:	0005071b          	sext.w	a4,a0
   200c8:	47b9                	li	a5,14
   200ca:	02e7c063          	blt	a5,a4,0x200ea
   200ce:	45bd                	li	a1,15
   200d0:	9d89                	subw	a1,a1,a0
   200d2:	0315079b          	addiw	a5,a0,49
   200d6:	00b455b3          	srl	a1,s0,a1
   200da:	00f41433          	sll	s0,s0,a5
   200de:	6791                	lui	a5,0x4
   200e0:	c0c7879b          	addiw	a5,a5,-1012
   200e4:	40a7853b          	subw	a0,a5,a0
   200e8:	b7f1                	j	0x200b4
   200ea:	ff15059b          	addiw	a1,a0,-15
   200ee:	00b415b3          	sll	a1,s0,a1
   200f2:	4401                	li	s0,0
   200f4:	b7ed                	j	0x200de
   200f6:	cc15                	beqz	s0,0x20132
   200f8:	4705                	li	a4,1
   200fa:	03371793          	slli	a5,a4,0x33
   200fe:	8fe1                	and	a5,a5,s0
   20100:	00445593          	srli	a1,s0,0x4
   20104:	0017b793          	seqz	a5,a5
   20108:	173e                	slli	a4,a4,0x2f
   2010a:	6521                	lui	a0,0x8
   2010c:	0792                	slli	a5,a5,0x4
   2010e:	8dd9                	or	a1,a1,a4
   20110:	1472                	slli	s0,s0,0x3c
   20112:	157d                	addi	a0,a0,-1
   20114:	04be                	slli	s1,s1,0xf
   20116:	05c2                	slli	a1,a1,0x10
   20118:	8d45                	or	a0,a0,s1
   2011a:	1542                	slli	a0,a0,0x30
   2011c:	81c1                	srli	a1,a1,0x10
   2011e:	8dc9                	or	a1,a1,a0
   20120:	c399                	beqz	a5,0x20126
   20122:	0017a073          	csrs	fflags,a5
   20126:	60e2                	ld	ra,24(sp)
   20128:	8522                	mv	a0,s0
   2012a:	6442                	ld	s0,16(sp)
   2012c:	64a2                	ld	s1,8(sp)
   2012e:	6105                	addi	sp,sp,32
   20130:	8082                	ret
   20132:	6521                	lui	a0,0x8
   20134:	4581                	li	a1,0
   20136:	157d                	addi	a0,a0,-1
   20138:	bfb5                	j	0x200b4
   2013a:	00202873          	frrm	a6
   2013e:	68a1                	lui	a7,0x8
   20140:	fff88e13          	addi	t3,a7,-1 # 0x7fff
   20144:	01059713          	slli	a4,a1,0x10
   20148:	0305d613          	srli	a2,a1,0x30
   2014c:	00d75793          	srli	a5,a4,0xd
   20150:	01c67633          	and	a2,a2,t3
   20154:	03d55713          	srli	a4,a0,0x3d
   20158:	8f5d                	or	a4,a4,a5
   2015a:	18f9                	addi	a7,a7,-2
   2015c:	00160793          	addi	a5,a2,1
   20160:	0117f8b3          	and	a7,a5,a7
   20164:	2801                	sext.w	a6,a6
   20166:	03f5d693          	srli	a3,a1,0x3f
   2016a:	00351e93          	slli	t4,a0,0x3
   2016e:	16088f63          	beqz	a7,0x202ec
   20172:	78f1                	lui	a7,0xffffc
   20174:	40088893          	addi	a7,a7,1024 # 0xffffffffffffc400
   20178:	9646                	add	a2,a2,a7
   2017a:	7fe00793          	li	a5,2046
   2017e:	08c7de63          	bge	a5,a2,0x2021a
   20182:	04080363          	beqz	a6,0x201c8
   20186:	478d                	li	a5,3
   20188:	02f81c63          	bne	a6,a5,0x201c0
   2018c:	ce95                	beqz	a3,0x201c8
   2018e:	57fd                	li	a5,-1
   20190:	7fe00613          	li	a2,2046
   20194:	4701                	li	a4,0
   20196:	4315                	li	t1,5
   20198:	4589                	li	a1,2
   2019a:	00136313          	ori	t1,t1,1
   2019e:	1ab80263          	beq	a6,a1,0x20342
   201a2:	458d                	li	a1,3
   201a4:	18b80b63          	beq	a6,a1,0x2033a
   201a8:	00081863          	bnez	a6,0x201b8
   201ac:	00f7f513          	andi	a0,a5,15
   201b0:	4591                	li	a1,4
   201b2:	00b50363          	beq	a0,a1,0x201b8
   201b6:	0791                	addi	a5,a5,4
   201b8:	cf01                	beqz	a4,0x201d0
   201ba:	00236313          	ori	t1,t1,2
   201be:	a809                	j	0x201d0
   201c0:	4789                	li	a5,2
   201c2:	fcf816e3          	bne	a6,a5,0x2018e
   201c6:	d6e1                	beqz	a3,0x2018e
   201c8:	4781                	li	a5,0
   201ca:	7ff00613          	li	a2,2047
   201ce:	4315                	li	t1,5
   201d0:	00879713          	slli	a4,a5,0x8
   201d4:	00075b63          	bgez	a4,0x201ea
   201d8:	0605                	addi	a2,a2,1
   201da:	7ff00713          	li	a4,2047
   201de:	16e60563          	beq	a2,a4,0x20348
   201e2:	557d                	li	a0,-1
   201e4:	155e                	slli	a0,a0,0x37
   201e6:	157d                	addi	a0,a0,-1
   201e8:	8fe9                	and	a5,a5,a0
   201ea:	7ff00713          	li	a4,2047
   201ee:	838d                	srli	a5,a5,0x3
   201f0:	00e61663          	bne	a2,a4,0x201fc
   201f4:	c781                	beqz	a5,0x201fc
   201f6:	4785                	li	a5,1
   201f8:	17ce                	slli	a5,a5,0x33
   201fa:	4681                	li	a3,0
   201fc:	7ff67713          	andi	a4,a2,2047
   20200:	07b2                	slli	a5,a5,0xc
   20202:	1752                	slli	a4,a4,0x34
   20204:	83b1                	srli	a5,a5,0xc
   20206:	8fd9                	or	a5,a5,a4
   20208:	16fe                	slli	a3,a3,0x3f
   2020a:	8fd5                	or	a5,a5,a3
   2020c:	00030463          	beqz	t1,0x20214
   20210:	00132073          	csrs	fflags,t1
   20214:	f2078553          	fmv.d.x	fa0,a5
   20218:	8082                	ret
   2021a:	0ac04563          	bgtz	a2,0x202c4
   2021e:	fcc00793          	li	a5,-52
   20222:	10f64063          	blt	a2,a5,0x20322
   20226:	4785                	li	a5,1
   20228:	17ce                	slli	a5,a5,0x33
   2022a:	03d00e13          	li	t3,61
   2022e:	8f5d                	or	a4,a4,a5
   20230:	40ce0e33          	sub	t3,t3,a2
   20234:	03f00793          	li	a5,63
   20238:	0006089b          	sext.w	a7,a2
   2023c:	05c7cf63          	blt	a5,t3,0x2029a
   20240:	0038859b          	addiw	a1,a7,3
   20244:	03d00613          	li	a2,61
   20248:	4116063b          	subw	a2,a2,a7
   2024c:	00be97b3          	sll	a5,t4,a1
   20250:	00ced633          	srl	a2,t4,a2
   20254:	00f037b3          	snez	a5,a5
   20258:	8fd1                	or	a5,a5,a2
   2025a:	00b71733          	sll	a4,a4,a1
   2025e:	8fd9                	or	a5,a5,a4
   20260:	4601                	li	a2,0
   20262:	cbf1                	beqz	a5,0x20336
   20264:	00179713          	slli	a4,a5,0x1
   20268:	00777613          	andi	a2,a4,7
   2026c:	4301                	li	t1,0
   2026e:	c205                	beqz	a2,0x2028e
   20270:	4609                	li	a2,2
   20272:	0ac80d63          	beq	a6,a2,0x2032c
   20276:	460d                	li	a2,3
   20278:	4305                	li	t1,1
   2027a:	0ac80663          	beq	a6,a2,0x20326
   2027e:	00081863          	bnez	a6,0x2028e
   20282:	00f77613          	andi	a2,a4,15
   20286:	4591                	li	a1,4
   20288:	00b60363          	beq	a2,a1,0x2028e
   2028c:	0711                	addi	a4,a4,4
   2028e:	9361                	srli	a4,a4,0x38
   20290:	00174713          	xori	a4,a4,1
   20294:	8b05                	andi	a4,a4,1
   20296:	4601                	li	a2,0
   20298:	a089                	j	0x202da
   2029a:	5375                	li	t1,-3
   2029c:	4113033b          	subw	t1,t1,a7
   202a0:	04000793          	li	a5,64
   202a4:	00675333          	srl	t1,a4,t1
   202a8:	4581                	li	a1,0
   202aa:	00fe0663          	beq	t3,a5,0x202b6
   202ae:	0438861b          	addiw	a2,a7,67
   202b2:	00c715b3          	sll	a1,a4,a2
   202b6:	01d5e5b3          	or	a1,a1,t4
   202ba:	00b035b3          	snez	a1,a1
   202be:	00b367b3          	or	a5,t1,a1
   202c2:	bf79                	j	0x20260
   202c4:	00751793          	slli	a5,a0,0x7
   202c8:	00f037b3          	snez	a5,a5
   202cc:	03ced593          	srli	a1,t4,0x3c
   202d0:	0712                	slli	a4,a4,0x4
   202d2:	8fcd                	or	a5,a5,a1
   202d4:	8fd9                	or	a5,a5,a4
   202d6:	4301                	li	t1,0
   202d8:	4701                	li	a4,0
   202da:	0077f593          	andi	a1,a5,7
   202de:	ea059de3          	bnez	a1,0x20198
   202e2:	ee0707e3          	beqz	a4,0x201d0
   202e6:	00137713          	andi	a4,t1,1
   202ea:	b5f9                	j	0x201b8
   202ec:	01d767b3          	or	a5,a4,t4
   202f0:	e601                	bnez	a2,0x202f8
   202f2:	00f037b3          	snez	a5,a5
   202f6:	b7ad                	j	0x20260
   202f8:	cf8d                	beqz	a5,0x20332
   202fa:	4301                	li	t1,0
   202fc:	01c61763          	bne	a2,t3,0x2030a
   20300:	03275313          	srli	t1,a4,0x32
   20304:	00133313          	seqz	t1,t1
   20308:	0312                	slli	t1,t1,0x4
   2030a:	03ced793          	srli	a5,t4,0x3c
   2030e:	0712                	slli	a4,a4,0x4
   20310:	8f5d                	or	a4,a4,a5
   20312:	4785                	li	a5,1
   20314:	9b61                	andi	a4,a4,-8
   20316:	17da                	slli	a5,a5,0x36
   20318:	8fd9                	or	a5,a5,a4
   2031a:	7ff00613          	li	a2,2047
   2031e:	4701                	li	a4,0
   20320:	bf6d                	j	0x202da
   20322:	4785                	li	a5,1
   20324:	b781                	j	0x20264
   20326:	f6a5                	bnez	a3,0x2028e
   20328:	0721                	addi	a4,a4,8
   2032a:	b795                	j	0x2028e
   2032c:	4305                	li	t1,1
   2032e:	d2a5                	beqz	a3,0x2028e
   20330:	bfe5                	j	0x20328
   20332:	7ff00613          	li	a2,2047
   20336:	4301                	li	t1,0
   20338:	bd61                	j	0x201d0
   2033a:	e6069fe3          	bnez	a3,0x201b8
   2033e:	07a1                	addi	a5,a5,8
   20340:	bda5                	j	0x201b8
   20342:	e6068be3          	beqz	a3,0x201b8
   20346:	bfe5                	j	0x2033e
   20348:	4781                	li	a5,0
   2034a:	00080e63          	beqz	a6,0x20366
   2034e:	470d                	li	a4,3
   20350:	00e81763          	bne	a6,a4,0x2035e
   20354:	ca89                	beqz	a3,0x20366
   20356:	57fd                	li	a5,-1
   20358:	7fe00613          	li	a2,2046
   2035c:	a029                	j	0x20366
   2035e:	4709                	li	a4,2
   20360:	fee81be3          	bne	a6,a4,0x20356
   20364:	daed                	beqz	a3,0x20356
   20366:	00536313          	ori	t1,t1,5
   2036a:	b541                	j	0x201ea
   2036c:	03800793          	li	a5,56
   20370:	00f55733          	srl	a4,a0,a5
   20374:	0ff77713          	andi	a4,a4,255
   20378:	e319                	bnez	a4,0x2037e
   2037a:	17e1                	addi	a5,a5,-8
   2037c:	fbf5                	bnez	a5,0x20370
   2037e:	04000713          	li	a4,64
   20382:	8f1d                	sub	a4,a4,a5
   20384:	00f55533          	srl	a0,a0,a5
   20388:	00001797          	auipc	a5,0x1
   2038c:	65878793          	addi	a5,a5,1624 # 0x219e0
   20390:	953e                	add	a0,a0,a5
   20392:	00054503          	lbu	a0,0(a0) # 0x8000
   20396:	40a7053b          	subw	a0,a4,a0
   2039a:	8082                	ret
