
gemm:     file format elf64-littleriscv


Disassembly of section .text:

00000000000100b0 <main>:
   100b0:	7179                	addi	sp,sp,-48
   100b2:	f022                	sd	s0,32(sp)
   100b4:	842a                	mv	s0,a0
   100b6:	00020537          	lui	a0,0x20
   100ba:	83050513          	addi	a0,a0,-2000 # 1f830 <__func__.4166+0x48>
   100be:	ec26                	sd	s1,24(sp)
   100c0:	f406                	sd	ra,40(sp)
   100c2:	e84a                	sd	s2,16(sp)
   100c4:	e44e                	sd	s3,8(sp)
   100c6:	e052                	sd	s4,0(sp)
   100c8:	84ae                	mv	s1,a1
   100ca:	693010ef          	jal	ra,11f5c <puts>
   100ce:	4791                	li	a5,4
   100d0:	1287c263          	blt	a5,s0,101f4 <main+0x144>
   100d4:	4785                	li	a5,1
   100d6:	0e87da63          	bge	a5,s0,101ca <main+0x11a>
   100da:	0084ba03          	ld	s4,8(s1)
   100de:	4789                	li	a5,2
   100e0:	0e87c263          	blt	a5,s0,101c4 <main+0x114>
   100e4:	000209b7          	lui	s3,0x20
   100e8:	81098993          	addi	s3,s3,-2032 # 1f810 <__func__.4166+0x28>
   100ec:	4791                	li	a5,4
   100ee:	0ef40363          	beq	s0,a5,101d4 <main+0x124>
   100f2:	000204b7          	lui	s1,0x20
   100f6:	82048493          	addi	s1,s1,-2016 # 1f820 <__func__.4166+0x38>
   100fa:	7481a503          	lw	a0,1864(gp) # 22b78 <INPUT_SIZE>
   100fe:	61a010ef          	jal	ra,11718 <malloc>
   10102:	842a                	mv	s0,a0
   10104:	10050563          	beqz	a0,1020e <main+0x15e>
   10108:	4581                	li	a1,0
   1010a:	8552                	mv	a0,s4
   1010c:	0c2030ef          	jal	ra,131ce <open>
   10110:	10a05d63          	blez	a0,1022a <main+0x17a>
   10114:	85a2                	mv	a1,s0
   10116:	298000ef          	jal	ra,103ae <input_to_data>
   1011a:	00020537          	lui	a0,0x20
   1011e:	8f050513          	addi	a0,a0,-1808 # 1f8f0 <__func__.4166+0x108>
   10122:	63b010ef          	jal	ra,11f5c <puts>
   10126:	8522                	mv	a0,s0
   10128:	27a000ef          	jal	ra,103a2 <run_benchmark>
   1012c:	00020537          	lui	a0,0x20
   10130:	91850513          	addi	a0,a0,-1768 # 1f918 <__func__.4166+0x130>
   10134:	629010ef          	jal	ra,11f5c <puts>
   10138:	8526                	mv	a0,s1
   1013a:	1b600613          	li	a2,438
   1013e:	60100593          	li	a1,1537
   10142:	08c030ef          	jal	ra,131ce <open>
   10146:	84aa                	mv	s1,a0
   10148:	0ea05f63          	blez	a0,10246 <main+0x196>
   1014c:	85a2                	mv	a1,s0
   1014e:	30e000ef          	jal	ra,1045c <data_to_output>
   10152:	8526                	mv	a0,s1
   10154:	064030ef          	jal	ra,131b8 <close>
   10158:	00020537          	lui	a0,0x20
   1015c:	96050513          	addi	a0,a0,-1696 # 1f960 <__func__.4166+0x178>
   10160:	5fd010ef          	jal	ra,11f5c <puts>
   10164:	7481a503          	lw	a0,1864(gp) # 22b78 <INPUT_SIZE>
   10168:	5b0010ef          	jal	ra,11718 <malloc>
   1016c:	84aa                	mv	s1,a0
   1016e:	0e050a63          	beqz	a0,10262 <main+0x1b2>
   10172:	4581                	li	a1,0
   10174:	854e                	mv	a0,s3
   10176:	058030ef          	jal	ra,131ce <open>
   1017a:	10a05263          	blez	a0,1027e <main+0x1ce>
   1017e:	85a6                	mv	a1,s1
   10180:	2ae000ef          	jal	ra,1042e <output_to_data>
   10184:	00020537          	lui	a0,0x20
   10188:	9c850513          	addi	a0,a0,-1592 # 1f9c8 <__func__.4166+0x1e0>
   1018c:	5d1010ef          	jal	ra,11f5c <puts>
   10190:	85a6                	mv	a1,s1
   10192:	8522                	mv	a0,s0
   10194:	2ec000ef          	jal	ra,10480 <check_data>
   10198:	c121                	beqz	a0,101d8 <main+0x128>
   1019a:	8522                	mv	a0,s0
   1019c:	584010ef          	jal	ra,11720 <free>
   101a0:	8526                	mv	a0,s1
   101a2:	57e010ef          	jal	ra,11720 <free>
   101a6:	00020537          	lui	a0,0x20
   101aa:	a0850513          	addi	a0,a0,-1528 # 1fa08 <__func__.4166+0x220>
   101ae:	5af010ef          	jal	ra,11f5c <puts>
   101b2:	4501                	li	a0,0
   101b4:	70a2                	ld	ra,40(sp)
   101b6:	7402                	ld	s0,32(sp)
   101b8:	64e2                	ld	s1,24(sp)
   101ba:	6942                	ld	s2,16(sp)
   101bc:	69a2                	ld	s3,8(sp)
   101be:	6a02                	ld	s4,0(sp)
   101c0:	6145                	addi	sp,sp,48
   101c2:	8082                	ret
   101c4:	0104b983          	ld	s3,16(s1)
   101c8:	b715                	j	100ec <main+0x3c>
   101ca:	00020a37          	lui	s4,0x20
   101ce:	800a0a13          	addi	s4,s4,-2048 # 1f800 <__func__.4166+0x18>
   101d2:	b731                	j	100de <main+0x2e>
   101d4:	6c84                	ld	s1,24(s1)
   101d6:	b715                	j	100fa <main+0x4a>
   101d8:	7501b783          	ld	a5,1872(gp) # 22b80 <_impure_ptr>
   101dc:	00020537          	lui	a0,0x20
   101e0:	02000613          	li	a2,32
   101e4:	6f94                	ld	a3,24(a5)
   101e6:	4585                	li	a1,1
   101e8:	9e050513          	addi	a0,a0,-1568 # 1f9e0 <__func__.4166+0x1f8>
   101ec:	4b4010ef          	jal	ra,116a0 <fwrite>
   101f0:	557d                	li	a0,-1
   101f2:	b7c9                	j	101b4 <main+0x104>
   101f4:	000206b7          	lui	a3,0x20
   101f8:	00020537          	lui	a0,0x20
   101fc:	84068693          	addi	a3,a3,-1984 # 1f840 <__func__.4166+0x58>
   10200:	73018613          	addi	a2,gp,1840 # 22b60 <__func__.3878>
   10204:	45dd                	li	a1,23
   10206:	88850513          	addi	a0,a0,-1912 # 1f888 <__func__.4166+0xa0>
   1020a:	31c010ef          	jal	ra,11526 <__assert_func>
   1020e:	000206b7          	lui	a3,0x20
   10212:	00020537          	lui	a0,0x20
   10216:	8a068693          	addi	a3,a3,-1888 # 1f8a0 <__func__.4166+0xb8>
   1021a:	73018613          	addi	a2,gp,1840 # 22b60 <__func__.3878>
   1021e:	02a00593          	li	a1,42
   10222:	88850513          	addi	a0,a0,-1912 # 1f888 <__func__.4166+0xa0>
   10226:	300010ef          	jal	ra,11526 <__assert_func>
   1022a:	000206b7          	lui	a3,0x20
   1022e:	00020537          	lui	a0,0x20
   10232:	8c068693          	addi	a3,a3,-1856 # 1f8c0 <__func__.4166+0xd8>
   10236:	73018613          	addi	a2,gp,1840 # 22b60 <__func__.3878>
   1023a:	02c00593          	li	a1,44
   1023e:	88850513          	addi	a0,a0,-1912 # 1f888 <__func__.4166+0xa0>
   10242:	2e4010ef          	jal	ra,11526 <__assert_func>
   10246:	000206b7          	lui	a3,0x20
   1024a:	00020537          	lui	a0,0x20
   1024e:	93068693          	addi	a3,a3,-1744 # 1f930 <__func__.4166+0x148>
   10252:	73018613          	addi	a2,gp,1840 # 22b60 <__func__.3878>
   10256:	03800593          	li	a1,56
   1025a:	88850513          	addi	a0,a0,-1912 # 1f888 <__func__.4166+0xa0>
   1025e:	2c8010ef          	jal	ra,11526 <__assert_func>
   10262:	000206b7          	lui	a3,0x20
   10266:	00020537          	lui	a0,0x20
   1026a:	97868693          	addi	a3,a3,-1672 # 1f978 <__func__.4166+0x190>
   1026e:	73018613          	addi	a2,gp,1840 # 22b60 <__func__.3878>
   10272:	04300593          	li	a1,67
   10276:	88850513          	addi	a0,a0,-1912 # 1f888 <__func__.4166+0xa0>
   1027a:	2ac010ef          	jal	ra,11526 <__assert_func>
   1027e:	000206b7          	lui	a3,0x20
   10282:	00020537          	lui	a0,0x20
   10286:	99868693          	addi	a3,a3,-1640 # 1f998 <__func__.4166+0x1b0>
   1028a:	73018613          	addi	a2,gp,1840 # 22b60 <__func__.3878>
   1028e:	04500593          	li	a1,69
   10292:	88850513          	addi	a0,a0,-1912 # 1f888 <__func__.4166+0xa0>
   10296:	290010ef          	jal	ra,11526 <__assert_func>

000000000001029a <register_fini>:
   1029a:	ffff0797          	auipc	a5,0xffff0
   1029e:	d6678793          	addi	a5,a5,-666 # 0 <main-0x100b0>
   102a2:	c799                	beqz	a5,102b0 <register_fini+0x16>
   102a4:	00006517          	auipc	a0,0x6
   102a8:	0d850513          	addi	a0,a0,216 # 1637c <__libc_fini_array>
   102ac:	3a10c06f          	j	1ce4c <atexit>
   102b0:	8082                	ret

00000000000102b2 <_start>:
   102b2:	00012197          	auipc	gp,0x12
   102b6:	17e18193          	addi	gp,gp,382 # 22430 <__global_pointer$>
   102ba:	76a18513          	addi	a0,gp,1898 # 22b9a <_edata>
   102be:	00013617          	auipc	a2,0x13
   102c2:	97260613          	addi	a2,a2,-1678 # 22c30 <__BSS_END__>
   102c6:	8e09                	sub	a2,a2,a0
   102c8:	4581                	li	a1,0
   102ca:	365010ef          	jal	ra,11e2e <memset>
   102ce:	0000d517          	auipc	a0,0xd
   102d2:	b7e50513          	addi	a0,a0,-1154 # 1ce4c <atexit>
   102d6:	c519                	beqz	a0,102e4 <_start+0x32>
   102d8:	00006517          	auipc	a0,0x6
   102dc:	0a450513          	addi	a0,a0,164 # 1637c <__libc_fini_array>
   102e0:	36d0c0ef          	jal	ra,1ce4c <atexit>
   102e4:	3ca010ef          	jal	ra,116ae <__libc_init_array>
   102e8:	4502                	lw	a0,0(sp)
   102ea:	002c                	addi	a1,sp,8
   102ec:	4601                	li	a2,0
   102ee:	dc3ff0ef          	jal	ra,100b0 <main>
   102f2:	2800106f          	j	11572 <exit>

00000000000102f6 <__do_global_dtors_aux>:
   102f6:	79818793          	addi	a5,gp,1944 # 22bc8 <completed.5527>
   102fa:	0007c703          	lbu	a4,0(a5)
   102fe:	eb0d                	bnez	a4,10330 <__do_global_dtors_aux+0x3a>
   10300:	1141                	addi	sp,sp,-16
   10302:	e022                	sd	s0,0(sp)
   10304:	e406                	sd	ra,8(sp)
   10306:	843e                	mv	s0,a5
   10308:	ffff0797          	auipc	a5,0xffff0
   1030c:	cf878793          	addi	a5,a5,-776 # 0 <main-0x100b0>
   10310:	cb89                	beqz	a5,10322 <__do_global_dtors_aux+0x2c>
   10312:	00011517          	auipc	a0,0x11
   10316:	69e50513          	addi	a0,a0,1694 # 219b0 <__FRAME_END__>
   1031a:	00000097          	auipc	ra,0x0
   1031e:	000000e7          	jalr	zero # 0 <main-0x100b0>
   10322:	4785                	li	a5,1
   10324:	60a2                	ld	ra,8(sp)
   10326:	00f40023          	sb	a5,0(s0)
   1032a:	6402                	ld	s0,0(sp)
   1032c:	0141                	addi	sp,sp,16
   1032e:	8082                	ret
   10330:	8082                	ret

0000000000010332 <frame_dummy>:
   10332:	ffff0797          	auipc	a5,0xffff0
   10336:	cce78793          	addi	a5,a5,-818 # 0 <main-0x100b0>
   1033a:	cb99                	beqz	a5,10350 <frame_dummy+0x1e>
   1033c:	7a018593          	addi	a1,gp,1952 # 22bd0 <object.5532>
   10340:	00011517          	auipc	a0,0x11
   10344:	67050513          	addi	a0,a0,1648 # 219b0 <__FRAME_END__>
   10348:	00000317          	auipc	t1,0x0
   1034c:	00000067          	jr	zero # 0 <main-0x100b0>
   10350:	8082                	ret

0000000000010352 <gemm>:
   10352:	6e21                	lui	t3,0x8
   10354:	882a                	mv	a6,a0
   10356:	8eae                	mv	t4,a1
   10358:	20050693          	addi	a3,a0,512
   1035c:	8332                	mv	t1,a2
   1035e:	9e2a                	add	t3,t3,a0
   10360:	04000893          	li	a7,64
   10364:	8576                	mv	a0,t4
   10366:	859a                	mv	a1,t1
   10368:	4601                	li	a2,0
   1036a:	f20007d3          	fmv.d.x	fa5,zero
   1036e:	872a                	mv	a4,a0
   10370:	87c2                	mv	a5,a6
   10372:	2394                	fld	fa3,0(a5)
   10374:	2318                	fld	fa4,0(a4)
   10376:	07a1                	addi	a5,a5,8
   10378:	20070713          	addi	a4,a4,512
   1037c:	7ae6f7c3          	fmadd.d	fa5,fa3,fa4,fa5
   10380:	fef699e3          	bne	a3,a5,10372 <gemm+0x20>
   10384:	a19c                	fsd	fa5,0(a1)
   10386:	2605                	addiw	a2,a2,1
   10388:	05a1                	addi	a1,a1,8
   1038a:	0521                	addi	a0,a0,8
   1038c:	fd161fe3          	bne	a2,a7,1036a <gemm+0x18>
   10390:	20080813          	addi	a6,a6,512
   10394:	20068693          	addi	a3,a3,512
   10398:	20030313          	addi	t1,t1,512 # 10548 <fd_printf+0x5e>
   1039c:	fd0e14e3          	bne	t3,a6,10364 <gemm+0x12>
   103a0:	8082                	ret

00000000000103a2 <run_benchmark>:
   103a2:	6641                	lui	a2,0x10
   103a4:	67a1                	lui	a5,0x8
   103a6:	962a                	add	a2,a2,a0
   103a8:	00f505b3          	add	a1,a0,a5
   103ac:	b75d                	j	10352 <gemm>

00000000000103ae <input_to_data>:
   103ae:	1101                	addi	sp,sp,-32
   103b0:	e822                	sd	s0,16(sp)
   103b2:	842e                	mv	s0,a1
   103b4:	e426                	sd	s1,8(sp)
   103b6:	6661                	lui	a2,0x18
   103b8:	4581                	li	a1,0
   103ba:	84aa                	mv	s1,a0
   103bc:	8522                	mv	a0,s0
   103be:	ec06                	sd	ra,24(sp)
   103c0:	26f010ef          	jal	ra,11e2e <memset>
   103c4:	8526                	mv	a0,s1
   103c6:	1ee000ef          	jal	ra,105b4 <readfile>
   103ca:	4585                	li	a1,1
   103cc:	84aa                	mv	s1,a0
   103ce:	2c8000ef          	jal	ra,10696 <find_section_start>
   103d2:	6605                	lui	a2,0x1
   103d4:	85a2                	mv	a1,s0
   103d6:	30f000ef          	jal	ra,10ee4 <parse_double_array>
   103da:	4589                	li	a1,2
   103dc:	8526                	mv	a0,s1
   103de:	2b8000ef          	jal	ra,10696 <find_section_start>
   103e2:	65a1                	lui	a1,0x8
   103e4:	95a2                	add	a1,a1,s0
   103e6:	6605                	lui	a2,0x1
   103e8:	2fd000ef          	jal	ra,10ee4 <parse_double_array>
   103ec:	6442                	ld	s0,16(sp)
   103ee:	60e2                	ld	ra,24(sp)
   103f0:	8526                	mv	a0,s1
   103f2:	64a2                	ld	s1,8(sp)
   103f4:	6105                	addi	sp,sp,32
   103f6:	32a0106f          	j	11720 <free>

00000000000103fa <data_to_input>:
   103fa:	1101                	addi	sp,sp,-32
   103fc:	ec06                	sd	ra,24(sp)
   103fe:	e822                	sd	s0,16(sp)
   10400:	e426                	sd	s1,8(sp)
   10402:	842a                	mv	s0,a0
   10404:	84ae                	mv	s1,a1
   10406:	0e2010ef          	jal	ra,114e8 <write_section_header>
   1040a:	85a6                	mv	a1,s1
   1040c:	6605                	lui	a2,0x1
   1040e:	8522                	mv	a0,s0
   10410:	06a010ef          	jal	ra,1147a <write_double_array>
   10414:	8522                	mv	a0,s0
   10416:	0d2010ef          	jal	ra,114e8 <write_section_header>
   1041a:	65a1                	lui	a1,0x8
   1041c:	8522                	mv	a0,s0
   1041e:	6442                	ld	s0,16(sp)
   10420:	60e2                	ld	ra,24(sp)
   10422:	95a6                	add	a1,a1,s1
   10424:	64a2                	ld	s1,8(sp)
   10426:	6605                	lui	a2,0x1
   10428:	6105                	addi	sp,sp,32
   1042a:	0500106f          	j	1147a <write_double_array>

000000000001042e <output_to_data>:
   1042e:	1101                	addi	sp,sp,-32
   10430:	ec06                	sd	ra,24(sp)
   10432:	e822                	sd	s0,16(sp)
   10434:	e426                	sd	s1,8(sp)
   10436:	84ae                	mv	s1,a1
   10438:	17c000ef          	jal	ra,105b4 <readfile>
   1043c:	4585                	li	a1,1
   1043e:	842a                	mv	s0,a0
   10440:	256000ef          	jal	ra,10696 <find_section_start>
   10444:	65c1                	lui	a1,0x10
   10446:	95a6                	add	a1,a1,s1
   10448:	6605                	lui	a2,0x1
   1044a:	29b000ef          	jal	ra,10ee4 <parse_double_array>
   1044e:	8522                	mv	a0,s0
   10450:	6442                	ld	s0,16(sp)
   10452:	60e2                	ld	ra,24(sp)
   10454:	64a2                	ld	s1,8(sp)
   10456:	6105                	addi	sp,sp,32
   10458:	2c80106f          	j	11720 <free>

000000000001045c <data_to_output>:
   1045c:	1101                	addi	sp,sp,-32
   1045e:	e822                	sd	s0,16(sp)
   10460:	e426                	sd	s1,8(sp)
   10462:	ec06                	sd	ra,24(sp)
   10464:	84ae                	mv	s1,a1
   10466:	842a                	mv	s0,a0
   10468:	080010ef          	jal	ra,114e8 <write_section_header>
   1046c:	65c1                	lui	a1,0x10
   1046e:	8522                	mv	a0,s0
   10470:	6442                	ld	s0,16(sp)
   10472:	60e2                	ld	ra,24(sp)
   10474:	95a6                	add	a1,a1,s1
   10476:	64a2                	ld	s1,8(sp)
   10478:	6605                	lui	a2,0x1
   1047a:	6105                	addi	sp,sp,32
   1047c:	7ff0006f          	j	1147a <write_double_array>

0000000000010480 <check_data>:
   10480:	67c1                	lui	a5,0x10
   10482:	6a01b687          	fld	fa3,1696(gp) # 22ad0 <__SDATA_BEGIN__>
   10486:	20078613          	addi	a2,a5,512 # 10200 <main+0x150>
   1048a:	95be                	add	a1,a1,a5
   1048c:	6a81b607          	fld	fa2,1704(gp) # 22ad8 <__SDATA_BEGIN__+0x8>
   10490:	67e1                	lui	a5,0x18
   10492:	20078793          	addi	a5,a5,512 # 18200 <emul+0x2be>
   10496:	962a                	add	a2,a2,a0
   10498:	00f50833          	add	a6,a0,a5
   1049c:	4501                	li	a0,0
   1049e:	e0060713          	addi	a4,a2,-512 # e00 <main-0xf2b0>
   104a2:	86ae                	mv	a3,a1
   104a4:	231c                	fld	fa5,0(a4)
   104a6:	2298                	fld	fa4,0(a3)
   104a8:	0ae7f7d3          	fsub.d	fa5,fa5,fa4
   104ac:	a2d797d3          	flt.d	a5,fa5,fa3
   104b0:	e38d                	bnez	a5,104d2 <check_data+0x52>
   104b2:	a2f617d3          	flt.d	a5,fa2,fa5
   104b6:	0721                	addi	a4,a4,8
   104b8:	06a1                	addi	a3,a3,8
   104ba:	8d5d                	or	a0,a0,a5
   104bc:	fee614e3          	bne	a2,a4,104a4 <check_data+0x24>
   104c0:	20060613          	addi	a2,a2,512
   104c4:	20058593          	addi	a1,a1,512 # 10200 <main+0x150>
   104c8:	fcc81be3          	bne	a6,a2,1049e <check_data+0x1e>
   104cc:	00154513          	xori	a0,a0,1
   104d0:	8082                	ret
   104d2:	0721                	addi	a4,a4,8
   104d4:	06a1                	addi	a3,a3,8
   104d6:	4505                	li	a0,1
   104d8:	fce616e3          	bne	a2,a4,104a4 <check_data+0x24>
   104dc:	20060613          	addi	a2,a2,512
   104e0:	20058593          	addi	a1,a1,512
   104e4:	fac81de3          	bne	a6,a2,1049e <check_data+0x1e>
   104e8:	b7d5                	j	104cc <check_data+0x4c>

00000000000104ea <fd_printf>:
   104ea:	710d                	addi	sp,sp,-352
   104ec:	13010313          	addi	t1,sp,304
   104f0:	ea4a                	sd	s2,272(sp)
   104f2:	fa32                	sd	a2,304(sp)
   104f4:	fe36                	sd	a3,312(sp)
   104f6:	862e                	mv	a2,a1
   104f8:	892a                	mv	s2,a0
   104fa:	869a                	mv	a3,t1
   104fc:	10000593          	li	a1,256
   10500:	0808                	addi	a0,sp,16
   10502:	e6be                	sd	a5,328(sp)
   10504:	f606                	sd	ra,296(sp)
   10506:	f222                	sd	s0,288(sp)
   10508:	ee26                	sd	s1,280(sp)
   1050a:	e2ba                	sd	a4,320(sp)
   1050c:	eac2                	sd	a6,336(sp)
   1050e:	eec6                	sd	a7,344(sp)
   10510:	e41a                	sd	t1,8(sp)
   10512:	7c4050ef          	jal	ra,15cd6 <vsnprintf>
   10516:	0ff00793          	li	a5,255
   1051a:	04a7cf63          	blt	a5,a0,10578 <fd_printf+0x8e>
   1051e:	84aa                	mv	s1,a0
   10520:	4401                	li	s0,0
   10522:	02a05363          	blez	a0,10548 <fd_printf+0x5e>
   10526:	081c                	addi	a5,sp,16
   10528:	008785b3          	add	a1,a5,s0
   1052c:	4084863b          	subw	a2,s1,s0
   10530:	854a                	mv	a0,s2
   10532:	4d5020ef          	jal	ra,13206 <write>
   10536:	02051713          	slli	a4,a0,0x20
   1053a:	0005079b          	sext.w	a5,a0
   1053e:	00074e63          	bltz	a4,1055a <fd_printf+0x70>
   10542:	9c3d                	addw	s0,s0,a5
   10544:	fe9441e3          	blt	s0,s1,10526 <fd_printf+0x3c>
   10548:	04849763          	bne	s1,s0,10596 <fd_printf+0xac>
   1054c:	70b2                	ld	ra,296(sp)
   1054e:	7412                	ld	s0,288(sp)
   10550:	6952                	ld	s2,272(sp)
   10552:	8526                	mv	a0,s1
   10554:	64f2                	ld	s1,280(sp)
   10556:	6135                	addi	sp,sp,352
   10558:	8082                	ret
   1055a:	0001f6b7          	lui	a3,0x1f
   1055e:	0001f637          	lui	a2,0x1f
   10562:	0001f537          	lui	a0,0x1f
   10566:	3e868693          	addi	a3,a3,1000 # 1f3e8 <__clzdi2+0xaa>
   1056a:	5b060613          	addi	a2,a2,1456 # 1f5b0 <__func__.3885>
   1056e:	45e9                	li	a1,26
   10570:	3d050513          	addi	a0,a0,976 # 1f3d0 <__clzdi2+0x92>
   10574:	7b3000ef          	jal	ra,11526 <__assert_func>
   10578:	0001f6b7          	lui	a3,0x1f
   1057c:	0001f637          	lui	a2,0x1f
   10580:	0001f537          	lui	a0,0x1f
   10584:	37068693          	addi	a3,a3,880 # 1f370 <__clzdi2+0x32>
   10588:	5b060613          	addi	a2,a2,1456 # 1f5b0 <__func__.3885>
   1058c:	45d9                	li	a1,22
   1058e:	3d050513          	addi	a0,a0,976 # 1f3d0 <__clzdi2+0x92>
   10592:	795000ef          	jal	ra,11526 <__assert_func>
   10596:	0001f6b7          	lui	a3,0x1f
   1059a:	0001f637          	lui	a2,0x1f
   1059e:	0001f537          	lui	a0,0x1f
   105a2:	40868693          	addi	a3,a3,1032 # 1f408 <__clzdi2+0xca>
   105a6:	5b060613          	addi	a2,a2,1456 # 1f5b0 <__func__.3885>
   105aa:	45f5                	li	a1,29
   105ac:	3d050513          	addi	a0,a0,976 # 1f3d0 <__clzdi2+0x92>
   105b0:	777000ef          	jal	ra,11526 <__assert_func>

00000000000105b4 <readfile>:
   105b4:	7135                	addi	sp,sp,-160
   105b6:	ed06                	sd	ra,152(sp)
   105b8:	e922                	sd	s0,144(sp)
   105ba:	e526                	sd	s1,136(sp)
   105bc:	e14a                	sd	s2,128(sp)
   105be:	fcce                	sd	s3,120(sp)
   105c0:	4785                	li	a5,1
   105c2:	0aa7da63          	bge	a5,a0,10676 <readfile+0xc2>
   105c6:	002c                	addi	a1,sp,8
   105c8:	89aa                	mv	s3,a0
   105ca:	3f9020ef          	jal	ra,131c2 <fstat>
   105ce:	e541                	bnez	a0,10656 <readfile+0xa2>
   105d0:	64e2                	ld	s1,24(sp)
   105d2:	06905263          	blez	s1,10636 <readfile+0x82>
   105d6:	00148513          	addi	a0,s1,1
   105da:	13e010ef          	jal	ra,11718 <malloc>
   105de:	892a                	mv	s2,a0
   105e0:	4401                	li	s0,0
   105e2:	40848633          	sub	a2,s1,s0
   105e6:	008905b3          	add	a1,s2,s0
   105ea:	854e                	mv	a0,s3
   105ec:	40d020ef          	jal	ra,131f8 <read>
   105f0:	02054363          	bltz	a0,10616 <readfile+0x62>
   105f4:	942a                	add	s0,s0,a0
   105f6:	fe9446e3          	blt	s0,s1,105e2 <readfile+0x2e>
   105fa:	94ca                	add	s1,s1,s2
   105fc:	854e                	mv	a0,s3
   105fe:	00048023          	sb	zero,0(s1)
   10602:	3b7020ef          	jal	ra,131b8 <close>
   10606:	60ea                	ld	ra,152(sp)
   10608:	644a                	ld	s0,144(sp)
   1060a:	64aa                	ld	s1,136(sp)
   1060c:	79e6                	ld	s3,120(sp)
   1060e:	854a                	mv	a0,s2
   10610:	690a                	ld	s2,128(sp)
   10612:	610d                	addi	sp,sp,160
   10614:	8082                	ret
   10616:	0001f6b7          	lui	a3,0x1f
   1061a:	0001f637          	lui	a2,0x1f
   1061e:	0001f537          	lui	a0,0x1f
   10622:	4c068693          	addi	a3,a3,1216 # 1f4c0 <__clzdi2+0x182>
   10626:	5c060613          	addi	a2,a2,1472 # 1f5c0 <__func__.3897>
   1062a:	03000593          	li	a1,48
   1062e:	3d050513          	addi	a0,a0,976 # 1f3d0 <__clzdi2+0x92>
   10632:	6f5000ef          	jal	ra,11526 <__assert_func>
   10636:	0001f6b7          	lui	a3,0x1f
   1063a:	0001f637          	lui	a2,0x1f
   1063e:	0001f537          	lui	a0,0x1f
   10642:	4a068693          	addi	a3,a3,1184 # 1f4a0 <__clzdi2+0x162>
   10646:	5c060613          	addi	a2,a2,1472 # 1f5c0 <__func__.3897>
   1064a:	02b00593          	li	a1,43
   1064e:	3d050513          	addi	a0,a0,976 # 1f3d0 <__clzdi2+0x92>
   10652:	6d5000ef          	jal	ra,11526 <__assert_func>
   10656:	0001f6b7          	lui	a3,0x1f
   1065a:	0001f637          	lui	a2,0x1f
   1065e:	0001f537          	lui	a0,0x1f
   10662:	46868693          	addi	a3,a3,1128 # 1f468 <__clzdi2+0x12a>
   10666:	5c060613          	addi	a2,a2,1472 # 1f5c0 <__func__.3897>
   1066a:	02900593          	li	a1,41
   1066e:	3d050513          	addi	a0,a0,976 # 1f3d0 <__clzdi2+0x92>
   10672:	6b5000ef          	jal	ra,11526 <__assert_func>
   10676:	0001f6b7          	lui	a3,0x1f
   1067a:	0001f637          	lui	a2,0x1f
   1067e:	0001f537          	lui	a0,0x1f
   10682:	44068693          	addi	a3,a3,1088 # 1f440 <__clzdi2+0x102>
   10686:	5c060613          	addi	a2,a2,1472 # 1f5c0 <__func__.3897>
   1068a:	02800593          	li	a1,40
   1068e:	3d050513          	addi	a0,a0,976 # 1f3d0 <__clzdi2+0x92>
   10692:	695000ef          	jal	ra,11526 <__assert_func>

0000000000010696 <find_section_start>:
   10696:	0405c663          	bltz	a1,106e2 <find_section_start+0x4c>
   1069a:	87aa                	mv	a5,a0
   1069c:	c1a1                	beqz	a1,106dc <find_section_start+0x46>
   1069e:	4801                	li	a6,0
   106a0:	02500693          	li	a3,37
   106a4:	48a9                	li	a7,10
   106a6:	a031                	j	106b2 <find_section_start+0x1c>
   106a8:	00178513          	addi	a0,a5,1
   106ac:	02b85563          	bge	a6,a1,106d6 <find_section_start+0x40>
   106b0:	87aa                	mv	a5,a0
   106b2:	0007c703          	lbu	a4,0(a5)
   106b6:	c705                	beqz	a4,106de <find_section_start+0x48>
   106b8:	0017c603          	lbu	a2,1(a5)
   106bc:	fed716e3          	bne	a4,a3,106a8 <find_section_start+0x12>
   106c0:	fed614e3          	bne	a2,a3,106a8 <find_section_start+0x12>
   106c4:	0027c703          	lbu	a4,2(a5)
   106c8:	ff1710e3          	bne	a4,a7,106a8 <find_section_start+0x12>
   106cc:	2805                	addiw	a6,a6,1
   106ce:	00178513          	addi	a0,a5,1
   106d2:	fcb84fe3          	blt	a6,a1,106b0 <find_section_start+0x1a>
   106d6:	c219                	beqz	a2,106dc <find_section_start+0x46>
   106d8:	00378513          	addi	a0,a5,3
   106dc:	8082                	ret
   106de:	853e                	mv	a0,a5
   106e0:	8082                	ret
   106e2:	0001f6b7          	lui	a3,0x1f
   106e6:	0001f637          	lui	a2,0x1f
   106ea:	0001f537          	lui	a0,0x1f
   106ee:	1141                	addi	sp,sp,-16
   106f0:	4e068693          	addi	a3,a3,1248 # 1f4e0 <__clzdi2+0x1a2>
   106f4:	5d060613          	addi	a2,a2,1488 # 1f5d0 <__func__.3906>
   106f8:	03b00593          	li	a1,59
   106fc:	3d050513          	addi	a0,a0,976 # 1f3d0 <__clzdi2+0x92>
   10700:	e406                	sd	ra,8(sp)
   10702:	625000ef          	jal	ra,11526 <__assert_func>

0000000000010706 <parse_string>:
   10706:	1141                	addi	sp,sp,-16
   10708:	e406                	sd	ra,8(sp)
   1070a:	e022                	sd	s0,0(sp)
   1070c:	88aa                	mv	a7,a0
   1070e:	c925                	beqz	a0,1077e <parse_string+0x78>
   10710:	852e                	mv	a0,a1
   10712:	00064a63          	bltz	a2,10726 <parse_string+0x20>
   10716:	85c6                	mv	a1,a7
   10718:	638010ef          	jal	ra,11d50 <memcpy>
   1071c:	60a2                	ld	ra,8(sp)
   1071e:	6402                	ld	s0,0(sp)
   10720:	4501                	li	a0,0
   10722:	0141                	addi	sp,sp,16
   10724:	8082                	ret
   10726:	0008c703          	lbu	a4,0(a7)
   1072a:	00188793          	addi	a5,a7,1
   1072e:	4601                	li	a2,0
   10730:	4e29                	li	t3,10
   10732:	02500593          	li	a1,37
   10736:	842a                	mv	s0,a0
   10738:	e719                	bnez	a4,10746 <parse_string+0x40>
   1073a:	a805                	j	1076a <parse_string+0x64>
   1073c:	0007c703          	lbu	a4,0(a5)
   10740:	0605                	addi	a2,a2,1
   10742:	0785                	addi	a5,a5,1
   10744:	c30d                	beqz	a4,10766 <parse_string+0x60>
   10746:	0007c683          	lbu	a3,0(a5)
   1074a:	0006031b          	sext.w	t1,a2
   1074e:	ca99                	beqz	a3,10764 <parse_string+0x5e>
   10750:	0017c803          	lbu	a6,1(a5)
   10754:	00080863          	beqz	a6,10764 <parse_string+0x5e>
   10758:	ffc712e3          	bne	a4,t3,1073c <parse_string+0x36>
   1075c:	feb690e3          	bne	a3,a1,1073c <parse_string+0x36>
   10760:	fcb81ee3          	bne	a6,a1,1073c <parse_string+0x36>
   10764:	861a                	mv	a2,t1
   10766:	00c50433          	add	s0,a0,a2
   1076a:	85c6                	mv	a1,a7
   1076c:	5e4010ef          	jal	ra,11d50 <memcpy>
   10770:	00040023          	sb	zero,0(s0)
   10774:	60a2                	ld	ra,8(sp)
   10776:	6402                	ld	s0,0(sp)
   10778:	4501                	li	a0,0
   1077a:	0141                	addi	sp,sp,16
   1077c:	8082                	ret
   1077e:	0001f6b7          	lui	a3,0x1f
   10782:	0001f637          	lui	a2,0x1f
   10786:	0001f537          	lui	a0,0x1f
   1078a:	50868693          	addi	a3,a3,1288 # 1f508 <__clzdi2+0x1ca>
   1078e:	5e860613          	addi	a2,a2,1512 # 1f5e8 <__func__.3916>
   10792:	04f00593          	li	a1,79
   10796:	3d050513          	addi	a0,a0,976 # 1f3d0 <__clzdi2+0x92>
   1079a:	58d000ef          	jal	ra,11526 <__assert_func>

000000000001079e <parse_uint8_t_array>:
   1079e:	711d                	addi	sp,sp,-96
   107a0:	ec86                	sd	ra,88(sp)
   107a2:	e8a2                	sd	s0,80(sp)
   107a4:	e4a6                	sd	s1,72(sp)
   107a6:	e0ca                	sd	s2,64(sp)
   107a8:	fc4e                	sd	s3,56(sp)
   107aa:	f852                	sd	s4,48(sp)
   107ac:	f456                	sd	s5,40(sp)
   107ae:	f05a                	sd	s6,32(sp)
   107b0:	ec5e                	sd	s7,24(sp)
   107b2:	cd49                	beqz	a0,1084c <parse_uint8_t_array+0xae>
   107b4:	0001fab7          	lui	s5,0x1f
   107b8:	892e                	mv	s2,a1
   107ba:	530a8593          	addi	a1,s5,1328 # 1f530 <__clzdi2+0x1f2>
   107be:	8a32                	mv	s4,a2
   107c0:	003020ef          	jal	ra,12fc2 <strtok>
   107c4:	842a                	mv	s0,a0
   107c6:	c53d                	beqz	a0,10834 <parse_uint8_t_array+0x96>
   107c8:	05405f63          	blez	s4,10826 <parse_uint8_t_array+0x88>
   107cc:	4981                	li	s3,0
   107ce:	0001fb37          	lui	s6,0x1f
   107d2:	a02d                	j	107fc <parse_uint8_t_array+0x5e>
   107d4:	8522                	mv	a0,s0
   107d6:	00990023          	sb	s1,0(s2)
   107da:	7c2010ef          	jal	ra,11f9c <strlen>
   107de:	9522                	add	a0,a0,s0
   107e0:	47a9                	li	a5,10
   107e2:	00f50023          	sb	a5,0(a0)
   107e6:	530a8593          	addi	a1,s5,1328
   107ea:	4501                	li	a0,0
   107ec:	7d6020ef          	jal	ra,12fc2 <strtok>
   107f0:	842a                	mv	s0,a0
   107f2:	2985                	addiw	s3,s3,1
   107f4:	c121                	beqz	a0,10834 <parse_uint8_t_array+0x96>
   107f6:	0905                	addi	s2,s2,1
   107f8:	033a0763          	beq	s4,s3,10826 <parse_uint8_t_array+0x88>
   107fc:	4629                	li	a2,10
   107fe:	002c                	addi	a1,sp,8
   10800:	8522                	mv	a0,s0
   10802:	e422                	sd	s0,8(sp)
   10804:	1a9020ef          	jal	ra,131ac <strtol>
   10808:	67a2                	ld	a5,8(sp)
   1080a:	0ff57493          	andi	s1,a0,255
   1080e:	0007c783          	lbu	a5,0(a5)
   10812:	d3e9                	beqz	a5,107d4 <parse_uint8_t_array+0x36>
   10814:	7501b783          	ld	a5,1872(gp) # 22b80 <_impure_ptr>
   10818:	864e                	mv	a2,s3
   1081a:	538b0593          	addi	a1,s6,1336 # 1f538 <__clzdi2+0x1fa>
   1081e:	6f88                	ld	a0,24(a5)
   10820:	5db000ef          	jal	ra,115fa <fprintf>
   10824:	bf45                	j	107d4 <parse_uint8_t_array+0x36>
   10826:	8522                	mv	a0,s0
   10828:	774010ef          	jal	ra,11f9c <strlen>
   1082c:	9522                	add	a0,a0,s0
   1082e:	47a9                	li	a5,10
   10830:	00f50023          	sb	a5,0(a0)
   10834:	60e6                	ld	ra,88(sp)
   10836:	6446                	ld	s0,80(sp)
   10838:	64a6                	ld	s1,72(sp)
   1083a:	6906                	ld	s2,64(sp)
   1083c:	79e2                	ld	s3,56(sp)
   1083e:	7a42                	ld	s4,48(sp)
   10840:	7aa2                	ld	s5,40(sp)
   10842:	7b02                	ld	s6,32(sp)
   10844:	6be2                	ld	s7,24(sp)
   10846:	4501                	li	a0,0
   10848:	6125                	addi	sp,sp,96
   1084a:	8082                	ret
   1084c:	0001f6b7          	lui	a3,0x1f
   10850:	0001f637          	lui	a2,0x1f
   10854:	0001f537          	lui	a0,0x1f
   10858:	50868693          	addi	a3,a3,1288 # 1f508 <__clzdi2+0x1ca>
   1085c:	5f860613          	addi	a2,a2,1528 # 1f5f8 <__func__.3929>
   10860:	08400593          	li	a1,132
   10864:	3d050513          	addi	a0,a0,976 # 1f3d0 <__clzdi2+0x92>
   10868:	4bf000ef          	jal	ra,11526 <__assert_func>

000000000001086c <parse_uint16_t_array>:
   1086c:	711d                	addi	sp,sp,-96
   1086e:	ec86                	sd	ra,88(sp)
   10870:	e8a2                	sd	s0,80(sp)
   10872:	e4a6                	sd	s1,72(sp)
   10874:	e0ca                	sd	s2,64(sp)
   10876:	fc4e                	sd	s3,56(sp)
   10878:	f852                	sd	s4,48(sp)
   1087a:	f456                	sd	s5,40(sp)
   1087c:	f05a                	sd	s6,32(sp)
   1087e:	ec5e                	sd	s7,24(sp)
   10880:	cd51                	beqz	a0,1091c <parse_uint16_t_array+0xb0>
   10882:	0001fab7          	lui	s5,0x1f
   10886:	892e                	mv	s2,a1
   10888:	530a8593          	addi	a1,s5,1328 # 1f530 <__clzdi2+0x1f2>
   1088c:	8a32                	mv	s4,a2
   1088e:	734020ef          	jal	ra,12fc2 <strtok>
   10892:	842a                	mv	s0,a0
   10894:	c925                	beqz	a0,10904 <parse_uint16_t_array+0x98>
   10896:	07405063          	blez	s4,108f6 <parse_uint16_t_array+0x8a>
   1089a:	4981                	li	s3,0
   1089c:	0001fb37          	lui	s6,0x1f
   108a0:	a02d                	j	108ca <parse_uint16_t_array+0x5e>
   108a2:	8522                	mv	a0,s0
   108a4:	00991023          	sh	s1,0(s2)
   108a8:	6f4010ef          	jal	ra,11f9c <strlen>
   108ac:	9522                	add	a0,a0,s0
   108ae:	47a9                	li	a5,10
   108b0:	00f50023          	sb	a5,0(a0)
   108b4:	530a8593          	addi	a1,s5,1328
   108b8:	4501                	li	a0,0
   108ba:	708020ef          	jal	ra,12fc2 <strtok>
   108be:	842a                	mv	s0,a0
   108c0:	2985                	addiw	s3,s3,1
   108c2:	c129                	beqz	a0,10904 <parse_uint16_t_array+0x98>
   108c4:	0909                	addi	s2,s2,2
   108c6:	033a0863          	beq	s4,s3,108f6 <parse_uint16_t_array+0x8a>
   108ca:	4629                	li	a2,10
   108cc:	002c                	addi	a1,sp,8
   108ce:	8522                	mv	a0,s0
   108d0:	e422                	sd	s0,8(sp)
   108d2:	0db020ef          	jal	ra,131ac <strtol>
   108d6:	67a2                	ld	a5,8(sp)
   108d8:	03051493          	slli	s1,a0,0x30
   108dc:	90c1                	srli	s1,s1,0x30
   108de:	0007c783          	lbu	a5,0(a5)
   108e2:	d3e1                	beqz	a5,108a2 <parse_uint16_t_array+0x36>
   108e4:	7501b783          	ld	a5,1872(gp) # 22b80 <_impure_ptr>
   108e8:	864e                	mv	a2,s3
   108ea:	538b0593          	addi	a1,s6,1336 # 1f538 <__clzdi2+0x1fa>
   108ee:	6f88                	ld	a0,24(a5)
   108f0:	50b000ef          	jal	ra,115fa <fprintf>
   108f4:	b77d                	j	108a2 <parse_uint16_t_array+0x36>
   108f6:	8522                	mv	a0,s0
   108f8:	6a4010ef          	jal	ra,11f9c <strlen>
   108fc:	9522                	add	a0,a0,s0
   108fe:	47a9                	li	a5,10
   10900:	00f50023          	sb	a5,0(a0)
   10904:	60e6                	ld	ra,88(sp)
   10906:	6446                	ld	s0,80(sp)
   10908:	64a6                	ld	s1,72(sp)
   1090a:	6906                	ld	s2,64(sp)
   1090c:	79e2                	ld	s3,56(sp)
   1090e:	7a42                	ld	s4,48(sp)
   10910:	7aa2                	ld	s5,40(sp)
   10912:	7b02                	ld	s6,32(sp)
   10914:	6be2                	ld	s7,24(sp)
   10916:	4501                	li	a0,0
   10918:	6125                	addi	sp,sp,96
   1091a:	8082                	ret
   1091c:	0001f6b7          	lui	a3,0x1f
   10920:	0001f637          	lui	a2,0x1f
   10924:	0001f537          	lui	a0,0x1f
   10928:	50868693          	addi	a3,a3,1288 # 1f508 <__clzdi2+0x1ca>
   1092c:	61060613          	addi	a2,a2,1552 # 1f610 <__func__.3942>
   10930:	08500593          	li	a1,133
   10934:	3d050513          	addi	a0,a0,976 # 1f3d0 <__clzdi2+0x92>
   10938:	3ef000ef          	jal	ra,11526 <__assert_func>

000000000001093c <parse_uint32_t_array>:
   1093c:	711d                	addi	sp,sp,-96
   1093e:	ec86                	sd	ra,88(sp)
   10940:	e8a2                	sd	s0,80(sp)
   10942:	e4a6                	sd	s1,72(sp)
   10944:	e0ca                	sd	s2,64(sp)
   10946:	fc4e                	sd	s3,56(sp)
   10948:	f852                	sd	s4,48(sp)
   1094a:	f456                	sd	s5,40(sp)
   1094c:	f05a                	sd	s6,32(sp)
   1094e:	ec5e                	sd	s7,24(sp)
   10950:	cd49                	beqz	a0,109ea <parse_uint32_t_array+0xae>
   10952:	0001fab7          	lui	s5,0x1f
   10956:	892e                	mv	s2,a1
   10958:	530a8593          	addi	a1,s5,1328 # 1f530 <__clzdi2+0x1f2>
   1095c:	8a32                	mv	s4,a2
   1095e:	664020ef          	jal	ra,12fc2 <strtok>
   10962:	842a                	mv	s0,a0
   10964:	c53d                	beqz	a0,109d2 <parse_uint32_t_array+0x96>
   10966:	05405f63          	blez	s4,109c4 <parse_uint32_t_array+0x88>
   1096a:	4981                	li	s3,0
   1096c:	0001fb37          	lui	s6,0x1f
   10970:	a02d                	j	1099a <parse_uint32_t_array+0x5e>
   10972:	8522                	mv	a0,s0
   10974:	00992023          	sw	s1,0(s2)
   10978:	624010ef          	jal	ra,11f9c <strlen>
   1097c:	9522                	add	a0,a0,s0
   1097e:	47a9                	li	a5,10
   10980:	00f50023          	sb	a5,0(a0)
   10984:	530a8593          	addi	a1,s5,1328
   10988:	4501                	li	a0,0
   1098a:	638020ef          	jal	ra,12fc2 <strtok>
   1098e:	842a                	mv	s0,a0
   10990:	2985                	addiw	s3,s3,1
   10992:	c121                	beqz	a0,109d2 <parse_uint32_t_array+0x96>
   10994:	0911                	addi	s2,s2,4
   10996:	033a0763          	beq	s4,s3,109c4 <parse_uint32_t_array+0x88>
   1099a:	4629                	li	a2,10
   1099c:	002c                	addi	a1,sp,8
   1099e:	8522                	mv	a0,s0
   109a0:	e422                	sd	s0,8(sp)
   109a2:	00b020ef          	jal	ra,131ac <strtol>
   109a6:	67a2                	ld	a5,8(sp)
   109a8:	0005049b          	sext.w	s1,a0
   109ac:	0007c783          	lbu	a5,0(a5)
   109b0:	d3e9                	beqz	a5,10972 <parse_uint32_t_array+0x36>
   109b2:	7501b783          	ld	a5,1872(gp) # 22b80 <_impure_ptr>
   109b6:	864e                	mv	a2,s3
   109b8:	538b0593          	addi	a1,s6,1336 # 1f538 <__clzdi2+0x1fa>
   109bc:	6f88                	ld	a0,24(a5)
   109be:	43d000ef          	jal	ra,115fa <fprintf>
   109c2:	bf45                	j	10972 <parse_uint32_t_array+0x36>
   109c4:	8522                	mv	a0,s0
   109c6:	5d6010ef          	jal	ra,11f9c <strlen>
   109ca:	9522                	add	a0,a0,s0
   109cc:	47a9                	li	a5,10
   109ce:	00f50023          	sb	a5,0(a0)
   109d2:	60e6                	ld	ra,88(sp)
   109d4:	6446                	ld	s0,80(sp)
   109d6:	64a6                	ld	s1,72(sp)
   109d8:	6906                	ld	s2,64(sp)
   109da:	79e2                	ld	s3,56(sp)
   109dc:	7a42                	ld	s4,48(sp)
   109de:	7aa2                	ld	s5,40(sp)
   109e0:	7b02                	ld	s6,32(sp)
   109e2:	6be2                	ld	s7,24(sp)
   109e4:	4501                	li	a0,0
   109e6:	6125                	addi	sp,sp,96
   109e8:	8082                	ret
   109ea:	0001f6b7          	lui	a3,0x1f
   109ee:	0001f637          	lui	a2,0x1f
   109f2:	0001f537          	lui	a0,0x1f
   109f6:	50868693          	addi	a3,a3,1288 # 1f508 <__clzdi2+0x1ca>
   109fa:	62860613          	addi	a2,a2,1576 # 1f628 <__func__.3955>
   109fe:	08600593          	li	a1,134
   10a02:	3d050513          	addi	a0,a0,976 # 1f3d0 <__clzdi2+0x92>
   10a06:	321000ef          	jal	ra,11526 <__assert_func>

0000000000010a0a <parse_uint64_t_array>:
   10a0a:	711d                	addi	sp,sp,-96
   10a0c:	ec86                	sd	ra,88(sp)
   10a0e:	e8a2                	sd	s0,80(sp)
   10a10:	e4a6                	sd	s1,72(sp)
   10a12:	e0ca                	sd	s2,64(sp)
   10a14:	fc4e                	sd	s3,56(sp)
   10a16:	f852                	sd	s4,48(sp)
   10a18:	f456                	sd	s5,40(sp)
   10a1a:	f05a                	sd	s6,32(sp)
   10a1c:	ec5e                	sd	s7,24(sp)
   10a1e:	cd41                	beqz	a0,10ab6 <parse_uint64_t_array+0xac>
   10a20:	0001fab7          	lui	s5,0x1f
   10a24:	892e                	mv	s2,a1
   10a26:	530a8593          	addi	a1,s5,1328 # 1f530 <__clzdi2+0x1f2>
   10a2a:	8a32                	mv	s4,a2
   10a2c:	596020ef          	jal	ra,12fc2 <strtok>
   10a30:	842a                	mv	s0,a0
   10a32:	c535                	beqz	a0,10a9e <parse_uint64_t_array+0x94>
   10a34:	05405e63          	blez	s4,10a90 <parse_uint64_t_array+0x86>
   10a38:	4981                	li	s3,0
   10a3a:	0001fb37          	lui	s6,0x1f
   10a3e:	a02d                	j	10a68 <parse_uint64_t_array+0x5e>
   10a40:	8522                	mv	a0,s0
   10a42:	00993023          	sd	s1,0(s2)
   10a46:	556010ef          	jal	ra,11f9c <strlen>
   10a4a:	9522                	add	a0,a0,s0
   10a4c:	47a9                	li	a5,10
   10a4e:	00f50023          	sb	a5,0(a0)
   10a52:	530a8593          	addi	a1,s5,1328
   10a56:	4501                	li	a0,0
   10a58:	56a020ef          	jal	ra,12fc2 <strtok>
   10a5c:	842a                	mv	s0,a0
   10a5e:	2985                	addiw	s3,s3,1
   10a60:	cd1d                	beqz	a0,10a9e <parse_uint64_t_array+0x94>
   10a62:	0921                	addi	s2,s2,8
   10a64:	033a0663          	beq	s4,s3,10a90 <parse_uint64_t_array+0x86>
   10a68:	4629                	li	a2,10
   10a6a:	002c                	addi	a1,sp,8
   10a6c:	8522                	mv	a0,s0
   10a6e:	e422                	sd	s0,8(sp)
   10a70:	73c020ef          	jal	ra,131ac <strtol>
   10a74:	67a2                	ld	a5,8(sp)
   10a76:	84aa                	mv	s1,a0
   10a78:	0007c783          	lbu	a5,0(a5)
   10a7c:	d3f1                	beqz	a5,10a40 <parse_uint64_t_array+0x36>
   10a7e:	7501b783          	ld	a5,1872(gp) # 22b80 <_impure_ptr>
   10a82:	864e                	mv	a2,s3
   10a84:	538b0593          	addi	a1,s6,1336 # 1f538 <__clzdi2+0x1fa>
   10a88:	6f88                	ld	a0,24(a5)
   10a8a:	371000ef          	jal	ra,115fa <fprintf>
   10a8e:	bf4d                	j	10a40 <parse_uint64_t_array+0x36>
   10a90:	8522                	mv	a0,s0
   10a92:	50a010ef          	jal	ra,11f9c <strlen>
   10a96:	9522                	add	a0,a0,s0
   10a98:	47a9                	li	a5,10
   10a9a:	00f50023          	sb	a5,0(a0)
   10a9e:	60e6                	ld	ra,88(sp)
   10aa0:	6446                	ld	s0,80(sp)
   10aa2:	64a6                	ld	s1,72(sp)
   10aa4:	6906                	ld	s2,64(sp)
   10aa6:	79e2                	ld	s3,56(sp)
   10aa8:	7a42                	ld	s4,48(sp)
   10aaa:	7aa2                	ld	s5,40(sp)
   10aac:	7b02                	ld	s6,32(sp)
   10aae:	6be2                	ld	s7,24(sp)
   10ab0:	4501                	li	a0,0
   10ab2:	6125                	addi	sp,sp,96
   10ab4:	8082                	ret
   10ab6:	0001f6b7          	lui	a3,0x1f
   10aba:	0001f637          	lui	a2,0x1f
   10abe:	0001f537          	lui	a0,0x1f
   10ac2:	50868693          	addi	a3,a3,1288 # 1f508 <__clzdi2+0x1ca>
   10ac6:	64060613          	addi	a2,a2,1600 # 1f640 <__func__.3968>
   10aca:	08700593          	li	a1,135
   10ace:	3d050513          	addi	a0,a0,976 # 1f3d0 <__clzdi2+0x92>
   10ad2:	255000ef          	jal	ra,11526 <__assert_func>

0000000000010ad6 <parse_int8_t_array>:
   10ad6:	711d                	addi	sp,sp,-96
   10ad8:	ec86                	sd	ra,88(sp)
   10ada:	e8a2                	sd	s0,80(sp)
   10adc:	e4a6                	sd	s1,72(sp)
   10ade:	e0ca                	sd	s2,64(sp)
   10ae0:	fc4e                	sd	s3,56(sp)
   10ae2:	f852                	sd	s4,48(sp)
   10ae4:	f456                	sd	s5,40(sp)
   10ae6:	f05a                	sd	s6,32(sp)
   10ae8:	ec5e                	sd	s7,24(sp)
   10aea:	cd59                	beqz	a0,10b88 <parse_int8_t_array+0xb2>
   10aec:	0001fab7          	lui	s5,0x1f
   10af0:	892e                	mv	s2,a1
   10af2:	530a8593          	addi	a1,s5,1328 # 1f530 <__clzdi2+0x1f2>
   10af6:	8a32                	mv	s4,a2
   10af8:	4ca020ef          	jal	ra,12fc2 <strtok>
   10afc:	842a                	mv	s0,a0
   10afe:	c92d                	beqz	a0,10b70 <parse_int8_t_array+0x9a>
   10b00:	07405163          	blez	s4,10b62 <parse_int8_t_array+0x8c>
   10b04:	4981                	li	s3,0
   10b06:	0001fb37          	lui	s6,0x1f
   10b0a:	a02d                	j	10b34 <parse_int8_t_array+0x5e>
   10b0c:	8522                	mv	a0,s0
   10b0e:	00990023          	sb	s1,0(s2)
   10b12:	48a010ef          	jal	ra,11f9c <strlen>
   10b16:	9522                	add	a0,a0,s0
   10b18:	47a9                	li	a5,10
   10b1a:	00f50023          	sb	a5,0(a0)
   10b1e:	530a8593          	addi	a1,s5,1328
   10b22:	4501                	li	a0,0
   10b24:	49e020ef          	jal	ra,12fc2 <strtok>
   10b28:	842a                	mv	s0,a0
   10b2a:	2985                	addiw	s3,s3,1
   10b2c:	c131                	beqz	a0,10b70 <parse_int8_t_array+0x9a>
   10b2e:	0905                	addi	s2,s2,1
   10b30:	033a0963          	beq	s4,s3,10b62 <parse_int8_t_array+0x8c>
   10b34:	4629                	li	a2,10
   10b36:	002c                	addi	a1,sp,8
   10b38:	8522                	mv	a0,s0
   10b3a:	e422                	sd	s0,8(sp)
   10b3c:	670020ef          	jal	ra,131ac <strtol>
   10b40:	67a2                	ld	a5,8(sp)
   10b42:	0185149b          	slliw	s1,a0,0x18
   10b46:	4184d49b          	sraiw	s1,s1,0x18
   10b4a:	0007c783          	lbu	a5,0(a5)
   10b4e:	dfdd                	beqz	a5,10b0c <parse_int8_t_array+0x36>
   10b50:	7501b783          	ld	a5,1872(gp) # 22b80 <_impure_ptr>
   10b54:	864e                	mv	a2,s3
   10b56:	538b0593          	addi	a1,s6,1336 # 1f538 <__clzdi2+0x1fa>
   10b5a:	6f88                	ld	a0,24(a5)
   10b5c:	29f000ef          	jal	ra,115fa <fprintf>
   10b60:	b775                	j	10b0c <parse_int8_t_array+0x36>
   10b62:	8522                	mv	a0,s0
   10b64:	438010ef          	jal	ra,11f9c <strlen>
   10b68:	9522                	add	a0,a0,s0
   10b6a:	47a9                	li	a5,10
   10b6c:	00f50023          	sb	a5,0(a0)
   10b70:	60e6                	ld	ra,88(sp)
   10b72:	6446                	ld	s0,80(sp)
   10b74:	64a6                	ld	s1,72(sp)
   10b76:	6906                	ld	s2,64(sp)
   10b78:	79e2                	ld	s3,56(sp)
   10b7a:	7a42                	ld	s4,48(sp)
   10b7c:	7aa2                	ld	s5,40(sp)
   10b7e:	7b02                	ld	s6,32(sp)
   10b80:	6be2                	ld	s7,24(sp)
   10b82:	4501                	li	a0,0
   10b84:	6125                	addi	sp,sp,96
   10b86:	8082                	ret
   10b88:	0001f6b7          	lui	a3,0x1f
   10b8c:	0001f637          	lui	a2,0x1f
   10b90:	0001f537          	lui	a0,0x1f
   10b94:	50868693          	addi	a3,a3,1288 # 1f508 <__clzdi2+0x1ca>
   10b98:	65860613          	addi	a2,a2,1624 # 1f658 <__func__.3981>
   10b9c:	08800593          	li	a1,136
   10ba0:	3d050513          	addi	a0,a0,976 # 1f3d0 <__clzdi2+0x92>
   10ba4:	183000ef          	jal	ra,11526 <__assert_func>

0000000000010ba8 <parse_int16_t_array>:
   10ba8:	711d                	addi	sp,sp,-96
   10baa:	ec86                	sd	ra,88(sp)
   10bac:	e8a2                	sd	s0,80(sp)
   10bae:	e4a6                	sd	s1,72(sp)
   10bb0:	e0ca                	sd	s2,64(sp)
   10bb2:	fc4e                	sd	s3,56(sp)
   10bb4:	f852                	sd	s4,48(sp)
   10bb6:	f456                	sd	s5,40(sp)
   10bb8:	f05a                	sd	s6,32(sp)
   10bba:	ec5e                	sd	s7,24(sp)
   10bbc:	cd59                	beqz	a0,10c5a <parse_int16_t_array+0xb2>
   10bbe:	0001fab7          	lui	s5,0x1f
   10bc2:	892e                	mv	s2,a1
   10bc4:	530a8593          	addi	a1,s5,1328 # 1f530 <__clzdi2+0x1f2>
   10bc8:	8a32                	mv	s4,a2
   10bca:	3f8020ef          	jal	ra,12fc2 <strtok>
   10bce:	842a                	mv	s0,a0
   10bd0:	c92d                	beqz	a0,10c42 <parse_int16_t_array+0x9a>
   10bd2:	07405163          	blez	s4,10c34 <parse_int16_t_array+0x8c>
   10bd6:	4981                	li	s3,0
   10bd8:	0001fb37          	lui	s6,0x1f
   10bdc:	a02d                	j	10c06 <parse_int16_t_array+0x5e>
   10bde:	8522                	mv	a0,s0
   10be0:	00991023          	sh	s1,0(s2)
   10be4:	3b8010ef          	jal	ra,11f9c <strlen>
   10be8:	9522                	add	a0,a0,s0
   10bea:	47a9                	li	a5,10
   10bec:	00f50023          	sb	a5,0(a0)
   10bf0:	530a8593          	addi	a1,s5,1328
   10bf4:	4501                	li	a0,0
   10bf6:	3cc020ef          	jal	ra,12fc2 <strtok>
   10bfa:	842a                	mv	s0,a0
   10bfc:	2985                	addiw	s3,s3,1
   10bfe:	c131                	beqz	a0,10c42 <parse_int16_t_array+0x9a>
   10c00:	0909                	addi	s2,s2,2
   10c02:	033a0963          	beq	s4,s3,10c34 <parse_int16_t_array+0x8c>
   10c06:	4629                	li	a2,10
   10c08:	002c                	addi	a1,sp,8
   10c0a:	8522                	mv	a0,s0
   10c0c:	e422                	sd	s0,8(sp)
   10c0e:	59e020ef          	jal	ra,131ac <strtol>
   10c12:	67a2                	ld	a5,8(sp)
   10c14:	0105149b          	slliw	s1,a0,0x10
   10c18:	4104d49b          	sraiw	s1,s1,0x10
   10c1c:	0007c783          	lbu	a5,0(a5)
   10c20:	dfdd                	beqz	a5,10bde <parse_int16_t_array+0x36>
   10c22:	7501b783          	ld	a5,1872(gp) # 22b80 <_impure_ptr>
   10c26:	864e                	mv	a2,s3
   10c28:	538b0593          	addi	a1,s6,1336 # 1f538 <__clzdi2+0x1fa>
   10c2c:	6f88                	ld	a0,24(a5)
   10c2e:	1cd000ef          	jal	ra,115fa <fprintf>
   10c32:	b775                	j	10bde <parse_int16_t_array+0x36>
   10c34:	8522                	mv	a0,s0
   10c36:	366010ef          	jal	ra,11f9c <strlen>
   10c3a:	9522                	add	a0,a0,s0
   10c3c:	47a9                	li	a5,10
   10c3e:	00f50023          	sb	a5,0(a0)
   10c42:	60e6                	ld	ra,88(sp)
   10c44:	6446                	ld	s0,80(sp)
   10c46:	64a6                	ld	s1,72(sp)
   10c48:	6906                	ld	s2,64(sp)
   10c4a:	79e2                	ld	s3,56(sp)
   10c4c:	7a42                	ld	s4,48(sp)
   10c4e:	7aa2                	ld	s5,40(sp)
   10c50:	7b02                	ld	s6,32(sp)
   10c52:	6be2                	ld	s7,24(sp)
   10c54:	4501                	li	a0,0
   10c56:	6125                	addi	sp,sp,96
   10c58:	8082                	ret
   10c5a:	0001f6b7          	lui	a3,0x1f
   10c5e:	0001f637          	lui	a2,0x1f
   10c62:	0001f537          	lui	a0,0x1f
   10c66:	50868693          	addi	a3,a3,1288 # 1f508 <__clzdi2+0x1ca>
   10c6a:	67060613          	addi	a2,a2,1648 # 1f670 <__func__.3994>
   10c6e:	08900593          	li	a1,137
   10c72:	3d050513          	addi	a0,a0,976 # 1f3d0 <__clzdi2+0x92>
   10c76:	0b1000ef          	jal	ra,11526 <__assert_func>

0000000000010c7a <parse_int32_t_array>:
   10c7a:	711d                	addi	sp,sp,-96
   10c7c:	ec86                	sd	ra,88(sp)
   10c7e:	e8a2                	sd	s0,80(sp)
   10c80:	e4a6                	sd	s1,72(sp)
   10c82:	e0ca                	sd	s2,64(sp)
   10c84:	fc4e                	sd	s3,56(sp)
   10c86:	f852                	sd	s4,48(sp)
   10c88:	f456                	sd	s5,40(sp)
   10c8a:	f05a                	sd	s6,32(sp)
   10c8c:	ec5e                	sd	s7,24(sp)
   10c8e:	cd49                	beqz	a0,10d28 <parse_int32_t_array+0xae>
   10c90:	0001fab7          	lui	s5,0x1f
   10c94:	892e                	mv	s2,a1
   10c96:	530a8593          	addi	a1,s5,1328 # 1f530 <__clzdi2+0x1f2>
   10c9a:	8a32                	mv	s4,a2
   10c9c:	326020ef          	jal	ra,12fc2 <strtok>
   10ca0:	842a                	mv	s0,a0
   10ca2:	c53d                	beqz	a0,10d10 <parse_int32_t_array+0x96>
   10ca4:	05405f63          	blez	s4,10d02 <parse_int32_t_array+0x88>
   10ca8:	4981                	li	s3,0
   10caa:	0001fb37          	lui	s6,0x1f
   10cae:	a02d                	j	10cd8 <parse_int32_t_array+0x5e>
   10cb0:	8522                	mv	a0,s0
   10cb2:	00992023          	sw	s1,0(s2)
   10cb6:	2e6010ef          	jal	ra,11f9c <strlen>
   10cba:	9522                	add	a0,a0,s0
   10cbc:	47a9                	li	a5,10
   10cbe:	00f50023          	sb	a5,0(a0)
   10cc2:	530a8593          	addi	a1,s5,1328
   10cc6:	4501                	li	a0,0
   10cc8:	2fa020ef          	jal	ra,12fc2 <strtok>
   10ccc:	842a                	mv	s0,a0
   10cce:	2985                	addiw	s3,s3,1
   10cd0:	c121                	beqz	a0,10d10 <parse_int32_t_array+0x96>
   10cd2:	0911                	addi	s2,s2,4
   10cd4:	033a0763          	beq	s4,s3,10d02 <parse_int32_t_array+0x88>
   10cd8:	4629                	li	a2,10
   10cda:	002c                	addi	a1,sp,8
   10cdc:	8522                	mv	a0,s0
   10cde:	e422                	sd	s0,8(sp)
   10ce0:	4cc020ef          	jal	ra,131ac <strtol>
   10ce4:	67a2                	ld	a5,8(sp)
   10ce6:	0005049b          	sext.w	s1,a0
   10cea:	0007c783          	lbu	a5,0(a5)
   10cee:	d3e9                	beqz	a5,10cb0 <parse_int32_t_array+0x36>
   10cf0:	7501b783          	ld	a5,1872(gp) # 22b80 <_impure_ptr>
   10cf4:	864e                	mv	a2,s3
   10cf6:	538b0593          	addi	a1,s6,1336 # 1f538 <__clzdi2+0x1fa>
   10cfa:	6f88                	ld	a0,24(a5)
   10cfc:	0ff000ef          	jal	ra,115fa <fprintf>
   10d00:	bf45                	j	10cb0 <parse_int32_t_array+0x36>
   10d02:	8522                	mv	a0,s0
   10d04:	298010ef          	jal	ra,11f9c <strlen>
   10d08:	9522                	add	a0,a0,s0
   10d0a:	47a9                	li	a5,10
   10d0c:	00f50023          	sb	a5,0(a0)
   10d10:	60e6                	ld	ra,88(sp)
   10d12:	6446                	ld	s0,80(sp)
   10d14:	64a6                	ld	s1,72(sp)
   10d16:	6906                	ld	s2,64(sp)
   10d18:	79e2                	ld	s3,56(sp)
   10d1a:	7a42                	ld	s4,48(sp)
   10d1c:	7aa2                	ld	s5,40(sp)
   10d1e:	7b02                	ld	s6,32(sp)
   10d20:	6be2                	ld	s7,24(sp)
   10d22:	4501                	li	a0,0
   10d24:	6125                	addi	sp,sp,96
   10d26:	8082                	ret
   10d28:	0001f6b7          	lui	a3,0x1f
   10d2c:	0001f637          	lui	a2,0x1f
   10d30:	0001f537          	lui	a0,0x1f
   10d34:	50868693          	addi	a3,a3,1288 # 1f508 <__clzdi2+0x1ca>
   10d38:	68860613          	addi	a2,a2,1672 # 1f688 <__func__.4007>
   10d3c:	08a00593          	li	a1,138
   10d40:	3d050513          	addi	a0,a0,976 # 1f3d0 <__clzdi2+0x92>
   10d44:	7e2000ef          	jal	ra,11526 <__assert_func>

0000000000010d48 <parse_int64_t_array>:
   10d48:	711d                	addi	sp,sp,-96
   10d4a:	ec86                	sd	ra,88(sp)
   10d4c:	e8a2                	sd	s0,80(sp)
   10d4e:	e4a6                	sd	s1,72(sp)
   10d50:	e0ca                	sd	s2,64(sp)
   10d52:	fc4e                	sd	s3,56(sp)
   10d54:	f852                	sd	s4,48(sp)
   10d56:	f456                	sd	s5,40(sp)
   10d58:	f05a                	sd	s6,32(sp)
   10d5a:	ec5e                	sd	s7,24(sp)
   10d5c:	cd41                	beqz	a0,10df4 <parse_int64_t_array+0xac>
   10d5e:	0001fab7          	lui	s5,0x1f
   10d62:	892e                	mv	s2,a1
   10d64:	530a8593          	addi	a1,s5,1328 # 1f530 <__clzdi2+0x1f2>
   10d68:	8a32                	mv	s4,a2
   10d6a:	258020ef          	jal	ra,12fc2 <strtok>
   10d6e:	842a                	mv	s0,a0
   10d70:	c535                	beqz	a0,10ddc <parse_int64_t_array+0x94>
   10d72:	05405e63          	blez	s4,10dce <parse_int64_t_array+0x86>
   10d76:	4981                	li	s3,0
   10d78:	0001fb37          	lui	s6,0x1f
   10d7c:	a02d                	j	10da6 <parse_int64_t_array+0x5e>
   10d7e:	8522                	mv	a0,s0
   10d80:	00993023          	sd	s1,0(s2)
   10d84:	218010ef          	jal	ra,11f9c <strlen>
   10d88:	9522                	add	a0,a0,s0
   10d8a:	47a9                	li	a5,10
   10d8c:	00f50023          	sb	a5,0(a0)
   10d90:	530a8593          	addi	a1,s5,1328
   10d94:	4501                	li	a0,0
   10d96:	22c020ef          	jal	ra,12fc2 <strtok>
   10d9a:	842a                	mv	s0,a0
   10d9c:	2985                	addiw	s3,s3,1
   10d9e:	cd1d                	beqz	a0,10ddc <parse_int64_t_array+0x94>
   10da0:	0921                	addi	s2,s2,8
   10da2:	033a0663          	beq	s4,s3,10dce <parse_int64_t_array+0x86>
   10da6:	4629                	li	a2,10
   10da8:	002c                	addi	a1,sp,8
   10daa:	8522                	mv	a0,s0
   10dac:	e422                	sd	s0,8(sp)
   10dae:	3fe020ef          	jal	ra,131ac <strtol>
   10db2:	67a2                	ld	a5,8(sp)
   10db4:	84aa                	mv	s1,a0
   10db6:	0007c783          	lbu	a5,0(a5)
   10dba:	d3f1                	beqz	a5,10d7e <parse_int64_t_array+0x36>
   10dbc:	7501b783          	ld	a5,1872(gp) # 22b80 <_impure_ptr>
   10dc0:	864e                	mv	a2,s3
   10dc2:	538b0593          	addi	a1,s6,1336 # 1f538 <__clzdi2+0x1fa>
   10dc6:	6f88                	ld	a0,24(a5)
   10dc8:	033000ef          	jal	ra,115fa <fprintf>
   10dcc:	bf4d                	j	10d7e <parse_int64_t_array+0x36>
   10dce:	8522                	mv	a0,s0
   10dd0:	1cc010ef          	jal	ra,11f9c <strlen>
   10dd4:	9522                	add	a0,a0,s0
   10dd6:	47a9                	li	a5,10
   10dd8:	00f50023          	sb	a5,0(a0)
   10ddc:	60e6                	ld	ra,88(sp)
   10dde:	6446                	ld	s0,80(sp)
   10de0:	64a6                	ld	s1,72(sp)
   10de2:	6906                	ld	s2,64(sp)
   10de4:	79e2                	ld	s3,56(sp)
   10de6:	7a42                	ld	s4,48(sp)
   10de8:	7aa2                	ld	s5,40(sp)
   10dea:	7b02                	ld	s6,32(sp)
   10dec:	6be2                	ld	s7,24(sp)
   10dee:	4501                	li	a0,0
   10df0:	6125                	addi	sp,sp,96
   10df2:	8082                	ret
   10df4:	0001f6b7          	lui	a3,0x1f
   10df8:	0001f637          	lui	a2,0x1f
   10dfc:	0001f537          	lui	a0,0x1f
   10e00:	50868693          	addi	a3,a3,1288 # 1f508 <__clzdi2+0x1ca>
   10e04:	6a060613          	addi	a2,a2,1696 # 1f6a0 <__func__.4020>
   10e08:	08b00593          	li	a1,139
   10e0c:	3d050513          	addi	a0,a0,976 # 1f3d0 <__clzdi2+0x92>
   10e10:	716000ef          	jal	ra,11526 <__assert_func>

0000000000010e14 <parse_float_array>:
   10e14:	7159                	addi	sp,sp,-112
   10e16:	f486                	sd	ra,104(sp)
   10e18:	f0a2                	sd	s0,96(sp)
   10e1a:	eca6                	sd	s1,88(sp)
   10e1c:	e8ca                	sd	s2,80(sp)
   10e1e:	e4ce                	sd	s3,72(sp)
   10e20:	e0d2                	sd	s4,64(sp)
   10e22:	fc56                	sd	s5,56(sp)
   10e24:	f85a                	sd	s6,48(sp)
   10e26:	f45e                	sd	s7,40(sp)
   10e28:	ac22                	fsd	fs0,24(sp)
   10e2a:	cd49                	beqz	a0,10ec4 <parse_float_array+0xb0>
   10e2c:	0001fa37          	lui	s4,0x1f
   10e30:	84ae                	mv	s1,a1
   10e32:	530a0593          	addi	a1,s4,1328 # 1f530 <__clzdi2+0x1f2>
   10e36:	89b2                	mv	s3,a2
   10e38:	18a020ef          	jal	ra,12fc2 <strtok>
   10e3c:	842a                	mv	s0,a0
   10e3e:	c535                	beqz	a0,10eaa <parse_float_array+0x96>
   10e40:	05305e63          	blez	s3,10e9c <parse_float_array+0x88>
   10e44:	4901                	li	s2,0
   10e46:	0001fb37          	lui	s6,0x1f
   10e4a:	4aa9                	li	s5,10
   10e4c:	a025                	j	10e74 <parse_float_array+0x60>
   10e4e:	8522                	mv	a0,s0
   10e50:	0084a027          	fsw	fs0,0(s1)
   10e54:	148010ef          	jal	ra,11f9c <strlen>
   10e58:	9522                	add	a0,a0,s0
   10e5a:	01550023          	sb	s5,0(a0)
   10e5e:	530a0593          	addi	a1,s4,1328
   10e62:	4501                	li	a0,0
   10e64:	15e020ef          	jal	ra,12fc2 <strtok>
   10e68:	842a                	mv	s0,a0
   10e6a:	2905                	addiw	s2,s2,1
   10e6c:	cd1d                	beqz	a0,10eaa <parse_float_array+0x96>
   10e6e:	0491                	addi	s1,s1,4
   10e70:	03298663          	beq	s3,s2,10e9c <parse_float_array+0x88>
   10e74:	002c                	addi	a1,sp,8
   10e76:	8522                	mv	a0,s0
   10e78:	e422                	sd	s0,8(sp)
   10e7a:	0b8020ef          	jal	ra,12f32 <strtof>
   10e7e:	67a2                	ld	a5,8(sp)
   10e80:	20a50453          	fmv.s	fs0,fa0
   10e84:	0007c783          	lbu	a5,0(a5)
   10e88:	d3f9                	beqz	a5,10e4e <parse_float_array+0x3a>
   10e8a:	7501b783          	ld	a5,1872(gp) # 22b80 <_impure_ptr>
   10e8e:	864a                	mv	a2,s2
   10e90:	538b0593          	addi	a1,s6,1336 # 1f538 <__clzdi2+0x1fa>
   10e94:	6f88                	ld	a0,24(a5)
   10e96:	764000ef          	jal	ra,115fa <fprintf>
   10e9a:	bf55                	j	10e4e <parse_float_array+0x3a>
   10e9c:	8522                	mv	a0,s0
   10e9e:	0fe010ef          	jal	ra,11f9c <strlen>
   10ea2:	9522                	add	a0,a0,s0
   10ea4:	47a9                	li	a5,10
   10ea6:	00f50023          	sb	a5,0(a0)
   10eaa:	70a6                	ld	ra,104(sp)
   10eac:	7406                	ld	s0,96(sp)
   10eae:	64e6                	ld	s1,88(sp)
   10eb0:	6946                	ld	s2,80(sp)
   10eb2:	69a6                	ld	s3,72(sp)
   10eb4:	6a06                	ld	s4,64(sp)
   10eb6:	7ae2                	ld	s5,56(sp)
   10eb8:	7b42                	ld	s6,48(sp)
   10eba:	7ba2                	ld	s7,40(sp)
   10ebc:	2462                	fld	fs0,24(sp)
   10ebe:	4501                	li	a0,0
   10ec0:	6165                	addi	sp,sp,112
   10ec2:	8082                	ret
   10ec4:	0001f6b7          	lui	a3,0x1f
   10ec8:	0001f637          	lui	a2,0x1f
   10ecc:	0001f537          	lui	a0,0x1f
   10ed0:	50868693          	addi	a3,a3,1288 # 1f508 <__clzdi2+0x1ca>
   10ed4:	6b860613          	addi	a2,a2,1720 # 1f6b8 <__func__.4033>
   10ed8:	08d00593          	li	a1,141
   10edc:	3d050513          	addi	a0,a0,976 # 1f3d0 <__clzdi2+0x92>
   10ee0:	646000ef          	jal	ra,11526 <__assert_func>

0000000000010ee4 <parse_double_array>:
   10ee4:	7159                	addi	sp,sp,-112
   10ee6:	f486                	sd	ra,104(sp)
   10ee8:	f0a2                	sd	s0,96(sp)
   10eea:	eca6                	sd	s1,88(sp)
   10eec:	e8ca                	sd	s2,80(sp)
   10eee:	e4ce                	sd	s3,72(sp)
   10ef0:	e0d2                	sd	s4,64(sp)
   10ef2:	fc56                	sd	s5,56(sp)
   10ef4:	f85a                	sd	s6,48(sp)
   10ef6:	f45e                	sd	s7,40(sp)
   10ef8:	ac22                	fsd	fs0,24(sp)
   10efa:	cd41                	beqz	a0,10f92 <parse_double_array+0xae>
   10efc:	0001fa37          	lui	s4,0x1f
   10f00:	84ae                	mv	s1,a1
   10f02:	530a0593          	addi	a1,s4,1328 # 1f530 <__clzdi2+0x1f2>
   10f06:	89b2                	mv	s3,a2
   10f08:	0ba020ef          	jal	ra,12fc2 <strtok>
   10f0c:	842a                	mv	s0,a0
   10f0e:	c52d                	beqz	a0,10f78 <parse_double_array+0x94>
   10f10:	05305d63          	blez	s3,10f6a <parse_double_array+0x86>
   10f14:	4901                	li	s2,0
   10f16:	0001fb37          	lui	s6,0x1f
   10f1a:	4aa9                	li	s5,10
   10f1c:	a01d                	j	10f42 <parse_double_array+0x5e>
   10f1e:	8522                	mv	a0,s0
   10f20:	a080                	fsd	fs0,0(s1)
   10f22:	07a010ef          	jal	ra,11f9c <strlen>
   10f26:	9522                	add	a0,a0,s0
   10f28:	01550023          	sb	s5,0(a0)
   10f2c:	530a0593          	addi	a1,s4,1328
   10f30:	4501                	li	a0,0
   10f32:	090020ef          	jal	ra,12fc2 <strtok>
   10f36:	842a                	mv	s0,a0
   10f38:	2905                	addiw	s2,s2,1
   10f3a:	cd1d                	beqz	a0,10f78 <parse_double_array+0x94>
   10f3c:	04a1                	addi	s1,s1,8
   10f3e:	03298663          	beq	s3,s2,10f6a <parse_double_array+0x86>
   10f42:	002c                	addi	a1,sp,8
   10f44:	8522                	mv	a0,s0
   10f46:	e422                	sd	s0,8(sp)
   10f48:	74d010ef          	jal	ra,12e94 <strtod>
   10f4c:	67a2                	ld	a5,8(sp)
   10f4e:	22a50453          	fmv.d	fs0,fa0
   10f52:	0007c783          	lbu	a5,0(a5)
   10f56:	d7e1                	beqz	a5,10f1e <parse_double_array+0x3a>
   10f58:	7501b783          	ld	a5,1872(gp) # 22b80 <_impure_ptr>
   10f5c:	864a                	mv	a2,s2
   10f5e:	538b0593          	addi	a1,s6,1336 # 1f538 <__clzdi2+0x1fa>
   10f62:	6f88                	ld	a0,24(a5)
   10f64:	696000ef          	jal	ra,115fa <fprintf>
   10f68:	bf5d                	j	10f1e <parse_double_array+0x3a>
   10f6a:	8522                	mv	a0,s0
   10f6c:	030010ef          	jal	ra,11f9c <strlen>
   10f70:	9522                	add	a0,a0,s0
   10f72:	47a9                	li	a5,10
   10f74:	00f50023          	sb	a5,0(a0)
   10f78:	70a6                	ld	ra,104(sp)
   10f7a:	7406                	ld	s0,96(sp)
   10f7c:	64e6                	ld	s1,88(sp)
   10f7e:	6946                	ld	s2,80(sp)
   10f80:	69a6                	ld	s3,72(sp)
   10f82:	6a06                	ld	s4,64(sp)
   10f84:	7ae2                	ld	s5,56(sp)
   10f86:	7b42                	ld	s6,48(sp)
   10f88:	7ba2                	ld	s7,40(sp)
   10f8a:	2462                	fld	fs0,24(sp)
   10f8c:	4501                	li	a0,0
   10f8e:	6165                	addi	sp,sp,112
   10f90:	8082                	ret
   10f92:	0001f6b7          	lui	a3,0x1f
   10f96:	0001f637          	lui	a2,0x1f
   10f9a:	0001f537          	lui	a0,0x1f
   10f9e:	50868693          	addi	a3,a3,1288 # 1f508 <__clzdi2+0x1ca>
   10fa2:	6d060613          	addi	a2,a2,1744 # 1f6d0 <__func__.4046>
   10fa6:	08e00593          	li	a1,142
   10faa:	3d050513          	addi	a0,a0,976 # 1f3d0 <__clzdi2+0x92>
   10fae:	578000ef          	jal	ra,11526 <__assert_func>

0000000000010fb2 <write_string>:
   10fb2:	7179                	addi	sp,sp,-48
   10fb4:	f406                	sd	ra,40(sp)
   10fb6:	f022                	sd	s0,32(sp)
   10fb8:	ec26                	sd	s1,24(sp)
   10fba:	e84a                	sd	s2,16(sp)
   10fbc:	e44e                	sd	s3,8(sp)
   10fbe:	4785                	li	a5,1
   10fc0:	0aa7d763          	bge	a5,a0,1106e <write_string+0xbc>
   10fc4:	892a                	mv	s2,a0
   10fc6:	89ae                	mv	s3,a1
   10fc8:	84b2                	mv	s1,a2
   10fca:	04064c63          	bltz	a2,11022 <write_string+0x70>
   10fce:	02905363          	blez	s1,10ff4 <write_string+0x42>
   10fd2:	4401                	li	s0,0
   10fd4:	4084863b          	subw	a2,s1,s0
   10fd8:	008985b3          	add	a1,s3,s0
   10fdc:	854a                	mv	a0,s2
   10fde:	228020ef          	jal	ra,13206 <write>
   10fe2:	02051713          	slli	a4,a0,0x20
   10fe6:	0005079b          	sext.w	a5,a0
   10fea:	06074263          	bltz	a4,1104e <write_string+0x9c>
   10fee:	9c3d                	addw	s0,s0,a5
   10ff0:	fe9442e3          	blt	s0,s1,10fd4 <write_string+0x22>
   10ff4:	0001f437          	lui	s0,0x1f
   10ff8:	4605                	li	a2,1
   10ffa:	53040593          	addi	a1,s0,1328 # 1f530 <__clzdi2+0x1f2>
   10ffe:	854a                	mv	a0,s2
   11000:	206020ef          	jal	ra,13206 <write>
   11004:	02051713          	slli	a4,a0,0x20
   11008:	0005079b          	sext.w	a5,a0
   1100c:	02074163          	bltz	a4,1102e <write_string+0x7c>
   11010:	d7e5                	beqz	a5,10ff8 <write_string+0x46>
   11012:	70a2                	ld	ra,40(sp)
   11014:	7402                	ld	s0,32(sp)
   11016:	64e2                	ld	s1,24(sp)
   11018:	6942                	ld	s2,16(sp)
   1101a:	69a2                	ld	s3,8(sp)
   1101c:	4501                	li	a0,0
   1101e:	6145                	addi	sp,sp,48
   11020:	8082                	ret
   11022:	852e                	mv	a0,a1
   11024:	779000ef          	jal	ra,11f9c <strlen>
   11028:	0005049b          	sext.w	s1,a0
   1102c:	b74d                	j	10fce <write_string+0x1c>
   1102e:	0001f6b7          	lui	a3,0x1f
   11032:	0001f637          	lui	a2,0x1f
   11036:	0001f537          	lui	a0,0x1f
   1103a:	3e868693          	addi	a3,a3,1000 # 1f3e8 <__clzdi2+0xaa>
   1103e:	6e860613          	addi	a2,a2,1768 # 1f6e8 <__func__.4057>
   11042:	0a000593          	li	a1,160
   11046:	3d050513          	addi	a0,a0,976 # 1f3d0 <__clzdi2+0x92>
   1104a:	4dc000ef          	jal	ra,11526 <__assert_func>
   1104e:	0001f6b7          	lui	a3,0x1f
   11052:	0001f637          	lui	a2,0x1f
   11056:	0001f537          	lui	a0,0x1f
   1105a:	3e868693          	addi	a3,a3,1000 # 1f3e8 <__clzdi2+0xaa>
   1105e:	6e860613          	addi	a2,a2,1768 # 1f6e8 <__func__.4057>
   11062:	09a00593          	li	a1,154
   11066:	3d050513          	addi	a0,a0,976 # 1f3d0 <__clzdi2+0x92>
   1106a:	4bc000ef          	jal	ra,11526 <__assert_func>
   1106e:	0001f6b7          	lui	a3,0x1f
   11072:	0001f637          	lui	a2,0x1f
   11076:	0001f537          	lui	a0,0x1f
   1107a:	44068693          	addi	a3,a3,1088 # 1f440 <__clzdi2+0x102>
   1107e:	6e860613          	addi	a2,a2,1768 # 1f6e8 <__func__.4057>
   11082:	09300593          	li	a1,147
   11086:	3d050513          	addi	a0,a0,976 # 1f3d0 <__clzdi2+0x92>
   1108a:	49c000ef          	jal	ra,11526 <__assert_func>

000000000001108e <write_uint8_t_array>:
   1108e:	7179                	addi	sp,sp,-48
   11090:	f406                	sd	ra,40(sp)
   11092:	f022                	sd	s0,32(sp)
   11094:	ec26                	sd	s1,24(sp)
   11096:	e84a                	sd	s2,16(sp)
   11098:	e44e                	sd	s3,8(sp)
   1109a:	4785                	li	a5,1
   1109c:	04a7d063          	bge	a5,a0,110dc <write_uint8_t_array+0x4e>
   110a0:	02c05663          	blez	a2,110cc <write_uint8_t_array+0x3e>
   110a4:	367d                	addiw	a2,a2,-1
   110a6:	1602                	slli	a2,a2,0x20
   110a8:	00158913          	addi	s2,a1,1
   110ac:	9201                	srli	a2,a2,0x20
   110ae:	84aa                	mv	s1,a0
   110b0:	842e                	mv	s0,a1
   110b2:	9932                	add	s2,s2,a2
   110b4:	0001f9b7          	lui	s3,0x1f
   110b8:	00044603          	lbu	a2,0(s0)
   110bc:	56098593          	addi	a1,s3,1376 # 1f560 <__clzdi2+0x222>
   110c0:	0405                	addi	s0,s0,1
   110c2:	8526                	mv	a0,s1
   110c4:	c26ff0ef          	jal	ra,104ea <fd_printf>
   110c8:	ff2418e3          	bne	s0,s2,110b8 <write_uint8_t_array+0x2a>
   110cc:	70a2                	ld	ra,40(sp)
   110ce:	7402                	ld	s0,32(sp)
   110d0:	64e2                	ld	s1,24(sp)
   110d2:	6942                	ld	s2,16(sp)
   110d4:	69a2                	ld	s3,8(sp)
   110d6:	4501                	li	a0,0
   110d8:	6145                	addi	sp,sp,48
   110da:	8082                	ret
   110dc:	0001f6b7          	lui	a3,0x1f
   110e0:	0001f637          	lui	a2,0x1f
   110e4:	0001f537          	lui	a0,0x1f
   110e8:	44068693          	addi	a3,a3,1088 # 1f440 <__clzdi2+0x102>
   110ec:	6f860613          	addi	a2,a2,1784 # 1f6f8 <__func__.4069>
   110f0:	0b100593          	li	a1,177
   110f4:	3d050513          	addi	a0,a0,976 # 1f3d0 <__clzdi2+0x92>
   110f8:	42e000ef          	jal	ra,11526 <__assert_func>

00000000000110fc <write_uint16_t_array>:
   110fc:	7179                	addi	sp,sp,-48
   110fe:	f406                	sd	ra,40(sp)
   11100:	f022                	sd	s0,32(sp)
   11102:	ec26                	sd	s1,24(sp)
   11104:	e84a                	sd	s2,16(sp)
   11106:	e44e                	sd	s3,8(sp)
   11108:	4785                	li	a5,1
   1110a:	04a7d163          	bge	a5,a0,1114c <write_uint16_t_array+0x50>
   1110e:	02c05763          	blez	a2,1113c <write_uint16_t_array+0x40>
   11112:	fff6049b          	addiw	s1,a2,-1
   11116:	1482                	slli	s1,s1,0x20
   11118:	80fd                	srli	s1,s1,0x1f
   1111a:	00258793          	addi	a5,a1,2
   1111e:	892a                	mv	s2,a0
   11120:	842e                	mv	s0,a1
   11122:	94be                	add	s1,s1,a5
   11124:	0001f9b7          	lui	s3,0x1f
   11128:	00045603          	lhu	a2,0(s0)
   1112c:	56898593          	addi	a1,s3,1384 # 1f568 <__clzdi2+0x22a>
   11130:	0409                	addi	s0,s0,2
   11132:	854a                	mv	a0,s2
   11134:	bb6ff0ef          	jal	ra,104ea <fd_printf>
   11138:	fe8498e3          	bne	s1,s0,11128 <write_uint16_t_array+0x2c>
   1113c:	70a2                	ld	ra,40(sp)
   1113e:	7402                	ld	s0,32(sp)
   11140:	64e2                	ld	s1,24(sp)
   11142:	6942                	ld	s2,16(sp)
   11144:	69a2                	ld	s3,8(sp)
   11146:	4501                	li	a0,0
   11148:	6145                	addi	sp,sp,48
   1114a:	8082                	ret
   1114c:	0001f6b7          	lui	a3,0x1f
   11150:	0001f637          	lui	a2,0x1f
   11154:	0001f537          	lui	a0,0x1f
   11158:	44068693          	addi	a3,a3,1088 # 1f440 <__clzdi2+0x102>
   1115c:	71060613          	addi	a2,a2,1808 # 1f710 <__func__.4079>
   11160:	0b200593          	li	a1,178
   11164:	3d050513          	addi	a0,a0,976 # 1f3d0 <__clzdi2+0x92>
   11168:	3be000ef          	jal	ra,11526 <__assert_func>

000000000001116c <write_uint32_t_array>:
   1116c:	7179                	addi	sp,sp,-48
   1116e:	f406                	sd	ra,40(sp)
   11170:	f022                	sd	s0,32(sp)
   11172:	ec26                	sd	s1,24(sp)
   11174:	e84a                	sd	s2,16(sp)
   11176:	e44e                	sd	s3,8(sp)
   11178:	4785                	li	a5,1
   1117a:	04a7d063          	bge	a5,a0,111ba <write_uint32_t_array+0x4e>
   1117e:	02c05663          	blez	a2,111aa <write_uint32_t_array+0x3e>
   11182:	fff6049b          	addiw	s1,a2,-1
   11186:	1482                	slli	s1,s1,0x20
   11188:	80f9                	srli	s1,s1,0x1e
   1118a:	00458793          	addi	a5,a1,4
   1118e:	892a                	mv	s2,a0
   11190:	842e                	mv	s0,a1
   11192:	94be                	add	s1,s1,a5
   11194:	0001f9b7          	lui	s3,0x1f
   11198:	4010                	lw	a2,0(s0)
   1119a:	57098593          	addi	a1,s3,1392 # 1f570 <__clzdi2+0x232>
   1119e:	0411                	addi	s0,s0,4
   111a0:	854a                	mv	a0,s2
   111a2:	b48ff0ef          	jal	ra,104ea <fd_printf>
   111a6:	fe9419e3          	bne	s0,s1,11198 <write_uint32_t_array+0x2c>
   111aa:	70a2                	ld	ra,40(sp)
   111ac:	7402                	ld	s0,32(sp)
   111ae:	64e2                	ld	s1,24(sp)
   111b0:	6942                	ld	s2,16(sp)
   111b2:	69a2                	ld	s3,8(sp)
   111b4:	4501                	li	a0,0
   111b6:	6145                	addi	sp,sp,48
   111b8:	8082                	ret
   111ba:	0001f6b7          	lui	a3,0x1f
   111be:	0001f637          	lui	a2,0x1f
   111c2:	0001f537          	lui	a0,0x1f
   111c6:	44068693          	addi	a3,a3,1088 # 1f440 <__clzdi2+0x102>
   111ca:	72860613          	addi	a2,a2,1832 # 1f728 <__func__.4089>
   111ce:	0b300593          	li	a1,179
   111d2:	3d050513          	addi	a0,a0,976 # 1f3d0 <__clzdi2+0x92>
   111d6:	350000ef          	jal	ra,11526 <__assert_func>

00000000000111da <write_uint64_t_array>:
   111da:	7179                	addi	sp,sp,-48
   111dc:	f406                	sd	ra,40(sp)
   111de:	f022                	sd	s0,32(sp)
   111e0:	ec26                	sd	s1,24(sp)
   111e2:	e84a                	sd	s2,16(sp)
   111e4:	e44e                	sd	s3,8(sp)
   111e6:	4785                	li	a5,1
   111e8:	04a7d063          	bge	a5,a0,11228 <write_uint64_t_array+0x4e>
   111ec:	02c05663          	blez	a2,11218 <write_uint64_t_array+0x3e>
   111f0:	fff6049b          	addiw	s1,a2,-1
   111f4:	1482                	slli	s1,s1,0x20
   111f6:	80f5                	srli	s1,s1,0x1d
   111f8:	00858793          	addi	a5,a1,8
   111fc:	892a                	mv	s2,a0
   111fe:	842e                	mv	s0,a1
   11200:	94be                	add	s1,s1,a5
   11202:	0001f9b7          	lui	s3,0x1f
   11206:	6010                	ld	a2,0(s0)
   11208:	57898593          	addi	a1,s3,1400 # 1f578 <__clzdi2+0x23a>
   1120c:	0421                	addi	s0,s0,8
   1120e:	854a                	mv	a0,s2
   11210:	adaff0ef          	jal	ra,104ea <fd_printf>
   11214:	fe9419e3          	bne	s0,s1,11206 <write_uint64_t_array+0x2c>
   11218:	70a2                	ld	ra,40(sp)
   1121a:	7402                	ld	s0,32(sp)
   1121c:	64e2                	ld	s1,24(sp)
   1121e:	6942                	ld	s2,16(sp)
   11220:	69a2                	ld	s3,8(sp)
   11222:	4501                	li	a0,0
   11224:	6145                	addi	sp,sp,48
   11226:	8082                	ret
   11228:	0001f6b7          	lui	a3,0x1f
   1122c:	0001f637          	lui	a2,0x1f
   11230:	0001f537          	lui	a0,0x1f
   11234:	44068693          	addi	a3,a3,1088 # 1f440 <__clzdi2+0x102>
   11238:	74060613          	addi	a2,a2,1856 # 1f740 <__func__.4099>
   1123c:	0b400593          	li	a1,180
   11240:	3d050513          	addi	a0,a0,976 # 1f3d0 <__clzdi2+0x92>
   11244:	2e2000ef          	jal	ra,11526 <__assert_func>

0000000000011248 <write_int8_t_array>:
   11248:	7179                	addi	sp,sp,-48
   1124a:	f406                	sd	ra,40(sp)
   1124c:	f022                	sd	s0,32(sp)
   1124e:	ec26                	sd	s1,24(sp)
   11250:	e84a                	sd	s2,16(sp)
   11252:	e44e                	sd	s3,8(sp)
   11254:	4785                	li	a5,1
   11256:	04a7d063          	bge	a5,a0,11296 <write_int8_t_array+0x4e>
   1125a:	02c05663          	blez	a2,11286 <write_int8_t_array+0x3e>
   1125e:	367d                	addiw	a2,a2,-1
   11260:	1602                	slli	a2,a2,0x20
   11262:	00158913          	addi	s2,a1,1
   11266:	9201                	srli	a2,a2,0x20
   11268:	84aa                	mv	s1,a0
   1126a:	842e                	mv	s0,a1
   1126c:	9932                	add	s2,s2,a2
   1126e:	0001f9b7          	lui	s3,0x1f
   11272:	00040603          	lb	a2,0(s0)
   11276:	58098593          	addi	a1,s3,1408 # 1f580 <__clzdi2+0x242>
   1127a:	0405                	addi	s0,s0,1
   1127c:	8526                	mv	a0,s1
   1127e:	a6cff0ef          	jal	ra,104ea <fd_printf>
   11282:	ff2418e3          	bne	s0,s2,11272 <write_int8_t_array+0x2a>
   11286:	70a2                	ld	ra,40(sp)
   11288:	7402                	ld	s0,32(sp)
   1128a:	64e2                	ld	s1,24(sp)
   1128c:	6942                	ld	s2,16(sp)
   1128e:	69a2                	ld	s3,8(sp)
   11290:	4501                	li	a0,0
   11292:	6145                	addi	sp,sp,48
   11294:	8082                	ret
   11296:	0001f6b7          	lui	a3,0x1f
   1129a:	0001f637          	lui	a2,0x1f
   1129e:	0001f537          	lui	a0,0x1f
   112a2:	44068693          	addi	a3,a3,1088 # 1f440 <__clzdi2+0x102>
   112a6:	75860613          	addi	a2,a2,1880 # 1f758 <__func__.4109>
   112aa:	0b500593          	li	a1,181
   112ae:	3d050513          	addi	a0,a0,976 # 1f3d0 <__clzdi2+0x92>
   112b2:	274000ef          	jal	ra,11526 <__assert_func>

00000000000112b6 <write_int16_t_array>:
   112b6:	7179                	addi	sp,sp,-48
   112b8:	f406                	sd	ra,40(sp)
   112ba:	f022                	sd	s0,32(sp)
   112bc:	ec26                	sd	s1,24(sp)
   112be:	e84a                	sd	s2,16(sp)
   112c0:	e44e                	sd	s3,8(sp)
   112c2:	4785                	li	a5,1
   112c4:	04a7d163          	bge	a5,a0,11306 <write_int16_t_array+0x50>
   112c8:	02c05763          	blez	a2,112f6 <write_int16_t_array+0x40>
   112cc:	fff6049b          	addiw	s1,a2,-1
   112d0:	1482                	slli	s1,s1,0x20
   112d2:	80fd                	srli	s1,s1,0x1f
   112d4:	00258793          	addi	a5,a1,2
   112d8:	892a                	mv	s2,a0
   112da:	842e                	mv	s0,a1
   112dc:	94be                	add	s1,s1,a5
   112de:	0001f9b7          	lui	s3,0x1f
   112e2:	00041603          	lh	a2,0(s0)
   112e6:	58898593          	addi	a1,s3,1416 # 1f588 <__clzdi2+0x24a>
   112ea:	0409                	addi	s0,s0,2
   112ec:	854a                	mv	a0,s2
   112ee:	9fcff0ef          	jal	ra,104ea <fd_printf>
   112f2:	fe8498e3          	bne	s1,s0,112e2 <write_int16_t_array+0x2c>
   112f6:	70a2                	ld	ra,40(sp)
   112f8:	7402                	ld	s0,32(sp)
   112fa:	64e2                	ld	s1,24(sp)
   112fc:	6942                	ld	s2,16(sp)
   112fe:	69a2                	ld	s3,8(sp)
   11300:	4501                	li	a0,0
   11302:	6145                	addi	sp,sp,48
   11304:	8082                	ret
   11306:	0001f6b7          	lui	a3,0x1f
   1130a:	0001f637          	lui	a2,0x1f
   1130e:	0001f537          	lui	a0,0x1f
   11312:	44068693          	addi	a3,a3,1088 # 1f440 <__clzdi2+0x102>
   11316:	77060613          	addi	a2,a2,1904 # 1f770 <__func__.4119>
   1131a:	0b600593          	li	a1,182
   1131e:	3d050513          	addi	a0,a0,976 # 1f3d0 <__clzdi2+0x92>
   11322:	204000ef          	jal	ra,11526 <__assert_func>

0000000000011326 <write_int32_t_array>:
   11326:	7179                	addi	sp,sp,-48
   11328:	f406                	sd	ra,40(sp)
   1132a:	f022                	sd	s0,32(sp)
   1132c:	ec26                	sd	s1,24(sp)
   1132e:	e84a                	sd	s2,16(sp)
   11330:	e44e                	sd	s3,8(sp)
   11332:	4785                	li	a5,1
   11334:	04a7d063          	bge	a5,a0,11374 <write_int32_t_array+0x4e>
   11338:	02c05663          	blez	a2,11364 <write_int32_t_array+0x3e>
   1133c:	fff6049b          	addiw	s1,a2,-1
   11340:	1482                	slli	s1,s1,0x20
   11342:	80f9                	srli	s1,s1,0x1e
   11344:	00458793          	addi	a5,a1,4
   11348:	892a                	mv	s2,a0
   1134a:	842e                	mv	s0,a1
   1134c:	94be                	add	s1,s1,a5
   1134e:	0001f9b7          	lui	s3,0x1f
   11352:	4010                	lw	a2,0(s0)
   11354:	59098593          	addi	a1,s3,1424 # 1f590 <__clzdi2+0x252>
   11358:	0411                	addi	s0,s0,4
   1135a:	854a                	mv	a0,s2
   1135c:	98eff0ef          	jal	ra,104ea <fd_printf>
   11360:	fe9419e3          	bne	s0,s1,11352 <write_int32_t_array+0x2c>
   11364:	70a2                	ld	ra,40(sp)
   11366:	7402                	ld	s0,32(sp)
   11368:	64e2                	ld	s1,24(sp)
   1136a:	6942                	ld	s2,16(sp)
   1136c:	69a2                	ld	s3,8(sp)
   1136e:	4501                	li	a0,0
   11370:	6145                	addi	sp,sp,48
   11372:	8082                	ret
   11374:	0001f6b7          	lui	a3,0x1f
   11378:	0001f637          	lui	a2,0x1f
   1137c:	0001f537          	lui	a0,0x1f
   11380:	44068693          	addi	a3,a3,1088 # 1f440 <__clzdi2+0x102>
   11384:	78860613          	addi	a2,a2,1928 # 1f788 <__func__.4129>
   11388:	0b700593          	li	a1,183
   1138c:	3d050513          	addi	a0,a0,976 # 1f3d0 <__clzdi2+0x92>
   11390:	196000ef          	jal	ra,11526 <__assert_func>

0000000000011394 <write_int64_t_array>:
   11394:	7179                	addi	sp,sp,-48
   11396:	f406                	sd	ra,40(sp)
   11398:	f022                	sd	s0,32(sp)
   1139a:	ec26                	sd	s1,24(sp)
   1139c:	e84a                	sd	s2,16(sp)
   1139e:	e44e                	sd	s3,8(sp)
   113a0:	4785                	li	a5,1
   113a2:	04a7d063          	bge	a5,a0,113e2 <write_int64_t_array+0x4e>
   113a6:	02c05663          	blez	a2,113d2 <write_int64_t_array+0x3e>
   113aa:	fff6049b          	addiw	s1,a2,-1
   113ae:	1482                	slli	s1,s1,0x20
   113b0:	80f5                	srli	s1,s1,0x1d
   113b2:	00858793          	addi	a5,a1,8
   113b6:	892a                	mv	s2,a0
   113b8:	842e                	mv	s0,a1
   113ba:	94be                	add	s1,s1,a5
   113bc:	0001f9b7          	lui	s3,0x1f
   113c0:	6010                	ld	a2,0(s0)
   113c2:	59898593          	addi	a1,s3,1432 # 1f598 <__clzdi2+0x25a>
   113c6:	0421                	addi	s0,s0,8
   113c8:	854a                	mv	a0,s2
   113ca:	920ff0ef          	jal	ra,104ea <fd_printf>
   113ce:	fe9419e3          	bne	s0,s1,113c0 <write_int64_t_array+0x2c>
   113d2:	70a2                	ld	ra,40(sp)
   113d4:	7402                	ld	s0,32(sp)
   113d6:	64e2                	ld	s1,24(sp)
   113d8:	6942                	ld	s2,16(sp)
   113da:	69a2                	ld	s3,8(sp)
   113dc:	4501                	li	a0,0
   113de:	6145                	addi	sp,sp,48
   113e0:	8082                	ret
   113e2:	0001f6b7          	lui	a3,0x1f
   113e6:	0001f637          	lui	a2,0x1f
   113ea:	0001f537          	lui	a0,0x1f
   113ee:	44068693          	addi	a3,a3,1088 # 1f440 <__clzdi2+0x102>
   113f2:	7a060613          	addi	a2,a2,1952 # 1f7a0 <__func__.4139>
   113f6:	0b800593          	li	a1,184
   113fa:	3d050513          	addi	a0,a0,976 # 1f3d0 <__clzdi2+0x92>
   113fe:	128000ef          	jal	ra,11526 <__assert_func>

0000000000011402 <write_float_array>:
   11402:	7179                	addi	sp,sp,-48
   11404:	f406                	sd	ra,40(sp)
   11406:	f022                	sd	s0,32(sp)
   11408:	ec26                	sd	s1,24(sp)
   1140a:	e84a                	sd	s2,16(sp)
   1140c:	e44e                	sd	s3,8(sp)
   1140e:	4785                	li	a5,1
   11410:	04a7d563          	bge	a5,a0,1145a <write_float_array+0x58>
   11414:	02c05b63          	blez	a2,1144a <write_float_array+0x48>
   11418:	fff6049b          	addiw	s1,a2,-1
   1141c:	1482                	slli	s1,s1,0x20
   1141e:	80f9                	srli	s1,s1,0x1e
   11420:	00458793          	addi	a5,a1,4
   11424:	892a                	mv	s2,a0
   11426:	842e                	mv	s0,a1
   11428:	94be                	add	s1,s1,a5
   1142a:	0001f9b7          	lui	s3,0x1f
   1142e:	00042787          	flw	fa5,0(s0)
   11432:	5a098593          	addi	a1,s3,1440 # 1f5a0 <__clzdi2+0x262>
   11436:	0411                	addi	s0,s0,4
   11438:	420787d3          	fcvt.d.s	fa5,fa5
   1143c:	854a                	mv	a0,s2
   1143e:	e2078653          	fmv.x.d	a2,fa5
   11442:	8a8ff0ef          	jal	ra,104ea <fd_printf>
   11446:	fe8494e3          	bne	s1,s0,1142e <write_float_array+0x2c>
   1144a:	70a2                	ld	ra,40(sp)
   1144c:	7402                	ld	s0,32(sp)
   1144e:	64e2                	ld	s1,24(sp)
   11450:	6942                	ld	s2,16(sp)
   11452:	69a2                	ld	s3,8(sp)
   11454:	4501                	li	a0,0
   11456:	6145                	addi	sp,sp,48
   11458:	8082                	ret
   1145a:	0001f6b7          	lui	a3,0x1f
   1145e:	0001f637          	lui	a2,0x1f
   11462:	0001f537          	lui	a0,0x1f
   11466:	44068693          	addi	a3,a3,1088 # 1f440 <__clzdi2+0x102>
   1146a:	7b860613          	addi	a2,a2,1976 # 1f7b8 <__func__.4149>
   1146e:	0ba00593          	li	a1,186
   11472:	3d050513          	addi	a0,a0,976 # 1f3d0 <__clzdi2+0x92>
   11476:	0b0000ef          	jal	ra,11526 <__assert_func>

000000000001147a <write_double_array>:
   1147a:	7179                	addi	sp,sp,-48
   1147c:	f406                	sd	ra,40(sp)
   1147e:	f022                	sd	s0,32(sp)
   11480:	ec26                	sd	s1,24(sp)
   11482:	e84a                	sd	s2,16(sp)
   11484:	e44e                	sd	s3,8(sp)
   11486:	4785                	li	a5,1
   11488:	04a7d063          	bge	a5,a0,114c8 <write_double_array+0x4e>
   1148c:	02c05663          	blez	a2,114b8 <write_double_array+0x3e>
   11490:	fff6049b          	addiw	s1,a2,-1
   11494:	1482                	slli	s1,s1,0x20
   11496:	80f5                	srli	s1,s1,0x1d
   11498:	00858793          	addi	a5,a1,8
   1149c:	892a                	mv	s2,a0
   1149e:	842e                	mv	s0,a1
   114a0:	94be                	add	s1,s1,a5
   114a2:	0001f9b7          	lui	s3,0x1f
   114a6:	6010                	ld	a2,0(s0)
   114a8:	5a098593          	addi	a1,s3,1440 # 1f5a0 <__clzdi2+0x262>
   114ac:	0421                	addi	s0,s0,8
   114ae:	854a                	mv	a0,s2
   114b0:	83aff0ef          	jal	ra,104ea <fd_printf>
   114b4:	fe9419e3          	bne	s0,s1,114a6 <write_double_array+0x2c>
   114b8:	70a2                	ld	ra,40(sp)
   114ba:	7402                	ld	s0,32(sp)
   114bc:	64e2                	ld	s1,24(sp)
   114be:	6942                	ld	s2,16(sp)
   114c0:	69a2                	ld	s3,8(sp)
   114c2:	4501                	li	a0,0
   114c4:	6145                	addi	sp,sp,48
   114c6:	8082                	ret
   114c8:	0001f6b7          	lui	a3,0x1f
   114cc:	0001f637          	lui	a2,0x1f
   114d0:	0001f537          	lui	a0,0x1f
   114d4:	44068693          	addi	a3,a3,1088 # 1f440 <__clzdi2+0x102>
   114d8:	7d060613          	addi	a2,a2,2000 # 1f7d0 <__func__.4159>
   114dc:	0bb00593          	li	a1,187
   114e0:	3d050513          	addi	a0,a0,976 # 1f3d0 <__clzdi2+0x92>
   114e4:	042000ef          	jal	ra,11526 <__assert_func>

00000000000114e8 <write_section_header>:
   114e8:	1141                	addi	sp,sp,-16
   114ea:	e406                	sd	ra,8(sp)
   114ec:	4785                	li	a5,1
   114ee:	00a7dc63          	bge	a5,a0,11506 <write_section_header+0x1e>
   114f2:	0001f5b7          	lui	a1,0x1f
   114f6:	5a858593          	addi	a1,a1,1448 # 1f5a8 <__clzdi2+0x26a>
   114fa:	ff1fe0ef          	jal	ra,104ea <fd_printf>
   114fe:	60a2                	ld	ra,8(sp)
   11500:	4501                	li	a0,0
   11502:	0141                	addi	sp,sp,16
   11504:	8082                	ret
   11506:	0001f6b7          	lui	a3,0x1f
   1150a:	0001f637          	lui	a2,0x1f
   1150e:	0001f537          	lui	a0,0x1f
   11512:	44068693          	addi	a3,a3,1088 # 1f440 <__clzdi2+0x102>
   11516:	7e860613          	addi	a2,a2,2024 # 1f7e8 <__func__.4166>
   1151a:	0be00593          	li	a1,190
   1151e:	3d050513          	addi	a0,a0,976 # 1f3d0 <__clzdi2+0x92>
   11522:	004000ef          	jal	ra,11526 <__assert_func>

0000000000011526 <__assert_func>:
   11526:	1141                	addi	sp,sp,-16
   11528:	87b6                	mv	a5,a3
   1152a:	7501b703          	ld	a4,1872(gp) # 22b80 <_impure_ptr>
   1152e:	8832                	mv	a6,a2
   11530:	e406                	sd	ra,8(sp)
   11532:	01873883          	ld	a7,24(a4)
   11536:	863e                	mv	a2,a5
   11538:	86aa                	mv	a3,a0
   1153a:	872e                	mv	a4,a1
   1153c:	0000e797          	auipc	a5,0xe
   11540:	4dc78793          	addi	a5,a5,1244 # 1fa18 <__func__.4166+0x230>
   11544:	00080b63          	beqz	a6,1155a <__assert_func+0x34>
   11548:	0000e597          	auipc	a1,0xe
   1154c:	4e058593          	addi	a1,a1,1248 # 1fa28 <__func__.4166+0x240>
   11550:	8546                	mv	a0,a7
   11552:	05e000ef          	jal	ra,115b0 <fiprintf>
   11556:	0bb040ef          	jal	ra,15e10 <abort>
   1155a:	0000e797          	auipc	a5,0xe
   1155e:	4a678793          	addi	a5,a5,1190 # 1fa00 <__func__.4166+0x218>
   11562:	883e                	mv	a6,a5
   11564:	b7d5                	j	11548 <__assert_func+0x22>

0000000000011566 <__assert>:
   11566:	1141                	addi	sp,sp,-16
   11568:	86b2                	mv	a3,a2
   1156a:	4601                	li	a2,0
   1156c:	e406                	sd	ra,8(sp)
   1156e:	fb9ff0ef          	jal	ra,11526 <__assert_func>

0000000000011572 <exit>:
   11572:	1141                	addi	sp,sp,-16
   11574:	4581                	li	a1,0
   11576:	e022                	sd	s0,0(sp)
   11578:	e406                	sd	ra,8(sp)
   1157a:	842a                	mv	s0,a0
   1157c:	0a5040ef          	jal	ra,15e20 <__call_exitprocs>
   11580:	7381b503          	ld	a0,1848(gp) # 22b68 <_global_impure_ptr>
   11584:	6d3c                	ld	a5,88(a0)
   11586:	c391                	beqz	a5,1158a <exit+0x18>
   11588:	9782                	jalr	a5
   1158a:	8522                	mv	a0,s0
   1158c:	7980c0ef          	jal	ra,1dd24 <_exit>

0000000000011590 <_fiprintf_r>:
   11590:	715d                	addi	sp,sp,-80
   11592:	02810313          	addi	t1,sp,40
   11596:	f436                	sd	a3,40(sp)
   11598:	869a                	mv	a3,t1
   1159a:	ec06                	sd	ra,24(sp)
   1159c:	f83a                	sd	a4,48(sp)
   1159e:	fc3e                	sd	a5,56(sp)
   115a0:	e0c2                	sd	a6,64(sp)
   115a2:	e4c6                	sd	a7,72(sp)
   115a4:	e41a                	sd	t1,8(sp)
   115a6:	521010ef          	jal	ra,132c6 <_vfiprintf_r>
   115aa:	60e2                	ld	ra,24(sp)
   115ac:	6161                	addi	sp,sp,80
   115ae:	8082                	ret

00000000000115b0 <fiprintf>:
   115b0:	715d                	addi	sp,sp,-80
   115b2:	02010313          	addi	t1,sp,32
   115b6:	f032                	sd	a2,32(sp)
   115b8:	f436                	sd	a3,40(sp)
   115ba:	862e                	mv	a2,a1
   115bc:	869a                	mv	a3,t1
   115be:	85aa                	mv	a1,a0
   115c0:	7501b503          	ld	a0,1872(gp) # 22b80 <_impure_ptr>
   115c4:	ec06                	sd	ra,24(sp)
   115c6:	f83a                	sd	a4,48(sp)
   115c8:	fc3e                	sd	a5,56(sp)
   115ca:	e0c2                	sd	a6,64(sp)
   115cc:	e4c6                	sd	a7,72(sp)
   115ce:	e41a                	sd	t1,8(sp)
   115d0:	4f7010ef          	jal	ra,132c6 <_vfiprintf_r>
   115d4:	60e2                	ld	ra,24(sp)
   115d6:	6161                	addi	sp,sp,80
   115d8:	8082                	ret

00000000000115da <_fprintf_r>:
   115da:	715d                	addi	sp,sp,-80
   115dc:	02810313          	addi	t1,sp,40
   115e0:	f436                	sd	a3,40(sp)
   115e2:	869a                	mv	a3,t1
   115e4:	ec06                	sd	ra,24(sp)
   115e6:	f83a                	sd	a4,48(sp)
   115e8:	fc3e                	sd	a5,56(sp)
   115ea:	e0c2                	sd	a6,64(sp)
   115ec:	e4c6                	sd	a7,72(sp)
   115ee:	e41a                	sd	t1,8(sp)
   115f0:	1a7020ef          	jal	ra,13f96 <_vfprintf_r>
   115f4:	60e2                	ld	ra,24(sp)
   115f6:	6161                	addi	sp,sp,80
   115f8:	8082                	ret

00000000000115fa <fprintf>:
   115fa:	715d                	addi	sp,sp,-80
   115fc:	02010313          	addi	t1,sp,32
   11600:	f032                	sd	a2,32(sp)
   11602:	f436                	sd	a3,40(sp)
   11604:	862e                	mv	a2,a1
   11606:	869a                	mv	a3,t1
   11608:	85aa                	mv	a1,a0
   1160a:	7501b503          	ld	a0,1872(gp) # 22b80 <_impure_ptr>
   1160e:	ec06                	sd	ra,24(sp)
   11610:	f83a                	sd	a4,48(sp)
   11612:	fc3e                	sd	a5,56(sp)
   11614:	e0c2                	sd	a6,64(sp)
   11616:	e4c6                	sd	a7,72(sp)
   11618:	e41a                	sd	t1,8(sp)
   1161a:	17d020ef          	jal	ra,13f96 <_vfprintf_r>
   1161e:	60e2                	ld	ra,24(sp)
   11620:	6161                	addi	sp,sp,80
   11622:	8082                	ret

0000000000011624 <_fwrite_r>:
   11624:	7159                	addi	sp,sp,-112
   11626:	e8ca                	sd	s2,80(sp)
   11628:	02c68933          	mul	s2,a3,a2
   1162c:	083c                	addi	a5,sp,24
   1162e:	f43e                	sd	a5,40(sp)
   11630:	4785                	li	a5,1
   11632:	f0a2                	sd	s0,96(sp)
   11634:	eca6                	sd	s1,88(sp)
   11636:	e4ce                	sd	s3,72(sp)
   11638:	ec2e                	sd	a1,24(sp)
   1163a:	f486                	sd	ra,104(sp)
   1163c:	d83e                	sw	a5,48(sp)
   1163e:	f04a                	sd	s2,32(sp)
   11640:	fc4a                	sd	s2,56(sp)
   11642:	89b2                	mv	s3,a2
   11644:	8436                	mv	s0,a3
   11646:	84aa                	mv	s1,a0
   11648:	85ba                	mv	a1,a4
   1164a:	c119                	beqz	a0,11650 <_fwrite_r+0x2c>
   1164c:	493c                	lw	a5,80(a0)
   1164e:	c7a1                	beqz	a5,11696 <_fwrite_r+0x72>
   11650:	01059783          	lh	a5,16(a1)
   11654:	03279713          	slli	a4,a5,0x32
   11658:	00074d63          	bltz	a4,11672 <_fwrite_r+0x4e>
   1165c:	0ac5a703          	lw	a4,172(a1)
   11660:	6689                	lui	a3,0x2
   11662:	8fd5                	or	a5,a5,a3
   11664:	76f9                	lui	a3,0xffffe
   11666:	16fd                	addi	a3,a3,-1
   11668:	8f75                	and	a4,a4,a3
   1166a:	00f59823          	sh	a5,16(a1)
   1166e:	0ae5a623          	sw	a4,172(a1)
   11672:	1030                	addi	a2,sp,40
   11674:	8526                	mv	a0,s1
   11676:	1de050ef          	jal	ra,16854 <__sfvwrite_r>
   1167a:	c511                	beqz	a0,11686 <_fwrite_r+0x62>
   1167c:	7462                	ld	s0,56(sp)
   1167e:	40890433          	sub	s0,s2,s0
   11682:	03345433          	divu	s0,s0,s3
   11686:	70a6                	ld	ra,104(sp)
   11688:	8522                	mv	a0,s0
   1168a:	7406                	ld	s0,96(sp)
   1168c:	64e6                	ld	s1,88(sp)
   1168e:	6946                	ld	s2,80(sp)
   11690:	69a6                	ld	s3,72(sp)
   11692:	6165                	addi	sp,sp,112
   11694:	8082                	ret
   11696:	e43a                	sd	a4,8(sp)
   11698:	4b5040ef          	jal	ra,1634c <__sinit>
   1169c:	65a2                	ld	a1,8(sp)
   1169e:	bf4d                	j	11650 <_fwrite_r+0x2c>

00000000000116a0 <fwrite>:
   116a0:	8736                	mv	a4,a3
   116a2:	86b2                	mv	a3,a2
   116a4:	862e                	mv	a2,a1
   116a6:	85aa                	mv	a1,a0
   116a8:	7501b503          	ld	a0,1872(gp) # 22b80 <_impure_ptr>
   116ac:	bfa5                	j	11624 <_fwrite_r>

00000000000116ae <__libc_init_array>:
   116ae:	1101                	addi	sp,sp,-32
   116b0:	e822                	sd	s0,16(sp)
   116b2:	e04a                	sd	s2,0(sp)
   116b4:	00010417          	auipc	s0,0x10
   116b8:	30040413          	addi	s0,s0,768 # 219b4 <__preinit_array_end>
   116bc:	00010917          	auipc	s2,0x10
   116c0:	2f890913          	addi	s2,s2,760 # 219b4 <__preinit_array_end>
   116c4:	40890933          	sub	s2,s2,s0
   116c8:	ec06                	sd	ra,24(sp)
   116ca:	e426                	sd	s1,8(sp)
   116cc:	40395913          	srai	s2,s2,0x3
   116d0:	00090963          	beqz	s2,116e2 <__libc_init_array+0x34>
   116d4:	4481                	li	s1,0
   116d6:	601c                	ld	a5,0(s0)
   116d8:	0485                	addi	s1,s1,1
   116da:	0421                	addi	s0,s0,8
   116dc:	9782                	jalr	a5
   116de:	fe991ce3          	bne	s2,s1,116d6 <__libc_init_array+0x28>
   116e2:	00010417          	auipc	s0,0x10
   116e6:	2d640413          	addi	s0,s0,726 # 219b8 <__init_array_start>
   116ea:	00010917          	auipc	s2,0x10
   116ee:	2de90913          	addi	s2,s2,734 # 219c8 <__init_array_end>
   116f2:	40890933          	sub	s2,s2,s0
   116f6:	40395913          	srai	s2,s2,0x3
   116fa:	00090963          	beqz	s2,1170c <__libc_init_array+0x5e>
   116fe:	4481                	li	s1,0
   11700:	601c                	ld	a5,0(s0)
   11702:	0485                	addi	s1,s1,1
   11704:	0421                	addi	s0,s0,8
   11706:	9782                	jalr	a5
   11708:	fe991ce3          	bne	s2,s1,11700 <__libc_init_array+0x52>
   1170c:	60e2                	ld	ra,24(sp)
   1170e:	6442                	ld	s0,16(sp)
   11710:	64a2                	ld	s1,8(sp)
   11712:	6902                	ld	s2,0(sp)
   11714:	6105                	addi	sp,sp,32
   11716:	8082                	ret

0000000000011718 <malloc>:
   11718:	85aa                	mv	a1,a0
   1171a:	7501b503          	ld	a0,1872(gp) # 22b80 <_impure_ptr>
   1171e:	a031                	j	1172a <_malloc_r>

0000000000011720 <free>:
   11720:	85aa                	mv	a1,a0
   11722:	7501b503          	ld	a0,1872(gp) # 22b80 <_impure_ptr>
   11726:	6a30406f          	j	165c8 <_free_r>

000000000001172a <_malloc_r>:
   1172a:	711d                	addi	sp,sp,-96
   1172c:	e4a6                	sd	s1,72(sp)
   1172e:	e0ca                	sd	s2,64(sp)
   11730:	ec86                	sd	ra,88(sp)
   11732:	e8a2                	sd	s0,80(sp)
   11734:	fc4e                	sd	s3,56(sp)
   11736:	f852                	sd	s4,48(sp)
   11738:	f456                	sd	s5,40(sp)
   1173a:	f05a                	sd	s6,32(sp)
   1173c:	ec5e                	sd	s7,24(sp)
   1173e:	e862                	sd	s8,16(sp)
   11740:	e466                	sd	s9,8(sp)
   11742:	01758493          	addi	s1,a1,23
   11746:	02e00793          	li	a5,46
   1174a:	892a                	mv	s2,a0
   1174c:	0497e863          	bltu	a5,s1,1179c <_malloc_r+0x72>
   11750:	02000793          	li	a5,32
   11754:	1eb7e663          	bltu	a5,a1,11940 <_malloc_r+0x216>
   11758:	780000ef          	jal	ra,11ed8 <__malloc_lock>
   1175c:	02000493          	li	s1,32
   11760:	4611                	li	a2,4
   11762:	05000793          	li	a5,80
   11766:	00011997          	auipc	s3,0x11
   1176a:	9b298993          	addi	s3,s3,-1614 # 22118 <__malloc_av_>
   1176e:	97ce                	add	a5,a5,s3
   11770:	6780                	ld	s0,8(a5)
   11772:	ff078713          	addi	a4,a5,-16
   11776:	1ee40663          	beq	s0,a4,11962 <_malloc_r+0x238>
   1177a:	641c                	ld	a5,8(s0)
   1177c:	6c14                	ld	a3,24(s0)
   1177e:	6810                	ld	a2,16(s0)
   11780:	9bf1                	andi	a5,a5,-4
   11782:	97a2                	add	a5,a5,s0
   11784:	6798                	ld	a4,8(a5)
   11786:	ee14                	sd	a3,24(a2)
   11788:	ea90                	sd	a2,16(a3)
   1178a:	00176713          	ori	a4,a4,1
   1178e:	854a                	mv	a0,s2
   11790:	e798                	sd	a4,8(a5)
   11792:	748000ef          	jal	ra,11eda <__malloc_unlock>
   11796:	01040513          	addi	a0,s0,16
   1179a:	a27d                	j	11948 <_malloc_r+0x21e>
   1179c:	800007b7          	lui	a5,0x80000
   117a0:	98c1                	andi	s1,s1,-16
   117a2:	fff7c793          	not	a5,a5
   117a6:	1897ed63          	bltu	a5,s1,11940 <_malloc_r+0x216>
   117aa:	18b4eb63          	bltu	s1,a1,11940 <_malloc_r+0x216>
   117ae:	72a000ef          	jal	ra,11ed8 <__malloc_lock>
   117b2:	1f700793          	li	a5,503
   117b6:	3a97f563          	bgeu	a5,s1,11b60 <_malloc_r+0x436>
   117ba:	0094d793          	srli	a5,s1,0x9
   117be:	28078163          	beqz	a5,11a40 <_malloc_r+0x316>
   117c2:	4711                	li	a4,4
   117c4:	30f76563          	bltu	a4,a5,11ace <_malloc_r+0x3a4>
   117c8:	0064d793          	srli	a5,s1,0x6
   117cc:	0397861b          	addiw	a2,a5,57
   117d0:	0016169b          	slliw	a3,a2,0x1
   117d4:	0387851b          	addiw	a0,a5,56
   117d8:	068e                	slli	a3,a3,0x3
   117da:	00011997          	auipc	s3,0x11
   117de:	93e98993          	addi	s3,s3,-1730 # 22118 <__malloc_av_>
   117e2:	96ce                	add	a3,a3,s3
   117e4:	6680                	ld	s0,8(a3)
   117e6:	16c1                	addi	a3,a3,-16
   117e8:	18868163          	beq	a3,s0,1196a <_malloc_r+0x240>
   117ec:	45fd                	li	a1,31
   117ee:	a031                	j	117fa <_malloc_r+0xd0>
   117f0:	28075963          	bgez	a4,11a82 <_malloc_r+0x358>
   117f4:	6c00                	ld	s0,24(s0)
   117f6:	16868a63          	beq	a3,s0,1196a <_malloc_r+0x240>
   117fa:	641c                	ld	a5,8(s0)
   117fc:	9bf1                	andi	a5,a5,-4
   117fe:	40978733          	sub	a4,a5,s1
   11802:	fee5d7e3          	bge	a1,a4,117f0 <_malloc_r+0xc6>
   11806:	0209b403          	ld	s0,32(s3)
   1180a:	00011897          	auipc	a7,0x11
   1180e:	91e88893          	addi	a7,a7,-1762 # 22128 <__malloc_av_+0x10>
   11812:	862a                	mv	a2,a0
   11814:	17141363          	bne	s0,a7,1197a <_malloc_r+0x250>
   11818:	0089b783          	ld	a5,8(s3)
   1181c:	4026571b          	sraiw	a4,a2,0x2
   11820:	4585                	li	a1,1
   11822:	00e595b3          	sll	a1,a1,a4
   11826:	1ab7fa63          	bgeu	a5,a1,119da <_malloc_r+0x2b0>
   1182a:	0109b403          	ld	s0,16(s3)
   1182e:	00843a03          	ld	s4,8(s0)
   11832:	ffca7a93          	andi	s5,s4,-4
   11836:	009ae763          	bltu	s5,s1,11844 <_malloc_r+0x11a>
   1183a:	409a87b3          	sub	a5,s5,s1
   1183e:	477d                	li	a4,31
   11840:	22f74263          	blt	a4,a5,11a64 <_malloc_r+0x33a>
   11844:	75818c93          	addi	s9,gp,1880 # 22b88 <__malloc_sbrk_base>
   11848:	000cb703          	ld	a4,0(s9)
   1184c:	7801ba03          	ld	s4,1920(gp) # 22bb0 <__malloc_top_pad>
   11850:	57fd                	li	a5,-1
   11852:	01540bb3          	add	s7,s0,s5
   11856:	9a26                	add	s4,s4,s1
   11858:	3af70263          	beq	a4,a5,11bfc <_malloc_r+0x4d2>
   1185c:	6785                	lui	a5,0x1
   1185e:	07fd                	addi	a5,a5,31
   11860:	9a3e                	add	s4,s4,a5
   11862:	77fd                	lui	a5,0xfffff
   11864:	00fa7a33          	and	s4,s4,a5
   11868:	85d2                	mv	a1,s4
   1186a:	854a                	mv	a0,s2
   1186c:	6f8000ef          	jal	ra,11f64 <_sbrk_r>
   11870:	57fd                	li	a5,-1
   11872:	8b2a                	mv	s6,a0
   11874:	30f50b63          	beq	a0,a5,11b8a <_malloc_r+0x460>
   11878:	31756763          	bltu	a0,s7,11b86 <_malloc_r+0x45c>
   1187c:	7d018c13          	addi	s8,gp,2000 # 22c00 <__malloc_current_mallinfo>
   11880:	000c2703          	lw	a4,0(s8)
   11884:	014707bb          	addw	a5,a4,s4
   11888:	00fc2023          	sw	a5,0(s8)
   1188c:	86be                	mv	a3,a5
   1188e:	40ab8063          	beq	s7,a0,11c8e <_malloc_r+0x564>
   11892:	000cb703          	ld	a4,0(s9)
   11896:	57fd                	li	a5,-1
   11898:	40f70763          	beq	a4,a5,11ca6 <_malloc_r+0x57c>
   1189c:	417b07b3          	sub	a5,s6,s7
   118a0:	9fb5                	addw	a5,a5,a3
   118a2:	00fc2023          	sw	a5,0(s8)
   118a6:	00fb7b93          	andi	s7,s6,15
   118aa:	360b8763          	beqz	s7,11c18 <_malloc_r+0x4ee>
   118ae:	6705                	lui	a4,0x1
   118b0:	417b0b33          	sub	s6,s6,s7
   118b4:	01070793          	addi	a5,a4,16 # 1010 <main-0xf0a0>
   118b8:	0b41                	addi	s6,s6,16
   118ba:	417787b3          	sub	a5,a5,s7
   118be:	014b0cb3          	add	s9,s6,s4
   118c2:	41978a33          	sub	s4,a5,s9
   118c6:	177d                	addi	a4,a4,-1
   118c8:	00ea7a33          	and	s4,s4,a4
   118cc:	85d2                	mv	a1,s4
   118ce:	854a                	mv	a0,s2
   118d0:	694000ef          	jal	ra,11f64 <_sbrk_r>
   118d4:	57fd                	li	a5,-1
   118d6:	40f50d63          	beq	a0,a5,11cf0 <_malloc_r+0x5c6>
   118da:	41650533          	sub	a0,a0,s6
   118de:	000a071b          	sext.w	a4,s4
   118e2:	9a2a                	add	s4,s4,a0
   118e4:	000c2783          	lw	a5,0(s8)
   118e8:	0169b823          	sd	s6,16(s3)
   118ec:	001a6a13          	ori	s4,s4,1
   118f0:	9fb9                	addw	a5,a5,a4
   118f2:	00fc2023          	sw	a5,0(s8)
   118f6:	014b3423          	sd	s4,8(s6)
   118fa:	3b340963          	beq	s0,s3,11cac <_malloc_r+0x582>
   118fe:	467d                	li	a2,31
   11900:	3b567863          	bgeu	a2,s5,11cb0 <_malloc_r+0x586>
   11904:	6414                	ld	a3,8(s0)
   11906:	fe8a8713          	addi	a4,s5,-24
   1190a:	9b41                	andi	a4,a4,-16
   1190c:	8a85                	andi	a3,a3,1
   1190e:	8ed9                	or	a3,a3,a4
   11910:	e414                	sd	a3,8(s0)
   11912:	45a5                	li	a1,9
   11914:	00e406b3          	add	a3,s0,a4
   11918:	e68c                	sd	a1,8(a3)
   1191a:	ea8c                	sd	a1,16(a3)
   1191c:	3ee66163          	bltu	a2,a4,11cfe <_malloc_r+0x5d4>
   11920:	008b3a03          	ld	s4,8(s6)
   11924:	845a                	mv	s0,s6
   11926:	77818713          	addi	a4,gp,1912 # 22ba8 <__malloc_max_sbrked_mem>
   1192a:	6314                	ld	a3,0(a4)
   1192c:	00f6f363          	bgeu	a3,a5,11932 <_malloc_r+0x208>
   11930:	e31c                	sd	a5,0(a4)
   11932:	77018713          	addi	a4,gp,1904 # 22ba0 <__malloc_max_total_mem>
   11936:	6314                	ld	a3,0(a4)
   11938:	24f6fd63          	bgeu	a3,a5,11b92 <_malloc_r+0x468>
   1193c:	e31c                	sd	a5,0(a4)
   1193e:	ac91                	j	11b92 <_malloc_r+0x468>
   11940:	47b1                	li	a5,12
   11942:	00f92023          	sw	a5,0(s2)
   11946:	4501                	li	a0,0
   11948:	60e6                	ld	ra,88(sp)
   1194a:	6446                	ld	s0,80(sp)
   1194c:	64a6                	ld	s1,72(sp)
   1194e:	6906                	ld	s2,64(sp)
   11950:	79e2                	ld	s3,56(sp)
   11952:	7a42                	ld	s4,48(sp)
   11954:	7aa2                	ld	s5,40(sp)
   11956:	7b02                	ld	s6,32(sp)
   11958:	6be2                	ld	s7,24(sp)
   1195a:	6c42                	ld	s8,16(sp)
   1195c:	6ca2                	ld	s9,8(sp)
   1195e:	6125                	addi	sp,sp,96
   11960:	8082                	ret
   11962:	6f80                	ld	s0,24(a5)
   11964:	2609                	addiw	a2,a2,2
   11966:	e0879ae3          	bne	a5,s0,1177a <_malloc_r+0x50>
   1196a:	0209b403          	ld	s0,32(s3)
   1196e:	00010897          	auipc	a7,0x10
   11972:	7ba88893          	addi	a7,a7,1978 # 22128 <__malloc_av_+0x10>
   11976:	eb1401e3          	beq	s0,a7,11818 <_malloc_r+0xee>
   1197a:	641c                	ld	a5,8(s0)
   1197c:	46fd                	li	a3,31
   1197e:	9bf1                	andi	a5,a5,-4
   11980:	40978733          	sub	a4,a5,s1
   11984:	1ae6c763          	blt	a3,a4,11b32 <_malloc_r+0x408>
   11988:	0319b423          	sd	a7,40(s3)
   1198c:	0319b023          	sd	a7,32(s3)
   11990:	0a075f63          	bgez	a4,11a4e <_malloc_r+0x324>
   11994:	1ff00713          	li	a4,511
   11998:	0ef76863          	bltu	a4,a5,11a88 <_malloc_r+0x35e>
   1199c:	838d                	srli	a5,a5,0x3
   1199e:	0017871b          	addiw	a4,a5,1
   119a2:	0017171b          	slliw	a4,a4,0x1
   119a6:	070e                	slli	a4,a4,0x3
   119a8:	0089b503          	ld	a0,8(s3)
   119ac:	974e                	add	a4,a4,s3
   119ae:	630c                	ld	a1,0(a4)
   119b0:	4027d69b          	sraiw	a3,a5,0x2
   119b4:	4785                	li	a5,1
   119b6:	00d797b3          	sll	a5,a5,a3
   119ba:	8fc9                	or	a5,a5,a0
   119bc:	ff070693          	addi	a3,a4,-16
   119c0:	ec14                	sd	a3,24(s0)
   119c2:	e80c                	sd	a1,16(s0)
   119c4:	00f9b423          	sd	a5,8(s3)
   119c8:	e300                	sd	s0,0(a4)
   119ca:	ed80                	sd	s0,24(a1)
   119cc:	4026571b          	sraiw	a4,a2,0x2
   119d0:	4585                	li	a1,1
   119d2:	00e595b3          	sll	a1,a1,a4
   119d6:	e4b7eae3          	bltu	a5,a1,1182a <_malloc_r+0x100>
   119da:	00f5f733          	and	a4,a1,a5
   119de:	ef01                	bnez	a4,119f6 <_malloc_r+0x2cc>
   119e0:	0586                	slli	a1,a1,0x1
   119e2:	9a71                	andi	a2,a2,-4
   119e4:	00f5f733          	and	a4,a1,a5
   119e8:	2611                	addiw	a2,a2,4
   119ea:	e711                	bnez	a4,119f6 <_malloc_r+0x2cc>
   119ec:	0586                	slli	a1,a1,0x1
   119ee:	00f5f733          	and	a4,a1,a5
   119f2:	2611                	addiw	a2,a2,4
   119f4:	df65                	beqz	a4,119ec <_malloc_r+0x2c2>
   119f6:	487d                	li	a6,31
   119f8:	0016031b          	addiw	t1,a2,1
   119fc:	0013131b          	slliw	t1,t1,0x1
   11a00:	030e                	slli	t1,t1,0x3
   11a02:	1341                	addi	t1,t1,-16
   11a04:	934e                	add	t1,t1,s3
   11a06:	851a                	mv	a0,t1
   11a08:	6d1c                	ld	a5,24(a0)
   11a0a:	8e32                	mv	t3,a2
   11a0c:	0ef50263          	beq	a0,a5,11af0 <_malloc_r+0x3c6>
   11a10:	6798                	ld	a4,8(a5)
   11a12:	843e                	mv	s0,a5
   11a14:	6f9c                	ld	a5,24(a5)
   11a16:	9b71                	andi	a4,a4,-4
   11a18:	409706b3          	sub	a3,a4,s1
   11a1c:	0ed84163          	blt	a6,a3,11afe <_malloc_r+0x3d4>
   11a20:	fe06c6e3          	bltz	a3,11a0c <_malloc_r+0x2e2>
   11a24:	9722                	add	a4,a4,s0
   11a26:	6714                	ld	a3,8(a4)
   11a28:	6810                	ld	a2,16(s0)
   11a2a:	854a                	mv	a0,s2
   11a2c:	0016e693          	ori	a3,a3,1
   11a30:	e714                	sd	a3,8(a4)
   11a32:	ee1c                	sd	a5,24(a2)
   11a34:	eb90                	sd	a2,16(a5)
   11a36:	4a4000ef          	jal	ra,11eda <__malloc_unlock>
   11a3a:	01040513          	addi	a0,s0,16
   11a3e:	b729                	j	11948 <_malloc_r+0x21e>
   11a40:	40000693          	li	a3,1024
   11a44:	04000613          	li	a2,64
   11a48:	03f00513          	li	a0,63
   11a4c:	b379                	j	117da <_malloc_r+0xb0>
   11a4e:	97a2                	add	a5,a5,s0
   11a50:	6798                	ld	a4,8(a5)
   11a52:	854a                	mv	a0,s2
   11a54:	00176713          	ori	a4,a4,1
   11a58:	e798                	sd	a4,8(a5)
   11a5a:	480000ef          	jal	ra,11eda <__malloc_unlock>
   11a5e:	01040513          	addi	a0,s0,16
   11a62:	b5dd                	j	11948 <_malloc_r+0x21e>
   11a64:	0014e713          	ori	a4,s1,1
   11a68:	e418                	sd	a4,8(s0)
   11a6a:	94a2                	add	s1,s1,s0
   11a6c:	0099b823          	sd	s1,16(s3)
   11a70:	0017e793          	ori	a5,a5,1
   11a74:	854a                	mv	a0,s2
   11a76:	e49c                	sd	a5,8(s1)
   11a78:	462000ef          	jal	ra,11eda <__malloc_unlock>
   11a7c:	01040513          	addi	a0,s0,16
   11a80:	b5e1                	j	11948 <_malloc_r+0x21e>
   11a82:	6c14                	ld	a3,24(s0)
   11a84:	6810                	ld	a2,16(s0)
   11a86:	b9f5                	j	11782 <_malloc_r+0x58>
   11a88:	0097d713          	srli	a4,a5,0x9
   11a8c:	4691                	li	a3,4
   11a8e:	0ee6f263          	bgeu	a3,a4,11b72 <_malloc_r+0x448>
   11a92:	46d1                	li	a3,20
   11a94:	1ae6e863          	bltu	a3,a4,11c44 <_malloc_r+0x51a>
   11a98:	05c7059b          	addiw	a1,a4,92
   11a9c:	0015959b          	slliw	a1,a1,0x1
   11aa0:	05b7069b          	addiw	a3,a4,91
   11aa4:	058e                	slli	a1,a1,0x3
   11aa6:	95ce                	add	a1,a1,s3
   11aa8:	6198                	ld	a4,0(a1)
   11aaa:	15c1                	addi	a1,a1,-16
   11aac:	14e58b63          	beq	a1,a4,11c02 <_malloc_r+0x4d8>
   11ab0:	6714                	ld	a3,8(a4)
   11ab2:	9af1                	andi	a3,a3,-4
   11ab4:	00d7f563          	bgeu	a5,a3,11abe <_malloc_r+0x394>
   11ab8:	6b18                	ld	a4,16(a4)
   11aba:	fee59be3          	bne	a1,a4,11ab0 <_malloc_r+0x386>
   11abe:	6f0c                	ld	a1,24(a4)
   11ac0:	0089b783          	ld	a5,8(s3)
   11ac4:	ec0c                	sd	a1,24(s0)
   11ac6:	e818                	sd	a4,16(s0)
   11ac8:	e980                	sd	s0,16(a1)
   11aca:	ef00                	sd	s0,24(a4)
   11acc:	b701                	j	119cc <_malloc_r+0x2a2>
   11ace:	4751                	li	a4,20
   11ad0:	0cf77f63          	bgeu	a4,a5,11bae <_malloc_r+0x484>
   11ad4:	05400713          	li	a4,84
   11ad8:	18f76463          	bltu	a4,a5,11c60 <_malloc_r+0x536>
   11adc:	00c4d793          	srli	a5,s1,0xc
   11ae0:	06f7861b          	addiw	a2,a5,111
   11ae4:	0016169b          	slliw	a3,a2,0x1
   11ae8:	06e7851b          	addiw	a0,a5,110
   11aec:	068e                	slli	a3,a3,0x3
   11aee:	b1f5                	j	117da <_malloc_r+0xb0>
   11af0:	2e05                	addiw	t3,t3,1
   11af2:	003e7793          	andi	a5,t3,3
   11af6:	0541                	addi	a0,a0,16
   11af8:	cbe1                	beqz	a5,11bc8 <_malloc_r+0x49e>
   11afa:	6d1c                	ld	a5,24(a0)
   11afc:	bf01                	j	11a0c <_malloc_r+0x2e2>
   11afe:	6810                	ld	a2,16(s0)
   11b00:	0014e593          	ori	a1,s1,1
   11b04:	e40c                	sd	a1,8(s0)
   11b06:	ee1c                	sd	a5,24(a2)
   11b08:	eb90                	sd	a2,16(a5)
   11b0a:	94a2                	add	s1,s1,s0
   11b0c:	0299b423          	sd	s1,40(s3)
   11b10:	0299b023          	sd	s1,32(s3)
   11b14:	0016e793          	ori	a5,a3,1
   11b18:	0114bc23          	sd	a7,24(s1)
   11b1c:	0114b823          	sd	a7,16(s1)
   11b20:	e49c                	sd	a5,8(s1)
   11b22:	9722                	add	a4,a4,s0
   11b24:	854a                	mv	a0,s2
   11b26:	e314                	sd	a3,0(a4)
   11b28:	3b2000ef          	jal	ra,11eda <__malloc_unlock>
   11b2c:	01040513          	addi	a0,s0,16
   11b30:	bd21                	j	11948 <_malloc_r+0x21e>
   11b32:	0014e693          	ori	a3,s1,1
   11b36:	e414                	sd	a3,8(s0)
   11b38:	94a2                	add	s1,s1,s0
   11b3a:	0299b423          	sd	s1,40(s3)
   11b3e:	0299b023          	sd	s1,32(s3)
   11b42:	00176693          	ori	a3,a4,1
   11b46:	0114bc23          	sd	a7,24(s1)
   11b4a:	0114b823          	sd	a7,16(s1)
   11b4e:	e494                	sd	a3,8(s1)
   11b50:	97a2                	add	a5,a5,s0
   11b52:	854a                	mv	a0,s2
   11b54:	e398                	sd	a4,0(a5)
   11b56:	384000ef          	jal	ra,11eda <__malloc_unlock>
   11b5a:	01040513          	addi	a0,s0,16
   11b5e:	b3ed                	j	11948 <_malloc_r+0x21e>
   11b60:	0034d613          	srli	a2,s1,0x3
   11b64:	0016079b          	addiw	a5,a2,1
   11b68:	0017979b          	slliw	a5,a5,0x1
   11b6c:	2601                	sext.w	a2,a2
   11b6e:	078e                	slli	a5,a5,0x3
   11b70:	bedd                	j	11766 <_malloc_r+0x3c>
   11b72:	0067d713          	srli	a4,a5,0x6
   11b76:	0397059b          	addiw	a1,a4,57
   11b7a:	0015959b          	slliw	a1,a1,0x1
   11b7e:	0387069b          	addiw	a3,a4,56
   11b82:	058e                	slli	a1,a1,0x3
   11b84:	b70d                	j	11aa6 <_malloc_r+0x37c>
   11b86:	0f340b63          	beq	s0,s3,11c7c <_malloc_r+0x552>
   11b8a:	0109b403          	ld	s0,16(s3)
   11b8e:	00843a03          	ld	s4,8(s0)
   11b92:	ffca7a13          	andi	s4,s4,-4
   11b96:	409a07b3          	sub	a5,s4,s1
   11b9a:	009a6563          	bltu	s4,s1,11ba4 <_malloc_r+0x47a>
   11b9e:	477d                	li	a4,31
   11ba0:	ecf742e3          	blt	a4,a5,11a64 <_malloc_r+0x33a>
   11ba4:	854a                	mv	a0,s2
   11ba6:	334000ef          	jal	ra,11eda <__malloc_unlock>
   11baa:	4501                	li	a0,0
   11bac:	bb71                	j	11948 <_malloc_r+0x21e>
   11bae:	05c7861b          	addiw	a2,a5,92
   11bb2:	0016169b          	slliw	a3,a2,0x1
   11bb6:	05b7851b          	addiw	a0,a5,91
   11bba:	068e                	slli	a3,a3,0x3
   11bbc:	b939                	j	117da <_malloc_r+0xb0>
   11bbe:	01033783          	ld	a5,16(t1)
   11bc2:	367d                	addiw	a2,a2,-1
   11bc4:	18679363          	bne	a5,t1,11d4a <_malloc_r+0x620>
   11bc8:	00367793          	andi	a5,a2,3
   11bcc:	1341                	addi	t1,t1,-16
   11bce:	fbe5                	bnez	a5,11bbe <_malloc_r+0x494>
   11bd0:	0089b703          	ld	a4,8(s3)
   11bd4:	fff5c793          	not	a5,a1
   11bd8:	8ff9                	and	a5,a5,a4
   11bda:	00f9b423          	sd	a5,8(s3)
   11bde:	0586                	slli	a1,a1,0x1
   11be0:	c4b7e5e3          	bltu	a5,a1,1182a <_malloc_r+0x100>
   11be4:	c40583e3          	beqz	a1,1182a <_malloc_r+0x100>
   11be8:	00f5f733          	and	a4,a1,a5
   11bec:	e711                	bnez	a4,11bf8 <_malloc_r+0x4ce>
   11bee:	0586                	slli	a1,a1,0x1
   11bf0:	00f5f733          	and	a4,a1,a5
   11bf4:	2e11                	addiw	t3,t3,4
   11bf6:	df65                	beqz	a4,11bee <_malloc_r+0x4c4>
   11bf8:	8672                	mv	a2,t3
   11bfa:	bbfd                	j	119f8 <_malloc_r+0x2ce>
   11bfc:	020a0a13          	addi	s4,s4,32
   11c00:	b1a5                	j	11868 <_malloc_r+0x13e>
   11c02:	0089b503          	ld	a0,8(s3)
   11c06:	4026d69b          	sraiw	a3,a3,0x2
   11c0a:	4785                	li	a5,1
   11c0c:	00d797b3          	sll	a5,a5,a3
   11c10:	8fc9                	or	a5,a5,a0
   11c12:	00f9b423          	sd	a5,8(s3)
   11c16:	b57d                	j	11ac4 <_malloc_r+0x39a>
   11c18:	014b0bb3          	add	s7,s6,s4
   11c1c:	41700bb3          	neg	s7,s7
   11c20:	1bd2                	slli	s7,s7,0x34
   11c22:	034bdb93          	srli	s7,s7,0x34
   11c26:	85de                	mv	a1,s7
   11c28:	854a                	mv	a0,s2
   11c2a:	33a000ef          	jal	ra,11f64 <_sbrk_r>
   11c2e:	57fd                	li	a5,-1
   11c30:	4701                	li	a4,0
   11c32:	caf509e3          	beq	a0,a5,118e4 <_malloc_r+0x1ba>
   11c36:	41650533          	sub	a0,a0,s6
   11c3a:	000b871b          	sext.w	a4,s7
   11c3e:	01750a33          	add	s4,a0,s7
   11c42:	b14d                	j	118e4 <_malloc_r+0x1ba>
   11c44:	05400693          	li	a3,84
   11c48:	06e6e863          	bltu	a3,a4,11cb8 <_malloc_r+0x58e>
   11c4c:	00c7d713          	srli	a4,a5,0xc
   11c50:	06f7059b          	addiw	a1,a4,111
   11c54:	0015959b          	slliw	a1,a1,0x1
   11c58:	06e7069b          	addiw	a3,a4,110
   11c5c:	058e                	slli	a1,a1,0x3
   11c5e:	b5a1                	j	11aa6 <_malloc_r+0x37c>
   11c60:	15400713          	li	a4,340
   11c64:	06f76863          	bltu	a4,a5,11cd4 <_malloc_r+0x5aa>
   11c68:	00f4d793          	srli	a5,s1,0xf
   11c6c:	0787861b          	addiw	a2,a5,120
   11c70:	0016169b          	slliw	a3,a2,0x1
   11c74:	0777851b          	addiw	a0,a5,119
   11c78:	068e                	slli	a3,a3,0x3
   11c7a:	b685                	j	117da <_malloc_r+0xb0>
   11c7c:	7d018c13          	addi	s8,gp,2000 # 22c00 <__malloc_current_mallinfo>
   11c80:	000c2783          	lw	a5,0(s8)
   11c84:	014786bb          	addw	a3,a5,s4
   11c88:	00dc2023          	sw	a3,0(s8)
   11c8c:	b119                	j	11892 <_malloc_r+0x168>
   11c8e:	034b9713          	slli	a4,s7,0x34
   11c92:	c00710e3          	bnez	a4,11892 <_malloc_r+0x168>
   11c96:	0109b403          	ld	s0,16(s3)
   11c9a:	9a56                	add	s4,s4,s5
   11c9c:	001a6a13          	ori	s4,s4,1
   11ca0:	01443423          	sd	s4,8(s0)
   11ca4:	b149                	j	11926 <_malloc_r+0x1fc>
   11ca6:	016cb023          	sd	s6,0(s9)
   11caa:	bef5                	j	118a6 <_malloc_r+0x17c>
   11cac:	845a                	mv	s0,s6
   11cae:	b9a5                	j	11926 <_malloc_r+0x1fc>
   11cb0:	4785                	li	a5,1
   11cb2:	00fb3423          	sd	a5,8(s6)
   11cb6:	b5fd                	j	11ba4 <_malloc_r+0x47a>
   11cb8:	15400693          	li	a3,340
   11cbc:	04e6ed63          	bltu	a3,a4,11d16 <_malloc_r+0x5ec>
   11cc0:	00f7d713          	srli	a4,a5,0xf
   11cc4:	0787059b          	addiw	a1,a4,120
   11cc8:	0015959b          	slliw	a1,a1,0x1
   11ccc:	0777069b          	addiw	a3,a4,119
   11cd0:	058e                	slli	a1,a1,0x3
   11cd2:	bbd1                	j	11aa6 <_malloc_r+0x37c>
   11cd4:	55400713          	li	a4,1364
   11cd8:	04f76d63          	bltu	a4,a5,11d32 <_malloc_r+0x608>
   11cdc:	0124d793          	srli	a5,s1,0x12
   11ce0:	07d7861b          	addiw	a2,a5,125
   11ce4:	0016169b          	slliw	a3,a2,0x1
   11ce8:	07c7851b          	addiw	a0,a5,124
   11cec:	068e                	slli	a3,a3,0x3
   11cee:	b4f5                	j	117da <_malloc_r+0xb0>
   11cf0:	1bc1                	addi	s7,s7,-16
   11cf2:	017c8a33          	add	s4,s9,s7
   11cf6:	416a0a33          	sub	s4,s4,s6
   11cfa:	4701                	li	a4,0
   11cfc:	b6e5                	j	118e4 <_malloc_r+0x1ba>
   11cfe:	01040593          	addi	a1,s0,16
   11d02:	854a                	mv	a0,s2
   11d04:	0c5040ef          	jal	ra,165c8 <_free_r>
   11d08:	0109b403          	ld	s0,16(s3)
   11d0c:	000c2783          	lw	a5,0(s8)
   11d10:	00843a03          	ld	s4,8(s0)
   11d14:	b909                	j	11926 <_malloc_r+0x1fc>
   11d16:	55400693          	li	a3,1364
   11d1a:	02e6e363          	bltu	a3,a4,11d40 <_malloc_r+0x616>
   11d1e:	0127d713          	srli	a4,a5,0x12
   11d22:	07d7059b          	addiw	a1,a4,125
   11d26:	0015959b          	slliw	a1,a1,0x1
   11d2a:	07c7069b          	addiw	a3,a4,124
   11d2e:	058e                	slli	a1,a1,0x3
   11d30:	bb9d                	j	11aa6 <_malloc_r+0x37c>
   11d32:	7f000693          	li	a3,2032
   11d36:	07f00613          	li	a2,127
   11d3a:	07e00513          	li	a0,126
   11d3e:	bc71                	j	117da <_malloc_r+0xb0>
   11d40:	7f000593          	li	a1,2032
   11d44:	07e00693          	li	a3,126
   11d48:	bbb9                	j	11aa6 <_malloc_r+0x37c>
   11d4a:	0089b783          	ld	a5,8(s3)
   11d4e:	bd41                	j	11bde <_malloc_r+0x4b4>

0000000000011d50 <memcpy>:
   11d50:	00a5c7b3          	xor	a5,a1,a0
   11d54:	8b9d                	andi	a5,a5,7
   11d56:	00c508b3          	add	a7,a0,a2
   11d5a:	e7a1                	bnez	a5,11da2 <memcpy+0x52>
   11d5c:	479d                	li	a5,7
   11d5e:	04c7f263          	bgeu	a5,a2,11da2 <memcpy+0x52>
   11d62:	00757793          	andi	a5,a0,7
   11d66:	872a                	mv	a4,a0
   11d68:	eba9                	bnez	a5,11dba <memcpy+0x6a>
   11d6a:	ff88f613          	andi	a2,a7,-8
   11d6e:	fc060793          	addi	a5,a2,-64
   11d72:	06f76763          	bltu	a4,a5,11de0 <memcpy+0x90>
   11d76:	02c77363          	bgeu	a4,a2,11d9c <memcpy+0x4c>
   11d7a:	86ae                	mv	a3,a1
   11d7c:	87ba                	mv	a5,a4
   11d7e:	0006b803          	ld	a6,0(a3) # ffffffffffffe000 <__BSS_END__+0xfffffffffffdb3d0>
   11d82:	07a1                	addi	a5,a5,8
   11d84:	06a1                	addi	a3,a3,8
   11d86:	ff07bc23          	sd	a6,-8(a5) # ffffffffffffeff8 <__BSS_END__+0xfffffffffffdc3c8>
   11d8a:	fec7eae3          	bltu	a5,a2,11d7e <memcpy+0x2e>
   11d8e:	fff60793          	addi	a5,a2,-1
   11d92:	8f99                	sub	a5,a5,a4
   11d94:	9be1                	andi	a5,a5,-8
   11d96:	07a1                	addi	a5,a5,8
   11d98:	973e                	add	a4,a4,a5
   11d9a:	95be                	add	a1,a1,a5
   11d9c:	01176663          	bltu	a4,a7,11da8 <memcpy+0x58>
   11da0:	8082                	ret
   11da2:	872a                	mv	a4,a0
   11da4:	ff157ee3          	bgeu	a0,a7,11da0 <memcpy+0x50>
   11da8:	0005c783          	lbu	a5,0(a1)
   11dac:	0705                	addi	a4,a4,1
   11dae:	0585                	addi	a1,a1,1
   11db0:	fef70fa3          	sb	a5,-1(a4)
   11db4:	ff176ae3          	bltu	a4,a7,11da8 <memcpy+0x58>
   11db8:	8082                	ret
   11dba:	0005c683          	lbu	a3,0(a1)
   11dbe:	0705                	addi	a4,a4,1
   11dc0:	00777793          	andi	a5,a4,7
   11dc4:	fed70fa3          	sb	a3,-1(a4)
   11dc8:	0585                	addi	a1,a1,1
   11dca:	d3c5                	beqz	a5,11d6a <memcpy+0x1a>
   11dcc:	0005c683          	lbu	a3,0(a1)
   11dd0:	0705                	addi	a4,a4,1
   11dd2:	00777793          	andi	a5,a4,7
   11dd6:	fed70fa3          	sb	a3,-1(a4)
   11dda:	0585                	addi	a1,a1,1
   11ddc:	fff9                	bnez	a5,11dba <memcpy+0x6a>
   11dde:	b771                	j	11d6a <memcpy+0x1a>
   11de0:	6594                	ld	a3,8(a1)
   11de2:	0005b283          	ld	t0,0(a1)
   11de6:	0105bf83          	ld	t6,16(a1)
   11dea:	0185bf03          	ld	t5,24(a1)
   11dee:	0205be83          	ld	t4,32(a1)
   11df2:	0285be03          	ld	t3,40(a1)
   11df6:	0305b303          	ld	t1,48(a1)
   11dfa:	0385b803          	ld	a6,56(a1)
   11dfe:	e714                	sd	a3,8(a4)
   11e00:	61b4                	ld	a3,64(a1)
   11e02:	00573023          	sd	t0,0(a4)
   11e06:	01f73823          	sd	t6,16(a4)
   11e0a:	01e73c23          	sd	t5,24(a4)
   11e0e:	03d73023          	sd	t4,32(a4)
   11e12:	03c73423          	sd	t3,40(a4)
   11e16:	02673823          	sd	t1,48(a4)
   11e1a:	03073c23          	sd	a6,56(a4)
   11e1e:	e334                	sd	a3,64(a4)
   11e20:	04870713          	addi	a4,a4,72
   11e24:	04858593          	addi	a1,a1,72
   11e28:	faf76ce3          	bltu	a4,a5,11de0 <memcpy+0x90>
   11e2c:	b7a9                	j	11d76 <memcpy+0x26>

0000000000011e2e <memset>:
   11e2e:	433d                	li	t1,15
   11e30:	872a                	mv	a4,a0
   11e32:	02c37163          	bgeu	t1,a2,11e54 <memset+0x26>
   11e36:	00f77793          	andi	a5,a4,15
   11e3a:	e3c1                	bnez	a5,11eba <memset+0x8c>
   11e3c:	e1bd                	bnez	a1,11ea2 <memset+0x74>
   11e3e:	ff067693          	andi	a3,a2,-16
   11e42:	8a3d                	andi	a2,a2,15
   11e44:	96ba                	add	a3,a3,a4
   11e46:	e30c                	sd	a1,0(a4)
   11e48:	e70c                	sd	a1,8(a4)
   11e4a:	0741                	addi	a4,a4,16
   11e4c:	fed76de3          	bltu	a4,a3,11e46 <memset+0x18>
   11e50:	e211                	bnez	a2,11e54 <memset+0x26>
   11e52:	8082                	ret
   11e54:	40c306b3          	sub	a3,t1,a2
   11e58:	068a                	slli	a3,a3,0x2
   11e5a:	00000297          	auipc	t0,0x0
   11e5e:	9696                	add	a3,a3,t0
   11e60:	00a68067          	jr	10(a3)
   11e64:	00b70723          	sb	a1,14(a4)
   11e68:	00b706a3          	sb	a1,13(a4)
   11e6c:	00b70623          	sb	a1,12(a4)
   11e70:	00b705a3          	sb	a1,11(a4)
   11e74:	00b70523          	sb	a1,10(a4)
   11e78:	00b704a3          	sb	a1,9(a4)
   11e7c:	00b70423          	sb	a1,8(a4)
   11e80:	00b703a3          	sb	a1,7(a4)
   11e84:	00b70323          	sb	a1,6(a4)
   11e88:	00b702a3          	sb	a1,5(a4)
   11e8c:	00b70223          	sb	a1,4(a4)
   11e90:	00b701a3          	sb	a1,3(a4)
   11e94:	00b70123          	sb	a1,2(a4)
   11e98:	00b700a3          	sb	a1,1(a4)
   11e9c:	00b70023          	sb	a1,0(a4)
   11ea0:	8082                	ret
   11ea2:	0ff5f593          	andi	a1,a1,255
   11ea6:	00859693          	slli	a3,a1,0x8
   11eaa:	8dd5                	or	a1,a1,a3
   11eac:	01059693          	slli	a3,a1,0x10
   11eb0:	8dd5                	or	a1,a1,a3
   11eb2:	02059693          	slli	a3,a1,0x20
   11eb6:	8dd5                	or	a1,a1,a3
   11eb8:	b759                	j	11e3e <memset+0x10>
   11eba:	00279693          	slli	a3,a5,0x2
   11ebe:	00000297          	auipc	t0,0x0
   11ec2:	9696                	add	a3,a3,t0
   11ec4:	8286                	mv	t0,ra
   11ec6:	fa2680e7          	jalr	-94(a3)
   11eca:	8096                	mv	ra,t0
   11ecc:	17c1                	addi	a5,a5,-16
   11ece:	8f1d                	sub	a4,a4,a5
   11ed0:	963e                	add	a2,a2,a5
   11ed2:	f8c371e3          	bgeu	t1,a2,11e54 <memset+0x26>
   11ed6:	b79d                	j	11e3c <memset+0xe>

0000000000011ed8 <__malloc_lock>:
   11ed8:	8082                	ret

0000000000011eda <__malloc_unlock>:
   11eda:	8082                	ret

0000000000011edc <_puts_r>:
   11edc:	7159                	addi	sp,sp,-112
   11ede:	f0a2                	sd	s0,96(sp)
   11ee0:	842a                	mv	s0,a0
   11ee2:	852e                	mv	a0,a1
   11ee4:	eca6                	sd	s1,88(sp)
   11ee6:	f486                	sd	ra,104(sp)
   11ee8:	84ae                	mv	s1,a1
   11eea:	0b2000ef          	jal	ra,11f9c <strlen>
   11eee:	00150713          	addi	a4,a0,1
   11ef2:	0000d697          	auipc	a3,0xd
   11ef6:	63e68693          	addi	a3,a3,1598 # 1f530 <__clzdi2+0x1f2>
   11efa:	f43a                	sd	a4,40(sp)
   11efc:	483c                	lw	a5,80(s0)
   11efe:	1818                	addi	a4,sp,48
   11f00:	e0b6                	sd	a3,64(sp)
   11f02:	ec3a                	sd	a4,24(sp)
   11f04:	4685                	li	a3,1
   11f06:	4709                	li	a4,2
   11f08:	f826                	sd	s1,48(sp)
   11f0a:	fc2a                	sd	a0,56(sp)
   11f0c:	e4b6                	sd	a3,72(sp)
   11f0e:	d03a                	sw	a4,32(sp)
   11f10:	680c                	ld	a1,16(s0)
   11f12:	cf8d                	beqz	a5,11f4c <_puts_r+0x70>
   11f14:	01059783          	lh	a5,16(a1)
   11f18:	03279713          	slli	a4,a5,0x32
   11f1c:	00074d63          	bltz	a4,11f36 <_puts_r+0x5a>
   11f20:	0ac5a703          	lw	a4,172(a1)
   11f24:	6689                	lui	a3,0x2
   11f26:	8fd5                	or	a5,a5,a3
   11f28:	76f9                	lui	a3,0xffffe
   11f2a:	16fd                	addi	a3,a3,-1
   11f2c:	8f75                	and	a4,a4,a3
   11f2e:	00f59823          	sh	a5,16(a1)
   11f32:	0ae5a623          	sw	a4,172(a1)
   11f36:	0830                	addi	a2,sp,24
   11f38:	8522                	mv	a0,s0
   11f3a:	11b040ef          	jal	ra,16854 <__sfvwrite_r>
   11f3e:	ed09                	bnez	a0,11f58 <_puts_r+0x7c>
   11f40:	4529                	li	a0,10
   11f42:	70a6                	ld	ra,104(sp)
   11f44:	7406                	ld	s0,96(sp)
   11f46:	64e6                	ld	s1,88(sp)
   11f48:	6165                	addi	sp,sp,112
   11f4a:	8082                	ret
   11f4c:	8522                	mv	a0,s0
   11f4e:	e42e                	sd	a1,8(sp)
   11f50:	3fc040ef          	jal	ra,1634c <__sinit>
   11f54:	65a2                	ld	a1,8(sp)
   11f56:	bf7d                	j	11f14 <_puts_r+0x38>
   11f58:	557d                	li	a0,-1
   11f5a:	b7e5                	j	11f42 <_puts_r+0x66>

0000000000011f5c <puts>:
   11f5c:	85aa                	mv	a1,a0
   11f5e:	7501b503          	ld	a0,1872(gp) # 22b80 <_impure_ptr>
   11f62:	bfad                	j	11edc <_puts_r>

0000000000011f64 <_sbrk_r>:
   11f64:	1141                	addi	sp,sp,-16
   11f66:	e022                	sd	s0,0(sp)
   11f68:	842a                	mv	s0,a0
   11f6a:	852e                	mv	a0,a1
   11f6c:	00011797          	auipc	a5,0x11
   11f70:	ca07ae23          	sw	zero,-836(a5) # 22c28 <errno>
   11f74:	e406                	sd	ra,8(sp)
   11f76:	6f70b0ef          	jal	ra,1de6c <_sbrk>
   11f7a:	57fd                	li	a5,-1
   11f7c:	00f50663          	beq	a0,a5,11f88 <_sbrk_r+0x24>
   11f80:	60a2                	ld	ra,8(sp)
   11f82:	6402                	ld	s0,0(sp)
   11f84:	0141                	addi	sp,sp,16
   11f86:	8082                	ret
   11f88:	00011797          	auipc	a5,0x11
   11f8c:	ca07a783          	lw	a5,-864(a5) # 22c28 <errno>
   11f90:	dbe5                	beqz	a5,11f80 <_sbrk_r+0x1c>
   11f92:	60a2                	ld	ra,8(sp)
   11f94:	c01c                	sw	a5,0(s0)
   11f96:	6402                	ld	s0,0(sp)
   11f98:	0141                	addi	sp,sp,16
   11f9a:	8082                	ret

0000000000011f9c <strlen>:
   11f9c:	00757793          	andi	a5,a0,7
   11fa0:	872a                	mv	a4,a0
   11fa2:	ebb9                	bnez	a5,11ff8 <strlen+0x5c>
   11fa4:	00011697          	auipc	a3,0x11
   11fa8:	b3c6b683          	ld	a3,-1220(a3) # 22ae0 <mask>
   11fac:	55fd                	li	a1,-1
   11fae:	6310                	ld	a2,0(a4)
   11fb0:	0721                	addi	a4,a4,8
   11fb2:	00d677b3          	and	a5,a2,a3
   11fb6:	97b6                	add	a5,a5,a3
   11fb8:	8fd1                	or	a5,a5,a2
   11fba:	8fd5                	or	a5,a5,a3
   11fbc:	feb789e3          	beq	a5,a1,11fae <strlen+0x12>
   11fc0:	ff874683          	lbu	a3,-8(a4)
   11fc4:	40a707b3          	sub	a5,a4,a0
   11fc8:	c6a9                	beqz	a3,12012 <strlen+0x76>
   11fca:	ff974683          	lbu	a3,-7(a4)
   11fce:	ce9d                	beqz	a3,1200c <strlen+0x70>
   11fd0:	ffa74683          	lbu	a3,-6(a4)
   11fd4:	c6a9                	beqz	a3,1201e <strlen+0x82>
   11fd6:	ffb74683          	lbu	a3,-5(a4)
   11fda:	ce9d                	beqz	a3,12018 <strlen+0x7c>
   11fdc:	ffc74683          	lbu	a3,-4(a4)
   11fe0:	ffd74603          	lbu	a2,-3(a4)
   11fe4:	ffe74503          	lbu	a0,-2(a4)
   11fe8:	ce95                	beqz	a3,12024 <strlen+0x88>
   11fea:	c221                	beqz	a2,1202a <strlen+0x8e>
   11fec:	00a03533          	snez	a0,a0
   11ff0:	953e                	add	a0,a0,a5
   11ff2:	1579                	addi	a0,a0,-2
   11ff4:	8082                	ret
   11ff6:	d6dd                	beqz	a3,11fa4 <strlen+0x8>
   11ff8:	00074783          	lbu	a5,0(a4)
   11ffc:	0705                	addi	a4,a4,1
   11ffe:	00777693          	andi	a3,a4,7
   12002:	fbf5                	bnez	a5,11ff6 <strlen+0x5a>
   12004:	8f09                	sub	a4,a4,a0
   12006:	fff70513          	addi	a0,a4,-1
   1200a:	8082                	ret
   1200c:	ff978513          	addi	a0,a5,-7
   12010:	8082                	ret
   12012:	ff878513          	addi	a0,a5,-8
   12016:	8082                	ret
   12018:	ffb78513          	addi	a0,a5,-5
   1201c:	8082                	ret
   1201e:	ffa78513          	addi	a0,a5,-6
   12022:	8082                	ret
   12024:	ffc78513          	addi	a0,a5,-4
   12028:	8082                	ret
   1202a:	ffd78513          	addi	a0,a5,-3
   1202e:	8082                	ret

0000000000012030 <sulp>:
   12030:	f2050553          	fmv.d.x	fa0,a0
   12034:	1101                	addi	sp,sp,-32
   12036:	e426                	sd	s1,8(sp)
   12038:	84ae                	mv	s1,a1
   1203a:	e822                	sd	s0,16(sp)
   1203c:	ec06                	sd	ra,24(sp)
   1203e:	842a                	mv	s0,a0
   12040:	0e8080ef          	jal	ra,1a128 <__ulp>
   12044:	c09d                	beqz	s1,1206a <sulp+0x3a>
   12046:	9051                	srli	s0,s0,0x34
   12048:	7ff47413          	andi	s0,s0,2047
   1204c:	06b00793          	li	a5,107
   12050:	9f81                	subw	a5,a5,s0
   12052:	00f05c63          	blez	a5,1206a <sulp+0x3a>
   12056:	0147941b          	slliw	s0,a5,0x14
   1205a:	3ff007b7          	lui	a5,0x3ff00
   1205e:	9c3d                	addw	s0,s0,a5
   12060:	1402                	slli	s0,s0,0x20
   12062:	f20407d3          	fmv.d.x	fa5,s0
   12066:	12f57553          	fmul.d	fa0,fa0,fa5
   1206a:	60e2                	ld	ra,24(sp)
   1206c:	6442                	ld	s0,16(sp)
   1206e:	64a2                	ld	s1,8(sp)
   12070:	6105                	addi	sp,sp,32
   12072:	8082                	ret

0000000000012074 <_strtod_l>:
   12074:	7169                	addi	sp,sp,-304
   12076:	e9ea                	sd	s10,208(sp)
   12078:	0000ed17          	auipc	s10,0xe
   1207c:	388d3d03          	ld	s10,904(s10) # 20400 <_C_numeric_locale>
   12080:	f222                	sd	s0,288(sp)
   12082:	842a                	mv	s0,a0
   12084:	856a                	mv	a0,s10
   12086:	ee26                	sd	s1,280(sp)
   12088:	ea4a                	sd	s2,272(sp)
   1208a:	e64e                	sd	s3,264(sp)
   1208c:	f1e2                	sd	s8,224(sp)
   1208e:	8932                	mv	s2,a2
   12090:	8c2e                	mv	s8,a1
   12092:	f606                	sd	ra,296(sp)
   12094:	e252                	sd	s4,256(sp)
   12096:	fdd6                	sd	s5,248(sp)
   12098:	f9da                	sd	s6,240(sp)
   1209a:	f5de                	sd	s7,232(sp)
   1209c:	ede6                	sd	s9,216(sp)
   1209e:	e5ee                	sd	s11,200(sp)
   120a0:	bd22                	fsd	fs0,184(sp)
   120a2:	b926                	fsd	fs1,176(sp)
   120a4:	b54a                	fsd	fs2,168(sp)
   120a6:	b14e                	fsd	fs3,160(sp)
   120a8:	ad52                	fsd	fs4,152(sp)
   120aa:	a956                	fsd	fs5,144(sp)
   120ac:	a55a                	fsd	fs6,136(sp)
   120ae:	a15e                	fsd	fs7,128(sp)
   120b0:	bce2                	fsd	fs8,120(sp)
   120b2:	b8e6                	fsd	fs9,112(sp)
   120b4:	b4ea                	fsd	fs10,104(sp)
   120b6:	b0ee                	fsd	fs11,96(sp)
   120b8:	89b6                	mv	s3,a3
   120ba:	e882                	sd	zero,80(sp)
   120bc:	ee1ff0ef          	jal	ra,11f9c <strlen>
   120c0:	4481                	li	s1,0
   120c2:	e4e2                	sd	s8,72(sp)
   120c4:	8762                	mv	a4,s8
   120c6:	02d00593          	li	a1,45
   120ca:	0000e617          	auipc	a2,0xe
   120ce:	9a660613          	addi	a2,a2,-1626 # 1fa70 <__func__.4166+0x288>
   120d2:	00074783          	lbu	a5,0(a4)
   120d6:	8aba                	mv	s5,a4
   120d8:	00f5e863          	bltu	a1,a5,120e8 <_strtod_l+0x74>
   120dc:	00279693          	slli	a3,a5,0x2
   120e0:	96b2                	add	a3,a3,a2
   120e2:	4294                	lw	a3,0(a3)
   120e4:	96b2                	add	a3,a3,a2
   120e6:	8682                	jr	a3
   120e8:	4b81                	li	s7,0
   120ea:	03000713          	li	a4,48
   120ee:	4d81                	li	s11,0
   120f0:	20e78763          	beq	a5,a4,122fe <_strtod_l+0x28a>
   120f4:	02f00713          	li	a4,47
   120f8:	00078a1b          	sext.w	s4,a5
   120fc:	0005061b          	sext.w	a2,a0
   12100:	4af75b63          	bge	a4,a5,125b6 <_strtod_l+0x542>
   12104:	8556                	mv	a0,s5
   12106:	4c81                	li	s9,0
   12108:	4b01                	li	s6,0
   1210a:	4981                	li	s3,0
   1210c:	03900713          	li	a4,57
   12110:	4821                	li	a6,8
   12112:	02f00593          	li	a1,47
   12116:	07474463          	blt	a4,s4,1217e <_strtod_l+0x10a>
   1211a:	1d384863          	blt	a6,s3,122ea <_strtod_l+0x276>
   1211e:	002b169b          	slliw	a3,s6,0x2
   12122:	016686bb          	addw	a3,a3,s6
   12126:	0016969b          	slliw	a3,a3,0x1
   1212a:	9fb5                	addw	a5,a5,a3
   1212c:	fd078b1b          	addiw	s6,a5,-48
   12130:	0505                	addi	a0,a0,1
   12132:	e4aa                	sd	a0,72(sp)
   12134:	00054783          	lbu	a5,0(a0)
   12138:	2985                	addiw	s3,s3,1
   1213a:	00078a1b          	sext.w	s4,a5
   1213e:	fcf5cce3          	blt	a1,a5,12116 <_strtod_l+0xa2>
   12142:	85ea                	mv	a1,s10
   12144:	e432                	sd	a2,8(sp)
   12146:	65b080ef          	jal	ra,1afa0 <strncmp>
   1214a:	6622                	ld	a2,8(sp)
   1214c:	85ce                	mv	a1,s3
   1214e:	48051063          	bnez	a0,125ce <_strtod_l+0x55a>
   12152:	67a6                	ld	a5,72(sp)
   12154:	4d01                	li	s10,0
   12156:	963e                	add	a2,a2,a5
   12158:	e4b2                	sd	a2,72(sp)
   1215a:	00064a03          	lbu	s4,0(a2)
   1215e:	fd0a079b          	addiw	a5,s4,-48
   12162:	4725                	li	a4,9
   12164:	863e                	mv	a2,a5
   12166:	44f76663          	bltu	a4,a5,125b2 <_strtod_l+0x53e>
   1216a:	6826                	ld	a6,72(sp)
   1216c:	2505                	addiw	a0,a0,1
   1216e:	16079ce3          	bnez	a5,12ae6 <_strtod_l+0xa72>
   12172:	00180793          	addi	a5,a6,1
   12176:	e4be                	sd	a5,72(sp)
   12178:	00184a03          	lbu	s4,1(a6)
   1217c:	b7cd                	j	1215e <_strtod_l+0xea>
   1217e:	85ea                	mv	a1,s10
   12180:	e432                	sd	a2,8(sp)
   12182:	61f080ef          	jal	ra,1afa0 <strncmp>
   12186:	1a050163          	beqz	a0,12328 <_strtod_l+0x2b4>
   1218a:	85ce                	mv	a1,s3
   1218c:	4501                	li	a0,0
   1218e:	4d01                	li	s10,0
   12190:	4681                	li	a3,0
   12192:	fdfa7793          	andi	a5,s4,-33
   12196:	04500713          	li	a4,69
   1219a:	4801                	li	a6,0
   1219c:	0ce79263          	bne	a5,a4,12260 <_strtod_l+0x1ec>
   121a0:	00a9e7b3          	or	a5,s3,a0
   121a4:	00fde7b3          	or	a5,s11,a5
   121a8:	2781                	sext.w	a5,a5
   121aa:	cbf5                	beqz	a5,1229e <_strtod_l+0x22a>
   121ac:	6c26                	ld	s8,72(sp)
   121ae:	02b00793          	li	a5,43
   121b2:	001c0713          	addi	a4,s8,1
   121b6:	e4ba                	sd	a4,72(sp)
   121b8:	001c4a03          	lbu	s4,1(s8)
   121bc:	0afa09e3          	beq	s4,a5,12a6e <_strtod_l+0x9fa>
   121c0:	02d00793          	li	a5,45
   121c4:	78fa0463          	beq	s4,a5,1294c <_strtod_l+0x8d8>
   121c8:	2a01                	sext.w	s4,s4
   121ca:	4881                	li	a7,0
   121cc:	fd0a079b          	addiw	a5,s4,-48
   121d0:	4625                	li	a2,9
   121d2:	000a071b          	sext.w	a4,s4
   121d6:	76f66863          	bltu	a2,a5,12946 <_strtod_l+0x8d2>
   121da:	03000793          	li	a5,48
   121de:	00fa1d63          	bne	s4,a5,121f8 <_strtod_l+0x184>
   121e2:	67a6                	ld	a5,72(sp)
   121e4:	03000713          	li	a4,48
   121e8:	0785                	addi	a5,a5,1
   121ea:	e4be                	sd	a5,72(sp)
   121ec:	0007ca03          	lbu	s4,0(a5) # 3ff00000 <__BSS_END__+0x3fedd3d0>
   121f0:	0785                	addi	a5,a5,1
   121f2:	feea0ce3          	beq	s4,a4,121ea <_strtod_l+0x176>
   121f6:	8752                	mv	a4,s4
   121f8:	fcf7071b          	addiw	a4,a4,-49
   121fc:	47a1                	li	a5,8
   121fe:	4801                	li	a6,0
   12200:	06e7e063          	bltu	a5,a4,12260 <_strtod_l+0x1ec>
   12204:	6e26                	ld	t3,72(sp)
   12206:	fd0a061b          	addiw	a2,s4,-48
   1220a:	02f00793          	li	a5,47
   1220e:	001e0713          	addi	a4,t3,1 # 8001 <main-0x80af>
   12212:	e4ba                	sd	a4,72(sp)
   12214:	001e4a03          	lbu	s4,1(t3)
   12218:	03900813          	li	a6,57
   1221c:	02f00313          	li	t1,47
   12220:	0347dce3          	bge	a5,s4,12a58 <_strtod_l+0x9e4>
   12224:	03484263          	blt	a6,s4,12248 <_strtod_l+0x1d4>
   12228:	0026179b          	slliw	a5,a2,0x2
   1222c:	9fb1                	addw	a5,a5,a2
   1222e:	863a                	mv	a2,a4
   12230:	0705                	addi	a4,a4,1
   12232:	0017979b          	slliw	a5,a5,0x1
   12236:	e4ba                	sd	a4,72(sp)
   12238:	014787bb          	addw	a5,a5,s4
   1223c:	00164a03          	lbu	s4,1(a2)
   12240:	fd07861b          	addiw	a2,a5,-48
   12244:	ff4340e3          	blt	t1,s4,12224 <_strtod_l+0x1b0>
   12248:	41c70733          	sub	a4,a4,t3
   1224c:	47a1                	li	a5,8
   1224e:	00e7d5e3          	bge	a5,a4,12a58 <_strtod_l+0x9e4>
   12252:	6815                	lui	a6,0x5
   12254:	e1f80813          	addi	a6,a6,-481 # 4e1f <main-0xb291>
   12258:	00088463          	beqz	a7,12260 <_strtod_l+0x1ec>
   1225c:	4100083b          	negw	a6,a6
   12260:	12099863          	bnez	s3,12390 <_strtod_l+0x31c>
   12264:	00ade533          	or	a0,s11,a0
   12268:	2501                	sext.w	a0,a0
   1226a:	36051763          	bnez	a0,125d8 <_strtod_l+0x564>
   1226e:	ea85                	bnez	a3,1229e <_strtod_l+0x22a>
   12270:	06900793          	li	a5,105
   12274:	78fa0763          	beq	s4,a5,12a02 <_strtod_l+0x98e>
   12278:	1147c763          	blt	a5,s4,12386 <_strtod_l+0x312>
   1227c:	04900793          	li	a5,73
   12280:	78fa0163          	beq	s4,a5,12a02 <_strtod_l+0x98e>
   12284:	04e00793          	li	a5,78
   12288:	00fa1b63          	bne	s4,a5,1229e <_strtod_l+0x22a>
   1228c:	0000d597          	auipc	a1,0xd
   12290:	7dc58593          	addi	a1,a1,2012 # 1fa68 <__func__.4166+0x280>
   12294:	00a8                	addi	a0,sp,72
   12296:	06a050ef          	jal	ra,17300 <__match>
   1229a:	78051f63          	bnez	a0,12a38 <_strtod_l+0x9c4>
   1229e:	00000493          	li	s1,0
   122a2:	00090463          	beqz	s2,122aa <_strtod_l+0x236>
   122a6:	01893023          	sd	s8,0(s2)
   122aa:	70b2                	ld	ra,296(sp)
   122ac:	7412                	ld	s0,288(sp)
   122ae:	f2048553          	fmv.d.x	fa0,s1
   122b2:	6952                	ld	s2,272(sp)
   122b4:	64f2                	ld	s1,280(sp)
   122b6:	69b2                	ld	s3,264(sp)
   122b8:	6a12                	ld	s4,256(sp)
   122ba:	7aee                	ld	s5,248(sp)
   122bc:	7b4e                	ld	s6,240(sp)
   122be:	7bae                	ld	s7,232(sp)
   122c0:	7c0e                	ld	s8,224(sp)
   122c2:	6cee                	ld	s9,216(sp)
   122c4:	6d4e                	ld	s10,208(sp)
   122c6:	6dae                	ld	s11,200(sp)
   122c8:	346a                	fld	fs0,184(sp)
   122ca:	34ca                	fld	fs1,176(sp)
   122cc:	392a                	fld	fs2,168(sp)
   122ce:	398a                	fld	fs3,160(sp)
   122d0:	2a6a                	fld	fs4,152(sp)
   122d2:	2aca                	fld	fs5,144(sp)
   122d4:	2b2a                	fld	fs6,136(sp)
   122d6:	2b8a                	fld	fs7,128(sp)
   122d8:	3c66                	fld	fs8,120(sp)
   122da:	3cc6                	fld	fs9,112(sp)
   122dc:	3d26                	fld	fs10,104(sp)
   122de:	3d86                	fld	fs11,96(sp)
   122e0:	6155                	addi	sp,sp,304
   122e2:	8082                	ret
   122e4:	0705                	addi	a4,a4,1
   122e6:	e4ba                	sd	a4,72(sp)
   122e8:	b3ed                	j	120d2 <_strtod_l+0x5e>
   122ea:	002c949b          	slliw	s1,s9,0x2
   122ee:	019484bb          	addw	s1,s1,s9
   122f2:	0014949b          	slliw	s1,s1,0x1
   122f6:	9fa5                	addw	a5,a5,s1
   122f8:	fd078c9b          	addiw	s9,a5,-48
   122fc:	bd15                	j	12130 <_strtod_l+0xbc>
   122fe:	001ac783          	lbu	a5,1(s5)
   12302:	05800693          	li	a3,88
   12306:	001a8a13          	addi	s4,s5,1
   1230a:	0df7f793          	andi	a5,a5,223
   1230e:	78d78363          	beq	a5,a3,12a94 <_strtod_l+0xa20>
   12312:	e4d2                	sd	s4,72(sp)
   12314:	000a4783          	lbu	a5,0(s4)
   12318:	8ad2                	mv	s5,s4
   1231a:	0a05                	addi	s4,s4,1
   1231c:	fee78be3          	beq	a5,a4,12312 <_strtod_l+0x29e>
   12320:	2a078c63          	beqz	a5,125d8 <_strtod_l+0x564>
   12324:	4d85                	li	s11,1
   12326:	b3f9                	j	120f4 <_strtod_l+0x80>
   12328:	67a6                	ld	a5,72(sp)
   1232a:	6622                	ld	a2,8(sp)
   1232c:	97b2                	add	a5,a5,a2
   1232e:	e4be                	sd	a5,72(sp)
   12330:	0007ca03          	lbu	s4,0(a5)
   12334:	100997e3          	bnez	s3,12c42 <_strtod_l+0xbce>
   12338:	03000713          	li	a4,48
   1233c:	0eea10e3          	bne	s4,a4,12c1c <_strtod_l+0xba8>
   12340:	4705                	li	a4,1
   12342:	9f1d                	subw	a4,a4,a5
   12344:	03000693          	li	a3,48
   12348:	00f7053b          	addw	a0,a4,a5
   1234c:	0785                	addi	a5,a5,1
   1234e:	e4be                	sd	a5,72(sp)
   12350:	0007ca03          	lbu	s4,0(a5)
   12354:	feda0ae3          	beq	s4,a3,12348 <_strtod_l+0x2d4>
   12358:	fcfa079b          	addiw	a5,s4,-49
   1235c:	4721                	li	a4,8
   1235e:	24f76763          	bltu	a4,a5,125ac <_strtod_l+0x538>
   12362:	6826                	ld	a6,72(sp)
   12364:	fd0a079b          	addiw	a5,s4,-48
   12368:	00150d1b          	addiw	s10,a0,1
   1236c:	8ac2                	mv	s5,a6
   1236e:	4581                	li	a1,0
   12370:	4985                	li	s3,1
   12372:	002b171b          	slliw	a4,s6,0x2
   12376:	016706bb          	addw	a3,a4,s6
   1237a:	0016969b          	slliw	a3,a3,0x1
   1237e:	00f68b3b          	addw	s6,a3,a5
   12382:	4501                	li	a0,0
   12384:	b3fd                	j	12172 <_strtod_l+0xfe>
   12386:	06e00793          	li	a5,110
   1238a:	f0fa01e3          	beq	s4,a5,1228c <_strtod_l+0x218>
   1238e:	bf01                	j	1229e <_strtod_l+0x22a>
   12390:	41a80a3b          	subw	s4,a6,s10
   12394:	000a079b          	sext.w	a5,s4
   12398:	e83e                	sd	a5,16(sp)
   1239a:	e191                	bnez	a1,1239e <_strtod_l+0x32a>
   1239c:	85ce                	mv	a1,s3
   1239e:	4741                	li	a4,16
   123a0:	87ce                	mv	a5,s3
   123a2:	01375363          	bge	a4,s3,123a8 <_strtod_l+0x334>
   123a6:	47c1                	li	a5,16
   123a8:	d21b07d3          	fcvt.d.wu	fa5,s6
   123ac:	4625                	li	a2,9
   123ae:	0007871b          	sext.w	a4,a5
   123b2:	e20786d3          	fmv.x.d	a3,fa5
   123b6:	84b6                	mv	s1,a3
   123b8:	03365263          	bge	a2,s3,123dc <_strtod_l+0x368>
   123bc:	37dd                	addiw	a5,a5,-9
   123be:	078e                	slli	a5,a5,0x3
   123c0:	0000e617          	auipc	a2,0xe
   123c4:	07860613          	addi	a2,a2,120 # 20438 <__mprec_tens>
   123c8:	963e                	add	a2,a2,a5
   123ca:	d21c8753          	fcvt.d.wu	fa4,s9
   123ce:	221c                	fld	fa5,0(a2)
   123d0:	f20686d3          	fmv.d.x	fa3,a3
   123d4:	72f6f7c3          	fmadd.d	fa5,fa3,fa5,fa4
   123d8:	e20784d3          	fmv.x.d	s1,fa5
   123dc:	47bd                	li	a5,15
   123de:	0f37c563          	blt	a5,s3,124c8 <_strtod_l+0x454>
   123e2:	000a079b          	sext.w	a5,s4
   123e6:	1a078563          	beqz	a5,12590 <_strtod_l+0x51c>
   123ea:	86be                	mv	a3,a5
   123ec:	76f05663          	blez	a5,12b58 <_strtod_l+0xae4>
   123f0:	47d9                	li	a5,22
   123f2:	02d7d8e3          	bge	a5,a3,12c22 <_strtod_l+0xbae>
   123f6:	02500793          	li	a5,37
   123fa:	413787bb          	subw	a5,a5,s3
   123fe:	000a069b          	sext.w	a3,s4
   12402:	04d7d4e3          	bge	a5,a3,12c4a <_strtod_l+0xbd6>
   12406:	40e987bb          	subw	a5,s3,a4
   1240a:	014787bb          	addw	a5,a5,s4
   1240e:	00f7f713          	andi	a4,a5,15
   12412:	cf11                	beqz	a4,1242e <_strtod_l+0x3ba>
   12414:	070e                	slli	a4,a4,0x3
   12416:	0000e697          	auipc	a3,0xe
   1241a:	02268693          	addi	a3,a3,34 # 20438 <__mprec_tens>
   1241e:	9736                	add	a4,a4,a3
   12420:	f2048753          	fmv.d.x	fa4,s1
   12424:	231c                	fld	fa5,0(a4)
   12426:	12e7f7d3          	fmul.d	fa5,fa5,fa4
   1242a:	e20784d3          	fmv.x.d	s1,fa5
   1242e:	9bc1                	andi	a5,a5,-16
   12430:	1a078763          	beqz	a5,125de <_strtod_l+0x56a>
   12434:	13400713          	li	a4,308
   12438:	6af74363          	blt	a4,a5,12ade <_strtod_l+0xa6a>
   1243c:	8791                	srai	a5,a5,0x4
   1243e:	4705                	li	a4,1
   12440:	16f754e3          	bge	a4,a5,12da8 <_strtod_l+0xd34>
   12444:	0000ee17          	auipc	t3,0xe
   12448:	0e4e0e13          	addi	t3,t3,228 # 20528 <__mprec_bigtens>
   1244c:	8526                	mv	a0,s1
   1244e:	8772                	mv	a4,t3
   12450:	4301                	li	t1,0
   12452:	4681                	li	a3,0
   12454:	4885                	li	a7,1
   12456:	0017f613          	andi	a2,a5,1
   1245a:	ca09                	beqz	a2,1246c <_strtod_l+0x3f8>
   1245c:	f2050753          	fmv.d.x	fa4,a0
   12460:	231c                	fld	fa5,0(a4)
   12462:	4305                	li	t1,1
   12464:	12f777d3          	fmul.d	fa5,fa4,fa5
   12468:	e2078553          	fmv.x.d	a0,fa5
   1246c:	8785                	srai	a5,a5,0x1
   1246e:	2685                	addiw	a3,a3,1
   12470:	0721                	addi	a4,a4,8
   12472:	ff1792e3          	bne	a5,a7,12456 <_strtod_l+0x3e2>
   12476:	00030363          	beqz	t1,1247c <_strtod_l+0x408>
   1247a:	84aa                	mv	s1,a0
   1247c:	0204d713          	srli	a4,s1,0x20
   12480:	fcb007b7          	lui	a5,0xfcb00
   12484:	9fb9                	addw	a5,a5,a4
   12486:	577d                	li	a4,-1
   12488:	9301                	srli	a4,a4,0x20
   1248a:	1782                	slli	a5,a5,0x20
   1248c:	068e                	slli	a3,a3,0x3
   1248e:	8cf9                	and	s1,s1,a4
   12490:	8cdd                	or	s1,s1,a5
   12492:	96f2                	add	a3,a3,t3
   12494:	229c                	fld	fa5,0(a3)
   12496:	f2048753          	fmv.d.x	fa4,s1
   1249a:	7ff007b7          	lui	a5,0x7ff00
   1249e:	7ca00637          	lui	a2,0x7ca00
   124a2:	12e7f7d3          	fmul.d	fa5,fa5,fa4
   124a6:	e20784d3          	fmv.x.d	s1,fa5
   124aa:	4204d693          	srai	a3,s1,0x20
   124ae:	8ff5                	and	a5,a5,a3
   124b0:	62f66763          	bltu	a2,a5,12ade <_strtod_l+0xa6a>
   124b4:	7c900637          	lui	a2,0x7c900
   124b8:	0af672e3          	bgeu	a2,a5,12d5c <_strtod_l+0xce8>
   124bc:	7ff00493          	li	s1,2047
   124c0:	14d2                	slli	s1,s1,0x34
   124c2:	14fd                	addi	s1,s1,-1
   124c4:	4c01                	li	s8,0
   124c6:	aa29                	j	125e0 <_strtod_l+0x56c>
   124c8:	40e9873b          	subw	a4,s3,a4
   124cc:	014707bb          	addw	a5,a4,s4
   124d0:	f2f04fe3          	bgtz	a5,1240e <_strtod_l+0x39a>
   124d4:	10078563          	beqz	a5,125de <_strtod_l+0x56a>
   124d8:	40f007bb          	negw	a5,a5
   124dc:	00f7f713          	andi	a4,a5,15
   124e0:	cf11                	beqz	a4,124fc <_strtod_l+0x488>
   124e2:	070e                	slli	a4,a4,0x3
   124e4:	0000e697          	auipc	a3,0xe
   124e8:	f5468693          	addi	a3,a3,-172 # 20438 <__mprec_tens>
   124ec:	9736                	add	a4,a4,a3
   124ee:	f2048753          	fmv.d.x	fa4,s1
   124f2:	231c                	fld	fa5,0(a4)
   124f4:	1af777d3          	fdiv.d	fa5,fa4,fa5
   124f8:	e20784d3          	fmv.x.d	s1,fa5
   124fc:	4047d79b          	sraiw	a5,a5,0x4
   12500:	cff9                	beqz	a5,125de <_strtod_l+0x56a>
   12502:	477d                	li	a4,31
   12504:	08f74163          	blt	a4,a5,12586 <_strtod_l+0x512>
   12508:	0107f713          	andi	a4,a5,16
   1250c:	00070c1b          	sext.w	s8,a4
   12510:	c319                	beqz	a4,12516 <_strtod_l+0x4a2>
   12512:	06a00c13          	li	s8,106
   12516:	8626                	mv	a2,s1
   12518:	0000d717          	auipc	a4,0xd
   1251c:	65870713          	addi	a4,a4,1624 # 1fb70 <tinytens>
   12520:	4501                	li	a0,0
   12522:	0017f693          	andi	a3,a5,1
   12526:	ca89                	beqz	a3,12538 <_strtod_l+0x4c4>
   12528:	f2060753          	fmv.d.x	fa4,a2
   1252c:	231c                	fld	fa5,0(a4)
   1252e:	4505                	li	a0,1
   12530:	12f777d3          	fmul.d	fa5,fa4,fa5
   12534:	e2078653          	fmv.x.d	a2,fa5
   12538:	8785                	srai	a5,a5,0x1
   1253a:	0721                	addi	a4,a4,8
   1253c:	f3fd                	bnez	a5,12522 <_strtod_l+0x4ae>
   1253e:	c111                	beqz	a0,12542 <_strtod_l+0x4ce>
   12540:	84b2                	mv	s1,a2
   12542:	020c0b63          	beqz	s8,12578 <_strtod_l+0x504>
   12546:	0344d793          	srli	a5,s1,0x34
   1254a:	7ff7f713          	andi	a4,a5,2047
   1254e:	06b00793          	li	a5,107
   12552:	40e786bb          	subw	a3,a5,a4
   12556:	4204d713          	srai	a4,s1,0x20
   1255a:	00d05f63          	blez	a3,12578 <_strtod_l+0x504>
   1255e:	467d                	li	a2,31
   12560:	0ed655e3          	bge	a2,a3,12e4a <_strtod_l+0xdd6>
   12564:	567d                	li	a2,-1
   12566:	1602                	slli	a2,a2,0x20
   12568:	03400513          	li	a0,52
   1256c:	8cf1                	and	s1,s1,a2
   1256e:	0ed559e3          	bge	a0,a3,12e60 <_strtod_l+0xdec>
   12572:	03700493          	li	s1,55
   12576:	14d2                	slli	s1,s1,0x34
   12578:	f20007d3          	fmv.d.x	fa5,zero
   1257c:	f2048753          	fmv.d.x	fa4,s1
   12580:	a2f727d3          	feq.d	a5,fa4,fa5
   12584:	cfb1                	beqz	a5,125e0 <_strtod_l+0x56c>
   12586:	02200793          	li	a5,34
   1258a:	00000493          	li	s1,0
   1258e:	c01c                	sw	a5,0(s0)
   12590:	00090563          	beqz	s2,1259a <_strtod_l+0x526>
   12594:	67a6                	ld	a5,72(sp)
   12596:	00f93023          	sd	a5,0(s2)
   1259a:	d00b88e3          	beqz	s7,122aa <_strtod_l+0x236>
   1259e:	f20487d3          	fmv.d.x	fa5,s1
   125a2:	22f797d3          	fneg.d	fa5,fa5
   125a6:	e20784d3          	fmv.x.d	s1,fa5
   125aa:	b301                	j	122aa <_strtod_l+0x236>
   125ac:	4581                	li	a1,0
   125ae:	4d01                	li	s10,0
   125b0:	4981                	li	s3,0
   125b2:	4685                	li	a3,1
   125b4:	bef9                	j	12192 <_strtod_l+0x11e>
   125b6:	85ea                	mv	a1,s10
   125b8:	8556                	mv	a0,s5
   125ba:	e432                	sd	a2,8(sp)
   125bc:	1e5080ef          	jal	ra,1afa0 <strncmp>
   125c0:	6622                	ld	a2,8(sp)
   125c2:	5c050663          	beqz	a0,12b8e <_strtod_l+0xb1a>
   125c6:	4581                	li	a1,0
   125c8:	4c81                	li	s9,0
   125ca:	4b01                	li	s6,0
   125cc:	4981                	li	s3,0
   125ce:	4501                	li	a0,0
   125d0:	4d01                	li	s10,0
   125d2:	4681                	li	a3,0
   125d4:	4801                	li	a6,0
   125d6:	b169                	j	12260 <_strtod_l+0x1ec>
   125d8:	00000493          	li	s1,0
   125dc:	bf55                	j	12590 <_strtod_l+0x51c>
   125de:	4c01                	li	s8,0
   125e0:	875a                	mv	a4,s6
   125e2:	862e                	mv	a2,a1
   125e4:	86ce                	mv	a3,s3
   125e6:	85d6                	mv	a1,s5
   125e8:	8522                	mv	a0,s0
   125ea:	e442                	sd	a6,8(sp)
   125ec:	470070ef          	jal	ra,19a5c <__s2b>
   125f0:	8b2a                	mv	s6,a0
   125f2:	4e050663          	beqz	a0,12ade <_strtod_l+0xa6a>
   125f6:	67c2                	ld	a5,16(sp)
   125f8:	4701                	li	a4,0
   125fa:	4007c063          	bltz	a5,129fa <_strtod_l+0x986>
   125fe:	00010797          	auipc	a5,0x10
   12602:	4f27b487          	fld	fs1,1266(a5) # 22af0 <mask+0x10>
   12606:	00010797          	auipc	a5,0x10
   1260a:	4f27b907          	fld	fs2,1266(a5) # 22af8 <mask+0x18>
   1260e:	67c2                	ld	a5,16(sp)
   12610:	22948cd3          	fmv.d	fs9,fs1
   12614:	22948bd3          	fmv.d	fs7,fs1
   12618:	fff7c793          	not	a5,a5
   1261c:	97fd                	srai	a5,a5,0x3f
   1261e:	00fa7a33          	and	s4,s4,a5
   12622:	23290ad3          	fmv.d	fs5,fs2
   12626:	232909d3          	fmv.d	fs3,fs2
   1262a:	000a079b          	sext.w	a5,s4
   1262e:	ec3e                	sd	a5,24(sp)
   12630:	00070d1b          	sext.w	s10,a4
   12634:	4a81                	li	s5,0
   12636:	4981                	li	s3,0
   12638:	00010797          	auipc	a5,0x10
   1263c:	4c87b407          	fld	fs0,1224(a5) # 22b00 <mask+0x20>
   12640:	00010797          	auipc	a5,0x10
   12644:	4a87bc07          	fld	fs8,1192(a5) # 22ae8 <mask+0x8>
   12648:	00010797          	auipc	a5,0x10
   1264c:	4c87ba07          	fld	fs4,1224(a5) # 22b10 <mask+0x30>
   12650:	00010797          	auipc	a5,0x10
   12654:	4c87bb07          	fld	fs6,1224(a5) # 22b18 <mask+0x38>
   12658:	00010797          	auipc	a5,0x10
   1265c:	4c87bd07          	fld	fs10,1224(a5) # 22b20 <mask+0x40>
   12660:	008b2583          	lw	a1,8(s6)
   12664:	8522                	mv	a0,s0
   12666:	2c2070ef          	jal	ra,19928 <_Balloc>
   1266a:	8a2a                	mv	s4,a0
   1266c:	26050463          	beqz	a0,128d4 <_strtod_l+0x860>
   12670:	014b2603          	lw	a2,20(s6)
   12674:	010b0593          	addi	a1,s6,16
   12678:	0541                	addi	a0,a0,16
   1267a:	0609                	addi	a2,a2,2
   1267c:	060a                	slli	a2,a2,0x2
   1267e:	ed2ff0ef          	jal	ra,11d50 <memcpy>
   12682:	f2048553          	fmv.d.x	fa0,s1
   12686:	08b0                	addi	a2,sp,88
   12688:	00cc                	addi	a1,sp,68
   1268a:	8522                	mv	a0,s0
   1268c:	3f7070ef          	jal	ra,1a282 <__d2b>
   12690:	e8aa                	sd	a0,80(sp)
   12692:	e426                	sd	s1,8(sp)
   12694:	1e050d63          	beqz	a0,1288e <_strtod_l+0x81a>
   12698:	4585                	li	a1,1
   1269a:	8522                	mv	a0,s0
   1269c:	554070ef          	jal	ra,19bf0 <__i2b>
   126a0:	89aa                	mv	s3,a0
   126a2:	22050963          	beqz	a0,128d4 <_strtod_l+0x860>
   126a6:	4796                	lw	a5,68(sp)
   126a8:	2607c163          	bltz	a5,1290a <_strtod_l+0x896>
   126ac:	6662                	ld	a2,24(sp)
   126ae:	01a78cbb          	addw	s9,a5,s10
   126b2:	46e6                	lw	a3,88(sp)
   126b4:	4187873b          	subw	a4,a5,s8
   126b8:	03600793          	li	a5,54
   126bc:	9f35                	addw	a4,a4,a3
   126be:	fff7051b          	addiw	a0,a4,-1
   126c2:	9f95                	subw	a5,a5,a3
   126c4:	c0200593          	li	a1,-1022
   126c8:	872a                	mv	a4,a0
   126ca:	86be                	mv	a3,a5
   126cc:	22b55063          	bge	a0,a1,128ec <_strtod_l+0x878>
   126d0:	c0200793          	li	a5,-1022
   126d4:	40a785bb          	subw	a1,a5,a0
   126d8:	457d                	li	a0,31
   126da:	40b687bb          	subw	a5,a3,a1
   126de:	22b54b63          	blt	a0,a1,12914 <_strtod_l+0x8a0>
   126e2:	4705                	li	a4,1
   126e4:	00b7173b          	sllw	a4,a4,a1
   126e8:	f03a                	sd	a4,32(sp)
   126ea:	f402                	sd	zero,40(sp)
   126ec:	00f606bb          	addw	a3,a2,a5
   126f0:	00dc063b          	addw	a2,s8,a3
   126f4:	00fc88bb          	addw	a7,s9,a5
   126f8:	87c6                	mv	a5,a7
   126fa:	86b2                	mv	a3,a2
   126fc:	8db2                	mv	s11,a2
   126fe:	8766                	mv	a4,s9
   12700:	0198d363          	bge	a7,s9,12706 <_strtod_l+0x692>
   12704:	8746                	mv	a4,a7
   12706:	0007059b          	sext.w	a1,a4
   1270a:	00b65363          	bge	a2,a1,12710 <_strtod_l+0x69c>
   1270e:	8736                	mv	a4,a3
   12710:	0007061b          	sext.w	a2,a4
   12714:	00c05863          	blez	a2,12724 <_strtod_l+0x6b0>
   12718:	40e788bb          	subw	a7,a5,a4
   1271c:	40e68dbb          	subw	s11,a3,a4
   12720:	40ec8cbb          	subw	s9,s9,a4
   12724:	13a04163          	bgtz	s10,12846 <_strtod_l+0x7d2>
   12728:	15104b63          	bgtz	a7,1287e <_strtod_l+0x80a>
   1272c:	67c2                	ld	a5,16(sp)
   1272e:	18f04b63          	bgtz	a5,128c4 <_strtod_l+0x850>
   12732:	1bb04363          	bgtz	s11,128d8 <_strtod_l+0x864>
   12736:	01905a63          	blez	s9,1274a <_strtod_l+0x6d6>
   1273a:	85ce                	mv	a1,s3
   1273c:	8666                	mv	a2,s9
   1273e:	8522                	mv	a0,s0
   12740:	724070ef          	jal	ra,19e64 <__lshift>
   12744:	89aa                	mv	s3,a0
   12746:	18050763          	beqz	a0,128d4 <_strtod_l+0x860>
   1274a:	65c6                	ld	a1,80(sp)
   1274c:	8652                	mv	a2,s4
   1274e:	8522                	mv	a0,s0
   12750:	05f070ef          	jal	ra,19fae <__mdiff>
   12754:	8aaa                	mv	s5,a0
   12756:	16050f63          	beqz	a0,128d4 <_strtod_l+0x860>
   1275a:	01052d83          	lw	s11,16(a0)
   1275e:	85ce                	mv	a1,s3
   12760:	00052823          	sw	zero,16(a0)
   12764:	013070ef          	jal	ra,19f76 <__mcmp>
   12768:	50054b63          	bltz	a0,12c7e <_strtod_l+0xc0a>
   1276c:	5a050c63          	beqz	a0,12d24 <_strtod_l+0xcb0>
   12770:	85ce                	mv	a1,s3
   12772:	8556                	mv	a0,s5
   12774:	3ef070ef          	jal	ra,1a362 <__ratio>
   12778:	a28507d3          	fle.d	a5,fa0,fs0
   1277c:	16078c63          	beqz	a5,128f4 <_strtod_l+0x880>
   12780:	1a0d8563          	beqz	s11,1292a <_strtod_l+0x8b6>
   12784:	23398dd3          	fmv.d	fs11,fs3
   12788:	3ff00793          	li	a5,1023
   1278c:	17d2                	slli	a5,a5,0x34
   1278e:	4204d613          	srai	a2,s1,0x20
   12792:	7ff006b7          	lui	a3,0x7ff00
   12796:	00d67733          	and	a4,a2,a3
   1279a:	7fe005b7          	lui	a1,0x7fe00
   1279e:	1ab70e63          	beq	a4,a1,1295a <_strtod_l+0x8e6>
   127a2:	040c0763          	beqz	s8,127f0 <_strtod_l+0x77c>
   127a6:	06a006b7          	lui	a3,0x6a00
   127aa:	04e6e363          	bltu	a3,a4,127f0 <_strtod_l+0x77c>
   127ae:	00010697          	auipc	a3,0x10
   127b2:	35a6b787          	fld	fa5,858(a3) # 22b08 <mask+0x28>
   127b6:	a2fd86d3          	fle.d	a3,fs11,fa5
   127ba:	c28d                	beqz	a3,127dc <_strtod_l+0x768>
   127bc:	c21d97d3          	fcvt.wu.d	a5,fs11,rtz
   127c0:	0007869b          	sext.w	a3,a5
   127c4:	e291                	bnez	a3,127c8 <_strtod_l+0x754>
   127c6:	4785                	li	a5,1
   127c8:	d2178dd3          	fcvt.d.wu	fs11,a5
   127cc:	e20d87d3          	fmv.x.d	a5,fs11
   127d0:	000d9663          	bnez	s11,127dc <_strtod_l+0x768>
   127d4:	23bd97d3          	fneg.d	fa5,fs11
   127d8:	e20787d3          	fmv.x.d	a5,fa5
   127dc:	0207d613          	srli	a2,a5,0x20
   127e0:	06b006b7          	lui	a3,0x6b00
   127e4:	9eb1                	addw	a3,a3,a2
   127e6:	9e99                	subw	a3,a3,a4
   127e8:	1782                	slli	a5,a5,0x20
   127ea:	1682                	slli	a3,a3,0x20
   127ec:	9381                	srli	a5,a5,0x20
   127ee:	8fd5                	or	a5,a5,a3
   127f0:	64a2                	ld	s1,8(sp)
   127f2:	f43e                	sd	a5,40(sp)
   127f4:	f03a                	sd	a4,32(sp)
   127f6:	f2048553          	fmv.d.x	fa0,s1
   127fa:	12f070ef          	jal	ra,1a128 <__ulp>
   127fe:	77a2                	ld	a5,40(sp)
   12800:	f2048753          	fmv.d.x	fa4,s1
   12804:	7702                	ld	a4,32(sp)
   12806:	f20787d3          	fmv.d.x	fa5,a5
   1280a:	72f577c3          	fmadd.d	fa5,fa0,fa5,fa4
   1280e:	e20787d3          	fmv.x.d	a5,fa5
   12812:	84be                	mv	s1,a5
   12814:	9781                	srai	a5,a5,0x20
   12816:	000c1763          	bnez	s8,12824 <_strtod_l+0x7b0>
   1281a:	7ff006b7          	lui	a3,0x7ff00
   1281e:	8ff5                	and	a5,a5,a3
   12820:	24f70963          	beq	a4,a5,12a72 <_strtod_l+0x9fe>
   12824:	65c6                	ld	a1,80(sp)
   12826:	8522                	mv	a0,s0
   12828:	164070ef          	jal	ra,1998c <_Bfree>
   1282c:	85d2                	mv	a1,s4
   1282e:	8522                	mv	a0,s0
   12830:	15c070ef          	jal	ra,1998c <_Bfree>
   12834:	85ce                	mv	a1,s3
   12836:	8522                	mv	a0,s0
   12838:	154070ef          	jal	ra,1998c <_Bfree>
   1283c:	85d6                	mv	a1,s5
   1283e:	8522                	mv	a0,s0
   12840:	14c070ef          	jal	ra,1998c <_Bfree>
   12844:	bd31                	j	12660 <_strtod_l+0x5ec>
   12846:	85ce                	mv	a1,s3
   12848:	866a                	mv	a2,s10
   1284a:	8522                	mv	a0,s0
   1284c:	f846                	sd	a7,48(sp)
   1284e:	54c070ef          	jal	ra,19d9a <__pow5mult>
   12852:	78c2                	ld	a7,48(sp)
   12854:	89aa                	mv	s3,a0
   12856:	cd3d                	beqz	a0,128d4 <_strtod_l+0x860>
   12858:	6646                	ld	a2,80(sp)
   1285a:	85aa                	mv	a1,a0
   1285c:	8522                	mv	a0,s0
   1285e:	f846                	sd	a7,48(sp)
   12860:	3ac070ef          	jal	ra,19c0c <__multiply>
   12864:	78c2                	ld	a7,48(sp)
   12866:	c53d                	beqz	a0,128d4 <_strtod_l+0x860>
   12868:	65c6                	ld	a1,80(sp)
   1286a:	fc2a                	sd	a0,56(sp)
   1286c:	8522                	mv	a0,s0
   1286e:	f846                	sd	a7,48(sp)
   12870:	11c070ef          	jal	ra,1998c <_Bfree>
   12874:	77e2                	ld	a5,56(sp)
   12876:	78c2                	ld	a7,48(sp)
   12878:	e8be                	sd	a5,80(sp)
   1287a:	eb1059e3          	blez	a7,1272c <_strtod_l+0x6b8>
   1287e:	65c6                	ld	a1,80(sp)
   12880:	8646                	mv	a2,a7
   12882:	8522                	mv	a0,s0
   12884:	5e0070ef          	jal	ra,19e64 <__lshift>
   12888:	e8aa                	sd	a0,80(sp)
   1288a:	ea0511e3          	bnez	a0,1272c <_strtod_l+0x6b8>
   1288e:	02200793          	li	a5,34
   12892:	7ff00493          	li	s1,2047
   12896:	c01c                	sw	a5,0(s0)
   12898:	14d2                	slli	s1,s1,0x34
   1289a:	85aa                	mv	a1,a0
   1289c:	8522                	mv	a0,s0
   1289e:	0ee070ef          	jal	ra,1998c <_Bfree>
   128a2:	85d2                	mv	a1,s4
   128a4:	8522                	mv	a0,s0
   128a6:	0e6070ef          	jal	ra,1998c <_Bfree>
   128aa:	85ce                	mv	a1,s3
   128ac:	8522                	mv	a0,s0
   128ae:	0de070ef          	jal	ra,1998c <_Bfree>
   128b2:	85da                	mv	a1,s6
   128b4:	8522                	mv	a0,s0
   128b6:	0d6070ef          	jal	ra,1998c <_Bfree>
   128ba:	85d6                	mv	a1,s5
   128bc:	8522                	mv	a0,s0
   128be:	0ce070ef          	jal	ra,1998c <_Bfree>
   128c2:	b1f9                	j	12590 <_strtod_l+0x51c>
   128c4:	6662                	ld	a2,24(sp)
   128c6:	85d2                	mv	a1,s4
   128c8:	8522                	mv	a0,s0
   128ca:	4d0070ef          	jal	ra,19d9a <__pow5mult>
   128ce:	8a2a                	mv	s4,a0
   128d0:	e60511e3          	bnez	a0,12732 <_strtod_l+0x6be>
   128d4:	6546                	ld	a0,80(sp)
   128d6:	bf65                	j	1288e <_strtod_l+0x81a>
   128d8:	85d2                	mv	a1,s4
   128da:	866e                	mv	a2,s11
   128dc:	8522                	mv	a0,s0
   128de:	586070ef          	jal	ra,19e64 <__lshift>
   128e2:	8a2a                	mv	s4,a0
   128e4:	e40519e3          	bnez	a0,12736 <_strtod_l+0x6c2>
   128e8:	6546                	ld	a0,80(sp)
   128ea:	b755                	j	1288e <_strtod_l+0x81a>
   128ec:	4705                	li	a4,1
   128ee:	f402                	sd	zero,40(sp)
   128f0:	f03a                	sd	a4,32(sp)
   128f2:	bbed                	j	126ec <_strtod_l+0x678>
   128f4:	12957dd3          	fmul.d	fs11,fa0,fs1
   128f8:	e20d87d3          	fmv.x.d	a5,fs11
   128fc:	e80d99e3          	bnez	s11,1278e <_strtod_l+0x71a>
   12900:	23bd97d3          	fneg.d	fa5,fs11
   12904:	e20787d3          	fmv.x.d	a5,fa5
   12908:	b559                	j	1278e <_strtod_l+0x71a>
   1290a:	6762                	ld	a4,24(sp)
   1290c:	8cea                	mv	s9,s10
   1290e:	40f7063b          	subw	a2,a4,a5
   12912:	b345                	j	126b2 <_strtod_l+0x63e>
   12914:	be200693          	li	a3,-1054
   12918:	40e6873b          	subw	a4,a3,a4
   1291c:	4685                	li	a3,1
   1291e:	00e6973b          	sllw	a4,a3,a4
   12922:	f43a                	sd	a4,40(sp)
   12924:	4705                	li	a4,1
   12926:	f03a                	sd	a4,32(sp)
   12928:	b3d1                	j	126ec <_strtod_l+0x678>
   1292a:	6722                	ld	a4,8(sp)
   1292c:	00c71693          	slli	a3,a4,0xc
   12930:	87ba                	mv	a5,a4
   12932:	c2c9                	beqz	a3,129b4 <_strtod_l+0x940>
   12934:	4705                	li	a4,1
   12936:	48e78e63          	beq	a5,a4,12dd2 <_strtod_l+0xd5e>
   1293a:	bff00793          	li	a5,-1025
   1293e:	235a8dd3          	fmv.d	fs11,fs5
   12942:	17d2                	slli	a5,a5,0x34
   12944:	b5a9                	j	1278e <_strtod_l+0x71a>
   12946:	e4e2                	sd	s8,72(sp)
   12948:	4801                	li	a6,0
   1294a:	ba19                	j	12260 <_strtod_l+0x1ec>
   1294c:	4885                	li	a7,1
   1294e:	002c0793          	addi	a5,s8,2
   12952:	e4be                	sd	a5,72(sp)
   12954:	002c4a03          	lbu	s4,2(s8)
   12958:	b895                	j	121cc <_strtod_l+0x158>
   1295a:	fcb005b7          	lui	a1,0xfcb00
   1295e:	9e2d                	addw	a2,a2,a1
   12960:	55fd                	li	a1,-1
   12962:	9181                	srli	a1,a1,0x20
   12964:	1602                	slli	a2,a2,0x20
   12966:	8ced                	and	s1,s1,a1
   12968:	8cd1                	or	s1,s1,a2
   1296a:	f2048553          	fmv.d.x	fa0,s1
   1296e:	f836                	sd	a3,48(sp)
   12970:	f43e                	sd	a5,40(sp)
   12972:	f03a                	sd	a4,32(sp)
   12974:	7b4070ef          	jal	ra,1a128 <__ulp>
   12978:	77a2                	ld	a5,40(sp)
   1297a:	f2048753          	fmv.d.x	fa4,s1
   1297e:	76c2                	ld	a3,48(sp)
   12980:	f20787d3          	fmv.d.x	fa5,a5
   12984:	7ca00837          	lui	a6,0x7ca00
   12988:	57fd                	li	a5,-1
   1298a:	72f577c3          	fmadd.d	fa5,fa0,fa5,fa4
   1298e:	7702                	ld	a4,32(sp)
   12990:	0207d593          	srli	a1,a5,0x20
   12994:	e2078653          	fmv.x.d	a2,fa5
   12998:	42065513          	srai	a0,a2,0x20
   1299c:	8ee9                	and	a3,a3,a0
   1299e:	0306e663          	bltu	a3,a6,129ca <_strtod_l+0x956>
   129a2:	7ff00493          	li	s1,2047
   129a6:	67a2                	ld	a5,8(sp)
   129a8:	14d2                	slli	s1,s1,0x34
   129aa:	14fd                	addi	s1,s1,-1
   129ac:	e6f49ce3          	bne	s1,a5,12824 <_strtod_l+0x7b0>
   129b0:	6546                	ld	a0,80(sp)
   129b2:	bdf1                	j	1288e <_strtod_l+0x81a>
   129b4:	a32517d3          	flt.d	a5,fa0,fs2
   129b8:	1c079663          	bnez	a5,12b84 <_strtod_l+0xb10>
   129bc:	13757dd3          	fmul.d	fs11,fa0,fs7
   129c0:	23bd97d3          	fneg.d	fa5,fs11
   129c4:	e20787d3          	fmv.x.d	a5,fa5
   129c8:	b3d9                	j	1278e <_strtod_l+0x71a>
   129ca:	035007b7          	lui	a5,0x3500
   129ce:	9fa9                	addw	a5,a5,a0
   129d0:	02079693          	slli	a3,a5,0x20
   129d4:	8df1                	and	a1,a1,a2
   129d6:	00d5e4b3          	or	s1,a1,a3
   129da:	bd35                	j	12816 <_strtod_l+0x7a2>
   129dc:	4b85                	li	s7,1
   129de:	00170a93          	addi	s5,a4,1
   129e2:	e4d6                	sd	s5,72(sp)
   129e4:	00174783          	lbu	a5,1(a4)
   129e8:	f0079163          	bnez	a5,120ea <_strtod_l+0x76>
   129ec:	00000493          	li	s1,0
   129f0:	8a091be3          	bnez	s2,122a6 <_strtod_l+0x232>
   129f4:	b85d                	j	122aa <_strtod_l+0x236>
   129f6:	4b81                	li	s7,0
   129f8:	b7dd                	j	129de <_strtod_l+0x96a>
   129fa:	6822                	ld	a6,8(sp)
   129fc:	410d073b          	subw	a4,s10,a6
   12a00:	befd                	j	125fe <_strtod_l+0x58a>
   12a02:	0000d597          	auipc	a1,0xd
   12a06:	05658593          	addi	a1,a1,86 # 1fa58 <__func__.4166+0x270>
   12a0a:	00a8                	addi	a0,sp,72
   12a0c:	0f5040ef          	jal	ra,17300 <__match>
   12a10:	880507e3          	beqz	a0,1229e <_strtod_l+0x22a>
   12a14:	67a6                	ld	a5,72(sp)
   12a16:	0000d597          	auipc	a1,0xd
   12a1a:	04a58593          	addi	a1,a1,74 # 1fa60 <__func__.4166+0x278>
   12a1e:	00a8                	addi	a0,sp,72
   12a20:	17fd                	addi	a5,a5,-1
   12a22:	e4be                	sd	a5,72(sp)
   12a24:	0dd040ef          	jal	ra,17300 <__match>
   12a28:	e501                	bnez	a0,12a30 <_strtod_l+0x9bc>
   12a2a:	67a6                	ld	a5,72(sp)
   12a2c:	0785                	addi	a5,a5,1
   12a2e:	e4be                	sd	a5,72(sp)
   12a30:	7ff00493          	li	s1,2047
   12a34:	14d2                	slli	s1,s1,0x34
   12a36:	bea9                	j	12590 <_strtod_l+0x51c>
   12a38:	6726                	ld	a4,72(sp)
   12a3a:	02800793          	li	a5,40
   12a3e:	00074703          	lbu	a4,0(a4)
   12a42:	32f70763          	beq	a4,a5,12d70 <_strtod_l+0xcfc>
   12a46:	0000d517          	auipc	a0,0xd
   12a4a:	fba50513          	addi	a0,a0,-70 # 1fa00 <__func__.4166+0x218>
   12a4e:	258080ef          	jal	ra,1aca6 <nan>
   12a52:	e20504d3          	fmv.x.d	s1,fa0
   12a56:	be2d                	j	12590 <_strtod_l+0x51c>
   12a58:	6795                	lui	a5,0x5
   12a5a:	e1f78793          	addi	a5,a5,-481 # 4e1f <main-0xb291>
   12a5e:	0006081b          	sext.w	a6,a2
   12a62:	fec7db63          	bge	a5,a2,12258 <_strtod_l+0x1e4>
   12a66:	0007881b          	sext.w	a6,a5
   12a6a:	feeff06f          	j	12258 <_strtod_l+0x1e4>
   12a6e:	4881                	li	a7,0
   12a70:	bdf9                	j	1294e <_strtod_l+0x8da>
   12a72:	c22d97d3          	fcvt.l.d	a5,fs11,rtz
   12a76:	d227f553          	fcvt.d.l	fa0,a5
   12a7a:	0aadf553          	fsub.d	fa0,fs11,fa0
   12a7e:	040d9763          	bnez	s11,12acc <_strtod_l+0xa58>
   12a82:	00c49793          	slli	a5,s1,0xc
   12a86:	e3b9                	bnez	a5,12acc <_strtod_l+0xa58>
   12a88:	a3a517d3          	flt.d	a5,fa0,fs10
   12a8c:	d8078ce3          	beqz	a5,12824 <_strtod_l+0x7b0>
   12a90:	6546                	ld	a0,80(sp)
   12a92:	b521                	j	1289a <_strtod_l+0x826>
   12a94:	884e                	mv	a6,s3
   12a96:	87de                	mv	a5,s7
   12a98:	0898                	addi	a4,sp,80
   12a9a:	00d4                	addi	a3,sp,68
   12a9c:	0000d617          	auipc	a2,0xd
   12aa0:	0a460613          	addi	a2,a2,164 # 1fb40 <fpi.3396>
   12aa4:	00ac                	addi	a1,sp,72
   12aa6:	8522                	mv	a0,s0
   12aa8:	282040ef          	jal	ra,16d2a <__gethex>
   12aac:	00757a93          	andi	s5,a0,7
   12ab0:	89aa                	mv	s3,a0
   12ab2:	b20a83e3          	beqz	s5,125d8 <_strtod_l+0x564>
   12ab6:	4799                	li	a5,6
   12ab8:	0efa9463          	bne	s5,a5,12ba0 <_strtod_l+0xb2c>
   12abc:	00000493          	li	s1,0
   12ac0:	fe090563          	beqz	s2,122aa <_strtod_l+0x236>
   12ac4:	01493023          	sd	s4,0(s2)
   12ac8:	fe2ff06f          	j	122aa <_strtod_l+0x236>
   12acc:	a34517d3          	flt.d	a5,fa0,fs4
   12ad0:	f3e1                	bnez	a5,12a90 <_strtod_l+0xa1c>
   12ad2:	a2ab17d3          	flt.d	a5,fs6,fa0
   12ad6:	d40787e3          	beqz	a5,12824 <_strtod_l+0x7b0>
   12ada:	6546                	ld	a0,80(sp)
   12adc:	bb7d                	j	1289a <_strtod_l+0x826>
   12ade:	02200793          	li	a5,34
   12ae2:	c01c                	sw	a5,0(s0)
   12ae4:	b7b1                	j	12a30 <_strtod_l+0x9bc>
   12ae6:	4685                	li	a3,1
   12ae8:	0019889b          	addiw	a7,s3,1
   12aec:	01a50d3b          	addw	s10,a0,s10
   12af0:	38d50463          	beq	a0,a3,12e78 <_strtod_l+0xe04>
   12af4:	013508bb          	addw	a7,a0,s3
   12af8:	fff8871b          	addiw	a4,a7,-1
   12afc:	2981                	sext.w	s3,s3
   12afe:	4521                	li	a0,8
   12b00:	4341                	li	t1,16
   12b02:	03354f63          	blt	a0,s3,12b40 <_strtod_l+0xacc>
   12b06:	002b169b          	slliw	a3,s6,0x2
   12b0a:	016686bb          	addw	a3,a3,s6
   12b0e:	00169b1b          	slliw	s6,a3,0x1
   12b12:	2985                	addiw	s3,s3,1
   12b14:	fee997e3          	bne	s3,a4,12b02 <_strtod_l+0xa8e>
   12b18:	2701                	sext.w	a4,a4
   12b1a:	0008899b          	sext.w	s3,a7
   12b1e:	46a1                	li	a3,8
   12b20:	84e6d9e3          	bge	a3,a4,12372 <_strtod_l+0x2fe>
   12b24:	47c1                	li	a5,16
   12b26:	4501                	li	a0,0
   12b28:	e537c563          	blt	a5,s3,12172 <_strtod_l+0xfe>
   12b2c:	002c979b          	slliw	a5,s9,0x2
   12b30:	019787bb          	addw	a5,a5,s9
   12b34:	0017979b          	slliw	a5,a5,0x1
   12b38:	00c78cbb          	addw	s9,a5,a2
   12b3c:	e36ff06f          	j	12172 <_strtod_l+0xfe>
   12b40:	0019869b          	addiw	a3,s3,1
   12b44:	89b6                	mv	s3,a3
   12b46:	fcd347e3          	blt	t1,a3,12b14 <_strtod_l+0xaa0>
   12b4a:	002c949b          	slliw	s1,s9,0x2
   12b4e:	019484bb          	addw	s1,s1,s9
   12b52:	00149c9b          	slliw	s9,s1,0x1
   12b56:	bf7d                	j	12b14 <_strtod_l+0xaa0>
   12b58:	57a9                	li	a5,-22
   12b5a:	000a069b          	sext.w	a3,s4
   12b5e:	96f6c5e3          	blt	a3,a5,124c8 <_strtod_l+0x454>
   12b62:	410d07bb          	subw	a5,s10,a6
   12b66:	00379713          	slli	a4,a5,0x3
   12b6a:	0000e797          	auipc	a5,0xe
   12b6e:	8ce78793          	addi	a5,a5,-1842 # 20438 <__mprec_tens>
   12b72:	97ba                	add	a5,a5,a4
   12b74:	f2048753          	fmv.d.x	fa4,s1
   12b78:	239c                	fld	fa5,0(a5)
   12b7a:	1af777d3          	fdiv.d	fa5,fa4,fa5
   12b7e:	e20784d3          	fmv.x.d	s1,fa5
   12b82:	b439                	j	12590 <_strtod_l+0x51c>
   12b84:	e20c07d3          	fmv.x.d	a5,fs8
   12b88:	239c8dd3          	fmv.d	fs11,fs9
   12b8c:	b109                	j	1278e <_strtod_l+0x71a>
   12b8e:	67a6                	ld	a5,72(sp)
   12b90:	4b01                	li	s6,0
   12b92:	4c81                	li	s9,0
   12b94:	97b2                	add	a5,a5,a2
   12b96:	e4be                	sd	a5,72(sp)
   12b98:	0007ca03          	lbu	s4,0(a5)
   12b9c:	f9cff06f          	j	12338 <_strtod_l+0x2c4>
   12ba0:	6646                	ld	a2,80(sp)
   12ba2:	ca11                	beqz	a2,12bb6 <_strtod_l+0xb42>
   12ba4:	03500593          	li	a1,53
   12ba8:	08a8                	addi	a0,sp,88
   12baa:	06d070ef          	jal	ra,1a416 <__copybits>
   12bae:	65c6                	ld	a1,80(sp)
   12bb0:	8522                	mv	a0,s0
   12bb2:	5db060ef          	jal	ra,1998c <_Bfree>
   12bb6:	4795                	li	a5,5
   12bb8:	0357eb63          	bltu	a5,s5,12bee <_strtod_l+0xb7a>
   12bbc:	0000d717          	auipc	a4,0xd
   12bc0:	f6c70713          	addi	a4,a4,-148 # 1fb28 <__func__.4166+0x340>
   12bc4:	002a9793          	slli	a5,s5,0x2
   12bc8:	97ba                	add	a5,a5,a4
   12bca:	439c                	lw	a5,0(a5)
   12bcc:	97ba                	add	a5,a5,a4
   12bce:	8782                	jr	a5
   12bd0:	4716                	lw	a4,68(sp)
   12bd2:	47f6                	lw	a5,92(sp)
   12bd4:	fff006b7          	lui	a3,0xfff00
   12bd8:	4337071b          	addiw	a4,a4,1075
   12bdc:	16fd                	addi	a3,a3,-1
   12bde:	05816483          	lwu	s1,88(sp)
   12be2:	8ff5                	and	a5,a5,a3
   12be4:	0147171b          	slliw	a4,a4,0x14
   12be8:	8fd9                	or	a5,a5,a4
   12bea:	1782                	slli	a5,a5,0x20
   12bec:	8cdd                	or	s1,s1,a5
   12bee:	0089f993          	andi	s3,s3,8
   12bf2:	98098fe3          	beqz	s3,12590 <_strtod_l+0x51c>
   12bf6:	0204d793          	srli	a5,s1,0x20
   12bfa:	80000737          	lui	a4,0x80000
   12bfe:	8fd9                	or	a5,a5,a4
   12c00:	1482                	slli	s1,s1,0x20
   12c02:	1782                	slli	a5,a5,0x20
   12c04:	9081                	srli	s1,s1,0x20
   12c06:	8cdd                	or	s1,s1,a5
   12c08:	b261                	j	12590 <_strtod_l+0x51c>
   12c0a:	54fd                	li	s1,-1
   12c0c:	8085                	srli	s1,s1,0x1
   12c0e:	b7c5                	j	12bee <_strtod_l+0xb7a>
   12c10:	7ff00493          	li	s1,2047
   12c14:	14d2                	slli	s1,s1,0x34
   12c16:	bfe1                	j	12bee <_strtod_l+0xb7a>
   12c18:	64e6                	ld	s1,88(sp)
   12c1a:	bfd1                	j	12bee <_strtod_l+0xb7a>
   12c1c:	4501                	li	a0,0
   12c1e:	f3aff06f          	j	12358 <_strtod_l+0x2e4>
   12c22:	67c2                	ld	a5,16(sp)
   12c24:	f2048753          	fmv.d.x	fa4,s1
   12c28:	00379713          	slli	a4,a5,0x3
   12c2c:	0000e797          	auipc	a5,0xe
   12c30:	80c78793          	addi	a5,a5,-2036 # 20438 <__mprec_tens>
   12c34:	97ba                	add	a5,a5,a4
   12c36:	239c                	fld	fa5,0(a5)
   12c38:	12e7f7d3          	fmul.d	fa5,fa5,fa4
   12c3c:	e20784d3          	fmv.x.d	s1,fa5
   12c40:	ba81                	j	12590 <_strtod_l+0x51c>
   12c42:	85ce                	mv	a1,s3
   12c44:	4d01                	li	s10,0
   12c46:	d18ff06f          	j	1215e <_strtod_l+0xea>
   12c4a:	47bd                	li	a5,15
   12c4c:	413787bb          	subw	a5,a5,s3
   12c50:	89be                	mv	s3,a5
   12c52:	0000d717          	auipc	a4,0xd
   12c56:	7e670713          	addi	a4,a4,2022 # 20438 <__mprec_tens>
   12c5a:	078e                	slli	a5,a5,0x3
   12c5c:	97ba                	add	a5,a5,a4
   12c5e:	f2048753          	fmv.d.x	fa4,s1
   12c62:	239c                	fld	fa5,0(a5)
   12c64:	413a09bb          	subw	s3,s4,s3
   12c68:	00399793          	slli	a5,s3,0x3
   12c6c:	12e7f7d3          	fmul.d	fa5,fa5,fa4
   12c70:	97ba                	add	a5,a5,a4
   12c72:	2398                	fld	fa4,0(a5)
   12c74:	12e7f7d3          	fmul.d	fa5,fa5,fa4
   12c78:	e20784d3          	fmv.x.d	s1,fa5
   12c7c:	ba11                	j	12590 <_strtod_l+0x51c>
   12c7e:	040d9363          	bnez	s11,12cc4 <_strtod_l+0xc50>
   12c82:	67a2                	ld	a5,8(sp)
   12c84:	00c79713          	slli	a4,a5,0xc
   12c88:	ef15                	bnez	a4,12cc4 <_strtod_l+0xc50>
   12c8a:	0204dd13          	srli	s10,s1,0x20
   12c8e:	7ff007b7          	lui	a5,0x7ff00
   12c92:	00fd77b3          	and	a5,s10,a5
   12c96:	06b00737          	lui	a4,0x6b00
   12c9a:	02f77563          	bgeu	a4,a5,12cc4 <_strtod_l+0xc50>
   12c9e:	018aa783          	lw	a5,24(s5)
   12ca2:	e791                	bnez	a5,12cae <_strtod_l+0xc3a>
   12ca4:	014aa703          	lw	a4,20(s5)
   12ca8:	4785                	li	a5,1
   12caa:	00e7dd63          	bge	a5,a4,12cc4 <_strtod_l+0xc50>
   12cae:	85d6                	mv	a1,s5
   12cb0:	4605                	li	a2,1
   12cb2:	8522                	mv	a0,s0
   12cb4:	1b0070ef          	jal	ra,19e64 <__lshift>
   12cb8:	85ce                	mv	a1,s3
   12cba:	8aaa                	mv	s5,a0
   12cbc:	2ba070ef          	jal	ra,19f76 <__mcmp>
   12cc0:	02a04b63          	bgtz	a0,12cf6 <_strtod_l+0xc82>
   12cc4:	6546                	ld	a0,80(sp)
   12cc6:	bc0c0ae3          	beqz	s8,1289a <_strtod_l+0x826>
   12cca:	39500493          	li	s1,917
   12cce:	14d2                	slli	s1,s1,0x34
   12cd0:	f2048753          	fmv.d.x	fa4,s1
   12cd4:	27a2                	fld	fa5,8(sp)
   12cd6:	12e7f7d3          	fmul.d	fa5,fa5,fa4
   12cda:	e20784d3          	fmv.x.d	s1,fa5
   12cde:	ba049ee3          	bnez	s1,1289a <_strtod_l+0x826>
   12ce2:	02200793          	li	a5,34
   12ce6:	c01c                	sw	a5,0(s0)
   12ce8:	be4d                	j	1289a <_strtod_l+0x826>
   12cea:	67a2                	ld	a5,8(sp)
   12cec:	00c79713          	slli	a4,a5,0xc
   12cf0:	e339                	bnez	a4,12d36 <_strtod_l+0xcc2>
   12cf2:	0204dd13          	srli	s10,s1,0x20
   12cf6:	67c6                	ld	a5,80(sp)
   12cf8:	2d01                	sext.w	s10,s10
   12cfa:	853e                	mv	a0,a5
   12cfc:	0c0c0d63          	beqz	s8,12dd6 <_strtod_l+0xd62>
   12d00:	7ff00737          	lui	a4,0x7ff00
   12d04:	00ed7733          	and	a4,s10,a4
   12d08:	06b006b7          	lui	a3,0x6b00
   12d0c:	0ce6c563          	blt	a3,a4,12dd6 <_strtod_l+0xd62>
   12d10:	037006b7          	lui	a3,0x3700
   12d14:	fae6cbe3          	blt	a3,a4,12cca <_strtod_l+0xc56>
   12d18:	02200713          	li	a4,34
   12d1c:	4481                	li	s1,0
   12d1e:	c018                	sw	a4,0(s0)
   12d20:	853e                	mv	a0,a5
   12d22:	bea5                	j	1289a <_strtod_l+0x826>
   12d24:	fc0d83e3          	beqz	s11,12cea <_strtod_l+0xc76>
   12d28:	4204d713          	srai	a4,s1,0x20
   12d2c:	fff74793          	not	a5,a4
   12d30:	02c79693          	slli	a3,a5,0x2c
   12d34:	c2f9                	beqz	a3,12dfa <_strtod_l+0xd86>
   12d36:	7722                	ld	a4,40(sp)
   12d38:	c335                	beqz	a4,12d9c <_strtod_l+0xd28>
   12d3a:	0204d793          	srli	a5,s1,0x20
   12d3e:	8ff9                	and	a5,a5,a4
   12d40:	d3d1                	beqz	a5,12cc4 <_strtod_l+0xc50>
   12d42:	8526                	mv	a0,s1
   12d44:	85e2                	mv	a1,s8
   12d46:	060d8863          	beqz	s11,12db6 <_strtod_l+0xd42>
   12d4a:	ae6ff0ef          	jal	ra,12030 <sulp>
   12d4e:	27a2                	fld	fa5,8(sp)
   12d50:	6546                	ld	a0,80(sp)
   12d52:	02a7f7d3          	fadd.d	fa5,fa5,fa0
   12d56:	a43e                	fsd	fa5,8(sp)
   12d58:	64a2                	ld	s1,8(sp)
   12d5a:	b7b5                	j	12cc6 <_strtod_l+0xc52>
   12d5c:	035007b7          	lui	a5,0x3500
   12d60:	9fb5                	addw	a5,a5,a3
   12d62:	1782                	slli	a5,a5,0x20
   12d64:	8f65                	and	a4,a4,s1
   12d66:	00f764b3          	or	s1,a4,a5
   12d6a:	4c01                	li	s8,0
   12d6c:	875ff06f          	j	125e0 <_strtod_l+0x56c>
   12d70:	08b0                	addi	a2,sp,88
   12d72:	0000d597          	auipc	a1,0xd
   12d76:	de658593          	addi	a1,a1,-538 # 1fb58 <fpinan.3432>
   12d7a:	00a8                	addi	a0,sp,72
   12d7c:	5b6040ef          	jal	ra,17332 <__hexnan>
   12d80:	4795                	li	a5,5
   12d82:	ccf512e3          	bne	a0,a5,12a46 <_strtod_l+0x9d2>
   12d86:	05c16483          	lwu	s1,92(sp)
   12d8a:	05816783          	lwu	a5,88(sp)
   12d8e:	7ff00737          	lui	a4,0x7ff00
   12d92:	8cd9                	or	s1,s1,a4
   12d94:	1482                	slli	s1,s1,0x20
   12d96:	8cdd                	or	s1,s1,a5
   12d98:	ff8ff06f          	j	12590 <_strtod_l+0x51c>
   12d9c:	7782                	ld	a5,32(sp)
   12d9e:	8fe5                	and	a5,a5,s1
   12da0:	2781                	sext.w	a5,a5
   12da2:	f3c5                	bnez	a5,12d42 <_strtod_l+0xcce>
   12da4:	6546                	ld	a0,80(sp)
   12da6:	b705                	j	12cc6 <_strtod_l+0xc52>
   12da8:	4681                	li	a3,0
   12daa:	0000de17          	auipc	t3,0xd
   12dae:	77ee0e13          	addi	t3,t3,1918 # 20528 <__mprec_bigtens>
   12db2:	ecaff06f          	j	1247c <_strtod_l+0x408>
   12db6:	a7aff0ef          	jal	ra,12030 <sulp>
   12dba:	27a2                	fld	fa5,8(sp)
   12dbc:	0aa7f7d3          	fsub.d	fa5,fa5,fa0
   12dc0:	a43e                	fsd	fa5,8(sp)
   12dc2:	2722                	fld	fa4,8(sp)
   12dc4:	f20007d3          	fmv.d.x	fa5,zero
   12dc8:	64a2                	ld	s1,8(sp)
   12dca:	a2f727d3          	feq.d	a5,fa4,fa5
   12dce:	ee078be3          	beqz	a5,12cc4 <_strtod_l+0xc50>
   12dd2:	67c6                	ld	a5,80(sp)
   12dd4:	b791                	j	12d18 <_strtod_l+0xca4>
   12dd6:	7ff007b7          	lui	a5,0x7ff00
   12dda:	00fd7d33          	and	s10,s10,a5
   12dde:	00100737          	lui	a4,0x100
   12de2:	fff007b7          	lui	a5,0xfff00
   12de6:	01a787bb          	addw	a5,a5,s10
   12dea:	177d                	addi	a4,a4,-1
   12dec:	8fd9                	or	a5,a5,a4
   12dee:	54fd                	li	s1,-1
   12df0:	1782                	slli	a5,a5,0x20
   12df2:	9081                	srli	s1,s1,0x20
   12df4:	8cdd                	or	s1,s1,a5
   12df6:	e426                	sd	s1,8(sp)
   12df8:	b5f9                	j	12cc6 <_strtod_l+0xc52>
   12dfa:	0004861b          	sext.w	a2,s1
   12dfe:	56fd                	li	a3,-1
   12e00:	020c0263          	beqz	s8,12e24 <_strtod_l+0xdb0>
   12e04:	7ff007b7          	lui	a5,0x7ff00
   12e08:	8ff9                	and	a5,a5,a4
   12e0a:	06a005b7          	lui	a1,0x6a00
   12e0e:	00f5eb63          	bltu	a1,a5,12e24 <_strtod_l+0xdb0>
   12e12:	06b00693          	li	a3,107
   12e16:	0147d79b          	srliw	a5,a5,0x14
   12e1a:	40f687bb          	subw	a5,a3,a5
   12e1e:	56fd                	li	a3,-1
   12e20:	00f696bb          	sllw	a3,a3,a5
   12e24:	f0d619e3          	bne	a2,a3,12d36 <_strtod_l+0xcc2>
   12e28:	7ff00793          	li	a5,2047
   12e2c:	66a2                	ld	a3,8(sp)
   12e2e:	17d2                	slli	a5,a5,0x34
   12e30:	17fd                	addi	a5,a5,-1
   12e32:	6546                	ld	a0,80(sp)
   12e34:	a4d78de3          	beq	a5,a3,1288e <_strtod_l+0x81a>
   12e38:	7ff004b7          	lui	s1,0x7ff00
   12e3c:	8f65                	and	a4,a4,s1
   12e3e:	001004b7          	lui	s1,0x100
   12e42:	94ba                	add	s1,s1,a4
   12e44:	1482                	slli	s1,s1,0x20
   12e46:	e426                	sd	s1,8(sp)
   12e48:	bdbd                	j	12cc6 <_strtod_l+0xc52>
   12e4a:	57fd                	li	a5,-1
   12e4c:	00d797bb          	sllw	a5,a5,a3
   12e50:	8fe5                	and	a5,a5,s1
   12e52:	1782                	slli	a5,a5,0x20
   12e54:	9081                	srli	s1,s1,0x20
   12e56:	9381                	srli	a5,a5,0x20
   12e58:	1482                	slli	s1,s1,0x20
   12e5a:	8cdd                	or	s1,s1,a5
   12e5c:	f1cff06f          	j	12578 <_strtod_l+0x504>
   12e60:	fe06879b          	addiw	a5,a3,-32
   12e64:	56fd                	li	a3,-1
   12e66:	00f697bb          	sllw	a5,a3,a5
   12e6a:	8ff9                	and	a5,a5,a4
   12e6c:	1482                	slli	s1,s1,0x20
   12e6e:	1782                	slli	a5,a5,0x20
   12e70:	9081                	srli	s1,s1,0x20
   12e72:	8cdd                	or	s1,s1,a5
   12e74:	f04ff06f          	j	12578 <_strtod_l+0x504>
   12e78:	874e                	mv	a4,s3
   12e7a:	89c6                	mv	s3,a7
   12e7c:	b14d                	j	12b1e <_strtod_l+0xaaa>

0000000000012e7e <_strtod_r>:
   12e7e:	4f818693          	addi	a3,gp,1272 # 22928 <__global_locale>
   12e82:	9f2ff06f          	j	12074 <_strtod_l>

0000000000012e86 <strtod_l>:
   12e86:	86b2                	mv	a3,a2
   12e88:	862e                	mv	a2,a1
   12e8a:	85aa                	mv	a1,a0
   12e8c:	7501b503          	ld	a0,1872(gp) # 22b80 <_impure_ptr>
   12e90:	9e4ff06f          	j	12074 <_strtod_l>

0000000000012e94 <strtod>:
   12e94:	862e                	mv	a2,a1
   12e96:	4f818693          	addi	a3,gp,1272 # 22928 <__global_locale>
   12e9a:	85aa                	mv	a1,a0
   12e9c:	7501b503          	ld	a0,1872(gp) # 22b80 <_impure_ptr>
   12ea0:	9d4ff06f          	j	12074 <_strtod_l>

0000000000012ea4 <strtof_l>:
   12ea4:	1141                	addi	sp,sp,-16
   12ea6:	e022                	sd	s0,0(sp)
   12ea8:	75018413          	addi	s0,gp,1872 # 22b80 <_impure_ptr>
   12eac:	87aa                	mv	a5,a0
   12eae:	6008                	ld	a0,0(s0)
   12eb0:	86b2                	mv	a3,a2
   12eb2:	862e                	mv	a2,a1
   12eb4:	85be                	mv	a1,a5
   12eb6:	e406                	sd	ra,8(sp)
   12eb8:	9bcff0ef          	jal	ra,12074 <_strtod_l>
   12ebc:	a2a52753          	feq.d	a4,fa0,fa0
   12ec0:	e20507d3          	fmv.x.d	a5,fa0
   12ec4:	c739                	beqz	a4,12f12 <strtof_l+0x6e>
   12ec6:	40157553          	fcvt.s.d	fa0,fa0
   12eca:	00010717          	auipc	a4,0x10
   12ece:	c8e72787          	flw	fa5,-882(a4) # 22b58 <mask+0x78>
   12ed2:	20a52753          	fabs.s	fa4,fa0
   12ed6:	001026f3          	frflags	a3
   12eda:	a0e79753          	flt.s	a4,fa5,fa4
   12ede:	00169073          	fsflags	a3
   12ee2:	c705                	beqz	a4,12f0a <strtof_l+0x66>
   12ee4:	f20787d3          	fmv.d.x	fa5,a5
   12ee8:	00010797          	auipc	a5,0x10
   12eec:	c407b707          	fld	fa4,-960(a5) # 22b28 <mask+0x48>
   12ef0:	22f7a7d3          	fabs.d	fa5,fa5
   12ef4:	00102773          	frflags	a4
   12ef8:	a2f717d3          	flt.d	a5,fa4,fa5
   12efc:	00171073          	fsflags	a4
   12f00:	e789                	bnez	a5,12f0a <strtof_l+0x66>
   12f02:	601c                	ld	a5,0(s0)
   12f04:	02200713          	li	a4,34
   12f08:	c398                	sw	a4,0(a5)
   12f0a:	60a2                	ld	ra,8(sp)
   12f0c:	6402                	ld	s0,0(sp)
   12f0e:	0141                	addi	sp,sp,16
   12f10:	8082                	ret
   12f12:	0000d517          	auipc	a0,0xd
   12f16:	aee50513          	addi	a0,a0,-1298 # 1fa00 <__func__.4166+0x218>
   12f1a:	0007d763          	bgez	a5,12f28 <strtof_l+0x84>
   12f1e:	2d9070ef          	jal	ra,1a9f6 <nanf>
   12f22:	20a51553          	fneg.s	fa0,fa0
   12f26:	b7d5                	j	12f0a <strtof_l+0x66>
   12f28:	6402                	ld	s0,0(sp)
   12f2a:	60a2                	ld	ra,8(sp)
   12f2c:	0141                	addi	sp,sp,16
   12f2e:	2c90706f          	j	1a9f6 <nanf>

0000000000012f32 <strtof>:
   12f32:	1141                	addi	sp,sp,-16
   12f34:	e022                	sd	s0,0(sp)
   12f36:	75018413          	addi	s0,gp,1872 # 22b80 <_impure_ptr>
   12f3a:	87aa                	mv	a5,a0
   12f3c:	6008                	ld	a0,0(s0)
   12f3e:	862e                	mv	a2,a1
   12f40:	4f818693          	addi	a3,gp,1272 # 22928 <__global_locale>
   12f44:	85be                	mv	a1,a5
   12f46:	e406                	sd	ra,8(sp)
   12f48:	92cff0ef          	jal	ra,12074 <_strtod_l>
   12f4c:	a2a52753          	feq.d	a4,fa0,fa0
   12f50:	e20507d3          	fmv.x.d	a5,fa0
   12f54:	c739                	beqz	a4,12fa2 <strtof+0x70>
   12f56:	40157553          	fcvt.s.d	fa0,fa0
   12f5a:	00010717          	auipc	a4,0x10
   12f5e:	bfe72787          	flw	fa5,-1026(a4) # 22b58 <mask+0x78>
   12f62:	20a52753          	fabs.s	fa4,fa0
   12f66:	001026f3          	frflags	a3
   12f6a:	a0e79753          	flt.s	a4,fa5,fa4
   12f6e:	00169073          	fsflags	a3
   12f72:	c705                	beqz	a4,12f9a <strtof+0x68>
   12f74:	f20787d3          	fmv.d.x	fa5,a5
   12f78:	00010797          	auipc	a5,0x10
   12f7c:	bb07b707          	fld	fa4,-1104(a5) # 22b28 <mask+0x48>
   12f80:	22f7a7d3          	fabs.d	fa5,fa5
   12f84:	00102773          	frflags	a4
   12f88:	a2f717d3          	flt.d	a5,fa4,fa5
   12f8c:	00171073          	fsflags	a4
   12f90:	e789                	bnez	a5,12f9a <strtof+0x68>
   12f92:	601c                	ld	a5,0(s0)
   12f94:	02200713          	li	a4,34
   12f98:	c398                	sw	a4,0(a5)
   12f9a:	60a2                	ld	ra,8(sp)
   12f9c:	6402                	ld	s0,0(sp)
   12f9e:	0141                	addi	sp,sp,16
   12fa0:	8082                	ret
   12fa2:	0000d517          	auipc	a0,0xd
   12fa6:	a5e50513          	addi	a0,a0,-1442 # 1fa00 <__func__.4166+0x218>
   12faa:	0007d763          	bgez	a5,12fb8 <strtof+0x86>
   12fae:	249070ef          	jal	ra,1a9f6 <nanf>
   12fb2:	20a51553          	fneg.s	fa0,fa0
   12fb6:	b7d5                	j	12f9a <strtof+0x68>
   12fb8:	6402                	ld	s0,0(sp)
   12fba:	60a2                	ld	ra,8(sp)
   12fbc:	0141                	addi	sp,sp,16
   12fbe:	2390706f          	j	1a9f6 <nanf>

0000000000012fc2 <strtok>:
   12fc2:	7501b603          	ld	a2,1872(gp) # 22b80 <_impure_ptr>
   12fc6:	4685                	li	a3,1
   12fc8:	09860613          	addi	a2,a2,152
   12fcc:	a009                	j	12fce <__strtok_r>

0000000000012fce <__strtok_r>:
   12fce:	c929                	beqz	a0,13020 <__strtok_r+0x52>
   12fd0:	00054803          	lbu	a6,0(a0)
   12fd4:	00150893          	addi	a7,a0,1
   12fd8:	87ae                	mv	a5,a1
   12fda:	a019                	j	12fe0 <__strtok_r+0x12>
   12fdc:	02e80b63          	beq	a6,a4,13012 <__strtok_r+0x44>
   12fe0:	0007c703          	lbu	a4,0(a5)
   12fe4:	0785                	addi	a5,a5,1
   12fe6:	fb7d                	bnez	a4,12fdc <__strtok_r+0xe>
   12fe8:	04080063          	beqz	a6,13028 <__strtok_r+0x5a>
   12fec:	0008c803          	lbu	a6,0(a7)
   12ff0:	87ae                	mv	a5,a1
   12ff2:	0885                	addi	a7,a7,1
   12ff4:	a011                	j	12ff8 <__strtok_r+0x2a>
   12ff6:	dafd                	beqz	a3,12fec <__strtok_r+0x1e>
   12ff8:	0007c703          	lbu	a4,0(a5)
   12ffc:	0785                	addi	a5,a5,1
   12ffe:	0007069b          	sext.w	a3,a4
   13002:	fee81ae3          	bne	a6,a4,12ff6 <__strtok_r+0x28>
   13006:	ca89                	beqz	a3,13018 <__strtok_r+0x4a>
   13008:	fe088fa3          	sb	zero,-1(a7)
   1300c:	01163023          	sd	a7,0(a2)
   13010:	8082                	ret
   13012:	ce99                	beqz	a3,13030 <__strtok_r+0x62>
   13014:	8546                	mv	a0,a7
   13016:	bf6d                	j	12fd0 <__strtok_r+0x2>
   13018:	4881                	li	a7,0
   1301a:	01163023          	sd	a7,0(a2)
   1301e:	8082                	ret
   13020:	6208                	ld	a0,0(a2)
   13022:	f55d                	bnez	a0,12fd0 <__strtok_r+0x2>
   13024:	4501                	li	a0,0
   13026:	8082                	ret
   13028:	00063023          	sd	zero,0(a2)
   1302c:	4501                	li	a0,0
   1302e:	8082                	ret
   13030:	01163023          	sd	a7,0(a2)
   13034:	00050023          	sb	zero,0(a0)
   13038:	8082                	ret

000000000001303a <strtok_r>:
   1303a:	4685                	li	a3,1
   1303c:	bf49                	j	12fce <__strtok_r>

000000000001303e <_strtol_l.isra.0>:
   1303e:	1101                	addi	sp,sp,-32
   13040:	ec22                	sd	s0,24(sp)
   13042:	e826                	sd	s1,16(sp)
   13044:	e44a                	sd	s2,8(sp)
   13046:	83aa                	mv	t2,a0
   13048:	832e                	mv	t1,a1
   1304a:	0000d817          	auipc	a6,0xd
   1304e:	f0780813          	addi	a6,a6,-249 # 1ff51 <_ctype_+0x1>
   13052:	00034783          	lbu	a5,0(t1)
   13056:	889a                	mv	a7,t1
   13058:	0305                	addi	t1,t1,1
   1305a:	00f80733          	add	a4,a6,a5
   1305e:	00074703          	lbu	a4,0(a4)
   13062:	8b21                	andi	a4,a4,8
   13064:	f77d                	bnez	a4,13052 <_strtol_l.isra.0+0x14>
   13066:	02d00713          	li	a4,45
   1306a:	0ee78163          	beq	a5,a4,1314c <_strtol_l.isra.0+0x10e>
   1306e:	02b00713          	li	a4,43
   13072:	08e78a63          	beq	a5,a4,13106 <_strtol_l.isra.0+0xc8>
   13076:	54fd                	li	s1,-1
   13078:	2781                	sext.w	a5,a5
   1307a:	8085                	srli	s1,s1,0x1
   1307c:	4901                	li	s2,0
   1307e:	cec1                	beqz	a3,13116 <_strtol_l.isra.0+0xd8>
   13080:	4741                	li	a4,16
   13082:	8436                	mv	s0,a3
   13084:	0ce68e63          	beq	a3,a4,13160 <_strtol_l.isra.0+0x122>
   13088:	0284f2b3          	remu	t0,s1,s0
   1308c:	4e25                	li	t3,9
   1308e:	fd07871b          	addiw	a4,a5,-48
   13092:	4881                	li	a7,0
   13094:	4501                	li	a0,0
   13096:	4fe5                	li	t6,25
   13098:	5efd                	li	t4,-1
   1309a:	0007881b          	sext.w	a6,a5
   1309e:	0284df33          	divu	t5,s1,s0
   130a2:	2281                	sext.w	t0,t0
   130a4:	02ee6963          	bltu	t3,a4,130d6 <_strtol_l.isra.0+0x98>
   130a8:	87ba                	mv	a5,a4
   130aa:	02d7de63          	bge	a5,a3,130e6 <_strtol_l.isra.0+0xa8>
   130ae:	01d88b63          	beq	a7,t4,130c4 <_strtol_l.isra.0+0x86>
   130b2:	58fd                	li	a7,-1
   130b4:	00af6863          	bltu	t5,a0,130c4 <_strtol_l.isra.0+0x86>
   130b8:	06af0d63          	beq	t5,a0,13132 <_strtol_l.isra.0+0xf4>
   130bc:	4885                	li	a7,1
   130be:	02850533          	mul	a0,a0,s0
   130c2:	953e                	add	a0,a0,a5
   130c4:	00034783          	lbu	a5,0(t1)
   130c8:	0305                	addi	t1,t1,1
   130ca:	fd07871b          	addiw	a4,a5,-48
   130ce:	0007881b          	sext.w	a6,a5
   130d2:	fcee7be3          	bgeu	t3,a4,130a8 <_strtol_l.isra.0+0x6a>
   130d6:	fbf8071b          	addiw	a4,a6,-65
   130da:	04efe563          	bltu	t6,a4,13124 <_strtol_l.isra.0+0xe6>
   130de:	fc97879b          	addiw	a5,a5,-55
   130e2:	fcd7c6e3          	blt	a5,a3,130ae <_strtol_l.isra.0+0x70>
   130e6:	57fd                	li	a5,-1
   130e8:	04f88863          	beq	a7,a5,13138 <_strtol_l.isra.0+0xfa>
   130ec:	00090463          	beqz	s2,130f4 <_strtol_l.isra.0+0xb6>
   130f0:	40a00533          	neg	a0,a0
   130f4:	c601                	beqz	a2,130fc <_strtol_l.isra.0+0xbe>
   130f6:	06089363          	bnez	a7,1315c <_strtol_l.isra.0+0x11e>
   130fa:	e20c                	sd	a1,0(a2)
   130fc:	6462                	ld	s0,24(sp)
   130fe:	64c2                	ld	s1,16(sp)
   13100:	6922                	ld	s2,8(sp)
   13102:	6105                	addi	sp,sp,32
   13104:	8082                	ret
   13106:	54fd                	li	s1,-1
   13108:	00034783          	lbu	a5,0(t1)
   1310c:	8085                	srli	s1,s1,0x1
   1310e:	00288313          	addi	t1,a7,2
   13112:	4901                	li	s2,0
   13114:	f6b5                	bnez	a3,13080 <_strtol_l.isra.0+0x42>
   13116:	03000713          	li	a4,48
   1311a:	06e78763          	beq	a5,a4,13188 <_strtol_l.isra.0+0x14a>
   1311e:	4429                	li	s0,10
   13120:	46a9                	li	a3,10
   13122:	b79d                	j	13088 <_strtol_l.isra.0+0x4a>
   13124:	f9f8081b          	addiw	a6,a6,-97
   13128:	fb0fefe3          	bltu	t6,a6,130e6 <_strtol_l.isra.0+0xa8>
   1312c:	fa97879b          	addiw	a5,a5,-87
   13130:	bfad                	j	130aa <_strtol_l.isra.0+0x6c>
   13132:	f8f2c9e3          	blt	t0,a5,130c4 <_strtol_l.isra.0+0x86>
   13136:	b759                	j	130bc <_strtol_l.isra.0+0x7e>
   13138:	02200793          	li	a5,34
   1313c:	00f3a023          	sw	a5,0(t2)
   13140:	8526                	mv	a0,s1
   13142:	de4d                	beqz	a2,130fc <_strtol_l.isra.0+0xbe>
   13144:	fff30593          	addi	a1,t1,-1
   13148:	8526                	mv	a0,s1
   1314a:	bf45                	j	130fa <_strtol_l.isra.0+0xbc>
   1314c:	54fd                	li	s1,-1
   1314e:	00034783          	lbu	a5,0(t1)
   13152:	14fe                	slli	s1,s1,0x3f
   13154:	00288313          	addi	t1,a7,2
   13158:	4905                	li	s2,1
   1315a:	b715                	j	1307e <_strtol_l.isra.0+0x40>
   1315c:	84aa                	mv	s1,a0
   1315e:	b7dd                	j	13144 <_strtol_l.isra.0+0x106>
   13160:	03000713          	li	a4,48
   13164:	00e79a63          	bne	a5,a4,13178 <_strtol_l.isra.0+0x13a>
   13168:	00034703          	lbu	a4,0(t1)
   1316c:	05800513          	li	a0,88
   13170:	0df77713          	andi	a4,a4,223
   13174:	00a70463          	beq	a4,a0,1317c <_strtol_l.isra.0+0x13e>
   13178:	4441                	li	s0,16
   1317a:	b739                	j	13088 <_strtol_l.isra.0+0x4a>
   1317c:	00134783          	lbu	a5,1(t1)
   13180:	4441                	li	s0,16
   13182:	0309                	addi	t1,t1,2
   13184:	46c1                	li	a3,16
   13186:	b709                	j	13088 <_strtol_l.isra.0+0x4a>
   13188:	00034703          	lbu	a4,0(t1)
   1318c:	05800693          	li	a3,88
   13190:	0df77713          	andi	a4,a4,223
   13194:	fed704e3          	beq	a4,a3,1317c <_strtol_l.isra.0+0x13e>
   13198:	4421                	li	s0,8
   1319a:	46a1                	li	a3,8
   1319c:	b5f5                	j	13088 <_strtol_l.isra.0+0x4a>

000000000001319e <_strtol_r>:
   1319e:	b545                	j	1303e <_strtol_l.isra.0>

00000000000131a0 <strtol_l>:
   131a0:	86b2                	mv	a3,a2
   131a2:	862e                	mv	a2,a1
   131a4:	85aa                	mv	a1,a0
   131a6:	7501b503          	ld	a0,1872(gp) # 22b80 <_impure_ptr>
   131aa:	bd51                	j	1303e <_strtol_l.isra.0>

00000000000131ac <strtol>:
   131ac:	86b2                	mv	a3,a2
   131ae:	862e                	mv	a2,a1
   131b0:	85aa                	mv	a1,a0
   131b2:	7501b503          	ld	a0,1872(gp) # 22b80 <_impure_ptr>
   131b6:	b561                	j	1303e <_strtol_l.isra.0>

00000000000131b8 <close>:
   131b8:	85aa                	mv	a1,a0
   131ba:	7501b503          	ld	a0,1872(gp) # 22b80 <_impure_ptr>
   131be:	5250206f          	j	15ee2 <_close_r>

00000000000131c2 <fstat>:
   131c2:	862e                	mv	a2,a1
   131c4:	85aa                	mv	a1,a0
   131c6:	7501b503          	ld	a0,1872(gp) # 22b80 <_impure_ptr>
   131ca:	64e0306f          	j	16818 <_fstat_r>

00000000000131ce <open>:
   131ce:	715d                	addi	sp,sp,-80
   131d0:	f032                	sd	a2,32(sp)
   131d2:	f436                	sd	a3,40(sp)
   131d4:	fc3e                	sd	a5,56(sp)
   131d6:	0006069b          	sext.w	a3,a2
   131da:	101c                	addi	a5,sp,32
   131dc:	862e                	mv	a2,a1
   131de:	85aa                	mv	a1,a0
   131e0:	7501b503          	ld	a0,1872(gp) # 22b80 <_impure_ptr>
   131e4:	ec06                	sd	ra,24(sp)
   131e6:	f83a                	sd	a4,48(sp)
   131e8:	e0c2                	sd	a6,64(sp)
   131ea:	e4c6                	sd	a7,72(sp)
   131ec:	e43e                	sd	a5,8(sp)
   131ee:	2b8070ef          	jal	ra,1a4a6 <_open_r>
   131f2:	60e2                	ld	ra,24(sp)
   131f4:	6161                	addi	sp,sp,80
   131f6:	8082                	ret

00000000000131f8 <read>:
   131f8:	86b2                	mv	a3,a2
   131fa:	862e                	mv	a2,a1
   131fc:	85aa                	mv	a1,a0
   131fe:	7501b503          	ld	a0,1872(gp) # 22b80 <_impure_ptr>
   13202:	2e20706f          	j	1a4e4 <_read_r>

0000000000013206 <write>:
   13206:	86b2                	mv	a3,a2
   13208:	862e                	mv	a2,a1
   1320a:	85aa                	mv	a1,a0
   1320c:	7501b503          	ld	a0,1872(gp) # 22b80 <_impure_ptr>
   13210:	2d50206f          	j	15ce4 <_write_r>

0000000000013214 <__sprint_r.part.0>:
   13214:	0ac5a783          	lw	a5,172(a1) # 6a000ac <__BSS_END__+0x69dd47c>
   13218:	715d                	addi	sp,sp,-80
   1321a:	ec56                	sd	s5,24(sp)
   1321c:	e486                	sd	ra,72(sp)
   1321e:	e0a2                	sd	s0,64(sp)
   13220:	fc26                	sd	s1,56(sp)
   13222:	f84a                	sd	s2,48(sp)
   13224:	f44e                	sd	s3,40(sp)
   13226:	f052                	sd	s4,32(sp)
   13228:	e85a                	sd	s6,16(sp)
   1322a:	e45e                	sd	s7,8(sp)
   1322c:	03279713          	slli	a4,a5,0x32
   13230:	8ab2                	mv	s5,a2
   13232:	08075063          	bgez	a4,132b2 <__sprint_r.part.0+0x9e>
   13236:	6a18                	ld	a4,16(a2)
   13238:	00063b03          	ld	s6,0(a2)
   1323c:	892e                	mv	s2,a1
   1323e:	89aa                	mv	s3,a0
   13240:	5a7d                	li	s4,-1
   13242:	c735                	beqz	a4,132ae <__sprint_r.part.0+0x9a>
   13244:	008b3783          	ld	a5,8(s6)
   13248:	000b3403          	ld	s0,0(s6)
   1324c:	8389                	srli	a5,a5,0x2
   1324e:	00078b9b          	sext.w	s7,a5
   13252:	05705763          	blez	s7,132a0 <__sprint_r.part.0+0x8c>
   13256:	fff7849b          	addiw	s1,a5,-1
   1325a:	1482                	slli	s1,s1,0x20
   1325c:	80f9                	srli	s1,s1,0x1e
   1325e:	00440793          	addi	a5,s0,4
   13262:	94be                	add	s1,s1,a5
   13264:	a019                	j	1326a <__sprint_r.part.0+0x56>
   13266:	02848b63          	beq	s1,s0,1329c <__sprint_r.part.0+0x88>
   1326a:	400c                	lw	a1,0(s0)
   1326c:	864a                	mv	a2,s2
   1326e:	854e                	mv	a0,s3
   13270:	212030ef          	jal	ra,16482 <_fputwc_r>
   13274:	2501                	sext.w	a0,a0
   13276:	0411                	addi	s0,s0,4
   13278:	ff4517e3          	bne	a0,s4,13266 <__sprint_r.part.0+0x52>
   1327c:	557d                	li	a0,-1
   1327e:	60a6                	ld	ra,72(sp)
   13280:	6406                	ld	s0,64(sp)
   13282:	000ab823          	sd	zero,16(s5)
   13286:	000aa423          	sw	zero,8(s5)
   1328a:	74e2                	ld	s1,56(sp)
   1328c:	7942                	ld	s2,48(sp)
   1328e:	79a2                	ld	s3,40(sp)
   13290:	7a02                	ld	s4,32(sp)
   13292:	6ae2                	ld	s5,24(sp)
   13294:	6b42                	ld	s6,16(sp)
   13296:	6ba2                	ld	s7,8(sp)
   13298:	6161                	addi	sp,sp,80
   1329a:	8082                	ret
   1329c:	010ab703          	ld	a4,16(s5)
   132a0:	0b8a                	slli	s7,s7,0x2
   132a2:	41770733          	sub	a4,a4,s7
   132a6:	00eab823          	sd	a4,16(s5)
   132aa:	0b41                	addi	s6,s6,16
   132ac:	ff41                	bnez	a4,13244 <__sprint_r.part.0+0x30>
   132ae:	4501                	li	a0,0
   132b0:	b7f9                	j	1327e <__sprint_r.part.0+0x6a>
   132b2:	5a2030ef          	jal	ra,16854 <__sfvwrite_r>
   132b6:	b7e1                	j	1327e <__sprint_r.part.0+0x6a>

00000000000132b8 <__sprint_r>:
   132b8:	6a18                	ld	a4,16(a2)
   132ba:	c311                	beqz	a4,132be <__sprint_r+0x6>
   132bc:	bfa1                	j	13214 <__sprint_r.part.0>
   132be:	00062423          	sw	zero,8(a2)
   132c2:	4501                	li	a0,0
   132c4:	8082                	ret

00000000000132c6 <_vfiprintf_r>:
   132c6:	7145                	addi	sp,sp,-464
   132c8:	fb4a                	sd	s2,432(sp)
   132ca:	f74e                	sd	s3,424(sp)
   132cc:	eb5a                	sd	s6,400(sp)
   132ce:	f6ee                	sd	s11,360(sp)
   132d0:	e786                	sd	ra,456(sp)
   132d2:	e3a2                	sd	s0,448(sp)
   132d4:	ff26                	sd	s1,440(sp)
   132d6:	f352                	sd	s4,416(sp)
   132d8:	ef56                	sd	s5,408(sp)
   132da:	e75e                	sd	s7,392(sp)
   132dc:	e362                	sd	s8,384(sp)
   132de:	fee6                	sd	s9,376(sp)
   132e0:	faea                	sd	s10,368(sp)
   132e2:	89aa                	mv	s3,a0
   132e4:	892e                	mv	s2,a1
   132e6:	8db2                	mv	s11,a2
   132e8:	8b36                	mv	s6,a3
   132ea:	c501                	beqz	a0,132f2 <_vfiprintf_r+0x2c>
   132ec:	493c                	lw	a5,80(a0)
   132ee:	3e078f63          	beqz	a5,136ec <_vfiprintf_r+0x426>
   132f2:	01091703          	lh	a4,16(s2)
   132f6:	03071793          	slli	a5,a4,0x30
   132fa:	03271693          	slli	a3,a4,0x32
   132fe:	93c1                	srli	a5,a5,0x30
   13300:	0006cf63          	bltz	a3,1331e <_vfiprintf_r+0x58>
   13304:	0ac92683          	lw	a3,172(s2)
   13308:	6789                	lui	a5,0x2
   1330a:	8fd9                	or	a5,a5,a4
   1330c:	7779                	lui	a4,0xffffe
   1330e:	177d                	addi	a4,a4,-1
   13310:	8f75                	and	a4,a4,a3
   13312:	00f91823          	sh	a5,16(s2)
   13316:	17c2                	slli	a5,a5,0x30
   13318:	0ae92623          	sw	a4,172(s2)
   1331c:	93c1                	srli	a5,a5,0x30
   1331e:	0087f713          	andi	a4,a5,8
   13322:	28070f63          	beqz	a4,135c0 <_vfiprintf_r+0x2fa>
   13326:	01893703          	ld	a4,24(s2)
   1332a:	28070b63          	beqz	a4,135c0 <_vfiprintf_r+0x2fa>
   1332e:	8be9                	andi	a5,a5,26
   13330:	4729                	li	a4,10
   13332:	2ae78363          	beq	a5,a4,135d8 <_vfiprintf_r+0x312>
   13336:	77e1                	lui	a5,0xffff8
   13338:	1180                	addi	s0,sp,224
   1333a:	8307c793          	xori	a5,a5,-2000
   1333e:	f0a2                	sd	s0,96(sp)
   13340:	f882                	sd	zero,112(sp)
   13342:	d482                	sw	zero,104(sp)
   13344:	8722                	mv	a4,s0
   13346:	e802                	sd	zero,16(sp)
   13348:	f802                	sd	zero,48(sp)
   1334a:	e082                	sd	zero,64(sp)
   1334c:	fc02                	sd	zero,56(sp)
   1334e:	e402                	sd	zero,8(sp)
   13350:	e4be                	sd	a5,72(sp)
   13352:	000dc783          	lbu	a5,0(s11)
   13356:	1c078763          	beqz	a5,13524 <_vfiprintf_r+0x25e>
   1335a:	8a6e                	mv	s4,s11
   1335c:	02500693          	li	a3,37
   13360:	2ed78463          	beq	a5,a3,13648 <_vfiprintf_r+0x382>
   13364:	001a4783          	lbu	a5,1(s4)
   13368:	0a05                	addi	s4,s4,1
   1336a:	fbfd                	bnez	a5,13360 <_vfiprintf_r+0x9a>
   1336c:	41ba04bb          	subw	s1,s4,s11
   13370:	1a048a63          	beqz	s1,13524 <_vfiprintf_r+0x25e>
   13374:	57a6                	lw	a5,104(sp)
   13376:	76c6                	ld	a3,112(sp)
   13378:	01b73023          	sd	s11,0(a4) # ffffffffffffe000 <__BSS_END__+0xfffffffffffdb3d0>
   1337c:	0017861b          	addiw	a2,a5,1
   13380:	96a6                	add	a3,a3,s1
   13382:	e704                	sd	s1,8(a4)
   13384:	f8b6                	sd	a3,112(sp)
   13386:	d4b2                	sw	a2,104(sp)
   13388:	479d                	li	a5,7
   1338a:	0741                	addi	a4,a4,16
   1338c:	00c7dc63          	bge	a5,a2,133a4 <_vfiprintf_r+0xde>
   13390:	080687e3          	beqz	a3,13c1e <_vfiprintf_r+0x958>
   13394:	1090                	addi	a2,sp,96
   13396:	85ca                	mv	a1,s2
   13398:	854e                	mv	a0,s3
   1339a:	e7bff0ef          	jal	ra,13214 <__sprint_r.part.0>
   1339e:	18051663          	bnez	a0,1352a <_vfiprintf_r+0x264>
   133a2:	8722                	mv	a4,s0
   133a4:	66a2                	ld	a3,8(sp)
   133a6:	000a4783          	lbu	a5,0(s4)
   133aa:	9ea5                	addw	a3,a3,s1
   133ac:	e436                	sd	a3,8(sp)
   133ae:	16078b63          	beqz	a5,13524 <_vfiprintf_r+0x25e>
   133b2:	001a4683          	lbu	a3,1(s4)
   133b6:	001a0d93          	addi	s11,s4,1
   133ba:	04010ba3          	sb	zero,87(sp)
   133be:	5cfd                	li	s9,-1
   133c0:	4481                	li	s1,0
   133c2:	4d01                	li	s10,0
   133c4:	4a25                	li	s4,9
   133c6:	02a00a93          	li	s5,42
   133ca:	0d85                	addi	s11,s11,1
   133cc:	2681                	sext.w	a3,a3
   133ce:	05a00593          	li	a1,90
   133d2:	fe06879b          	addiw	a5,a3,-32
   133d6:	0007861b          	sext.w	a2,a5
   133da:	04c5e463          	bltu	a1,a2,13422 <_vfiprintf_r+0x15c>
   133de:	1782                	slli	a5,a5,0x20
   133e0:	0000c617          	auipc	a2,0xc
   133e4:	7f060613          	addi	a2,a2,2032 # 1fbd0 <tinytens+0x60>
   133e8:	83f9                	srli	a5,a5,0x1e
   133ea:	97b2                	add	a5,a5,a2
   133ec:	439c                	lw	a5,0(a5)
   133ee:	97b2                	add	a5,a5,a2
   133f0:	8782                	jr	a5
   133f2:	4481                	li	s1,0
   133f4:	000dc603          	lbu	a2,0(s11)
   133f8:	0024979b          	slliw	a5,s1,0x2
   133fc:	9cbd                	addw	s1,s1,a5
   133fe:	fd06869b          	addiw	a3,a3,-48
   13402:	0014949b          	slliw	s1,s1,0x1
   13406:	fd06079b          	addiw	a5,a2,-48
   1340a:	9cb5                	addw	s1,s1,a3
   1340c:	0d85                	addi	s11,s11,1
   1340e:	0006069b          	sext.w	a3,a2
   13412:	fefa71e3          	bgeu	s4,a5,133f4 <_vfiprintf_r+0x12e>
   13416:	fe06879b          	addiw	a5,a3,-32
   1341a:	0007861b          	sext.w	a2,a5
   1341e:	fcc5f0e3          	bgeu	a1,a2,133de <_vfiprintf_r+0x118>
   13422:	10068163          	beqz	a3,13524 <_vfiprintf_r+0x25e>
   13426:	06d10c23          	sb	a3,120(sp)
   1342a:	04010ba3          	sb	zero,87(sp)
   1342e:	4a85                	li	s5,1
   13430:	4a05                	li	s4,1
   13432:	07810c13          	addi	s8,sp,120
   13436:	4c81                	li	s9,0
   13438:	002d7793          	andi	a5,s10,2
   1343c:	0007839b          	sext.w	t2,a5
   13440:	c391                	beqz	a5,13444 <_vfiprintf_r+0x17e>
   13442:	2a89                	addiw	s5,s5,2
   13444:	5626                	lw	a2,104(sp)
   13446:	084d7f93          	andi	t6,s10,132
   1344a:	77c6                	ld	a5,112(sp)
   1344c:	0016051b          	addiw	a0,a2,1
   13450:	85aa                	mv	a1,a0
   13452:	000f9663          	bnez	t6,1345e <_vfiprintf_r+0x198>
   13456:	41548bbb          	subw	s7,s1,s5
   1345a:	67704163          	bgtz	s7,13abc <_vfiprintf_r+0x7f6>
   1345e:	05714583          	lbu	a1,87(sp)
   13462:	01070693          	addi	a3,a4,16
   13466:	c185                	beqz	a1,13486 <_vfiprintf_r+0x1c0>
   13468:	05710613          	addi	a2,sp,87
   1346c:	e310                	sd	a2,0(a4)
   1346e:	0785                	addi	a5,a5,1
   13470:	4605                	li	a2,1
   13472:	e710                	sd	a2,8(a4)
   13474:	f8be                	sd	a5,112(sp)
   13476:	d4aa                	sw	a0,104(sp)
   13478:	471d                	li	a4,7
   1347a:	5ea74063          	blt	a4,a0,13a5a <_vfiprintf_r+0x794>
   1347e:	862a                	mv	a2,a0
   13480:	8736                	mv	a4,a3
   13482:	2505                	addiw	a0,a0,1
   13484:	06c1                	addi	a3,a3,16
   13486:	02038c63          	beqz	t2,134be <_vfiprintf_r+0x1f8>
   1348a:	08b0                	addi	a2,sp,88
   1348c:	e310                	sd	a2,0(a4)
   1348e:	0789                	addi	a5,a5,2
   13490:	4609                	li	a2,2
   13492:	e710                	sd	a2,8(a4)
   13494:	f8be                	sd	a5,112(sp)
   13496:	d4aa                	sw	a0,104(sp)
   13498:	471d                	li	a4,7
   1349a:	5ea75a63          	bge	a4,a0,13a8e <_vfiprintf_r+0x7c8>
   1349e:	78078d63          	beqz	a5,13c38 <_vfiprintf_r+0x972>
   134a2:	1090                	addi	a2,sp,96
   134a4:	85ca                	mv	a1,s2
   134a6:	854e                	mv	a0,s3
   134a8:	ec7e                	sd	t6,24(sp)
   134aa:	d6bff0ef          	jal	ra,13214 <__sprint_r.part.0>
   134ae:	ed35                	bnez	a0,1352a <_vfiprintf_r+0x264>
   134b0:	5626                	lw	a2,104(sp)
   134b2:	77c6                	ld	a5,112(sp)
   134b4:	6fe2                	ld	t6,24(sp)
   134b6:	1994                	addi	a3,sp,240
   134b8:	0016051b          	addiw	a0,a2,1
   134bc:	8722                	mv	a4,s0
   134be:	08000593          	li	a1,128
   134c2:	44bf8963          	beq	t6,a1,13914 <_vfiprintf_r+0x64e>
   134c6:	414c8cbb          	subw	s9,s9,s4
   134ca:	4f904963          	bgtz	s9,139bc <_vfiprintf_r+0x6f6>
   134ce:	97d2                	add	a5,a5,s4
   134d0:	01873023          	sd	s8,0(a4)
   134d4:	01473423          	sd	s4,8(a4)
   134d8:	f8be                	sd	a5,112(sp)
   134da:	d4aa                	sw	a0,104(sp)
   134dc:	471d                	li	a4,7
   134de:	00a75c63          	bge	a4,a0,134f6 <_vfiprintf_r+0x230>
   134e2:	66078663          	beqz	a5,13b4e <_vfiprintf_r+0x888>
   134e6:	1090                	addi	a2,sp,96
   134e8:	85ca                	mv	a1,s2
   134ea:	854e                	mv	a0,s3
   134ec:	d29ff0ef          	jal	ra,13214 <__sprint_r.part.0>
   134f0:	ed0d                	bnez	a0,1352a <_vfiprintf_r+0x264>
   134f2:	77c6                	ld	a5,112(sp)
   134f4:	86a2                	mv	a3,s0
   134f6:	004d7e13          	andi	t3,s10,4
   134fa:	000e0663          	beqz	t3,13506 <_vfiprintf_r+0x240>
   134fe:	41548a3b          	subw	s4,s1,s5
   13502:	67404063          	bgtz	s4,13b62 <_vfiprintf_r+0x89c>
   13506:	8726                	mv	a4,s1
   13508:	0154d363          	bge	s1,s5,1350e <_vfiprintf_r+0x248>
   1350c:	8756                	mv	a4,s5
   1350e:	66a2                	ld	a3,8(sp)
   13510:	9f35                	addw	a4,a4,a3
   13512:	e43a                	sd	a4,8(sp)
   13514:	52079763          	bnez	a5,13a42 <_vfiprintf_r+0x77c>
   13518:	000dc783          	lbu	a5,0(s11)
   1351c:	d482                	sw	zero,104(sp)
   1351e:	8722                	mv	a4,s0
   13520:	e2079de3          	bnez	a5,1335a <_vfiprintf_r+0x94>
   13524:	77c6                	ld	a5,112(sp)
   13526:	160792e3          	bnez	a5,13e8a <_vfiprintf_r+0xbc4>
   1352a:	01095783          	lhu	a5,16(s2)
   1352e:	0407f793          	andi	a5,a5,64
   13532:	180795e3          	bnez	a5,13ebc <_vfiprintf_r+0xbf6>
   13536:	60be                	ld	ra,456(sp)
   13538:	641e                	ld	s0,448(sp)
   1353a:	6522                	ld	a0,8(sp)
   1353c:	74fa                	ld	s1,440(sp)
   1353e:	795a                	ld	s2,432(sp)
   13540:	79ba                	ld	s3,424(sp)
   13542:	7a1a                	ld	s4,416(sp)
   13544:	6afa                	ld	s5,408(sp)
   13546:	6b5a                	ld	s6,400(sp)
   13548:	6bba                	ld	s7,392(sp)
   1354a:	6c1a                	ld	s8,384(sp)
   1354c:	7cf6                	ld	s9,376(sp)
   1354e:	7d56                	ld	s10,368(sp)
   13550:	7db6                	ld	s11,360(sp)
   13552:	6179                	addi	sp,sp,464
   13554:	8082                	ret
   13556:	010d6e13          	ori	t3,s10,16
   1355a:	000dc683          	lbu	a3,0(s11)
   1355e:	000e0d1b          	sext.w	s10,t3
   13562:	b5a5                	j	133ca <_vfiprintf_r+0x104>
   13564:	010d6e13          	ori	t3,s10,16
   13568:	000e0d1b          	sext.w	s10,t3
   1356c:	020d7793          	andi	a5,s10,32
   13570:	008b0693          	addi	a3,s6,8
   13574:	0e078e63          	beqz	a5,13670 <_vfiprintf_r+0x3aa>
   13578:	000b3783          	ld	a5,0(s6)
   1357c:	8a3e                	mv	s4,a5
   1357e:	1007c663          	bltz	a5,1368a <_vfiprintf_r+0x3c4>
   13582:	57fd                	li	a5,-1
   13584:	8aea                	mv	s5,s10
   13586:	8b36                	mv	s6,a3
   13588:	50fc8e63          	beq	s9,a5,13aa4 <_vfiprintf_r+0x7de>
   1358c:	f7fd7e13          	andi	t3,s10,-129
   13590:	000e0a9b          	sext.w	s5,t3
   13594:	760a1563          	bnez	s4,13cfe <_vfiprintf_r+0xa38>
   13598:	500c9963          	bnez	s9,13aaa <_vfiprintf_r+0x7e4>
   1359c:	8d56                	mv	s10,s5
   1359e:	4c81                	li	s9,0
   135a0:	4a01                	li	s4,0
   135a2:	0dc10c13          	addi	s8,sp,220
   135a6:	87e6                	mv	a5,s9
   135a8:	014cd363          	bge	s9,s4,135ae <_vfiprintf_r+0x2e8>
   135ac:	87d2                	mv	a5,s4
   135ae:	05714683          	lbu	a3,87(sp)
   135b2:	00078a9b          	sext.w	s5,a5
   135b6:	e80681e3          	beqz	a3,13438 <_vfiprintf_r+0x172>
   135ba:	00178a9b          	addiw	s5,a5,1
   135be:	bdad                	j	13438 <_vfiprintf_r+0x172>
   135c0:	85ca                	mv	a1,s2
   135c2:	854e                	mv	a0,s3
   135c4:	75e020ef          	jal	ra,15d22 <__swsetup_r>
   135c8:	0e051ae3          	bnez	a0,13ebc <_vfiprintf_r+0xbf6>
   135cc:	01095783          	lhu	a5,16(s2)
   135d0:	4729                	li	a4,10
   135d2:	8be9                	andi	a5,a5,26
   135d4:	d6e791e3          	bne	a5,a4,13336 <_vfiprintf_r+0x70>
   135d8:	01291783          	lh	a5,18(s2)
   135dc:	d407cde3          	bltz	a5,13336 <_vfiprintf_r+0x70>
   135e0:	86da                	mv	a3,s6
   135e2:	866e                	mv	a2,s11
   135e4:	85ca                	mv	a1,s2
   135e6:	854e                	mv	a0,s3
   135e8:	11b000ef          	jal	ra,13f02 <__sbprintf>
   135ec:	e42a                	sd	a0,8(sp)
   135ee:	b7a1                	j	13536 <_vfiprintf_r+0x270>
   135f0:	010d6e13          	ori	t3,s10,16
   135f4:	000e0d1b          	sext.w	s10,t3
   135f8:	020d7793          	andi	a5,s10,32
   135fc:	008b0693          	addi	a3,s6,8
   13600:	cbb9                	beqz	a5,13656 <_vfiprintf_r+0x390>
   13602:	000b3a03          	ld	s4,0(s6)
   13606:	bffd7e13          	andi	t3,s10,-1025
   1360a:	000e0a9b          	sext.w	s5,t3
   1360e:	8b36                	mv	s6,a3
   13610:	4781                	li	a5,0
   13612:	04010ba3          	sb	zero,87(sp)
   13616:	56fd                	li	a3,-1
   13618:	08dc8563          	beq	s9,a3,136a2 <_vfiprintf_r+0x3dc>
   1361c:	f7fafe13          	andi	t3,s5,-129
   13620:	000e0d1b          	sext.w	s10,t3
   13624:	460a1c63          	bnez	s4,13a9c <_vfiprintf_r+0x7d6>
   13628:	2a0c9b63          	bnez	s9,138de <_vfiprintf_r+0x618>
   1362c:	fbad                	bnez	a5,1359e <_vfiprintf_r+0x2d8>
   1362e:	001afa13          	andi	s4,s5,1
   13632:	0dc10c13          	addi	s8,sp,220
   13636:	f60a08e3          	beqz	s4,135a6 <_vfiprintf_r+0x2e0>
   1363a:	03000793          	li	a5,48
   1363e:	0cf10da3          	sb	a5,219(sp)
   13642:	0db10c13          	addi	s8,sp,219
   13646:	b785                	j	135a6 <_vfiprintf_r+0x2e0>
   13648:	41ba04bb          	subw	s1,s4,s11
   1364c:	d20494e3          	bnez	s1,13374 <_vfiprintf_r+0xae>
   13650:	000a4783          	lbu	a5,0(s4)
   13654:	bba9                	j	133ae <_vfiprintf_r+0xe8>
   13656:	010d7793          	andi	a5,s10,16
   1365a:	f7c5                	bnez	a5,13602 <_vfiprintf_r+0x33c>
   1365c:	040d7793          	andi	a5,s10,64
   13660:	000b2a03          	lw	s4,0(s6)
   13664:	78078c63          	beqz	a5,13dfc <_vfiprintf_r+0xb36>
   13668:	1a42                	slli	s4,s4,0x30
   1366a:	030a5a13          	srli	s4,s4,0x30
   1366e:	bf61                	j	13606 <_vfiprintf_r+0x340>
   13670:	010d7793          	andi	a5,s10,16
   13674:	f00792e3          	bnez	a5,13578 <_vfiprintf_r+0x2b2>
   13678:	040d7793          	andi	a5,s10,64
   1367c:	76078863          	beqz	a5,13dec <_vfiprintf_r+0xb26>
   13680:	000b1a03          	lh	s4,0(s6)
   13684:	87d2                	mv	a5,s4
   13686:	ee07dee3          	bgez	a5,13582 <_vfiprintf_r+0x2bc>
   1368a:	02d00793          	li	a5,45
   1368e:	04f10ba3          	sb	a5,87(sp)
   13692:	8b36                	mv	s6,a3
   13694:	56fd                	li	a3,-1
   13696:	41400a33          	neg	s4,s4
   1369a:	8aea                	mv	s5,s10
   1369c:	4785                	li	a5,1
   1369e:	f6dc9fe3          	bne	s9,a3,1361c <_vfiprintf_r+0x356>
   136a2:	4685                	li	a3,1
   136a4:	40d78063          	beq	a5,a3,13aa4 <_vfiprintf_r+0x7de>
   136a8:	4689                	li	a3,2
   136aa:	24d78163          	beq	a5,a3,138ec <_vfiprintf_r+0x626>
   136ae:	0dc10c13          	addi	s8,sp,220
   136b2:	007a7793          	andi	a5,s4,7
   136b6:	03078793          	addi	a5,a5,48 # ffffffffffff8030 <__BSS_END__+0xfffffffffffd5400>
   136ba:	fefc0fa3          	sb	a5,-1(s8)
   136be:	003a5a13          	srli	s4,s4,0x3
   136c2:	86e2                	mv	a3,s8
   136c4:	1c7d                	addi	s8,s8,-1
   136c6:	fe0a16e3          	bnez	s4,136b2 <_vfiprintf_r+0x3ec>
   136ca:	001af613          	andi	a2,s5,1
   136ce:	22060e63          	beqz	a2,1390a <_vfiprintf_r+0x644>
   136d2:	03000613          	li	a2,48
   136d6:	22c78a63          	beq	a5,a2,1390a <_vfiprintf_r+0x644>
   136da:	16f9                	addi	a3,a3,-2
   136dc:	09fc                	addi	a5,sp,220
   136de:	fecc0fa3          	sb	a2,-1(s8)
   136e2:	40d78a3b          	subw	s4,a5,a3
   136e6:	8d56                	mv	s10,s5
   136e8:	8c36                	mv	s8,a3
   136ea:	bd75                	j	135a6 <_vfiprintf_r+0x2e0>
   136ec:	461020ef          	jal	ra,1634c <__sinit>
   136f0:	b109                	j	132f2 <_vfiprintf_r+0x2c>
   136f2:	000b3c03          	ld	s8,0(s6)
   136f6:	04010ba3          	sb	zero,87(sp)
   136fa:	0b21                	addi	s6,s6,8
   136fc:	6c0c0c63          	beqz	s8,13dd4 <_vfiprintf_r+0xb0e>
   13700:	57fd                	li	a5,-1
   13702:	ec3a                	sd	a4,24(sp)
   13704:	66fc8963          	beq	s9,a5,13d76 <_vfiprintf_r+0xab0>
   13708:	8666                	mv	a2,s9
   1370a:	4581                	li	a1,0
   1370c:	8562                	mv	a0,s8
   1370e:	0a6060ef          	jal	ra,197b4 <memchr>
   13712:	6762                	ld	a4,24(sp)
   13714:	78050263          	beqz	a0,13e98 <_vfiprintf_r+0xbd2>
   13718:	41850a3b          	subw	s4,a0,s8
   1371c:	4c81                	li	s9,0
   1371e:	b561                	j	135a6 <_vfiprintf_r+0x2e0>
   13720:	000b2783          	lw	a5,0(s6)
   13724:	04010ba3          	sb	zero,87(sp)
   13728:	0b21                	addi	s6,s6,8
   1372a:	06f10c23          	sb	a5,120(sp)
   1372e:	4a85                	li	s5,1
   13730:	4a05                	li	s4,1
   13732:	07810c13          	addi	s8,sp,120
   13736:	b301                	j	13436 <_vfiprintf_r+0x170>
   13738:	020d6e13          	ori	t3,s10,32
   1373c:	000dc683          	lbu	a3,0(s11)
   13740:	000e0d1b          	sext.w	s10,t3
   13744:	b159                	j	133ca <_vfiprintf_r+0x104>
   13746:	67a6                	ld	a5,72(sp)
   13748:	002d6e13          	ori	t3,s10,2
   1374c:	000b3a03          	ld	s4,0(s6)
   13750:	04f11c23          	sh	a5,88(sp)
   13754:	0000c797          	auipc	a5,0xc
   13758:	45c78793          	addi	a5,a5,1116 # 1fbb0 <tinytens+0x40>
   1375c:	e83e                	sd	a5,16(sp)
   1375e:	000e0a9b          	sext.w	s5,t3
   13762:	0b21                	addi	s6,s6,8
   13764:	4789                	li	a5,2
   13766:	b575                	j	13612 <_vfiprintf_r+0x34c>
   13768:	020d7793          	andi	a5,s10,32
   1376c:	000b3683          	ld	a3,0(s6)
   13770:	0b21                	addi	s6,s6,8
   13772:	e385                	bnez	a5,13792 <_vfiprintf_r+0x4cc>
   13774:	010d7793          	andi	a5,s10,16
   13778:	ef89                	bnez	a5,13792 <_vfiprintf_r+0x4cc>
   1377a:	040d7793          	andi	a5,s10,64
   1377e:	6c079c63          	bnez	a5,13e56 <_vfiprintf_r+0xb90>
   13782:	200d7e13          	andi	t3,s10,512
   13786:	67a2                	ld	a5,8(sp)
   13788:	740e0563          	beqz	t3,13ed2 <_vfiprintf_r+0xc0c>
   1378c:	00f68023          	sb	a5,0(a3) # 3700000 <__BSS_END__+0x36dd3d0>
   13790:	b6c9                	j	13352 <_vfiprintf_r+0x8c>
   13792:	67a2                	ld	a5,8(sp)
   13794:	e29c                	sd	a5,0(a3)
   13796:	be75                	j	13352 <_vfiprintf_r+0x8c>
   13798:	000dc683          	lbu	a3,0(s11)
   1379c:	06c00793          	li	a5,108
   137a0:	62f68163          	beq	a3,a5,13dc2 <_vfiprintf_r+0xafc>
   137a4:	010d6e13          	ori	t3,s10,16
   137a8:	000e0d1b          	sext.w	s10,t3
   137ac:	b939                	j	133ca <_vfiprintf_r+0x104>
   137ae:	000dc683          	lbu	a3,0(s11)
   137b2:	06800793          	li	a5,104
   137b6:	5ef68d63          	beq	a3,a5,13db0 <_vfiprintf_r+0xaea>
   137ba:	040d6e13          	ori	t3,s10,64
   137be:	000e0d1b          	sext.w	s10,t3
   137c2:	b121                	j	133ca <_vfiprintf_r+0x104>
   137c4:	010d6e13          	ori	t3,s10,16
   137c8:	000e0a9b          	sext.w	s5,t3
   137cc:	020af793          	andi	a5,s5,32
   137d0:	008b0693          	addi	a3,s6,8
   137d4:	e385                	bnez	a5,137f4 <_vfiprintf_r+0x52e>
   137d6:	010af793          	andi	a5,s5,16
   137da:	ef89                	bnez	a5,137f4 <_vfiprintf_r+0x52e>
   137dc:	040af793          	andi	a5,s5,64
   137e0:	000b2a03          	lw	s4,0(s6)
   137e4:	62078963          	beqz	a5,13e16 <_vfiprintf_r+0xb50>
   137e8:	1a42                	slli	s4,s4,0x30
   137ea:	030a5a13          	srli	s4,s4,0x30
   137ee:	8b36                	mv	s6,a3
   137f0:	4785                	li	a5,1
   137f2:	b505                	j	13612 <_vfiprintf_r+0x34c>
   137f4:	000b3a03          	ld	s4,0(s6)
   137f8:	4785                	li	a5,1
   137fa:	8b36                	mv	s6,a3
   137fc:	bd19                	j	13612 <_vfiprintf_r+0x34c>
   137fe:	080d6e13          	ori	t3,s10,128
   13802:	000dc683          	lbu	a3,0(s11)
   13806:	000e0d1b          	sext.w	s10,t3
   1380a:	b6c1                	j	133ca <_vfiprintf_r+0x104>
   1380c:	000dc603          	lbu	a2,0(s11)
   13810:	001d8793          	addi	a5,s11,1
   13814:	0006069b          	sext.w	a3,a2
   13818:	6cca8063          	beq	s5,a2,13ed8 <_vfiprintf_r+0xc12>
   1381c:	fd06061b          	addiw	a2,a2,-48
   13820:	8dbe                	mv	s11,a5
   13822:	4c81                	li	s9,0
   13824:	baca67e3          	bltu	s4,a2,133d2 <_vfiprintf_r+0x10c>
   13828:	000dc683          	lbu	a3,0(s11)
   1382c:	002c979b          	slliw	a5,s9,0x2
   13830:	0197883b          	addw	a6,a5,s9
   13834:	0018181b          	slliw	a6,a6,0x1
   13838:	00c80cbb          	addw	s9,a6,a2
   1383c:	fd06861b          	addiw	a2,a3,-48
   13840:	0d85                	addi	s11,s11,1
   13842:	feca73e3          	bgeu	s4,a2,13828 <_vfiprintf_r+0x562>
   13846:	b671                	j	133d2 <_vfiprintf_r+0x10c>
   13848:	000dc683          	lbu	a3,0(s11)
   1384c:	004d6e13          	ori	t3,s10,4
   13850:	000e0d1b          	sext.w	s10,t3
   13854:	be9d                	j	133ca <_vfiprintf_r+0x104>
   13856:	02b00793          	li	a5,43
   1385a:	000dc683          	lbu	a3,0(s11)
   1385e:	04f10ba3          	sb	a5,87(sp)
   13862:	b6a5                	j	133ca <_vfiprintf_r+0x104>
   13864:	000b2483          	lw	s1,0(s6)
   13868:	000dc683          	lbu	a3,0(s11)
   1386c:	0b21                	addi	s6,s6,8
   1386e:	b404dee3          	bgez	s1,133ca <_vfiprintf_r+0x104>
   13872:	409004bb          	negw	s1,s1
   13876:	bfd9                	j	1384c <_vfiprintf_r+0x586>
   13878:	854e                	mv	a0,s3
   1387a:	ec3a                	sd	a4,24(sp)
   1387c:	541050ef          	jal	ra,195bc <_localeconv_r>
   13880:	651c                	ld	a5,8(a0)
   13882:	853e                	mv	a0,a5
   13884:	fc3e                	sd	a5,56(sp)
   13886:	f16fe0ef          	jal	ra,11f9c <strlen>
   1388a:	87aa                	mv	a5,a0
   1388c:	854e                	mv	a0,s3
   1388e:	8bbe                	mv	s7,a5
   13890:	e0be                	sd	a5,64(sp)
   13892:	52b050ef          	jal	ra,195bc <_localeconv_r>
   13896:	691c                	ld	a5,16(a0)
   13898:	6762                	ld	a4,24(sp)
   1389a:	000dc683          	lbu	a3,0(s11)
   1389e:	f83e                	sd	a5,48(sp)
   138a0:	b20b85e3          	beqz	s7,133ca <_vfiprintf_r+0x104>
   138a4:	b20783e3          	beqz	a5,133ca <_vfiprintf_r+0x104>
   138a8:	0007c783          	lbu	a5,0(a5)
   138ac:	b0078fe3          	beqz	a5,133ca <_vfiprintf_r+0x104>
   138b0:	400d6e13          	ori	t3,s10,1024
   138b4:	000e0d1b          	sext.w	s10,t3
   138b8:	be09                	j	133ca <_vfiprintf_r+0x104>
   138ba:	001d6e13          	ori	t3,s10,1
   138be:	000dc683          	lbu	a3,0(s11)
   138c2:	000e0d1b          	sext.w	s10,t3
   138c6:	b611                	j	133ca <_vfiprintf_r+0x104>
   138c8:	05714783          	lbu	a5,87(sp)
   138cc:	000dc683          	lbu	a3,0(s11)
   138d0:	ae079de3          	bnez	a5,133ca <_vfiprintf_r+0x104>
   138d4:	02000793          	li	a5,32
   138d8:	04f10ba3          	sb	a5,87(sp)
   138dc:	b4fd                	j	133ca <_vfiprintf_r+0x104>
   138de:	4685                	li	a3,1
   138e0:	5cd78c63          	beq	a5,a3,13eb8 <_vfiprintf_r+0xbf2>
   138e4:	4689                	li	a3,2
   138e6:	8aea                	mv	s5,s10
   138e8:	dcd793e3          	bne	a5,a3,136ae <_vfiprintf_r+0x3e8>
   138ec:	0dc10c13          	addi	s8,sp,220
   138f0:	66c2                	ld	a3,16(sp)
   138f2:	00fa7793          	andi	a5,s4,15
   138f6:	1c7d                	addi	s8,s8,-1
   138f8:	97b6                	add	a5,a5,a3
   138fa:	0007c783          	lbu	a5,0(a5)
   138fe:	004a5a13          	srli	s4,s4,0x4
   13902:	00fc0023          	sb	a5,0(s8)
   13906:	fe0a15e3          	bnez	s4,138f0 <_vfiprintf_r+0x62a>
   1390a:	09fc                	addi	a5,sp,220
   1390c:	41878a3b          	subw	s4,a5,s8
   13910:	8d56                	mv	s10,s5
   13912:	b951                	j	135a6 <_vfiprintf_r+0x2e0>
   13914:	41548ebb          	subw	t4,s1,s5
   13918:	bbd057e3          	blez	t4,134c6 <_vfiprintf_r+0x200>
   1391c:	45c1                	li	a1,16
   1391e:	5bd5d363          	bge	a1,t4,13ec4 <_vfiprintf_r+0xbfe>
   13922:	0000cb97          	auipc	s7,0xc
   13926:	42eb8b93          	addi	s7,s7,1070 # 1fd50 <zeroes.4497>
   1392a:	4fc1                	li	t6,16
   1392c:	429d                	li	t0,7
   1392e:	a801                	j	1393e <_vfiprintf_r+0x678>
   13930:	0026039b          	addiw	t2,a2,2
   13934:	0741                	addi	a4,a4,16
   13936:	862e                	mv	a2,a1
   13938:	3ec1                	addiw	t4,t4,-16
   1393a:	05dfd263          	bge	t6,t4,1397e <_vfiprintf_r+0x6b8>
   1393e:	0016059b          	addiw	a1,a2,1
   13942:	07c1                	addi	a5,a5,16
   13944:	01773023          	sd	s7,0(a4)
   13948:	01f73423          	sd	t6,8(a4)
   1394c:	f8be                	sd	a5,112(sp)
   1394e:	d4ae                	sw	a1,104(sp)
   13950:	feb2d0e3          	bge	t0,a1,13930 <_vfiprintf_r+0x66a>
   13954:	0e078f63          	beqz	a5,13a52 <_vfiprintf_r+0x78c>
   13958:	1090                	addi	a2,sp,96
   1395a:	85ca                	mv	a1,s2
   1395c:	854e                	mv	a0,s3
   1395e:	ec76                	sd	t4,24(sp)
   13960:	8b5ff0ef          	jal	ra,13214 <__sprint_r.part.0>
   13964:	bc0513e3          	bnez	a0,1352a <_vfiprintf_r+0x264>
   13968:	6ee2                	ld	t4,24(sp)
   1396a:	5626                	lw	a2,104(sp)
   1396c:	4fc1                	li	t6,16
   1396e:	3ec1                	addiw	t4,t4,-16
   13970:	77c6                	ld	a5,112(sp)
   13972:	8722                	mv	a4,s0
   13974:	0016039b          	addiw	t2,a2,1
   13978:	429d                	li	t0,7
   1397a:	fddfc2e3          	blt	t6,t4,1393e <_vfiprintf_r+0x678>
   1397e:	01070593          	addi	a1,a4,16
   13982:	97f6                	add	a5,a5,t4
   13984:	01773023          	sd	s7,0(a4)
   13988:	01d73423          	sd	t4,8(a4)
   1398c:	f8be                	sd	a5,112(sp)
   1398e:	d49e                	sw	t2,104(sp)
   13990:	471d                	li	a4,7
   13992:	34775863          	bge	a4,t2,13ce2 <_vfiprintf_r+0xa1c>
   13996:	48078f63          	beqz	a5,13e34 <_vfiprintf_r+0xb6e>
   1399a:	1090                	addi	a2,sp,96
   1399c:	85ca                	mv	a1,s2
   1399e:	854e                	mv	a0,s3
   139a0:	875ff0ef          	jal	ra,13214 <__sprint_r.part.0>
   139a4:	b80513e3          	bnez	a0,1352a <_vfiprintf_r+0x264>
   139a8:	5626                	lw	a2,104(sp)
   139aa:	414c8cbb          	subw	s9,s9,s4
   139ae:	77c6                	ld	a5,112(sp)
   139b0:	1994                	addi	a3,sp,240
   139b2:	0016051b          	addiw	a0,a2,1
   139b6:	8722                	mv	a4,s0
   139b8:	b1905be3          	blez	s9,134ce <_vfiprintf_r+0x208>
   139bc:	45c1                	li	a1,16
   139be:	4795d563          	bge	a1,s9,13e28 <_vfiprintf_r+0xb62>
   139c2:	0000cb97          	auipc	s7,0xc
   139c6:	38eb8b93          	addi	s7,s7,910 # 1fd50 <zeroes.4497>
   139ca:	4ec1                	li	t4,16
   139cc:	4f9d                	li	t6,7
   139ce:	a801                	j	139de <_vfiprintf_r+0x718>
   139d0:	0026051b          	addiw	a0,a2,2
   139d4:	0741                	addi	a4,a4,16
   139d6:	862e                	mv	a2,a1
   139d8:	3cc1                	addiw	s9,s9,-16
   139da:	039edf63          	bge	t4,s9,13a18 <_vfiprintf_r+0x752>
   139de:	0016059b          	addiw	a1,a2,1
   139e2:	07c1                	addi	a5,a5,16
   139e4:	01773023          	sd	s7,0(a4)
   139e8:	01d73423          	sd	t4,8(a4)
   139ec:	f8be                	sd	a5,112(sp)
   139ee:	d4ae                	sw	a1,104(sp)
   139f0:	febfd0e3          	bge	t6,a1,139d0 <_vfiprintf_r+0x70a>
   139f4:	c3b9                	beqz	a5,13a3a <_vfiprintf_r+0x774>
   139f6:	1090                	addi	a2,sp,96
   139f8:	85ca                	mv	a1,s2
   139fa:	854e                	mv	a0,s3
   139fc:	819ff0ef          	jal	ra,13214 <__sprint_r.part.0>
   13a00:	b20515e3          	bnez	a0,1352a <_vfiprintf_r+0x264>
   13a04:	5626                	lw	a2,104(sp)
   13a06:	4ec1                	li	t4,16
   13a08:	3cc1                	addiw	s9,s9,-16
   13a0a:	77c6                	ld	a5,112(sp)
   13a0c:	8722                	mv	a4,s0
   13a0e:	0016051b          	addiw	a0,a2,1
   13a12:	4f9d                	li	t6,7
   13a14:	fd9ec5e3          	blt	t4,s9,139de <_vfiprintf_r+0x718>
   13a18:	01070613          	addi	a2,a4,16
   13a1c:	97e6                	add	a5,a5,s9
   13a1e:	01773023          	sd	s7,0(a4)
   13a22:	01973423          	sd	s9,8(a4)
   13a26:	f8be                	sd	a5,112(sp)
   13a28:	d4aa                	sw	a0,104(sp)
   13a2a:	471d                	li	a4,7
   13a2c:	1ca74a63          	blt	a4,a0,13c00 <_vfiprintf_r+0x93a>
   13a30:	2505                	addiw	a0,a0,1
   13a32:	01060693          	addi	a3,a2,16
   13a36:	8732                	mv	a4,a2
   13a38:	bc59                	j	134ce <_vfiprintf_r+0x208>
   13a3a:	4505                	li	a0,1
   13a3c:	4601                	li	a2,0
   13a3e:	8722                	mv	a4,s0
   13a40:	bf61                	j	139d8 <_vfiprintf_r+0x712>
   13a42:	1090                	addi	a2,sp,96
   13a44:	85ca                	mv	a1,s2
   13a46:	854e                	mv	a0,s3
   13a48:	fccff0ef          	jal	ra,13214 <__sprint_r.part.0>
   13a4c:	ac0506e3          	beqz	a0,13518 <_vfiprintf_r+0x252>
   13a50:	bce9                	j	1352a <_vfiprintf_r+0x264>
   13a52:	4385                	li	t2,1
   13a54:	4601                	li	a2,0
   13a56:	8722                	mv	a4,s0
   13a58:	b5c5                	j	13938 <_vfiprintf_r+0x672>
   13a5a:	1c078663          	beqz	a5,13c26 <_vfiprintf_r+0x960>
   13a5e:	1090                	addi	a2,sp,96
   13a60:	85ca                	mv	a1,s2
   13a62:	854e                	mv	a0,s3
   13a64:	f07e                	sd	t6,32(sp)
   13a66:	ec1e                	sd	t2,24(sp)
   13a68:	facff0ef          	jal	ra,13214 <__sprint_r.part.0>
   13a6c:	aa051fe3          	bnez	a0,1352a <_vfiprintf_r+0x264>
   13a70:	5626                	lw	a2,104(sp)
   13a72:	77c6                	ld	a5,112(sp)
   13a74:	7f82                	ld	t6,32(sp)
   13a76:	63e2                	ld	t2,24(sp)
   13a78:	1994                	addi	a3,sp,240
   13a7a:	0016051b          	addiw	a0,a2,1
   13a7e:	8722                	mv	a4,s0
   13a80:	b419                	j	13486 <_vfiprintf_r+0x1c0>
   13a82:	08bc                	addi	a5,sp,88
   13a84:	f1be                	sd	a5,224(sp)
   13a86:	4789                	li	a5,2
   13a88:	f5be                	sd	a5,232(sp)
   13a8a:	4505                	li	a0,1
   13a8c:	1994                	addi	a3,sp,240
   13a8e:	862a                	mv	a2,a0
   13a90:	8736                	mv	a4,a3
   13a92:	0016051b          	addiw	a0,a2,1
   13a96:	01070693          	addi	a3,a4,16
   13a9a:	b415                	j	134be <_vfiprintf_r+0x1f8>
   13a9c:	4685                	li	a3,1
   13a9e:	8aea                	mv	s5,s10
   13aa0:	c0d794e3          	bne	a5,a3,136a8 <_vfiprintf_r+0x3e2>
   13aa4:	47a5                	li	a5,9
   13aa6:	1d47e263          	bltu	a5,s4,13c6a <_vfiprintf_r+0x9a4>
   13aaa:	030a0a1b          	addiw	s4,s4,48
   13aae:	0d410da3          	sb	s4,219(sp)
   13ab2:	8d56                	mv	s10,s5
   13ab4:	4a05                	li	s4,1
   13ab6:	0db10c13          	addi	s8,sp,219
   13aba:	b4f5                	j	135a6 <_vfiprintf_r+0x2e0>
   13abc:	4ec1                	li	t4,16
   13abe:	3f7ed163          	bge	t4,s7,13ea0 <_vfiprintf_r+0xbda>
   13ac2:	0000ce97          	auipc	t4,0xc
   13ac6:	27ee8e93          	addi	t4,t4,638 # 1fd40 <blanks.4496>
   13aca:	4f41                	li	t5,16
   13acc:	429d                	li	t0,7
   13ace:	a811                	j	13ae2 <_vfiprintf_r+0x81c>
   13ad0:	0026059b          	addiw	a1,a2,2
   13ad4:	0741                	addi	a4,a4,16
   13ad6:	862a                	mv	a2,a0
   13ad8:	3bc1                	addiw	s7,s7,-16
   13ada:	057f5763          	bge	t5,s7,13b28 <_vfiprintf_r+0x862>
   13ade:	0016059b          	addiw	a1,a2,1
   13ae2:	07c1                	addi	a5,a5,16
   13ae4:	01d73023          	sd	t4,0(a4)
   13ae8:	01e73423          	sd	t5,8(a4)
   13aec:	f8be                	sd	a5,112(sp)
   13aee:	0005851b          	sext.w	a0,a1
   13af2:	d4ae                	sw	a1,104(sp)
   13af4:	fca2dee3          	bge	t0,a0,13ad0 <_vfiprintf_r+0x80a>
   13af8:	c7b9                	beqz	a5,13b46 <_vfiprintf_r+0x880>
   13afa:	1090                	addi	a2,sp,96
   13afc:	85ca                	mv	a1,s2
   13afe:	854e                	mv	a0,s3
   13b00:	f476                	sd	t4,40(sp)
   13b02:	f07e                	sd	t6,32(sp)
   13b04:	ec1e                	sd	t2,24(sp)
   13b06:	f0eff0ef          	jal	ra,13214 <__sprint_r.part.0>
   13b0a:	a20510e3          	bnez	a0,1352a <_vfiprintf_r+0x264>
   13b0e:	5626                	lw	a2,104(sp)
   13b10:	4f41                	li	t5,16
   13b12:	3bc1                	addiw	s7,s7,-16
   13b14:	77c6                	ld	a5,112(sp)
   13b16:	7ea2                	ld	t4,40(sp)
   13b18:	7f82                	ld	t6,32(sp)
   13b1a:	63e2                	ld	t2,24(sp)
   13b1c:	8722                	mv	a4,s0
   13b1e:	0016059b          	addiw	a1,a2,1
   13b22:	429d                	li	t0,7
   13b24:	fb7f4de3          	blt	t5,s7,13ade <_vfiprintf_r+0x818>
   13b28:	97de                	add	a5,a5,s7
   13b2a:	01d73023          	sd	t4,0(a4)
   13b2e:	01773423          	sd	s7,8(a4)
   13b32:	f8be                	sd	a5,112(sp)
   13b34:	d4ae                	sw	a1,104(sp)
   13b36:	469d                	li	a3,7
   13b38:	10b6c563          	blt	a3,a1,13c42 <_vfiprintf_r+0x97c>
   13b3c:	0741                	addi	a4,a4,16
   13b3e:	0015851b          	addiw	a0,a1,1
   13b42:	862e                	mv	a2,a1
   13b44:	ba29                	j	1345e <_vfiprintf_r+0x198>
   13b46:	4601                	li	a2,0
   13b48:	4585                	li	a1,1
   13b4a:	8722                	mv	a4,s0
   13b4c:	b771                	j	13ad8 <_vfiprintf_r+0x812>
   13b4e:	d482                	sw	zero,104(sp)
   13b50:	004d7e13          	andi	t3,s10,4
   13b54:	080e0e63          	beqz	t3,13bf0 <_vfiprintf_r+0x92a>
   13b58:	41548a3b          	subw	s4,s1,s5
   13b5c:	09405a63          	blez	s4,13bf0 <_vfiprintf_r+0x92a>
   13b60:	86a2                	mv	a3,s0
   13b62:	4741                	li	a4,16
   13b64:	5626                	lw	a2,104(sp)
   13b66:	35475263          	bge	a4,s4,13eaa <_vfiprintf_r+0xbe4>
   13b6a:	0000ce97          	auipc	t4,0xc
   13b6e:	1d6e8e93          	addi	t4,t4,470 # 1fd40 <blanks.4496>
   13b72:	4cc1                	li	s9,16
   13b74:	4c1d                	li	s8,7
